
main.elf:     file format elf32-littlearm


Disassembly of section .text:

80000000 <_start>:
80000000:	e59ff144 	ldr	pc, [pc, #324]	; 8000014c <FIQ_Handler+0x8>
80000004:	e59ff144 	ldr	pc, [pc, #324]	; 80000150 <FIQ_Handler+0xc>
80000008:	e59ff144 	ldr	pc, [pc, #324]	; 80000154 <FIQ_Handler+0x10>
8000000c:	e59ff144 	ldr	pc, [pc, #324]	; 80000158 <FIQ_Handler+0x14>
80000010:	e59ff144 	ldr	pc, [pc, #324]	; 8000015c <FIQ_Handler+0x18>
80000014:	e59ff144 	ldr	pc, [pc, #324]	; 80000160 <FIQ_Handler+0x1c>
80000018:	e59ff144 	ldr	pc, [pc, #324]	; 80000164 <FIQ_Handler+0x20>
8000001c:	e59ff144 	ldr	pc, [pc, #324]	; 80000168 <FIQ_Handler+0x24>

80000020 <Reset_Handler>:
80000020:	f10c0080 	cpsid	i
80000024:	ee110f10 	mrc	15, 0, r0, cr1, cr0, {0}
80000028:	e3c00a01 	bic	r0, r0, #4096	; 0x1000
8000002c:	e3c00004 	bic	r0, r0, #4
80000030:	e3c00002 	bic	r0, r0, #2
80000034:	e3c00b02 	bic	r0, r0, #2048	; 0x800
80000038:	e3c00001 	bic	r0, r0, #1
8000003c:	ee010f10 	mcr	15, 0, r0, cr1, cr0, {0}
80000040:	e3a00102 	mov	r0, #-2147483648	; 0x80000000
80000044:	f57ff04f 	dsb	sy
80000048:	f57ff06f 	isb	sy
8000004c:	ee0c0f10 	mcr	15, 0, r0, cr12, cr0, {0}
80000050:	f57ff04f 	dsb	sy
80000054:	f57ff06f 	isb	sy
80000058:	e10f0000 	mrs	r0, CPSR
8000005c:	e3c0001f 	bic	r0, r0, #31
80000060:	e3800012 	orr	r0, r0, #18
80000064:	e129f000 	msr	CPSR_fc, r0
80000068:	e3a0d209 	mov	sp, #-1879048192	; 0x90000000
8000006c:	e10f0000 	mrs	r0, CPSR
80000070:	e3c0001f 	bic	r0, r0, #31
80000074:	e380001f 	orr	r0, r0, #31
80000078:	e129f000 	msr	CPSR_fc, r0
8000007c:	e3a0d48e 	mov	sp, #-1912602624	; 0x8e000000
80000080:	e10f0000 	mrs	r0, CPSR
80000084:	e3c0001f 	bic	r0, r0, #31
80000088:	e3800013 	orr	r0, r0, #19
8000008c:	e129f000 	msr	CPSR_fc, r0
80000090:	e3a0d323 	mov	sp, #-1946157056	; 0x8c000000
80000094:	f1080080 	cpsie	i
80000098:	e10f0000 	mrs	r0, CPSR
8000009c:	e3c00080 	bic	r0, r0, #128	; 0x80
800000a0:	e121f000 	msr	CPSR_c, r0
800000a4:	e59f00c0 	ldr	r0, [pc, #192]	; 8000016c <FIQ_Handler+0x28>
800000a8:	e59f10c0 	ldr	r1, [pc, #192]	; 80000170 <FIQ_Handler+0x2c>
800000ac:	e3a02000 	mov	r2, #0

800000b0 <loop_clear_bss>:
800000b0:	e1500001 	cmp	r0, r1
800000b4:	0a000002 	beq	800000c4 <end_clear_bss>
800000b8:	e5802000 	str	r2, [r0]
800000bc:	e2800004 	add	r0, r0, #4
800000c0:	eafffffa 	b	800000b0 <loop_clear_bss>

800000c4 <end_clear_bss>:
800000c4:	ea000fbd 	b	80003fc0 <__main_from_arm>

800000c8 <Undefined_Handler>:
800000c8:	e59f0080 	ldr	r0, [pc, #128]	; 80000150 <FIQ_Handler+0xc>
800000cc:	e12fff10 	bx	r0

800000d0 <SVC_Handler>:
800000d0:	e59f007c 	ldr	r0, [pc, #124]	; 80000154 <FIQ_Handler+0x10>
800000d4:	e12fff10 	bx	r0

800000d8 <PrefAbort_Handler>:
800000d8:	e59f0078 	ldr	r0, [pc, #120]	; 80000158 <FIQ_Handler+0x14>
800000dc:	e12fff10 	bx	r0

800000e0 <DataAbort_Handler>:
800000e0:	e59f0074 	ldr	r0, [pc, #116]	; 8000015c <FIQ_Handler+0x18>
800000e4:	e12fff10 	bx	r0

800000e8 <NotUsed_Handler>:
800000e8:	e59f0070 	ldr	r0, [pc, #112]	; 80000160 <FIQ_Handler+0x1c>
800000ec:	e12fff10 	bx	r0

800000f0 <IRQ_Handler>:
800000f0:	e52de004 	push	{lr}		; (str lr, [sp, #-4]!)
800000f4:	e92d100f 	push	{r0, r1, r2, r3, ip}
800000f8:	e14f0000 	mrs	r0, SPSR
800000fc:	e52d0004 	push	{r0}		; (str r0, [sp, #-4]!)
80000100:	e3a0160a 	mov	r1, #10485760	; 0xa00000
80000104:	e2811a02 	add	r1, r1, #8192	; 0x2000
80000108:	e591000c 	ldr	r0, [r1, #12]
8000010c:	e92d0003 	push	{r0, r1}
80000110:	f1020013 	cps	#19
80000114:	e52de004 	push	{lr}		; (str lr, [sp, #-4]!)
80000118:	e59f2054 	ldr	r2, [pc, #84]	; 80000174 <FIQ_Handler+0x30>
8000011c:	e12fff32 	blx	r2
80000120:	e49de004 	pop	{lr}		; (ldr lr, [sp], #4)
80000124:	f1020012 	cps	#18
80000128:	e8bd0003 	pop	{r0, r1}
8000012c:	e5810010 	str	r0, [r1, #16]
80000130:	e49d0004 	pop	{r0}		; (ldr r0, [sp], #4)
80000134:	e16ff000 	msr	SPSR_fsxc, r0
80000138:	e8bd100f 	pop	{r0, r1, r2, r3, ip}
8000013c:	e49de004 	pop	{lr}		; (ldr lr, [sp], #4)
80000140:	e25ef004 	subs	pc, lr, #4

80000144 <FIQ_Handler>:
80000144:	e59f001c 	ldr	r0, [pc, #28]	; 80000168 <FIQ_Handler+0x24>
80000148:	e12fff10 	bx	r0
8000014c:	80000020 	andhi	r0, r0, r0, lsr #32
80000150:	800000c8 	andhi	r0, r0, r8, asr #1
80000154:	800000d0 	ldrdhi	r0, [r0], -r0	; <UNPREDICTABLE>
80000158:	800000d8 	ldrdhi	r0, [r0], -r8
8000015c:	800000e0 	andhi	r0, r0, r0, ror #1
80000160:	800000e8 	andhi	r0, r0, r8, ror #1
80000164:	800000f0 	strdhi	r0, [r0], -r0	; <UNPREDICTABLE>
80000168:	80000144 	andhi	r0, r0, r4, asr #2
8000016c:	80004134 	andhi	r4, r0, r4, lsr r1
80000170:	80004e3c 	andhi	r4, r0, ip, lsr lr
80000174:	80000fc1 	andhi	r0, r0, r1, asr #31
	...

80000180 <__umodsi3>:
80000180:	e2512001 	subs	r2, r1, #1
80000184:	3a000062 	bcc	80000314 <Ldiv0>
80000188:	11500001 	cmpne	r0, r1
8000018c:	03a00000 	moveq	r0, #0
80000190:	81110002 	tsthi	r1, r2
80000194:	00000002 	andeq	r0, r0, r2
80000198:	91a0f00e 	movls	pc, lr
8000019c:	e3a02000 	mov	r2, #0
800001a0:	e3510201 	cmp	r1, #268435456	; 0x10000000
800001a4:	31510000 	cmpcc	r1, r0
800001a8:	31a01201 	lslcc	r1, r1, #4
800001ac:	32822004 	addcc	r2, r2, #4
800001b0:	3afffffa 	bcc	800001a0 <__umodsi3+0x20>
800001b4:	e3510102 	cmp	r1, #-2147483648	; 0x80000000
800001b8:	31510000 	cmpcc	r1, r0
800001bc:	31a01081 	lslcc	r1, r1, #1
800001c0:	32822001 	addcc	r2, r2, #1
800001c4:	3afffffa 	bcc	800001b4 <__umodsi3+0x34>
800001c8:	e2522003 	subs	r2, r2, #3
800001cc:	ba00000e 	blt	8000020c <__umodsi3+0x8c>
800001d0:	e1500001 	cmp	r0, r1
800001d4:	20400001 	subcs	r0, r0, r1
800001d8:	e15000a1 	cmp	r0, r1, lsr #1
800001dc:	204000a1 	subcs	r0, r0, r1, lsr #1
800001e0:	e1500121 	cmp	r0, r1, lsr #2
800001e4:	20400121 	subcs	r0, r0, r1, lsr #2
800001e8:	e15001a1 	cmp	r0, r1, lsr #3
800001ec:	204001a1 	subcs	r0, r0, r1, lsr #3
800001f0:	e3500001 	cmp	r0, #1
800001f4:	e1a01221 	lsr	r1, r1, #4
800001f8:	a2522004 	subsge	r2, r2, #4
800001fc:	aafffff3 	bge	800001d0 <__umodsi3+0x50>
80000200:	e3120003 	tst	r2, #3
80000204:	13300000 	teqne	r0, #0
80000208:	0a00000a 	beq	80000238 <__umodsi3+0xb8>
8000020c:	e3720002 	cmn	r2, #2
80000210:	ba000006 	blt	80000230 <__umodsi3+0xb0>
80000214:	0a000002 	beq	80000224 <__umodsi3+0xa4>
80000218:	e1500001 	cmp	r0, r1
8000021c:	20400001 	subcs	r0, r0, r1
80000220:	e1a010a1 	lsr	r1, r1, #1
80000224:	e1500001 	cmp	r0, r1
80000228:	20400001 	subcs	r0, r0, r1
8000022c:	e1a010a1 	lsr	r1, r1, #1
80000230:	e1500001 	cmp	r0, r1
80000234:	20400001 	subcs	r0, r0, r1
80000238:	e1a0f00e 	mov	pc, lr
8000023c:	90909090 	umullsls	r9, r0, r0, r0

80000240 <__modsi3>:
80000240:	e3510000 	cmp	r1, #0
80000244:	0a000032 	beq	80000314 <Ldiv0>
80000248:	42611000 	rsbmi	r1, r1, #0
8000024c:	e1b0c000 	movs	ip, r0
80000250:	42600000 	rsbmi	r0, r0, #0
80000254:	e2512001 	subs	r2, r1, #1
80000258:	11500001 	cmpne	r0, r1
8000025c:	03a00000 	moveq	r0, #0
80000260:	81110002 	tsthi	r1, r2
80000264:	00000002 	andeq	r0, r0, r2
80000268:	9a000026 	bls	80000308 <__modsi3+0xc8>
8000026c:	e3a02000 	mov	r2, #0
80000270:	e3510201 	cmp	r1, #268435456	; 0x10000000
80000274:	31510000 	cmpcc	r1, r0
80000278:	31a01201 	lslcc	r1, r1, #4
8000027c:	32822004 	addcc	r2, r2, #4
80000280:	3afffffa 	bcc	80000270 <__modsi3+0x30>
80000284:	e3510102 	cmp	r1, #-2147483648	; 0x80000000
80000288:	31510000 	cmpcc	r1, r0
8000028c:	31a01081 	lslcc	r1, r1, #1
80000290:	32822001 	addcc	r2, r2, #1
80000294:	3afffffa 	bcc	80000284 <__modsi3+0x44>
80000298:	e2522003 	subs	r2, r2, #3
8000029c:	ba00000e 	blt	800002dc <__modsi3+0x9c>
800002a0:	e1500001 	cmp	r0, r1
800002a4:	20400001 	subcs	r0, r0, r1
800002a8:	e15000a1 	cmp	r0, r1, lsr #1
800002ac:	204000a1 	subcs	r0, r0, r1, lsr #1
800002b0:	e1500121 	cmp	r0, r1, lsr #2
800002b4:	20400121 	subcs	r0, r0, r1, lsr #2
800002b8:	e15001a1 	cmp	r0, r1, lsr #3
800002bc:	204001a1 	subcs	r0, r0, r1, lsr #3
800002c0:	e3500001 	cmp	r0, #1
800002c4:	e1a01221 	lsr	r1, r1, #4
800002c8:	a2522004 	subsge	r2, r2, #4
800002cc:	aafffff3 	bge	800002a0 <__modsi3+0x60>
800002d0:	e3120003 	tst	r2, #3
800002d4:	13300000 	teqne	r0, #0
800002d8:	0a00000a 	beq	80000308 <__modsi3+0xc8>
800002dc:	e3720002 	cmn	r2, #2
800002e0:	ba000006 	blt	80000300 <__modsi3+0xc0>
800002e4:	0a000002 	beq	800002f4 <__modsi3+0xb4>
800002e8:	e1500001 	cmp	r0, r1
800002ec:	20400001 	subcs	r0, r0, r1
800002f0:	e1a010a1 	lsr	r1, r1, #1
800002f4:	e1500001 	cmp	r0, r1
800002f8:	20400001 	subcs	r0, r0, r1
800002fc:	e1a010a1 	lsr	r1, r1, #1
80000300:	e1500001 	cmp	r0, r1
80000304:	20400001 	subcs	r0, r0, r1
80000308:	e35c0000 	cmp	ip, #0
8000030c:	42600000 	rsbmi	r0, r0, #0
80000310:	e1a0f00e 	mov	pc, lr

80000314 <Ldiv0>:
80000314:	e52de004 	push	{lr}		; (str lr, [sp, #-4]!)
80000318:	e3a00000 	mov	r0, #0
8000031c:	e49df004 	pop	{pc}		; (ldr pc, [sp], #4)

80000320 <main>:
80000320:	b580      	push	{r7, lr}
80000322:	b082      	sub	sp, #8
80000324:	af00      	add	r7, sp, #0
80000326:	f000 fdbf 	bl	80000ea8 <int_init>
8000032a:	f242 0304 	movw	r3, #8196	; 0x2004
8000032e:	f2c0 03a0 	movt	r3, #160	; 0xa0
80000332:	22ff      	movs	r2, #255	; 0xff
80000334:	601a      	str	r2, [r3, #0]
80000336:	f44f 5380 	mov.w	r3, #4096	; 0x1000
8000033a:	f2c0 03a0 	movt	r3, #160	; 0xa0
8000033e:	2201      	movs	r2, #1
80000340:	601a      	str	r2, [r3, #0]
80000342:	f44f 5300 	mov.w	r3, #8192	; 0x2000
80000346:	f2c0 03a0 	movt	r3, #160	; 0xa0
8000034a:	2201      	movs	r2, #1
8000034c:	601a      	str	r2, [r3, #0]
8000034e:	f000 f85f 	bl	80000410 <iimx6ul_clk_init>
80000352:	f000 f825 	bl	800003a0 <clk_enable>
80000356:	f000 f9fd 	bl	80000754 <delay_init>
8000035a:	f000 ffcb 	bl	800012f4 <uart_init>
8000035e:	f24c 60c0 	movw	r0, #50880	; 0xc6c0
80000362:	f2c0 002d 	movt	r0, #45	; 0x2d
80000366:	f000 faa5 	bl	800008b4 <gpt1_init>
8000036a:	f44f 5380 	mov.w	r3, #4096	; 0x1000
8000036e:	f2c0 03a0 	movt	r3, #160	; 0xa0
80000372:	607b      	str	r3, [r7, #4]
80000374:	687b      	ldr	r3, [r7, #4]
80000376:	f503 7384 	add.w	r3, r3, #264	; 0x108
8000037a:	603b      	str	r3, [r7, #0]
8000037c:	683b      	ldr	r3, [r7, #0]
8000037e:	681b      	ldr	r3, [r3, #0]
80000380:	f443 0200 	orr.w	r2, r3, #8388608	; 0x800000
80000384:	683b      	ldr	r3, [r7, #0]
80000386:	601a      	str	r2, [r3, #0]
80000388:	f44f 707a 	mov.w	r0, #1000	; 0x3e8
8000038c:	f000 fa55 	bl	8000083a <delayms>
80000390:	4b02      	ldr	r3, [pc, #8]	; (8000039c <main+0x7c>)
80000392:	447b      	add	r3, pc
80000394:	4618      	mov	r0, r3
80000396:	f001 fb91 	bl	80001abc <printf>
8000039a:	e7f5      	b.n	80000388 <main+0x68>
8000039c:	00003c32 	andeq	r3, r0, r2, lsr ip

800003a0 <clk_enable>:
800003a0:	b480      	push	{r7}
800003a2:	af00      	add	r7, sp, #0
800003a4:	f244 0368 	movw	r3, #16488	; 0x4068
800003a8:	f2c0 230c 	movt	r3, #524	; 0x20c
800003ac:	f04f 32ff 	mov.w	r2, #4294967295	; 0xffffffff
800003b0:	601a      	str	r2, [r3, #0]
800003b2:	f244 036c 	movw	r3, #16492	; 0x406c
800003b6:	f2c0 230c 	movt	r3, #524	; 0x20c
800003ba:	f04f 32ff 	mov.w	r2, #4294967295	; 0xffffffff
800003be:	601a      	str	r2, [r3, #0]
800003c0:	f244 0370 	movw	r3, #16496	; 0x4070
800003c4:	f2c0 230c 	movt	r3, #524	; 0x20c
800003c8:	f04f 32ff 	mov.w	r2, #4294967295	; 0xffffffff
800003cc:	601a      	str	r2, [r3, #0]
800003ce:	f244 0374 	movw	r3, #16500	; 0x4074
800003d2:	f2c0 230c 	movt	r3, #524	; 0x20c
800003d6:	f04f 32ff 	mov.w	r2, #4294967295	; 0xffffffff
800003da:	601a      	str	r2, [r3, #0]
800003dc:	f244 0378 	movw	r3, #16504	; 0x4078
800003e0:	f2c0 230c 	movt	r3, #524	; 0x20c
800003e4:	f04f 32ff 	mov.w	r2, #4294967295	; 0xffffffff
800003e8:	601a      	str	r2, [r3, #0]
800003ea:	f244 037c 	movw	r3, #16508	; 0x407c
800003ee:	f2c0 230c 	movt	r3, #524	; 0x20c
800003f2:	f04f 32ff 	mov.w	r2, #4294967295	; 0xffffffff
800003f6:	601a      	str	r2, [r3, #0]
800003f8:	f44f 4381 	mov.w	r3, #16512	; 0x4080
800003fc:	f2c0 230c 	movt	r3, #524	; 0x20c
80000400:	f04f 32ff 	mov.w	r2, #4294967295	; 0xffffffff
80000404:	601a      	str	r2, [r3, #0]
80000406:	bf00      	nop
80000408:	46bd      	mov	sp, r7
8000040a:	f85d 7b04 	ldr.w	r7, [sp], #4
8000040e:	4770      	bx	lr

80000410 <iimx6ul_clk_init>:
80000410:	b480      	push	{r7}
80000412:	b083      	sub	sp, #12
80000414:	af00      	add	r7, sp, #0
80000416:	2300      	movs	r3, #0
80000418:	607b      	str	r3, [r7, #4]
8000041a:	f44f 4380 	mov.w	r3, #16384	; 0x4000
8000041e:	f2c0 230c 	movt	r3, #524	; 0x20c
80000422:	68db      	ldr	r3, [r3, #12]
80000424:	f003 0304 	and.w	r3, r3, #4
80000428:	2b00      	cmp	r3, #0
8000042a:	d117      	bne.n	8000045c <iimx6ul_clk_init+0x4c>
8000042c:	f44f 4380 	mov.w	r3, #16384	; 0x4000
80000430:	f2c0 230c 	movt	r3, #524	; 0x20c
80000434:	68da      	ldr	r2, [r3, #12]
80000436:	f44f 4380 	mov.w	r3, #16384	; 0x4000
8000043a:	f2c0 230c 	movt	r3, #524	; 0x20c
8000043e:	f422 7280 	bic.w	r2, r2, #256	; 0x100
80000442:	60da      	str	r2, [r3, #12]
80000444:	f44f 4380 	mov.w	r3, #16384	; 0x4000
80000448:	f2c0 230c 	movt	r3, #524	; 0x20c
8000044c:	68da      	ldr	r2, [r3, #12]
8000044e:	f44f 4380 	mov.w	r3, #16384	; 0x4000
80000452:	f2c0 230c 	movt	r3, #524	; 0x20c
80000456:	f042 0204 	orr.w	r2, r2, #4
8000045a:	60da      	str	r2, [r3, #12]
8000045c:	f44f 4300 	mov.w	r3, #32768	; 0x8000
80000460:	f2c0 230c 	movt	r3, #524	; 0x20c
80000464:	f242 0258 	movw	r2, #8280	; 0x2058
80000468:	601a      	str	r2, [r3, #0]
8000046a:	f44f 4380 	mov.w	r3, #16384	; 0x4000
8000046e:	f2c0 230c 	movt	r3, #524	; 0x20c
80000472:	68da      	ldr	r2, [r3, #12]
80000474:	f44f 4380 	mov.w	r3, #16384	; 0x4000
80000478:	f2c0 230c 	movt	r3, #524	; 0x20c
8000047c:	f022 0204 	bic.w	r2, r2, #4
80000480:	60da      	str	r2, [r3, #12]
80000482:	f44f 4380 	mov.w	r3, #16384	; 0x4000
80000486:	f2c0 230c 	movt	r3, #524	; 0x20c
8000048a:	2201      	movs	r2, #1
8000048c:	611a      	str	r2, [r3, #16]
8000048e:	f44f 4300 	mov.w	r3, #32768	; 0x8000
80000492:	f2c0 230c 	movt	r3, #524	; 0x20c
80000496:	f8d3 3100 	ldr.w	r3, [r3, #256]	; 0x100
8000049a:	607b      	str	r3, [r7, #4]
8000049c:	687b      	ldr	r3, [r7, #4]
8000049e:	f003 33c0 	and.w	r3, r3, #3233857728	; 0xc0c0c0c0
800004a2:	607b      	str	r3, [r7, #4]
800004a4:	687b      	ldr	r3, [r7, #4]
800004a6:	f043 5300 	orr.w	r3, r3, #536870912	; 0x20000000
800004aa:	607b      	str	r3, [r7, #4]
800004ac:	687b      	ldr	r3, [r7, #4]
800004ae:	f443 13c0 	orr.w	r3, r3, #1572864	; 0x180000
800004b2:	607b      	str	r3, [r7, #4]
800004b4:	687b      	ldr	r3, [r7, #4]
800004b6:	f443 5380 	orr.w	r3, r3, #4096	; 0x1000
800004ba:	607b      	str	r3, [r7, #4]
800004bc:	687b      	ldr	r3, [r7, #4]
800004be:	f043 031b 	orr.w	r3, r3, #27
800004c2:	607b      	str	r3, [r7, #4]
800004c4:	f44f 4300 	mov.w	r3, #32768	; 0x8000
800004c8:	f2c0 230c 	movt	r3, #524	; 0x20c
800004cc:	687a      	ldr	r2, [r7, #4]
800004ce:	f8c3 2100 	str.w	r2, [r3, #256]	; 0x100
800004d2:	2300      	movs	r3, #0
800004d4:	607b      	str	r3, [r7, #4]
800004d6:	f44f 4300 	mov.w	r3, #32768	; 0x8000
800004da:	f2c0 230c 	movt	r3, #524	; 0x20c
800004de:	f8d3 30f0 	ldr.w	r3, [r3, #240]	; 0xf0
800004e2:	607b      	str	r3, [r7, #4]
800004e4:	687b      	ldr	r3, [r7, #4]
800004e6:	f003 33c0 	and.w	r3, r3, #3233857728	; 0xc0c0c0c0
800004ea:	607b      	str	r3, [r7, #4]
800004ec:	687b      	ldr	r3, [r7, #4]
800004ee:	f043 5398 	orr.w	r3, r3, #318767104	; 0x13000000
800004f2:	607b      	str	r3, [r7, #4]
800004f4:	687b      	ldr	r3, [r7, #4]
800004f6:	f443 1388 	orr.w	r3, r3, #1114112	; 0x110000
800004fa:	607b      	str	r3, [r7, #4]
800004fc:	687b      	ldr	r3, [r7, #4]
800004fe:	f443 5380 	orr.w	r3, r3, #4096	; 0x1000
80000502:	607b      	str	r3, [r7, #4]
80000504:	687b      	ldr	r3, [r7, #4]
80000506:	f043 030c 	orr.w	r3, r3, #12
8000050a:	607b      	str	r3, [r7, #4]
8000050c:	f44f 4300 	mov.w	r3, #32768	; 0x8000
80000510:	f2c0 230c 	movt	r3, #524	; 0x20c
80000514:	687a      	ldr	r2, [r7, #4]
80000516:	f8c3 20f0 	str.w	r2, [r3, #240]	; 0xf0
8000051a:	f44f 4380 	mov.w	r3, #16384	; 0x4000
8000051e:	f2c0 230c 	movt	r3, #524	; 0x20c
80000522:	699a      	ldr	r2, [r3, #24]
80000524:	f44f 4380 	mov.w	r3, #16384	; 0x4000
80000528:	f2c0 230c 	movt	r3, #524	; 0x20c
8000052c:	f422 2240 	bic.w	r2, r2, #786432	; 0xc0000
80000530:	619a      	str	r2, [r3, #24]
80000532:	f44f 4380 	mov.w	r3, #16384	; 0x4000
80000536:	f2c0 230c 	movt	r3, #524	; 0x20c
8000053a:	699a      	ldr	r2, [r3, #24]
8000053c:	f44f 4380 	mov.w	r3, #16384	; 0x4000
80000540:	f2c0 230c 	movt	r3, #524	; 0x20c
80000544:	f442 2280 	orr.w	r2, r2, #262144	; 0x40000
80000548:	619a      	str	r2, [r3, #24]
8000054a:	f44f 4380 	mov.w	r3, #16384	; 0x4000
8000054e:	f2c0 230c 	movt	r3, #524	; 0x20c
80000552:	695a      	ldr	r2, [r3, #20]
80000554:	f44f 4380 	mov.w	r3, #16384	; 0x4000
80000558:	f2c0 230c 	movt	r3, #524	; 0x20c
8000055c:	f022 7200 	bic.w	r2, r2, #33554432	; 0x2000000
80000560:	615a      	str	r2, [r3, #20]
80000562:	bf00      	nop
80000564:	f44f 4380 	mov.w	r3, #16384	; 0x4000
80000568:	f2c0 230c 	movt	r3, #524	; 0x20c
8000056c:	6c9b      	ldr	r3, [r3, #72]	; 0x48
8000056e:	f003 0320 	and.w	r3, r3, #32
80000572:	2b00      	cmp	r3, #0
80000574:	d1f6      	bne.n	80000564 <iimx6ul_clk_init+0x154>
80000576:	f44f 4380 	mov.w	r3, #16384	; 0x4000
8000057a:	f2c0 230c 	movt	r3, #524	; 0x20c
8000057e:	695a      	ldr	r2, [r3, #20]
80000580:	f44f 4380 	mov.w	r3, #16384	; 0x4000
80000584:	f2c0 230c 	movt	r3, #524	; 0x20c
80000588:	f422 7240 	bic.w	r2, r2, #768	; 0x300
8000058c:	615a      	str	r2, [r3, #20]
8000058e:	f44f 4380 	mov.w	r3, #16384	; 0x4000
80000592:	f2c0 230c 	movt	r3, #524	; 0x20c
80000596:	695a      	ldr	r2, [r3, #20]
80000598:	f44f 4380 	mov.w	r3, #16384	; 0x4000
8000059c:	f2c0 230c 	movt	r3, #524	; 0x20c
800005a0:	f442 7280 	orr.w	r2, r2, #256	; 0x100
800005a4:	615a      	str	r2, [r3, #20]
800005a6:	f44f 4380 	mov.w	r3, #16384	; 0x4000
800005aa:	f2c0 230c 	movt	r3, #524	; 0x20c
800005ae:	69da      	ldr	r2, [r3, #28]
800005b0:	f44f 4380 	mov.w	r3, #16384	; 0x4000
800005b4:	f2c0 230c 	movt	r3, #524	; 0x20c
800005b8:	f022 0240 	bic.w	r2, r2, #64	; 0x40
800005bc:	61da      	str	r2, [r3, #28]
800005be:	f44f 4380 	mov.w	r3, #16384	; 0x4000
800005c2:	f2c0 230c 	movt	r3, #524	; 0x20c
800005c6:	69da      	ldr	r2, [r3, #28]
800005c8:	f44f 4380 	mov.w	r3, #16384	; 0x4000
800005cc:	f2c0 230c 	movt	r3, #524	; 0x20c
800005d0:	f022 0207 	bic.w	r2, r2, #7
800005d4:	61da      	str	r2, [r3, #28]
800005d6:	bf00      	nop
800005d8:	370c      	adds	r7, #12
800005da:	46bd      	mov	sp, r7
800005dc:	f85d 7b04 	ldr.w	r7, [sp], #4
800005e0:	4770      	bx	lr

800005e2 <IOMUXC_SetPinMux>:
800005e2:	b480      	push	{r7}
800005e4:	b085      	sub	sp, #20
800005e6:	af00      	add	r7, sp, #0
800005e8:	60f8      	str	r0, [r7, #12]
800005ea:	60b9      	str	r1, [r7, #8]
800005ec:	607a      	str	r2, [r7, #4]
800005ee:	603b      	str	r3, [r7, #0]
800005f0:	68bb      	ldr	r3, [r7, #8]
800005f2:	f003 010f 	and.w	r1, r3, #15
800005f6:	69fb      	ldr	r3, [r7, #28]
800005f8:	011b      	lsls	r3, r3, #4
800005fa:	f003 0210 	and.w	r2, r3, #16
800005fe:	68fb      	ldr	r3, [r7, #12]
80000600:	430a      	orrs	r2, r1
80000602:	601a      	str	r2, [r3, #0]
80000604:	687b      	ldr	r3, [r7, #4]
80000606:	2b00      	cmp	r3, #0
80000608:	d004      	beq.n	80000614 <IOMUXC_SetPinMux+0x32>
8000060a:	687b      	ldr	r3, [r7, #4]
8000060c:	683a      	ldr	r2, [r7, #0]
8000060e:	f002 0207 	and.w	r2, r2, #7
80000612:	601a      	str	r2, [r3, #0]
80000614:	bf00      	nop
80000616:	3714      	adds	r7, #20
80000618:	46bd      	mov	sp, r7
8000061a:	f85d 7b04 	ldr.w	r7, [sp], #4
8000061e:	4770      	bx	lr

80000620 <IOMUXC_SetPinConfig>:
80000620:	b480      	push	{r7}
80000622:	b085      	sub	sp, #20
80000624:	af00      	add	r7, sp, #0
80000626:	60f8      	str	r0, [r7, #12]
80000628:	60b9      	str	r1, [r7, #8]
8000062a:	607a      	str	r2, [r7, #4]
8000062c:	603b      	str	r3, [r7, #0]
8000062e:	69bb      	ldr	r3, [r7, #24]
80000630:	2b00      	cmp	r3, #0
80000632:	d002      	beq.n	8000063a <IOMUXC_SetPinConfig+0x1a>
80000634:	69bb      	ldr	r3, [r7, #24]
80000636:	69fa      	ldr	r2, [r7, #28]
80000638:	601a      	str	r2, [r3, #0]
8000063a:	bf00      	nop
8000063c:	3714      	adds	r7, #20
8000063e:	46bd      	mov	sp, r7
80000640:	f85d 7b04 	ldr.w	r7, [sp], #4
80000644:	4770      	bx	lr

80000646 <led_init>:
80000646:	b580      	push	{r7, lr}
80000648:	b082      	sub	sp, #8
8000064a:	af02      	add	r7, sp, #8
8000064c:	2300      	movs	r3, #0
8000064e:	9301      	str	r3, [sp, #4]
80000650:	f44f 733d 	mov.w	r3, #756	; 0x2f4
80000654:	f2c0 230e 	movt	r3, #526	; 0x20e
80000658:	9300      	str	r3, [sp, #0]
8000065a:	2300      	movs	r3, #0
8000065c:	2200      	movs	r2, #0
8000065e:	2105      	movs	r1, #5
80000660:	2068      	movs	r0, #104	; 0x68
80000662:	f2c0 200e 	movt	r0, #526	; 0x20e
80000666:	f7ff ffbc 	bl	800005e2 <IOMUXC_SetPinMux>
8000066a:	f241 03b0 	movw	r3, #4272	; 0x10b0
8000066e:	9301      	str	r3, [sp, #4]
80000670:	f44f 733d 	mov.w	r3, #756	; 0x2f4
80000674:	f2c0 230e 	movt	r3, #526	; 0x20e
80000678:	9300      	str	r3, [sp, #0]
8000067a:	2300      	movs	r3, #0
8000067c:	2200      	movs	r2, #0
8000067e:	2105      	movs	r1, #5
80000680:	2068      	movs	r0, #104	; 0x68
80000682:	f2c0 200e 	movt	r0, #526	; 0x20e
80000686:	f7ff ffcb 	bl	80000620 <IOMUXC_SetPinConfig>
8000068a:	f44f 4340 	mov.w	r3, #49152	; 0xc000
8000068e:	f2c0 2309 	movt	r3, #521	; 0x209
80000692:	685a      	ldr	r2, [r3, #4]
80000694:	f44f 4340 	mov.w	r3, #49152	; 0xc000
80000698:	f2c0 2309 	movt	r3, #521	; 0x209
8000069c:	f042 0208 	orr.w	r2, r2, #8
800006a0:	605a      	str	r2, [r3, #4]
800006a2:	f44f 4340 	mov.w	r3, #49152	; 0xc000
800006a6:	f2c0 2309 	movt	r3, #521	; 0x209
800006aa:	681a      	ldr	r2, [r3, #0]
800006ac:	f44f 4340 	mov.w	r3, #49152	; 0xc000
800006b0:	f2c0 2309 	movt	r3, #521	; 0x209
800006b4:	f022 0208 	bic.w	r2, r2, #8
800006b8:	601a      	str	r2, [r3, #0]
800006ba:	bf00      	nop
800006bc:	46bd      	mov	sp, r7
800006be:	bd80      	pop	{r7, pc}

800006c0 <led_on>:
800006c0:	b480      	push	{r7}
800006c2:	af00      	add	r7, sp, #0
800006c4:	f44f 4340 	mov.w	r3, #49152	; 0xc000
800006c8:	f2c0 2309 	movt	r3, #521	; 0x209
800006cc:	681a      	ldr	r2, [r3, #0]
800006ce:	f44f 4340 	mov.w	r3, #49152	; 0xc000
800006d2:	f2c0 2309 	movt	r3, #521	; 0x209
800006d6:	f022 0208 	bic.w	r2, r2, #8
800006da:	601a      	str	r2, [r3, #0]
800006dc:	bf00      	nop
800006de:	46bd      	mov	sp, r7
800006e0:	f85d 7b04 	ldr.w	r7, [sp], #4
800006e4:	4770      	bx	lr

800006e6 <led_off>:
800006e6:	b480      	push	{r7}
800006e8:	af00      	add	r7, sp, #0
800006ea:	f44f 4340 	mov.w	r3, #49152	; 0xc000
800006ee:	f2c0 2309 	movt	r3, #521	; 0x209
800006f2:	681a      	ldr	r2, [r3, #0]
800006f4:	f44f 4340 	mov.w	r3, #49152	; 0xc000
800006f8:	f2c0 2309 	movt	r3, #521	; 0x209
800006fc:	f042 0208 	orr.w	r2, r2, #8
80000700:	601a      	str	r2, [r3, #0]
80000702:	bf00      	nop
80000704:	46bd      	mov	sp, r7
80000706:	f85d 7b04 	ldr.w	r7, [sp], #4
8000070a:	4770      	bx	lr

8000070c <led_switch>:
8000070c:	b580      	push	{r7, lr}
8000070e:	b082      	sub	sp, #8
80000710:	af00      	add	r7, sp, #0
80000712:	6078      	str	r0, [r7, #4]
80000714:	6039      	str	r1, [r7, #0]
80000716:	2103      	movs	r1, #3
80000718:	f44f 4040 	mov.w	r0, #49152	; 0xc000
8000071c:	f2c0 2009 	movt	r0, #521	; 0x209
80000720:	f000 f9e0 	bl	80000ae4 <gpio_pinread>
80000724:	4603      	mov	r3, r0
80000726:	2b00      	cmp	r3, #0
80000728:	d008      	beq.n	8000073c <led_switch+0x30>
8000072a:	2200      	movs	r2, #0
8000072c:	2103      	movs	r1, #3
8000072e:	f44f 4040 	mov.w	r0, #49152	; 0xc000
80000732:	f2c0 2009 	movt	r0, #521	; 0x209
80000736:	f000 f9e7 	bl	80000b08 <gpio_pinwrite>
8000073a:	e007      	b.n	8000074c <led_switch+0x40>
8000073c:	2201      	movs	r2, #1
8000073e:	2103      	movs	r1, #3
80000740:	f44f 4040 	mov.w	r0, #49152	; 0xc000
80000744:	f2c0 2009 	movt	r0, #521	; 0x209
80000748:	f000 f9de 	bl	80000b08 <gpio_pinwrite>
8000074c:	bf00      	nop
8000074e:	3708      	adds	r7, #8
80000750:	46bd      	mov	sp, r7
80000752:	bd80      	pop	{r7, pc}

80000754 <delay_init>:
80000754:	b480      	push	{r7}
80000756:	af00      	add	r7, sp, #0
80000758:	f44f 4300 	mov.w	r3, #32768	; 0x8000
8000075c:	f2c0 230e 	movt	r3, #526	; 0x20e
80000760:	2200      	movs	r2, #0
80000762:	601a      	str	r2, [r3, #0]
80000764:	f44f 4300 	mov.w	r3, #32768	; 0x8000
80000768:	f2c0 230e 	movt	r3, #526	; 0x20e
8000076c:	f44f 4200 	mov.w	r2, #32768	; 0x8000
80000770:	601a      	str	r2, [r3, #0]
80000772:	bf00      	nop
80000774:	f44f 4300 	mov.w	r3, #32768	; 0x8000
80000778:	f2c0 230e 	movt	r3, #526	; 0x20e
8000077c:	681b      	ldr	r3, [r3, #0]
8000077e:	f403 4300 	and.w	r3, r3, #32768	; 0x8000
80000782:	2b00      	cmp	r3, #0
80000784:	d1f6      	bne.n	80000774 <delay_init+0x20>
80000786:	f44f 4300 	mov.w	r3, #32768	; 0x8000
8000078a:	f2c0 230e 	movt	r3, #526	; 0x20e
8000078e:	2240      	movs	r2, #64	; 0x40
80000790:	601a      	str	r2, [r3, #0]
80000792:	f44f 4300 	mov.w	r3, #32768	; 0x8000
80000796:	f2c0 230e 	movt	r3, #526	; 0x20e
8000079a:	2241      	movs	r2, #65	; 0x41
8000079c:	605a      	str	r2, [r3, #4]
8000079e:	f44f 4300 	mov.w	r3, #32768	; 0x8000
800007a2:	f2c0 230e 	movt	r3, #526	; 0x20e
800007a6:	f04f 32ff 	mov.w	r2, #4294967295	; 0xffffffff
800007aa:	611a      	str	r2, [r3, #16]
800007ac:	f44f 4300 	mov.w	r3, #32768	; 0x8000
800007b0:	f2c0 230e 	movt	r3, #526	; 0x20e
800007b4:	681a      	ldr	r2, [r3, #0]
800007b6:	f44f 4300 	mov.w	r3, #32768	; 0x8000
800007ba:	f2c0 230e 	movt	r3, #526	; 0x20e
800007be:	f042 0201 	orr.w	r2, r2, #1
800007c2:	601a      	str	r2, [r3, #0]
800007c4:	bf00      	nop
800007c6:	46bd      	mov	sp, r7
800007c8:	f85d 7b04 	ldr.w	r7, [sp], #4
800007cc:	4770      	bx	lr

800007ce <delayus>:
800007ce:	b480      	push	{r7}
800007d0:	b087      	sub	sp, #28
800007d2:	af00      	add	r7, sp, #0
800007d4:	6078      	str	r0, [r7, #4]
800007d6:	2300      	movs	r3, #0
800007d8:	613b      	str	r3, [r7, #16]
800007da:	f44f 4300 	mov.w	r3, #32768	; 0x8000
800007de:	f2c0 230e 	movt	r3, #526	; 0x20e
800007e2:	6a5b      	ldr	r3, [r3, #36]	; 0x24
800007e4:	617b      	str	r3, [r7, #20]
800007e6:	f44f 4300 	mov.w	r3, #32768	; 0x8000
800007ea:	f2c0 230e 	movt	r3, #526	; 0x20e
800007ee:	6a5b      	ldr	r3, [r3, #36]	; 0x24
800007f0:	60fb      	str	r3, [r7, #12]
800007f2:	68fa      	ldr	r2, [r7, #12]
800007f4:	697b      	ldr	r3, [r7, #20]
800007f6:	429a      	cmp	r2, r3
800007f8:	d0f5      	beq.n	800007e6 <delayus+0x18>
800007fa:	68fa      	ldr	r2, [r7, #12]
800007fc:	697b      	ldr	r3, [r7, #20]
800007fe:	429a      	cmp	r2, r3
80000800:	d906      	bls.n	80000810 <delayus+0x42>
80000802:	68fa      	ldr	r2, [r7, #12]
80000804:	697b      	ldr	r3, [r7, #20]
80000806:	1ad3      	subs	r3, r2, r3
80000808:	693a      	ldr	r2, [r7, #16]
8000080a:	4413      	add	r3, r2
8000080c:	613b      	str	r3, [r7, #16]
8000080e:	e006      	b.n	8000081e <delayus+0x50>
80000810:	68fa      	ldr	r2, [r7, #12]
80000812:	697b      	ldr	r3, [r7, #20]
80000814:	1ad2      	subs	r2, r2, r3
80000816:	693b      	ldr	r3, [r7, #16]
80000818:	4413      	add	r3, r2
8000081a:	3b01      	subs	r3, #1
8000081c:	613b      	str	r3, [r7, #16]
8000081e:	68fb      	ldr	r3, [r7, #12]
80000820:	617b      	str	r3, [r7, #20]
80000822:	693a      	ldr	r2, [r7, #16]
80000824:	687b      	ldr	r3, [r7, #4]
80000826:	429a      	cmp	r2, r3
80000828:	d200      	bcs.n	8000082c <delayus+0x5e>
8000082a:	e7dc      	b.n	800007e6 <delayus+0x18>
8000082c:	bf00      	nop
8000082e:	bf00      	nop
80000830:	371c      	adds	r7, #28
80000832:	46bd      	mov	sp, r7
80000834:	f85d 7b04 	ldr.w	r7, [sp], #4
80000838:	4770      	bx	lr

8000083a <delayms>:
8000083a:	b580      	push	{r7, lr}
8000083c:	b084      	sub	sp, #16
8000083e:	af00      	add	r7, sp, #0
80000840:	6078      	str	r0, [r7, #4]
80000842:	2300      	movs	r3, #0
80000844:	60fb      	str	r3, [r7, #12]
80000846:	2300      	movs	r3, #0
80000848:	60fb      	str	r3, [r7, #12]
8000084a:	e006      	b.n	8000085a <delayms+0x20>
8000084c:	f44f 707a 	mov.w	r0, #1000	; 0x3e8
80000850:	f7ff ffbd 	bl	800007ce <delayus>
80000854:	68fb      	ldr	r3, [r7, #12]
80000856:	3301      	adds	r3, #1
80000858:	60fb      	str	r3, [r7, #12]
8000085a:	68fb      	ldr	r3, [r7, #12]
8000085c:	687a      	ldr	r2, [r7, #4]
8000085e:	429a      	cmp	r2, r3
80000860:	d8f4      	bhi.n	8000084c <delayms+0x12>
80000862:	bf00      	nop
80000864:	bf00      	nop
80000866:	3710      	adds	r7, #16
80000868:	46bd      	mov	sp, r7
8000086a:	bd80      	pop	{r7, pc}

8000086c <delay_short>:
8000086c:	b480      	push	{r7}
8000086e:	b083      	sub	sp, #12
80000870:	af00      	add	r7, sp, #0
80000872:	6078      	str	r0, [r7, #4]
80000874:	bf00      	nop
80000876:	687b      	ldr	r3, [r7, #4]
80000878:	1e5a      	subs	r2, r3, #1
8000087a:	607a      	str	r2, [r7, #4]
8000087c:	2b00      	cmp	r3, #0
8000087e:	d1fa      	bne.n	80000876 <delay_short+0xa>
80000880:	bf00      	nop
80000882:	bf00      	nop
80000884:	370c      	adds	r7, #12
80000886:	46bd      	mov	sp, r7
80000888:	f85d 7b04 	ldr.w	r7, [sp], #4
8000088c:	4770      	bx	lr

8000088e <delay>:
8000088e:	b580      	push	{r7, lr}
80000890:	b082      	sub	sp, #8
80000892:	af00      	add	r7, sp, #0
80000894:	6078      	str	r0, [r7, #4]
80000896:	e003      	b.n	800008a0 <delay+0x12>
80000898:	f240 70ff 	movw	r0, #2047	; 0x7ff
8000089c:	f7ff ffe6 	bl	8000086c <delay_short>
800008a0:	687b      	ldr	r3, [r7, #4]
800008a2:	1e5a      	subs	r2, r3, #1
800008a4:	607a      	str	r2, [r7, #4]
800008a6:	2b00      	cmp	r3, #0
800008a8:	d1f6      	bne.n	80000898 <delay+0xa>
800008aa:	bf00      	nop
800008ac:	bf00      	nop
800008ae:	3708      	adds	r7, #8
800008b0:	46bd      	mov	sp, r7
800008b2:	bd80      	pop	{r7, pc}

800008b4 <gpt1_init>:
800008b4:	b580      	push	{r7, lr}
800008b6:	b086      	sub	sp, #24
800008b8:	af00      	add	r7, sp, #0
800008ba:	6078      	str	r0, [r7, #4]
800008bc:	f44f 4300 	mov.w	r3, #32768	; 0x8000
800008c0:	f2c0 2309 	movt	r3, #521	; 0x209
800008c4:	2200      	movs	r2, #0
800008c6:	601a      	str	r2, [r3, #0]
800008c8:	f44f 4300 	mov.w	r3, #32768	; 0x8000
800008cc:	f2c0 2309 	movt	r3, #521	; 0x209
800008d0:	f44f 4200 	mov.w	r2, #32768	; 0x8000
800008d4:	601a      	str	r2, [r3, #0]
800008d6:	bf00      	nop
800008d8:	f44f 4300 	mov.w	r3, #32768	; 0x8000
800008dc:	f2c0 2309 	movt	r3, #521	; 0x209
800008e0:	681b      	ldr	r3, [r3, #0]
800008e2:	f403 4300 	and.w	r3, r3, #32768	; 0x8000
800008e6:	2b00      	cmp	r3, #0
800008e8:	d1f6      	bne.n	800008d8 <gpt1_init+0x24>
800008ea:	f44f 4300 	mov.w	r3, #32768	; 0x8000
800008ee:	f2c0 2309 	movt	r3, #521	; 0x209
800008f2:	2240      	movs	r2, #64	; 0x40
800008f4:	601a      	str	r2, [r3, #0]
800008f6:	f44f 4300 	mov.w	r3, #32768	; 0x8000
800008fa:	f2c0 2309 	movt	r3, #521	; 0x209
800008fe:	2241      	movs	r2, #65	; 0x41
80000900:	605a      	str	r2, [r3, #4]
80000902:	f44f 4300 	mov.w	r3, #32768	; 0x8000
80000906:	f2c0 2309 	movt	r3, #521	; 0x209
8000090a:	681a      	ldr	r2, [r3, #0]
8000090c:	f44f 4300 	mov.w	r3, #32768	; 0x8000
80000910:	f2c0 2309 	movt	r3, #521	; 0x209
80000914:	f042 0201 	orr.w	r2, r2, #1
80000918:	601a      	str	r2, [r3, #0]
8000091a:	f44f 4300 	mov.w	r3, #32768	; 0x8000
8000091e:	f2c0 2309 	movt	r3, #521	; 0x209
80000922:	687a      	ldr	r2, [r7, #4]
80000924:	611a      	str	r2, [r3, #16]
80000926:	f44f 4300 	mov.w	r3, #32768	; 0x8000
8000092a:	f2c0 2309 	movt	r3, #521	; 0x209
8000092e:	68da      	ldr	r2, [r3, #12]
80000930:	f44f 4300 	mov.w	r3, #32768	; 0x8000
80000934:	f2c0 2309 	movt	r3, #521	; 0x209
80000938:	f042 0201 	orr.w	r2, r2, #1
8000093c:	60da      	str	r2, [r3, #12]
8000093e:	2357      	movs	r3, #87	; 0x57
80000940:	617b      	str	r3, [r7, #20]
80000942:	ee9f 3f10 	mrc	15, 4, r3, cr15, cr0, {0}
80000946:	613b      	str	r3, [r7, #16]
80000948:	693b      	ldr	r3, [r7, #16]
8000094a:	bf00      	nop
8000094c:	0c1b      	lsrs	r3, r3, #16
8000094e:	041b      	lsls	r3, r3, #16
80000950:	60fb      	str	r3, [r7, #12]
80000952:	697b      	ldr	r3, [r7, #20]
80000954:	f003 031f 	and.w	r3, r3, #31
80000958:	697a      	ldr	r2, [r7, #20]
8000095a:	0952      	lsrs	r2, r2, #5
8000095c:	2101      	movs	r1, #1
8000095e:	4099      	lsls	r1, r3
80000960:	68fb      	ldr	r3, [r7, #12]
80000962:	f502 6288 	add.w	r2, r2, #1088	; 0x440
80000966:	f843 1022 	str.w	r1, [r3, r2, lsl #2]
8000096a:	bf00      	nop
8000096c:	b662      	cpsie	i
8000096e:	2200      	movs	r2, #0
80000970:	4b04      	ldr	r3, [pc, #16]	; (80000984 <gpt1_init+0xd0>)
80000972:	447b      	add	r3, pc
80000974:	4619      	mov	r1, r3
80000976:	2057      	movs	r0, #87	; 0x57
80000978:	f000 fb04 	bl	80000f84 <system_register_irqhandler>
8000097c:	bf00      	nop
8000097e:	3718      	adds	r7, #24
80000980:	46bd      	mov	sp, r7
80000982:	bd80      	pop	{r7, pc}
80000984:	00000013 	andeq	r0, r0, r3, lsl r0

80000988 <gpt1_irqhandler>:
80000988:	b480      	push	{r7}
8000098a:	af00      	add	r7, sp, #0
8000098c:	f44f 4300 	mov.w	r3, #32768	; 0x8000
80000990:	f2c0 2309 	movt	r3, #521	; 0x209
80000994:	689b      	ldr	r3, [r3, #8]
80000996:	f44f 4300 	mov.w	r3, #32768	; 0x8000
8000099a:	f2c0 2309 	movt	r3, #521	; 0x209
8000099e:	689a      	ldr	r2, [r3, #8]
800009a0:	f44f 4300 	mov.w	r3, #32768	; 0x8000
800009a4:	f2c0 2309 	movt	r3, #521	; 0x209
800009a8:	f042 0201 	orr.w	r2, r2, #1
800009ac:	609a      	str	r2, [r3, #8]
800009ae:	bf00      	nop
800009b0:	46bd      	mov	sp, r7
800009b2:	f85d 7b04 	ldr.w	r7, [sp], #4
800009b6:	4770      	bx	lr

800009b8 <IOMUXC_SetPinMux>:
800009b8:	b480      	push	{r7}
800009ba:	b085      	sub	sp, #20
800009bc:	af00      	add	r7, sp, #0
800009be:	60f8      	str	r0, [r7, #12]
800009c0:	60b9      	str	r1, [r7, #8]
800009c2:	607a      	str	r2, [r7, #4]
800009c4:	603b      	str	r3, [r7, #0]
800009c6:	68bb      	ldr	r3, [r7, #8]
800009c8:	f003 010f 	and.w	r1, r3, #15
800009cc:	69fb      	ldr	r3, [r7, #28]
800009ce:	011b      	lsls	r3, r3, #4
800009d0:	f003 0210 	and.w	r2, r3, #16
800009d4:	68fb      	ldr	r3, [r7, #12]
800009d6:	430a      	orrs	r2, r1
800009d8:	601a      	str	r2, [r3, #0]
800009da:	687b      	ldr	r3, [r7, #4]
800009dc:	2b00      	cmp	r3, #0
800009de:	d004      	beq.n	800009ea <IOMUXC_SetPinMux+0x32>
800009e0:	687b      	ldr	r3, [r7, #4]
800009e2:	683a      	ldr	r2, [r7, #0]
800009e4:	f002 0207 	and.w	r2, r2, #7
800009e8:	601a      	str	r2, [r3, #0]
800009ea:	bf00      	nop
800009ec:	3714      	adds	r7, #20
800009ee:	46bd      	mov	sp, r7
800009f0:	f85d 7b04 	ldr.w	r7, [sp], #4
800009f4:	4770      	bx	lr

800009f6 <IOMUXC_SetPinConfig>:
800009f6:	b480      	push	{r7}
800009f8:	b085      	sub	sp, #20
800009fa:	af00      	add	r7, sp, #0
800009fc:	60f8      	str	r0, [r7, #12]
800009fe:	60b9      	str	r1, [r7, #8]
80000a00:	607a      	str	r2, [r7, #4]
80000a02:	603b      	str	r3, [r7, #0]
80000a04:	69bb      	ldr	r3, [r7, #24]
80000a06:	2b00      	cmp	r3, #0
80000a08:	d002      	beq.n	80000a10 <IOMUXC_SetPinConfig+0x1a>
80000a0a:	69bb      	ldr	r3, [r7, #24]
80000a0c:	69fa      	ldr	r2, [r7, #28]
80000a0e:	601a      	str	r2, [r3, #0]
80000a10:	bf00      	nop
80000a12:	3714      	adds	r7, #20
80000a14:	46bd      	mov	sp, r7
80000a16:	f85d 7b04 	ldr.w	r7, [sp], #4
80000a1a:	4770      	bx	lr

80000a1c <beep_init>:
80000a1c:	b580      	push	{r7, lr}
80000a1e:	b082      	sub	sp, #8
80000a20:	af02      	add	r7, sp, #8
80000a22:	2300      	movs	r3, #0
80000a24:	9301      	str	r3, [sp, #4]
80000a26:	2350      	movs	r3, #80	; 0x50
80000a28:	f2c0 2329 	movt	r3, #553	; 0x229
80000a2c:	9300      	str	r3, [sp, #0]
80000a2e:	2300      	movs	r3, #0
80000a30:	2200      	movs	r2, #0
80000a32:	2105      	movs	r1, #5
80000a34:	200c      	movs	r0, #12
80000a36:	f2c0 2029 	movt	r0, #553	; 0x229
80000a3a:	f7ff ffbd 	bl	800009b8 <IOMUXC_SetPinMux>
80000a3e:	f241 03b0 	movw	r3, #4272	; 0x10b0
80000a42:	9301      	str	r3, [sp, #4]
80000a44:	2350      	movs	r3, #80	; 0x50
80000a46:	f2c0 2329 	movt	r3, #553	; 0x229
80000a4a:	9300      	str	r3, [sp, #0]
80000a4c:	2300      	movs	r3, #0
80000a4e:	2200      	movs	r2, #0
80000a50:	2105      	movs	r1, #5
80000a52:	200c      	movs	r0, #12
80000a54:	f2c0 2029 	movt	r0, #553	; 0x229
80000a58:	f7ff ffcd 	bl	800009f6 <IOMUXC_SetPinConfig>
80000a5c:	f44f 4340 	mov.w	r3, #49152	; 0xc000
80000a60:	f2c0 230a 	movt	r3, #522	; 0x20a
80000a64:	685a      	ldr	r2, [r3, #4]
80000a66:	f44f 4340 	mov.w	r3, #49152	; 0xc000
80000a6a:	f2c0 230a 	movt	r3, #522	; 0x20a
80000a6e:	f042 0202 	orr.w	r2, r2, #2
80000a72:	605a      	str	r2, [r3, #4]
80000a74:	f44f 4340 	mov.w	r3, #49152	; 0xc000
80000a78:	f2c0 230a 	movt	r3, #522	; 0x20a
80000a7c:	681a      	ldr	r2, [r3, #0]
80000a7e:	f44f 4340 	mov.w	r3, #49152	; 0xc000
80000a82:	f2c0 230a 	movt	r3, #522	; 0x20a
80000a86:	f042 0202 	orr.w	r2, r2, #2
80000a8a:	601a      	str	r2, [r3, #0]
80000a8c:	bf00      	nop
80000a8e:	46bd      	mov	sp, r7
80000a90:	bd80      	pop	{r7, pc}

80000a92 <beep_switch>:
80000a92:	b480      	push	{r7}
80000a94:	b083      	sub	sp, #12
80000a96:	af00      	add	r7, sp, #0
80000a98:	6078      	str	r0, [r7, #4]
80000a9a:	687b      	ldr	r3, [r7, #4]
80000a9c:	2b01      	cmp	r3, #1
80000a9e:	d10c      	bne.n	80000aba <beep_switch+0x28>
80000aa0:	f44f 4340 	mov.w	r3, #49152	; 0xc000
80000aa4:	f2c0 230a 	movt	r3, #522	; 0x20a
80000aa8:	681a      	ldr	r2, [r3, #0]
80000aaa:	f44f 4340 	mov.w	r3, #49152	; 0xc000
80000aae:	f2c0 230a 	movt	r3, #522	; 0x20a
80000ab2:	f022 0202 	bic.w	r2, r2, #2
80000ab6:	601a      	str	r2, [r3, #0]
80000ab8:	e00e      	b.n	80000ad8 <beep_switch+0x46>
80000aba:	687b      	ldr	r3, [r7, #4]
80000abc:	2b00      	cmp	r3, #0
80000abe:	d10b      	bne.n	80000ad8 <beep_switch+0x46>
80000ac0:	f44f 4340 	mov.w	r3, #49152	; 0xc000
80000ac4:	f2c0 230a 	movt	r3, #522	; 0x20a
80000ac8:	681a      	ldr	r2, [r3, #0]
80000aca:	f44f 4340 	mov.w	r3, #49152	; 0xc000
80000ace:	f2c0 230a 	movt	r3, #522	; 0x20a
80000ad2:	f042 0202 	orr.w	r2, r2, #2
80000ad6:	601a      	str	r2, [r3, #0]
80000ad8:	bf00      	nop
80000ada:	370c      	adds	r7, #12
80000adc:	46bd      	mov	sp, r7
80000ade:	f85d 7b04 	ldr.w	r7, [sp], #4
80000ae2:	4770      	bx	lr

80000ae4 <gpio_pinread>:
80000ae4:	b480      	push	{r7}
80000ae6:	b083      	sub	sp, #12
80000ae8:	af00      	add	r7, sp, #0
80000aea:	6078      	str	r0, [r7, #4]
80000aec:	6039      	str	r1, [r7, #0]
80000aee:	687b      	ldr	r3, [r7, #4]
80000af0:	681a      	ldr	r2, [r3, #0]
80000af2:	683b      	ldr	r3, [r7, #0]
80000af4:	fa22 f303 	lsr.w	r3, r2, r3
80000af8:	f003 0301 	and.w	r3, r3, #1
80000afc:	4618      	mov	r0, r3
80000afe:	370c      	adds	r7, #12
80000b00:	46bd      	mov	sp, r7
80000b02:	f85d 7b04 	ldr.w	r7, [sp], #4
80000b06:	4770      	bx	lr

80000b08 <gpio_pinwrite>:
80000b08:	b480      	push	{r7}
80000b0a:	b085      	sub	sp, #20
80000b0c:	af00      	add	r7, sp, #0
80000b0e:	60f8      	str	r0, [r7, #12]
80000b10:	60b9      	str	r1, [r7, #8]
80000b12:	607a      	str	r2, [r7, #4]
80000b14:	687b      	ldr	r3, [r7, #4]
80000b16:	2b00      	cmp	r3, #0
80000b18:	d10a      	bne.n	80000b30 <gpio_pinwrite+0x28>
80000b1a:	68fb      	ldr	r3, [r7, #12]
80000b1c:	681b      	ldr	r3, [r3, #0]
80000b1e:	2101      	movs	r1, #1
80000b20:	68ba      	ldr	r2, [r7, #8]
80000b22:	fa01 f202 	lsl.w	r2, r1, r2
80000b26:	43d2      	mvns	r2, r2
80000b28:	401a      	ands	r2, r3
80000b2a:	68fb      	ldr	r3, [r7, #12]
80000b2c:	601a      	str	r2, [r3, #0]
80000b2e:	e008      	b.n	80000b42 <gpio_pinwrite+0x3a>
80000b30:	68fb      	ldr	r3, [r7, #12]
80000b32:	681b      	ldr	r3, [r3, #0]
80000b34:	2101      	movs	r1, #1
80000b36:	68ba      	ldr	r2, [r7, #8]
80000b38:	fa01 f202 	lsl.w	r2, r1, r2
80000b3c:	431a      	orrs	r2, r3
80000b3e:	68fb      	ldr	r3, [r7, #12]
80000b40:	601a      	str	r2, [r3, #0]
80000b42:	bf00      	nop
80000b44:	3714      	adds	r7, #20
80000b46:	46bd      	mov	sp, r7
80000b48:	f85d 7b04 	ldr.w	r7, [sp], #4
80000b4c:	4770      	bx	lr

80000b4e <gpio_init>:
80000b4e:	b580      	push	{r7, lr}
80000b50:	b084      	sub	sp, #16
80000b52:	af00      	add	r7, sp, #0
80000b54:	60f8      	str	r0, [r7, #12]
80000b56:	60b9      	str	r1, [r7, #8]
80000b58:	607a      	str	r2, [r7, #4]
80000b5a:	687b      	ldr	r3, [r7, #4]
80000b5c:	681b      	ldr	r3, [r3, #0]
80000b5e:	2b00      	cmp	r3, #0
80000b60:	d10a      	bne.n	80000b78 <gpio_init+0x2a>
80000b62:	68fb      	ldr	r3, [r7, #12]
80000b64:	685b      	ldr	r3, [r3, #4]
80000b66:	2101      	movs	r1, #1
80000b68:	68ba      	ldr	r2, [r7, #8]
80000b6a:	fa01 f202 	lsl.w	r2, r1, r2
80000b6e:	43d2      	mvns	r2, r2
80000b70:	401a      	ands	r2, r3
80000b72:	68fb      	ldr	r3, [r7, #12]
80000b74:	605a      	str	r2, [r3, #4]
80000b76:	e00f      	b.n	80000b98 <gpio_init+0x4a>
80000b78:	68fb      	ldr	r3, [r7, #12]
80000b7a:	685b      	ldr	r3, [r3, #4]
80000b7c:	2101      	movs	r1, #1
80000b7e:	68ba      	ldr	r2, [r7, #8]
80000b80:	fa01 f202 	lsl.w	r2, r1, r2
80000b84:	431a      	orrs	r2, r3
80000b86:	68fb      	ldr	r3, [r7, #12]
80000b88:	605a      	str	r2, [r3, #4]
80000b8a:	687b      	ldr	r3, [r7, #4]
80000b8c:	791b      	ldrb	r3, [r3, #4]
80000b8e:	461a      	mov	r2, r3
80000b90:	68b9      	ldr	r1, [r7, #8]
80000b92:	68f8      	ldr	r0, [r7, #12]
80000b94:	f7ff ffb8 	bl	80000b08 <gpio_pinwrite>
80000b98:	687b      	ldr	r3, [r7, #4]
80000b9a:	689b      	ldr	r3, [r3, #8]
80000b9c:	2b00      	cmp	r3, #0
80000b9e:	d006      	beq.n	80000bae <gpio_init+0x60>
80000ba0:	68b9      	ldr	r1, [r7, #8]
80000ba2:	687b      	ldr	r3, [r7, #4]
80000ba4:	689b      	ldr	r3, [r3, #8]
80000ba6:	461a      	mov	r2, r3
80000ba8:	68f8      	ldr	r0, [r7, #12]
80000baa:	f000 f804 	bl	80000bb6 <gpio_intconfig>
80000bae:	bf00      	nop
80000bb0:	3710      	adds	r7, #16
80000bb2:	46bd      	mov	sp, r7
80000bb4:	bd80      	pop	{r7, pc}

80000bb6 <gpio_intconfig>:
80000bb6:	b480      	push	{r7}
80000bb8:	b087      	sub	sp, #28
80000bba:	af00      	add	r7, sp, #0
80000bbc:	60f8      	str	r0, [r7, #12]
80000bbe:	60b9      	str	r1, [r7, #8]
80000bc0:	607a      	str	r2, [r7, #4]
80000bc2:	68bb      	ldr	r3, [r7, #8]
80000bc4:	613b      	str	r3, [r7, #16]
80000bc6:	68fb      	ldr	r3, [r7, #12]
80000bc8:	69da      	ldr	r2, [r3, #28]
80000bca:	2101      	movs	r1, #1
80000bcc:	68bb      	ldr	r3, [r7, #8]
80000bce:	fa01 f303 	lsl.w	r3, r1, r3
80000bd2:	43db      	mvns	r3, r3
80000bd4:	401a      	ands	r2, r3
80000bd6:	68fb      	ldr	r3, [r7, #12]
80000bd8:	61da      	str	r2, [r3, #28]
80000bda:	68bb      	ldr	r3, [r7, #8]
80000bdc:	2b0f      	cmp	r3, #15
80000bde:	d803      	bhi.n	80000be8 <gpio_intconfig+0x32>
80000be0:	68fb      	ldr	r3, [r7, #12]
80000be2:	330c      	adds	r3, #12
80000be4:	617b      	str	r3, [r7, #20]
80000be6:	e005      	b.n	80000bf4 <gpio_intconfig+0x3e>
80000be8:	68fb      	ldr	r3, [r7, #12]
80000bea:	3310      	adds	r3, #16
80000bec:	617b      	str	r3, [r7, #20]
80000bee:	693b      	ldr	r3, [r7, #16]
80000bf0:	3b10      	subs	r3, #16
80000bf2:	613b      	str	r3, [r7, #16]
80000bf4:	687b      	ldr	r3, [r7, #4]
80000bf6:	3b01      	subs	r3, #1
80000bf8:	2b04      	cmp	r3, #4
80000bfa:	d854      	bhi.n	80000ca6 <gpio_intconfig+0xf0>
80000bfc:	a202      	add	r2, pc, #8	; (adr r2, 80000c08 <gpio_intconfig+0x52>)
80000bfe:	f852 3023 	ldr.w	r3, [r2, r3, lsl #2]
80000c02:	441a      	add	r2, r3
80000c04:	4710      	bx	r2
80000c06:	bf00      	nop
80000c08:	00000015 	andeq	r0, r0, r5, lsl r0
80000c0c:	0000002d 	andeq	r0, r0, sp, lsr #32
80000c10:	00000051 	andeq	r0, r0, r1, asr r0
80000c14:	00000075 	andeq	r0, r0, r5, ror r0
80000c18:	0000008b 	andeq	r0, r0, fp, lsl #1
80000c1c:	697b      	ldr	r3, [r7, #20]
80000c1e:	681a      	ldr	r2, [r3, #0]
80000c20:	693b      	ldr	r3, [r7, #16]
80000c22:	005b      	lsls	r3, r3, #1
80000c24:	2103      	movs	r1, #3
80000c26:	fa01 f303 	lsl.w	r3, r1, r3
80000c2a:	43db      	mvns	r3, r3
80000c2c:	401a      	ands	r2, r3
80000c2e:	697b      	ldr	r3, [r7, #20]
80000c30:	601a      	str	r2, [r3, #0]
80000c32:	e039      	b.n	80000ca8 <gpio_intconfig+0xf2>
80000c34:	697b      	ldr	r3, [r7, #20]
80000c36:	681a      	ldr	r2, [r3, #0]
80000c38:	693b      	ldr	r3, [r7, #16]
80000c3a:	005b      	lsls	r3, r3, #1
80000c3c:	2103      	movs	r1, #3
80000c3e:	fa01 f303 	lsl.w	r3, r1, r3
80000c42:	43db      	mvns	r3, r3
80000c44:	401a      	ands	r2, r3
80000c46:	693b      	ldr	r3, [r7, #16]
80000c48:	005b      	lsls	r3, r3, #1
80000c4a:	2101      	movs	r1, #1
80000c4c:	fa01 f303 	lsl.w	r3, r1, r3
80000c50:	431a      	orrs	r2, r3
80000c52:	697b      	ldr	r3, [r7, #20]
80000c54:	601a      	str	r2, [r3, #0]
80000c56:	e027      	b.n	80000ca8 <gpio_intconfig+0xf2>
80000c58:	697b      	ldr	r3, [r7, #20]
80000c5a:	681a      	ldr	r2, [r3, #0]
80000c5c:	693b      	ldr	r3, [r7, #16]
80000c5e:	005b      	lsls	r3, r3, #1
80000c60:	2103      	movs	r1, #3
80000c62:	fa01 f303 	lsl.w	r3, r1, r3
80000c66:	43db      	mvns	r3, r3
80000c68:	401a      	ands	r2, r3
80000c6a:	693b      	ldr	r3, [r7, #16]
80000c6c:	005b      	lsls	r3, r3, #1
80000c6e:	2102      	movs	r1, #2
80000c70:	fa01 f303 	lsl.w	r3, r1, r3
80000c74:	431a      	orrs	r2, r3
80000c76:	697b      	ldr	r3, [r7, #20]
80000c78:	601a      	str	r2, [r3, #0]
80000c7a:	e015      	b.n	80000ca8 <gpio_intconfig+0xf2>
80000c7c:	697b      	ldr	r3, [r7, #20]
80000c7e:	681a      	ldr	r2, [r3, #0]
80000c80:	693b      	ldr	r3, [r7, #16]
80000c82:	005b      	lsls	r3, r3, #1
80000c84:	2103      	movs	r1, #3
80000c86:	fa01 f303 	lsl.w	r3, r1, r3
80000c8a:	431a      	orrs	r2, r3
80000c8c:	697b      	ldr	r3, [r7, #20]
80000c8e:	601a      	str	r2, [r3, #0]
80000c90:	e00a      	b.n	80000ca8 <gpio_intconfig+0xf2>
80000c92:	68fb      	ldr	r3, [r7, #12]
80000c94:	69da      	ldr	r2, [r3, #28]
80000c96:	2101      	movs	r1, #1
80000c98:	68bb      	ldr	r3, [r7, #8]
80000c9a:	fa01 f303 	lsl.w	r3, r1, r3
80000c9e:	431a      	orrs	r2, r3
80000ca0:	68fb      	ldr	r3, [r7, #12]
80000ca2:	61da      	str	r2, [r3, #28]
80000ca4:	e000      	b.n	80000ca8 <gpio_intconfig+0xf2>
80000ca6:	bf00      	nop
80000ca8:	bf00      	nop
80000caa:	371c      	adds	r7, #28
80000cac:	46bd      	mov	sp, r7
80000cae:	f85d 7b04 	ldr.w	r7, [sp], #4
80000cb2:	4770      	bx	lr

80000cb4 <gpio_enableint>:
80000cb4:	b480      	push	{r7}
80000cb6:	b083      	sub	sp, #12
80000cb8:	af00      	add	r7, sp, #0
80000cba:	6078      	str	r0, [r7, #4]
80000cbc:	6039      	str	r1, [r7, #0]
80000cbe:	687b      	ldr	r3, [r7, #4]
80000cc0:	695b      	ldr	r3, [r3, #20]
80000cc2:	2101      	movs	r1, #1
80000cc4:	683a      	ldr	r2, [r7, #0]
80000cc6:	fa01 f202 	lsl.w	r2, r1, r2
80000cca:	431a      	orrs	r2, r3
80000ccc:	687b      	ldr	r3, [r7, #4]
80000cce:	615a      	str	r2, [r3, #20]
80000cd0:	bf00      	nop
80000cd2:	370c      	adds	r7, #12
80000cd4:	46bd      	mov	sp, r7
80000cd6:	f85d 7b04 	ldr.w	r7, [sp], #4
80000cda:	4770      	bx	lr

80000cdc <gpio_disableint>:
80000cdc:	b480      	push	{r7}
80000cde:	b083      	sub	sp, #12
80000ce0:	af00      	add	r7, sp, #0
80000ce2:	6078      	str	r0, [r7, #4]
80000ce4:	6039      	str	r1, [r7, #0]
80000ce6:	687b      	ldr	r3, [r7, #4]
80000ce8:	695b      	ldr	r3, [r3, #20]
80000cea:	2101      	movs	r1, #1
80000cec:	683a      	ldr	r2, [r7, #0]
80000cee:	fa01 f202 	lsl.w	r2, r1, r2
80000cf2:	43d2      	mvns	r2, r2
80000cf4:	401a      	ands	r2, r3
80000cf6:	687b      	ldr	r3, [r7, #4]
80000cf8:	615a      	str	r2, [r3, #20]
80000cfa:	bf00      	nop
80000cfc:	370c      	adds	r7, #12
80000cfe:	46bd      	mov	sp, r7
80000d00:	f85d 7b04 	ldr.w	r7, [sp], #4
80000d04:	4770      	bx	lr

80000d06 <gpio_clearintflags>:
80000d06:	b480      	push	{r7}
80000d08:	b083      	sub	sp, #12
80000d0a:	af00      	add	r7, sp, #0
80000d0c:	6078      	str	r0, [r7, #4]
80000d0e:	6039      	str	r1, [r7, #0]
80000d10:	687b      	ldr	r3, [r7, #4]
80000d12:	699b      	ldr	r3, [r3, #24]
80000d14:	2101      	movs	r1, #1
80000d16:	683a      	ldr	r2, [r7, #0]
80000d18:	fa01 f202 	lsl.w	r2, r1, r2
80000d1c:	431a      	orrs	r2, r3
80000d1e:	687b      	ldr	r3, [r7, #4]
80000d20:	619a      	str	r2, [r3, #24]
80000d22:	bf00      	nop
80000d24:	370c      	adds	r7, #12
80000d26:	46bd      	mov	sp, r7
80000d28:	f85d 7b04 	ldr.w	r7, [sp], #4
80000d2c:	4770      	bx	lr

80000d2e <gpio_softint>:
80000d2e:	b480      	push	{r7}
80000d30:	b083      	sub	sp, #12
80000d32:	af00      	add	r7, sp, #0
80000d34:	6078      	str	r0, [r7, #4]
80000d36:	6039      	str	r1, [r7, #0]
80000d38:	687b      	ldr	r3, [r7, #4]
80000d3a:	699b      	ldr	r3, [r3, #24]
80000d3c:	2101      	movs	r1, #1
80000d3e:	683a      	ldr	r2, [r7, #0]
80000d40:	fa01 f202 	lsl.w	r2, r1, r2
80000d44:	43d2      	mvns	r2, r2
80000d46:	401a      	ands	r2, r3
80000d48:	687b      	ldr	r3, [r7, #4]
80000d4a:	619a      	str	r2, [r3, #24]
80000d4c:	bf00      	nop
80000d4e:	370c      	adds	r7, #12
80000d50:	46bd      	mov	sp, r7
80000d52:	f85d 7b04 	ldr.w	r7, [sp], #4
80000d56:	4770      	bx	lr

80000d58 <IOMUXC_SetPinMux>:
80000d58:	b480      	push	{r7}
80000d5a:	b085      	sub	sp, #20
80000d5c:	af00      	add	r7, sp, #0
80000d5e:	60f8      	str	r0, [r7, #12]
80000d60:	60b9      	str	r1, [r7, #8]
80000d62:	607a      	str	r2, [r7, #4]
80000d64:	603b      	str	r3, [r7, #0]
80000d66:	68bb      	ldr	r3, [r7, #8]
80000d68:	f003 010f 	and.w	r1, r3, #15
80000d6c:	69fb      	ldr	r3, [r7, #28]
80000d6e:	011b      	lsls	r3, r3, #4
80000d70:	f003 0210 	and.w	r2, r3, #16
80000d74:	68fb      	ldr	r3, [r7, #12]
80000d76:	430a      	orrs	r2, r1
80000d78:	601a      	str	r2, [r3, #0]
80000d7a:	687b      	ldr	r3, [r7, #4]
80000d7c:	2b00      	cmp	r3, #0
80000d7e:	d004      	beq.n	80000d8a <IOMUXC_SetPinMux+0x32>
80000d80:	687b      	ldr	r3, [r7, #4]
80000d82:	683a      	ldr	r2, [r7, #0]
80000d84:	f002 0207 	and.w	r2, r2, #7
80000d88:	601a      	str	r2, [r3, #0]
80000d8a:	bf00      	nop
80000d8c:	3714      	adds	r7, #20
80000d8e:	46bd      	mov	sp, r7
80000d90:	f85d 7b04 	ldr.w	r7, [sp], #4
80000d94:	4770      	bx	lr

80000d96 <IOMUXC_SetPinConfig>:
80000d96:	b480      	push	{r7}
80000d98:	b085      	sub	sp, #20
80000d9a:	af00      	add	r7, sp, #0
80000d9c:	60f8      	str	r0, [r7, #12]
80000d9e:	60b9      	str	r1, [r7, #8]
80000da0:	607a      	str	r2, [r7, #4]
80000da2:	603b      	str	r3, [r7, #0]
80000da4:	69bb      	ldr	r3, [r7, #24]
80000da6:	2b00      	cmp	r3, #0
80000da8:	d002      	beq.n	80000db0 <IOMUXC_SetPinConfig+0x1a>
80000daa:	69bb      	ldr	r3, [r7, #24]
80000dac:	69fa      	ldr	r2, [r7, #28]
80000dae:	601a      	str	r2, [r3, #0]
80000db0:	bf00      	nop
80000db2:	3714      	adds	r7, #20
80000db4:	46bd      	mov	sp, r7
80000db6:	f85d 7b04 	ldr.w	r7, [sp], #4
80000dba:	4770      	bx	lr

80000dbc <key_init>:
80000dbc:	b580      	push	{r7, lr}
80000dbe:	b086      	sub	sp, #24
80000dc0:	af02      	add	r7, sp, #8
80000dc2:	2300      	movs	r3, #0
80000dc4:	9301      	str	r3, [sp, #4]
80000dc6:	f44f 7346 	mov.w	r3, #792	; 0x318
80000dca:	f2c0 230e 	movt	r3, #526	; 0x20e
80000dce:	9300      	str	r3, [sp, #0]
80000dd0:	2300      	movs	r3, #0
80000dd2:	2200      	movs	r2, #0
80000dd4:	2105      	movs	r1, #5
80000dd6:	208c      	movs	r0, #140	; 0x8c
80000dd8:	f2c0 200e 	movt	r0, #526	; 0x20e
80000ddc:	f7ff ffbc 	bl	80000d58 <IOMUXC_SetPinMux>
80000de0:	f24f 0380 	movw	r3, #61568	; 0xf080
80000de4:	9301      	str	r3, [sp, #4]
80000de6:	f44f 7346 	mov.w	r3, #792	; 0x318
80000dea:	f2c0 230e 	movt	r3, #526	; 0x20e
80000dee:	9300      	str	r3, [sp, #0]
80000df0:	2300      	movs	r3, #0
80000df2:	2200      	movs	r2, #0
80000df4:	2105      	movs	r1, #5
80000df6:	208c      	movs	r0, #140	; 0x8c
80000df8:	f2c0 200e 	movt	r0, #526	; 0x20e
80000dfc:	f7ff ffcb 	bl	80000d96 <IOMUXC_SetPinConfig>
80000e00:	2300      	movs	r3, #0
80000e02:	607b      	str	r3, [r7, #4]
80000e04:	2300      	movs	r3, #0
80000e06:	60fb      	str	r3, [r7, #12]
80000e08:	1d3b      	adds	r3, r7, #4
80000e0a:	461a      	mov	r2, r3
80000e0c:	2112      	movs	r1, #18
80000e0e:	f44f 4040 	mov.w	r0, #49152	; 0xc000
80000e12:	f2c0 2009 	movt	r0, #521	; 0x209
80000e16:	f7ff fe9a 	bl	80000b4e <gpio_init>
80000e1a:	bf00      	nop
80000e1c:	3710      	adds	r7, #16
80000e1e:	46bd      	mov	sp, r7
80000e20:	bd80      	pop	{r7, pc}

80000e22 <key_getvalue>:
80000e22:	b580      	push	{r7, lr}
80000e24:	b082      	sub	sp, #8
80000e26:	af00      	add	r7, sp, #0
80000e28:	2300      	movs	r3, #0
80000e2a:	607b      	str	r3, [r7, #4]
80000e2c:	4b1b      	ldr	r3, [pc, #108]	; (80000e9c <key_getvalue+0x7a>)
80000e2e:	447b      	add	r3, pc
80000e30:	781b      	ldrb	r3, [r3, #0]
80000e32:	2b00      	cmp	r3, #0
80000e34:	d01d      	beq.n	80000e72 <key_getvalue+0x50>
80000e36:	2112      	movs	r1, #18
80000e38:	f44f 4040 	mov.w	r0, #49152	; 0xc000
80000e3c:	f2c0 2009 	movt	r0, #521	; 0x209
80000e40:	f7ff fe50 	bl	80000ae4 <gpio_pinread>
80000e44:	4603      	mov	r3, r0
80000e46:	2b00      	cmp	r3, #0
80000e48:	d113      	bne.n	80000e72 <key_getvalue+0x50>
80000e4a:	200a      	movs	r0, #10
80000e4c:	f7ff fd1f 	bl	8000088e <delay>
80000e50:	2112      	movs	r1, #18
80000e52:	f44f 4040 	mov.w	r0, #49152	; 0xc000
80000e56:	f2c0 2009 	movt	r0, #521	; 0x209
80000e5a:	f7ff fe43 	bl	80000ae4 <gpio_pinread>
80000e5e:	4603      	mov	r3, r0
80000e60:	2b00      	cmp	r3, #0
80000e62:	d116      	bne.n	80000e92 <key_getvalue+0x70>
80000e64:	4b0e      	ldr	r3, [pc, #56]	; (80000ea0 <key_getvalue+0x7e>)
80000e66:	447b      	add	r3, pc
80000e68:	2200      	movs	r2, #0
80000e6a:	701a      	strb	r2, [r3, #0]
80000e6c:	2301      	movs	r3, #1
80000e6e:	607b      	str	r3, [r7, #4]
80000e70:	e00f      	b.n	80000e92 <key_getvalue+0x70>
80000e72:	2112      	movs	r1, #18
80000e74:	f44f 4040 	mov.w	r0, #49152	; 0xc000
80000e78:	f2c0 2009 	movt	r0, #521	; 0x209
80000e7c:	f7ff fe32 	bl	80000ae4 <gpio_pinread>
80000e80:	4603      	mov	r3, r0
80000e82:	2b00      	cmp	r3, #0
80000e84:	d005      	beq.n	80000e92 <key_getvalue+0x70>
80000e86:	4b07      	ldr	r3, [pc, #28]	; (80000ea4 <key_getvalue+0x82>)
80000e88:	447b      	add	r3, pc
80000e8a:	2200      	movs	r2, #0
80000e8c:	701a      	strb	r2, [r3, #0]
80000e8e:	2300      	movs	r3, #0
80000e90:	607b      	str	r3, [r7, #4]
80000e92:	687b      	ldr	r3, [r7, #4]
80000e94:	4618      	mov	r0, r3
80000e96:	3708      	adds	r7, #8
80000e98:	46bd      	mov	sp, r7
80000e9a:	bd80      	pop	{r7, pc}
80000e9c:	000031ee 	andeq	r3, r0, lr, ror #3
80000ea0:	000031b6 			; <UNDEFINED> instruction: 0x000031b6
80000ea4:	00003194 	muleq	r0, r4, r1

80000ea8 <int_init>:
80000ea8:	b580      	push	{r7, lr}
80000eaa:	b086      	sub	sp, #24
80000eac:	af00      	add	r7, sp, #0
80000eae:	ee9f 3f10 	mrc	15, 4, r3, cr15, cr0, {0}
80000eb2:	613b      	str	r3, [r7, #16]
80000eb4:	693b      	ldr	r3, [r7, #16]
80000eb6:	bf00      	nop
80000eb8:	0c1b      	lsrs	r3, r3, #16
80000eba:	041b      	lsls	r3, r3, #16
80000ebc:	60fb      	str	r3, [r7, #12]
80000ebe:	68fb      	ldr	r3, [r7, #12]
80000ec0:	f503 5380 	add.w	r3, r3, #4096	; 0x1000
80000ec4:	685b      	ldr	r3, [r3, #4]
80000ec6:	f003 031f 	and.w	r3, r3, #31
80000eca:	3301      	adds	r3, #1
80000ecc:	60bb      	str	r3, [r7, #8]
80000ece:	2300      	movs	r3, #0
80000ed0:	607b      	str	r3, [r7, #4]
80000ed2:	e00a      	b.n	80000eea <int_init+0x42>
80000ed4:	68fb      	ldr	r3, [r7, #12]
80000ed6:	687a      	ldr	r2, [r7, #4]
80000ed8:	f502 628c 	add.w	r2, r2, #1120	; 0x460
80000edc:	f04f 31ff 	mov.w	r1, #4294967295	; 0xffffffff
80000ee0:	f843 1022 	str.w	r1, [r3, r2, lsl #2]
80000ee4:	687b      	ldr	r3, [r7, #4]
80000ee6:	3301      	adds	r3, #1
80000ee8:	607b      	str	r3, [r7, #4]
80000eea:	68ba      	ldr	r2, [r7, #8]
80000eec:	687b      	ldr	r3, [r7, #4]
80000eee:	429a      	cmp	r2, r3
80000ef0:	d8f0      	bhi.n	80000ed4 <int_init+0x2c>
80000ef2:	68fb      	ldr	r3, [r7, #12]
80000ef4:	f503 5300 	add.w	r3, r3, #8192	; 0x2000
80000ef8:	461a      	mov	r2, r3
80000efa:	23f8      	movs	r3, #248	; 0xf8
80000efc:	6053      	str	r3, [r2, #4]
80000efe:	68fb      	ldr	r3, [r7, #12]
80000f00:	f503 5300 	add.w	r3, r3, #8192	; 0x2000
80000f04:	461a      	mov	r2, r3
80000f06:	2302      	movs	r3, #2
80000f08:	6093      	str	r3, [r2, #8]
80000f0a:	68fb      	ldr	r3, [r7, #12]
80000f0c:	f503 5380 	add.w	r3, r3, #4096	; 0x1000
80000f10:	461a      	mov	r2, r3
80000f12:	2301      	movs	r3, #1
80000f14:	6013      	str	r3, [r2, #0]
80000f16:	68fb      	ldr	r3, [r7, #12]
80000f18:	f503 5300 	add.w	r3, r3, #8192	; 0x2000
80000f1c:	461a      	mov	r2, r3
80000f1e:	2301      	movs	r3, #1
80000f20:	6013      	str	r3, [r2, #0]
80000f22:	bf00      	nop
80000f24:	f000 f80b 	bl	80000f3e <system_irqtable_init>
80000f28:	f04f 4300 	mov.w	r3, #2147483648	; 0x80000000
80000f2c:	617b      	str	r3, [r7, #20]
80000f2e:	697b      	ldr	r3, [r7, #20]
80000f30:	ee0c 3f10 	mcr	15, 0, r3, cr12, cr0, {0}
80000f34:	bf00      	nop
80000f36:	bf00      	nop
80000f38:	3718      	adds	r7, #24
80000f3a:	46bd      	mov	sp, r7
80000f3c:	bd80      	pop	{r7, pc}

80000f3e <system_irqtable_init>:
80000f3e:	b580      	push	{r7, lr}
80000f40:	b082      	sub	sp, #8
80000f42:	af00      	add	r7, sp, #0
80000f44:	2300      	movs	r3, #0
80000f46:	607b      	str	r3, [r7, #4]
80000f48:	4b0c      	ldr	r3, [pc, #48]	; (80000f7c <system_irqtable_init+0x3e>)
80000f4a:	447b      	add	r3, pc
80000f4c:	2200      	movs	r2, #0
80000f4e:	601a      	str	r2, [r3, #0]
80000f50:	2300      	movs	r3, #0
80000f52:	607b      	str	r3, [r7, #4]
80000f54:	e009      	b.n	80000f6a <system_irqtable_init+0x2c>
80000f56:	687b      	ldr	r3, [r7, #4]
80000f58:	2200      	movs	r2, #0
80000f5a:	4909      	ldr	r1, [pc, #36]	; (80000f80 <system_irqtable_init+0x42>)
80000f5c:	4479      	add	r1, pc
80000f5e:	4618      	mov	r0, r3
80000f60:	f000 f810 	bl	80000f84 <system_register_irqhandler>
80000f64:	687b      	ldr	r3, [r7, #4]
80000f66:	3301      	adds	r3, #1
80000f68:	607b      	str	r3, [r7, #4]
80000f6a:	687b      	ldr	r3, [r7, #4]
80000f6c:	2b9f      	cmp	r3, #159	; 0x9f
80000f6e:	d9f2      	bls.n	80000f56 <system_irqtable_init+0x18>
80000f70:	bf00      	nop
80000f72:	bf00      	nop
80000f74:	3708      	adds	r7, #8
80000f76:	46bd      	mov	sp, r7
80000f78:	bd80      	pop	{r7, pc}
80000f7a:	bf00      	nop
80000f7c:	000031e6 	andeq	r3, r0, r6, ror #3
80000f80:	000000e1 	andeq	r0, r0, r1, ror #1

80000f84 <system_register_irqhandler>:
80000f84:	b480      	push	{r7}
80000f86:	b085      	sub	sp, #20
80000f88:	af00      	add	r7, sp, #0
80000f8a:	60f8      	str	r0, [r7, #12]
80000f8c:	60b9      	str	r1, [r7, #8]
80000f8e:	607a      	str	r2, [r7, #4]
80000f90:	4b09      	ldr	r3, [pc, #36]	; (80000fb8 <system_register_irqhandler+0x34>)
80000f92:	447b      	add	r3, pc
80000f94:	68fa      	ldr	r2, [r7, #12]
80000f96:	68b9      	ldr	r1, [r7, #8]
80000f98:	f843 1032 	str.w	r1, [r3, r2, lsl #3]
80000f9c:	4a07      	ldr	r2, [pc, #28]	; (80000fbc <system_register_irqhandler+0x38>)
80000f9e:	447a      	add	r2, pc
80000fa0:	68fb      	ldr	r3, [r7, #12]
80000fa2:	00db      	lsls	r3, r3, #3
80000fa4:	4413      	add	r3, r2
80000fa6:	687a      	ldr	r2, [r7, #4]
80000fa8:	605a      	str	r2, [r3, #4]
80000faa:	bf00      	nop
80000fac:	3714      	adds	r7, #20
80000fae:	46bd      	mov	sp, r7
80000fb0:	f85d 7b04 	ldr.w	r7, [sp], #4
80000fb4:	4770      	bx	lr
80000fb6:	bf00      	nop
80000fb8:	000031a2 	andeq	r3, r0, r2, lsr #3
80000fbc:	00003196 	muleq	r0, r6, r1

80000fc0 <system_irqhandler>:
80000fc0:	b580      	push	{r7, lr}
80000fc2:	b084      	sub	sp, #16
80000fc4:	af00      	add	r7, sp, #0
80000fc6:	6078      	str	r0, [r7, #4]
80000fc8:	687b      	ldr	r3, [r7, #4]
80000fca:	f3c3 0309 	ubfx	r3, r3, #0, #10
80000fce:	60fb      	str	r3, [r7, #12]
80000fd0:	6879      	ldr	r1, [r7, #4]
80000fd2:	4b14      	ldr	r3, [pc, #80]	; (80001024 <system_irqhandler+0x64>)
80000fd4:	447b      	add	r3, pc
80000fd6:	4618      	mov	r0, r3
80000fd8:	f000 fd70 	bl	80001abc <printf>
80000fdc:	68fb      	ldr	r3, [r7, #12]
80000fde:	2b9f      	cmp	r3, #159	; 0x9f
80000fe0:	d81c      	bhi.n	8000101c <system_irqhandler+0x5c>
80000fe2:	4b11      	ldr	r3, [pc, #68]	; (80001028 <system_irqhandler+0x68>)
80000fe4:	447b      	add	r3, pc
80000fe6:	681b      	ldr	r3, [r3, #0]
80000fe8:	1c5a      	adds	r2, r3, #1
80000fea:	4b10      	ldr	r3, [pc, #64]	; (8000102c <system_irqhandler+0x6c>)
80000fec:	447b      	add	r3, pc
80000fee:	601a      	str	r2, [r3, #0]
80000ff0:	4b0f      	ldr	r3, [pc, #60]	; (80001030 <system_irqhandler+0x70>)
80000ff2:	447b      	add	r3, pc
80000ff4:	68fa      	ldr	r2, [r7, #12]
80000ff6:	f853 2032 	ldr.w	r2, [r3, r2, lsl #3]
80000ffa:	490e      	ldr	r1, [pc, #56]	; (80001034 <system_irqhandler+0x74>)
80000ffc:	4479      	add	r1, pc
80000ffe:	68fb      	ldr	r3, [r7, #12]
80001000:	00db      	lsls	r3, r3, #3
80001002:	440b      	add	r3, r1
80001004:	685b      	ldr	r3, [r3, #4]
80001006:	4619      	mov	r1, r3
80001008:	68f8      	ldr	r0, [r7, #12]
8000100a:	4790      	blx	r2
8000100c:	4b0a      	ldr	r3, [pc, #40]	; (80001038 <system_irqhandler+0x78>)
8000100e:	447b      	add	r3, pc
80001010:	681b      	ldr	r3, [r3, #0]
80001012:	1e5a      	subs	r2, r3, #1
80001014:	4b09      	ldr	r3, [pc, #36]	; (8000103c <system_irqhandler+0x7c>)
80001016:	447b      	add	r3, pc
80001018:	601a      	str	r2, [r3, #0]
8000101a:	e000      	b.n	8000101e <system_irqhandler+0x5e>
8000101c:	bf00      	nop
8000101e:	3710      	adds	r7, #16
80001020:	46bd      	mov	sp, r7
80001022:	bd80      	pop	{r7, pc}
80001024:	00002ff4 	strdeq	r2, [r0], -r4
80001028:	0000314c 	andeq	r3, r0, ip, asr #2
8000102c:	00003144 	andeq	r3, r0, r4, asr #2
80001030:	00003142 	andeq	r3, r0, r2, asr #2
80001034:	00003138 	andeq	r3, r0, r8, lsr r1
80001038:	00003122 	andeq	r3, r0, r2, lsr #2
8000103c:	0000311a 	andeq	r3, r0, sl, lsl r1

80001040 <default_irqhandler>:
80001040:	b580      	push	{r7, lr}
80001042:	b082      	sub	sp, #8
80001044:	af00      	add	r7, sp, #0
80001046:	6078      	str	r0, [r7, #4]
80001048:	6039      	str	r1, [r7, #0]
8000104a:	4b04      	ldr	r3, [pc, #16]	; (8000105c <default_irqhandler+0x1c>)
8000104c:	447b      	add	r3, pc
8000104e:	4618      	mov	r0, r3
80001050:	f000 fd34 	bl	80001abc <printf>
80001054:	bf00      	nop
80001056:	3708      	adds	r7, #8
80001058:	46bd      	mov	sp, r7
8000105a:	bd80      	pop	{r7, pc}
8000105c:	00002f94 	muleq	r0, r4, pc	; <UNPREDICTABLE>

80001060 <IOMUXC_SetPinMux>:
80001060:	b480      	push	{r7}
80001062:	b085      	sub	sp, #20
80001064:	af00      	add	r7, sp, #0
80001066:	60f8      	str	r0, [r7, #12]
80001068:	60b9      	str	r1, [r7, #8]
8000106a:	607a      	str	r2, [r7, #4]
8000106c:	603b      	str	r3, [r7, #0]
8000106e:	68bb      	ldr	r3, [r7, #8]
80001070:	f003 010f 	and.w	r1, r3, #15
80001074:	69fb      	ldr	r3, [r7, #28]
80001076:	011b      	lsls	r3, r3, #4
80001078:	f003 0210 	and.w	r2, r3, #16
8000107c:	68fb      	ldr	r3, [r7, #12]
8000107e:	430a      	orrs	r2, r1
80001080:	601a      	str	r2, [r3, #0]
80001082:	687b      	ldr	r3, [r7, #4]
80001084:	2b00      	cmp	r3, #0
80001086:	d004      	beq.n	80001092 <IOMUXC_SetPinMux+0x32>
80001088:	687b      	ldr	r3, [r7, #4]
8000108a:	683a      	ldr	r2, [r7, #0]
8000108c:	f002 0207 	and.w	r2, r2, #7
80001090:	601a      	str	r2, [r3, #0]
80001092:	bf00      	nop
80001094:	3714      	adds	r7, #20
80001096:	46bd      	mov	sp, r7
80001098:	f85d 7b04 	ldr.w	r7, [sp], #4
8000109c:	4770      	bx	lr

8000109e <IOMUXC_SetPinConfig>:
8000109e:	b480      	push	{r7}
800010a0:	b085      	sub	sp, #20
800010a2:	af00      	add	r7, sp, #0
800010a4:	60f8      	str	r0, [r7, #12]
800010a6:	60b9      	str	r1, [r7, #8]
800010a8:	607a      	str	r2, [r7, #4]
800010aa:	603b      	str	r3, [r7, #0]
800010ac:	69bb      	ldr	r3, [r7, #24]
800010ae:	2b00      	cmp	r3, #0
800010b0:	d002      	beq.n	800010b8 <IOMUXC_SetPinConfig+0x1a>
800010b2:	69bb      	ldr	r3, [r7, #24]
800010b4:	69fa      	ldr	r2, [r7, #28]
800010b6:	601a      	str	r2, [r3, #0]
800010b8:	bf00      	nop
800010ba:	3714      	adds	r7, #20
800010bc:	46bd      	mov	sp, r7
800010be:	f85d 7b04 	ldr.w	r7, [sp], #4
800010c2:	4770      	bx	lr

800010c4 <exti_init>:
800010c4:	b580      	push	{r7, lr}
800010c6:	b088      	sub	sp, #32
800010c8:	af02      	add	r7, sp, #8
800010ca:	2300      	movs	r3, #0
800010cc:	9301      	str	r3, [sp, #4]
800010ce:	f44f 7346 	mov.w	r3, #792	; 0x318
800010d2:	f2c0 230e 	movt	r3, #526	; 0x20e
800010d6:	9300      	str	r3, [sp, #0]
800010d8:	2300      	movs	r3, #0
800010da:	2200      	movs	r2, #0
800010dc:	2105      	movs	r1, #5
800010de:	208c      	movs	r0, #140	; 0x8c
800010e0:	f2c0 200e 	movt	r0, #526	; 0x20e
800010e4:	f7ff ffbc 	bl	80001060 <IOMUXC_SetPinMux>
800010e8:	f24f 0380 	movw	r3, #61568	; 0xf080
800010ec:	9301      	str	r3, [sp, #4]
800010ee:	f44f 7346 	mov.w	r3, #792	; 0x318
800010f2:	f2c0 230e 	movt	r3, #526	; 0x20e
800010f6:	9300      	str	r3, [sp, #0]
800010f8:	2300      	movs	r3, #0
800010fa:	2200      	movs	r2, #0
800010fc:	2105      	movs	r1, #5
800010fe:	208c      	movs	r0, #140	; 0x8c
80001100:	f2c0 200e 	movt	r0, #526	; 0x20e
80001104:	f7ff ffcb 	bl	8000109e <IOMUXC_SetPinConfig>
80001108:	2300      	movs	r3, #0
8000110a:	603b      	str	r3, [r7, #0]
8000110c:	2304      	movs	r3, #4
8000110e:	60bb      	str	r3, [r7, #8]
80001110:	2301      	movs	r3, #1
80001112:	713b      	strb	r3, [r7, #4]
80001114:	463b      	mov	r3, r7
80001116:	461a      	mov	r2, r3
80001118:	2112      	movs	r1, #18
8000111a:	f44f 4040 	mov.w	r0, #49152	; 0xc000
8000111e:	f2c0 2009 	movt	r0, #521	; 0x209
80001122:	f7ff fd14 	bl	80000b4e <gpio_init>
80001126:	2363      	movs	r3, #99	; 0x63
80001128:	617b      	str	r3, [r7, #20]
8000112a:	ee9f 3f10 	mrc	15, 4, r3, cr15, cr0, {0}
8000112e:	613b      	str	r3, [r7, #16]
80001130:	693b      	ldr	r3, [r7, #16]
80001132:	bf00      	nop
80001134:	0c1b      	lsrs	r3, r3, #16
80001136:	041b      	lsls	r3, r3, #16
80001138:	60fb      	str	r3, [r7, #12]
8000113a:	697b      	ldr	r3, [r7, #20]
8000113c:	f003 031f 	and.w	r3, r3, #31
80001140:	697a      	ldr	r2, [r7, #20]
80001142:	0952      	lsrs	r2, r2, #5
80001144:	2101      	movs	r1, #1
80001146:	4099      	lsls	r1, r3
80001148:	68fb      	ldr	r3, [r7, #12]
8000114a:	f502 6288 	add.w	r2, r2, #1088	; 0x440
8000114e:	f843 1022 	str.w	r1, [r3, r2, lsl #2]
80001152:	bf00      	nop
80001154:	2200      	movs	r2, #0
80001156:	4b08      	ldr	r3, [pc, #32]	; (80001178 <exti_init+0xb4>)
80001158:	447b      	add	r3, pc
8000115a:	4619      	mov	r1, r3
8000115c:	2063      	movs	r0, #99	; 0x63
8000115e:	f7ff ff11 	bl	80000f84 <system_register_irqhandler>
80001162:	2112      	movs	r1, #18
80001164:	f44f 4040 	mov.w	r0, #49152	; 0xc000
80001168:	f2c0 2009 	movt	r0, #521	; 0x209
8000116c:	f7ff fda2 	bl	80000cb4 <gpio_enableint>
80001170:	bf00      	nop
80001172:	3718      	adds	r7, #24
80001174:	46bd      	mov	sp, r7
80001176:	bd80      	pop	{r7, pc}
80001178:	00000021 	andeq	r0, r0, r1, lsr #32

8000117c <gpio1_io18_irqhandler>:
8000117c:	b580      	push	{r7, lr}
8000117e:	af00      	add	r7, sp, #0
80001180:	2112      	movs	r1, #18
80001182:	f44f 4040 	mov.w	r0, #49152	; 0xc000
80001186:	f2c0 2009 	movt	r0, #521	; 0x209
8000118a:	f7ff fdbc 	bl	80000d06 <gpio_clearintflags>
8000118e:	bf00      	nop
80001190:	bd80      	pop	{r7, pc}
80001192:	bf00      	nop

80001194 <epit1_init>:
80001194:	b580      	push	{r7, lr}
80001196:	b08a      	sub	sp, #40	; 0x28
80001198:	af00      	add	r7, sp, #0
8000119a:	6078      	str	r0, [r7, #4]
8000119c:	6039      	str	r1, [r7, #0]
8000119e:	687b      	ldr	r3, [r7, #4]
800011a0:	f5b3 5f80 	cmp.w	r3, #4096	; 0x1000
800011a4:	d302      	bcc.n	800011ac <epit1_init+0x18>
800011a6:	f640 73ff 	movw	r3, #4095	; 0xfff
800011aa:	607b      	str	r3, [r7, #4]
800011ac:	2300      	movs	r3, #0
800011ae:	f2c0 230d 	movt	r3, #525	; 0x20d
800011b2:	2200      	movs	r2, #0
800011b4:	601a      	str	r2, [r3, #0]
800011b6:	687b      	ldr	r3, [r7, #4]
800011b8:	011b      	lsls	r3, r3, #4
800011ba:	2200      	movs	r2, #0
800011bc:	f2c0 220d 	movt	r2, #525	; 0x20d
800011c0:	f043 7380 	orr.w	r3, r3, #16777216	; 0x1000000
800011c4:	f043 030e 	orr.w	r3, r3, #14
800011c8:	6013      	str	r3, [r2, #0]
800011ca:	2300      	movs	r3, #0
800011cc:	f2c0 230d 	movt	r3, #525	; 0x20d
800011d0:	683a      	ldr	r2, [r7, #0]
800011d2:	609a      	str	r2, [r3, #8]
800011d4:	2300      	movs	r3, #0
800011d6:	f2c0 230d 	movt	r3, #525	; 0x20d
800011da:	2200      	movs	r2, #0
800011dc:	60da      	str	r2, [r3, #12]
800011de:	2358      	movs	r3, #88	; 0x58
800011e0:	617b      	str	r3, [r7, #20]
800011e2:	ee9f 3f10 	mrc	15, 4, r3, cr15, cr0, {0}
800011e6:	613b      	str	r3, [r7, #16]
800011e8:	693b      	ldr	r3, [r7, #16]
800011ea:	bf00      	nop
800011ec:	0c1b      	lsrs	r3, r3, #16
800011ee:	041b      	lsls	r3, r3, #16
800011f0:	60fb      	str	r3, [r7, #12]
800011f2:	697b      	ldr	r3, [r7, #20]
800011f4:	f003 031f 	and.w	r3, r3, #31
800011f8:	697a      	ldr	r2, [r7, #20]
800011fa:	0952      	lsrs	r2, r2, #5
800011fc:	2101      	movs	r1, #1
800011fe:	4099      	lsls	r1, r3
80001200:	68fb      	ldr	r3, [r7, #12]
80001202:	f502 6288 	add.w	r2, r2, #1088	; 0x440
80001206:	f843 1022 	str.w	r1, [r3, r2, lsl #2]
8000120a:	bf00      	nop
8000120c:	238d      	movs	r3, #141	; 0x8d
8000120e:	627b      	str	r3, [r7, #36]	; 0x24
80001210:	2340      	movs	r3, #64	; 0x40
80001212:	623b      	str	r3, [r7, #32]
80001214:	ee9f 3f10 	mrc	15, 4, r3, cr15, cr0, {0}
80001218:	61fb      	str	r3, [r7, #28]
8000121a:	69fb      	ldr	r3, [r7, #28]
8000121c:	bf00      	nop
8000121e:	0c1b      	lsrs	r3, r3, #16
80001220:	041b      	lsls	r3, r3, #16
80001222:	61bb      	str	r3, [r7, #24]
80001224:	6a3b      	ldr	r3, [r7, #32]
80001226:	b2da      	uxtb	r2, r3
80001228:	6a7b      	ldr	r3, [r7, #36]	; 0x24
8000122a:	00d2      	lsls	r2, r2, #3
8000122c:	b2d1      	uxtb	r1, r2
8000122e:	69ba      	ldr	r2, [r7, #24]
80001230:	4413      	add	r3, r2
80001232:	f503 53a0 	add.w	r3, r3, #5120	; 0x1400
80001236:	460a      	mov	r2, r1
80001238:	701a      	strb	r2, [r3, #0]
8000123a:	bf00      	nop
8000123c:	2200      	movs	r2, #0
8000123e:	4b0a      	ldr	r3, [pc, #40]	; (80001268 <epit1_init+0xd4>)
80001240:	447b      	add	r3, pc
80001242:	4619      	mov	r1, r3
80001244:	2058      	movs	r0, #88	; 0x58
80001246:	f7ff fe9d 	bl	80000f84 <system_register_irqhandler>
8000124a:	2300      	movs	r3, #0
8000124c:	f2c0 230d 	movt	r3, #525	; 0x20d
80001250:	681a      	ldr	r2, [r3, #0]
80001252:	2300      	movs	r3, #0
80001254:	f2c0 230d 	movt	r3, #525	; 0x20d
80001258:	f042 0201 	orr.w	r2, r2, #1
8000125c:	601a      	str	r2, [r3, #0]
8000125e:	bf00      	nop
80001260:	3728      	adds	r7, #40	; 0x28
80001262:	46bd      	mov	sp, r7
80001264:	bd80      	pop	{r7, pc}
80001266:	bf00      	nop
80001268:	00000029 	andeq	r0, r0, r9, lsr #32

8000126c <epit1_irqhandler>:
8000126c:	b580      	push	{r7, lr}
8000126e:	af00      	add	r7, sp, #0
80001270:	2068      	movs	r0, #104	; 0x68
80001272:	f000 facf 	bl	80001814 <putc>
80001276:	2300      	movs	r3, #0
80001278:	f2c0 230d 	movt	r3, #525	; 0x20d
8000127c:	685a      	ldr	r2, [r3, #4]
8000127e:	2300      	movs	r3, #0
80001280:	f2c0 230d 	movt	r3, #525	; 0x20d
80001284:	f042 0201 	orr.w	r2, r2, #1
80001288:	605a      	str	r2, [r3, #4]
8000128a:	bf00      	nop
8000128c:	bd80      	pop	{r7, pc}
8000128e:	bf00      	nop

80001290 <IOMUXC_SetPinMux>:
80001290:	b480      	push	{r7}
80001292:	b085      	sub	sp, #20
80001294:	af00      	add	r7, sp, #0
80001296:	60f8      	str	r0, [r7, #12]
80001298:	60b9      	str	r1, [r7, #8]
8000129a:	607a      	str	r2, [r7, #4]
8000129c:	603b      	str	r3, [r7, #0]
8000129e:	68bb      	ldr	r3, [r7, #8]
800012a0:	f003 010f 	and.w	r1, r3, #15
800012a4:	69fb      	ldr	r3, [r7, #28]
800012a6:	011b      	lsls	r3, r3, #4
800012a8:	f003 0210 	and.w	r2, r3, #16
800012ac:	68fb      	ldr	r3, [r7, #12]
800012ae:	430a      	orrs	r2, r1
800012b0:	601a      	str	r2, [r3, #0]
800012b2:	687b      	ldr	r3, [r7, #4]
800012b4:	2b00      	cmp	r3, #0
800012b6:	d004      	beq.n	800012c2 <IOMUXC_SetPinMux+0x32>
800012b8:	687b      	ldr	r3, [r7, #4]
800012ba:	683a      	ldr	r2, [r7, #0]
800012bc:	f002 0207 	and.w	r2, r2, #7
800012c0:	601a      	str	r2, [r3, #0]
800012c2:	bf00      	nop
800012c4:	3714      	adds	r7, #20
800012c6:	46bd      	mov	sp, r7
800012c8:	f85d 7b04 	ldr.w	r7, [sp], #4
800012cc:	4770      	bx	lr

800012ce <IOMUXC_SetPinConfig>:
800012ce:	b480      	push	{r7}
800012d0:	b085      	sub	sp, #20
800012d2:	af00      	add	r7, sp, #0
800012d4:	60f8      	str	r0, [r7, #12]
800012d6:	60b9      	str	r1, [r7, #8]
800012d8:	607a      	str	r2, [r7, #4]
800012da:	603b      	str	r3, [r7, #0]
800012dc:	69bb      	ldr	r3, [r7, #24]
800012de:	2b00      	cmp	r3, #0
800012e0:	d002      	beq.n	800012e8 <IOMUXC_SetPinConfig+0x1a>
800012e2:	69bb      	ldr	r3, [r7, #24]
800012e4:	69fa      	ldr	r2, [r7, #28]
800012e6:	601a      	str	r2, [r3, #0]
800012e8:	bf00      	nop
800012ea:	3714      	adds	r7, #20
800012ec:	46bd      	mov	sp, r7
800012ee:	f85d 7b04 	ldr.w	r7, [sp], #4
800012f2:	4770      	bx	lr

800012f4 <uart_init>:
800012f4:	b580      	push	{r7, lr}
800012f6:	af00      	add	r7, sp, #0
800012f8:	2000      	movs	r0, #0
800012fa:	f2c0 2002 	movt	r0, #514	; 0x202
800012fe:	f000 fa4a 	bl	80001796 <uart_disable>
80001302:	2000      	movs	r0, #0
80001304:	f2c0 2002 	movt	r0, #514	; 0x202
80001308:	f000 fa69 	bl	800017de <uart_softreset>
8000130c:	2300      	movs	r3, #0
8000130e:	f2c0 2302 	movt	r3, #514	; 0x202
80001312:	2200      	movs	r2, #0
80001314:	f8c3 2080 	str.w	r2, [r3, #128]	; 0x80
80001318:	2300      	movs	r3, #0
8000131a:	f2c0 2302 	movt	r3, #514	; 0x202
8000131e:	f8d3 2080 	ldr.w	r2, [r3, #128]	; 0x80
80001322:	2300      	movs	r3, #0
80001324:	f2c0 2302 	movt	r3, #514	; 0x202
80001328:	f422 4280 	bic.w	r2, r2, #16384	; 0x4000
8000132c:	f8c3 2080 	str.w	r2, [r3, #128]	; 0x80
80001330:	2300      	movs	r3, #0
80001332:	f2c0 2302 	movt	r3, #514	; 0x202
80001336:	f8d3 3084 	ldr.w	r3, [r3, #132]	; 0x84
8000133a:	2200      	movs	r2, #0
8000133c:	f2c0 2202 	movt	r2, #514	; 0x202
80001340:	f443 4380 	orr.w	r3, r3, #16384	; 0x4000
80001344:	f043 0326 	orr.w	r3, r3, #38	; 0x26
80001348:	f8c2 3084 	str.w	r3, [r2, #132]	; 0x84
8000134c:	2300      	movs	r3, #0
8000134e:	f2c0 2302 	movt	r3, #514	; 0x202
80001352:	f8d3 2088 	ldr.w	r2, [r3, #136]	; 0x88
80001356:	2300      	movs	r3, #0
80001358:	f2c0 2302 	movt	r3, #514	; 0x202
8000135c:	f042 0204 	orr.w	r2, r2, #4
80001360:	f8c3 2088 	str.w	r2, [r3, #136]	; 0x88
80001364:	2300      	movs	r3, #0
80001366:	f2c0 2302 	movt	r3, #514	; 0x202
8000136a:	f44f 7220 	mov.w	r2, #640	; 0x280
8000136e:	f8c3 2090 	str.w	r2, [r3, #144]	; 0x90
80001372:	2300      	movs	r3, #0
80001374:	f2c0 2302 	movt	r3, #514	; 0x202
80001378:	2247      	movs	r2, #71	; 0x47
8000137a:	f8c3 20a4 	str.w	r2, [r3, #164]	; 0xa4
8000137e:	2300      	movs	r3, #0
80001380:	f2c0 2302 	movt	r3, #514	; 0x202
80001384:	f640 4234 	movw	r2, #3124	; 0xc34
80001388:	f8c3 20a8 	str.w	r2, [r3, #168]	; 0xa8
8000138c:	2000      	movs	r0, #0
8000138e:	f2c0 2002 	movt	r0, #514	; 0x202
80001392:	f000 fa12 	bl	800017ba <uart_enable>
80001396:	bf00      	nop
80001398:	bd80      	pop	{r7, pc}

8000139a <uart_io_init>:
8000139a:	b580      	push	{r7, lr}
8000139c:	b082      	sub	sp, #8
8000139e:	af02      	add	r7, sp, #8
800013a0:	2300      	movs	r3, #0
800013a2:	9301      	str	r3, [sp, #4]
800013a4:	f44f 7344 	mov.w	r3, #784	; 0x310
800013a8:	f2c0 230e 	movt	r3, #526	; 0x20e
800013ac:	9300      	str	r3, [sp, #0]
800013ae:	2300      	movs	r3, #0
800013b0:	2200      	movs	r2, #0
800013b2:	2100      	movs	r1, #0
800013b4:	2084      	movs	r0, #132	; 0x84
800013b6:	f2c0 200e 	movt	r0, #526	; 0x20e
800013ba:	f7ff ff69 	bl	80001290 <IOMUXC_SetPinMux>
800013be:	2300      	movs	r3, #0
800013c0:	9301      	str	r3, [sp, #4]
800013c2:	f44f 7345 	mov.w	r3, #788	; 0x314
800013c6:	f2c0 230e 	movt	r3, #526	; 0x20e
800013ca:	9300      	str	r3, [sp, #0]
800013cc:	2303      	movs	r3, #3
800013ce:	f240 6224 	movw	r2, #1572	; 0x624
800013d2:	f2c0 220e 	movt	r2, #526	; 0x20e
800013d6:	2100      	movs	r1, #0
800013d8:	2088      	movs	r0, #136	; 0x88
800013da:	f2c0 200e 	movt	r0, #526	; 0x20e
800013de:	f7ff ff57 	bl	80001290 <IOMUXC_SetPinMux>
800013e2:	f241 03b0 	movw	r3, #4272	; 0x10b0
800013e6:	9301      	str	r3, [sp, #4]
800013e8:	f44f 7344 	mov.w	r3, #784	; 0x310
800013ec:	f2c0 230e 	movt	r3, #526	; 0x20e
800013f0:	9300      	str	r3, [sp, #0]
800013f2:	2300      	movs	r3, #0
800013f4:	2200      	movs	r2, #0
800013f6:	2100      	movs	r1, #0
800013f8:	2084      	movs	r0, #132	; 0x84
800013fa:	f2c0 200e 	movt	r0, #526	; 0x20e
800013fe:	f7ff ff66 	bl	800012ce <IOMUXC_SetPinConfig>
80001402:	f241 03b0 	movw	r3, #4272	; 0x10b0
80001406:	9301      	str	r3, [sp, #4]
80001408:	f44f 7345 	mov.w	r3, #788	; 0x314
8000140c:	f2c0 230e 	movt	r3, #526	; 0x20e
80001410:	9300      	str	r3, [sp, #0]
80001412:	2303      	movs	r3, #3
80001414:	f240 6224 	movw	r2, #1572	; 0x624
80001418:	f2c0 220e 	movt	r2, #526	; 0x20e
8000141c:	2100      	movs	r1, #0
8000141e:	2088      	movs	r0, #136	; 0x88
80001420:	f2c0 200e 	movt	r0, #526	; 0x20e
80001424:	f7ff ff53 	bl	800012ce <IOMUXC_SetPinConfig>
80001428:	bf00      	nop
8000142a:	46bd      	mov	sp, r7
8000142c:	bd80      	pop	{r7, pc}

8000142e <uart_setbaudrate>:
8000142e:	e92d 4fb0 	stmdb	sp!, {r4, r5, r7, r8, r9, sl, fp, lr}
80001432:	b0a4      	sub	sp, #144	; 0x90
80001434:	af00      	add	r7, sp, #0
80001436:	6578      	str	r0, [r7, #84]	; 0x54
80001438:	6539      	str	r1, [r7, #80]	; 0x50
8000143a:	64fa      	str	r2, [r7, #76]	; 0x4c
8000143c:	2300      	movs	r3, #0
8000143e:	f8c7 308c 	str.w	r3, [r7, #140]	; 0x8c
80001442:	2300      	movs	r3, #0
80001444:	f8c7 3088 	str.w	r3, [r7, #136]	; 0x88
80001448:	2300      	movs	r3, #0
8000144a:	f8c7 3084 	str.w	r3, [r7, #132]	; 0x84
8000144e:	2300      	movs	r3, #0
80001450:	f8c7 3080 	str.w	r3, [r7, #128]	; 0x80
80001454:	2301      	movs	r3, #1
80001456:	673b      	str	r3, [r7, #112]	; 0x70
80001458:	f04f 0200 	mov.w	r2, #0
8000145c:	f04f 0300 	mov.w	r3, #0
80001460:	e9c7 231a 	strd	r2, r3, [r7, #104]	; 0x68
80001464:	f04f 0200 	mov.w	r2, #0
80001468:	f04f 0300 	mov.w	r3, #0
8000146c:	e9c7 231e 	strd	r2, r3, [r7, #120]	; 0x78
80001470:	2300      	movs	r3, #0
80001472:	677b      	str	r3, [r7, #116]	; 0x74
80001474:	6cfb      	ldr	r3, [r7, #76]	; 0x4c
80001476:	f8c7 308c 	str.w	r3, [r7, #140]	; 0x8c
8000147a:	6d3b      	ldr	r3, [r7, #80]	; 0x50
8000147c:	011b      	lsls	r3, r3, #4
8000147e:	f8c7 3088 	str.w	r3, [r7, #136]	; 0x88
80001482:	2301      	movs	r3, #1
80001484:	f8c7 3084 	str.w	r3, [r7, #132]	; 0x84
80001488:	e011      	b.n	800014ae <uart_setbaudrate+0x80>
8000148a:	f8d7 3088 	ldr.w	r3, [r7, #136]	; 0x88
8000148e:	f8c7 3084 	str.w	r3, [r7, #132]	; 0x84
80001492:	f8d7 308c 	ldr.w	r3, [r7, #140]	; 0x8c
80001496:	f8d7 1088 	ldr.w	r1, [r7, #136]	; 0x88
8000149a:	4618      	mov	r0, r3
8000149c:	f002 fcd6 	bl	80003e4c <__aeabi_uidivmod>
800014a0:	460b      	mov	r3, r1
800014a2:	f8c7 3088 	str.w	r3, [r7, #136]	; 0x88
800014a6:	f8d7 3084 	ldr.w	r3, [r7, #132]	; 0x84
800014aa:	f8c7 308c 	str.w	r3, [r7, #140]	; 0x8c
800014ae:	f8d7 3088 	ldr.w	r3, [r7, #136]	; 0x88
800014b2:	2b00      	cmp	r3, #0
800014b4:	d1e9      	bne.n	8000148a <uart_setbaudrate+0x5c>
800014b6:	f8d7 1084 	ldr.w	r1, [r7, #132]	; 0x84
800014ba:	6cf8      	ldr	r0, [r7, #76]	; 0x4c
800014bc:	f002 fb98 	bl	80003bf0 <__udivsi3>
800014c0:	4603      	mov	r3, r0
800014c2:	f8c7 308c 	str.w	r3, [r7, #140]	; 0x8c
800014c6:	6d3b      	ldr	r3, [r7, #80]	; 0x50
800014c8:	011b      	lsls	r3, r3, #4
800014ca:	f8d7 1084 	ldr.w	r1, [r7, #132]	; 0x84
800014ce:	4618      	mov	r0, r3
800014d0:	f002 fb8e 	bl	80003bf0 <__udivsi3>
800014d4:	4603      	mov	r3, r0
800014d6:	f8c7 3088 	str.w	r3, [r7, #136]	; 0x88
800014da:	f8d7 208c 	ldr.w	r2, [r7, #140]	; 0x8c
800014de:	f64f 73f9 	movw	r3, #65529	; 0xfff9
800014e2:	f2c0 0306 	movt	r3, #6
800014e6:	429a      	cmp	r2, r3
800014e8:	d804      	bhi.n	800014f4 <uart_setbaudrate+0xc6>
800014ea:	f8d7 3088 	ldr.w	r3, [r7, #136]	; 0x88
800014ee:	f5b3 3f80 	cmp.w	r3, #65536	; 0x10000
800014f2:	d33e      	bcc.n	80001572 <uart_setbaudrate+0x144>
800014f4:	f8d7 308c 	ldr.w	r3, [r7, #140]	; 0x8c
800014f8:	1e59      	subs	r1, r3, #1
800014fa:	f646 53b9 	movw	r3, #28089	; 0x6db9
800014fe:	f2c2 4393 	movt	r3, #9363	; 0x2493
80001502:	fba3 3201 	umull	r3, r2, r3, r1
80001506:	1a8b      	subs	r3, r1, r2
80001508:	085b      	lsrs	r3, r3, #1
8000150a:	4413      	add	r3, r2
8000150c:	0c9b      	lsrs	r3, r3, #18
8000150e:	3301      	adds	r3, #1
80001510:	667b      	str	r3, [r7, #100]	; 0x64
80001512:	f8d7 3088 	ldr.w	r3, [r7, #136]	; 0x88
80001516:	1e5a      	subs	r2, r3, #1
80001518:	f248 0301 	movw	r3, #32769	; 0x8001
8000151c:	f2c8 0300 	movt	r3, #32768	; 0x8000
80001520:	fba3 2302 	umull	r2, r3, r3, r2
80001524:	0bdb      	lsrs	r3, r3, #15
80001526:	3301      	adds	r3, #1
80001528:	663b      	str	r3, [r7, #96]	; 0x60
8000152a:	6e3a      	ldr	r2, [r7, #96]	; 0x60
8000152c:	6e7b      	ldr	r3, [r7, #100]	; 0x64
8000152e:	4293      	cmp	r3, r2
80001530:	bf38      	it	cc
80001532:	4613      	movcc	r3, r2
80001534:	65fb      	str	r3, [r7, #92]	; 0x5c
80001536:	6df9      	ldr	r1, [r7, #92]	; 0x5c
80001538:	f8d7 008c 	ldr.w	r0, [r7, #140]	; 0x8c
8000153c:	f002 fb58 	bl	80003bf0 <__udivsi3>
80001540:	4603      	mov	r3, r0
80001542:	f8c7 308c 	str.w	r3, [r7, #140]	; 0x8c
80001546:	6df9      	ldr	r1, [r7, #92]	; 0x5c
80001548:	f8d7 0088 	ldr.w	r0, [r7, #136]	; 0x88
8000154c:	f002 fb50 	bl	80003bf0 <__udivsi3>
80001550:	4603      	mov	r3, r0
80001552:	f8c7 3088 	str.w	r3, [r7, #136]	; 0x88
80001556:	f8d7 308c 	ldr.w	r3, [r7, #140]	; 0x8c
8000155a:	2b00      	cmp	r3, #0
8000155c:	d102      	bne.n	80001564 <uart_setbaudrate+0x136>
8000155e:	2301      	movs	r3, #1
80001560:	f8c7 308c 	str.w	r3, [r7, #140]	; 0x8c
80001564:	f8d7 3088 	ldr.w	r3, [r7, #136]	; 0x88
80001568:	2b00      	cmp	r3, #0
8000156a:	d102      	bne.n	80001572 <uart_setbaudrate+0x144>
8000156c:	2301      	movs	r3, #1
8000156e:	f8c7 3088 	str.w	r3, [r7, #136]	; 0x88
80001572:	f8d7 308c 	ldr.w	r3, [r7, #140]	; 0x8c
80001576:	1e5a      	subs	r2, r3, #1
80001578:	f248 0301 	movw	r3, #32769	; 0x8001
8000157c:	f2c8 0300 	movt	r3, #32768	; 0x8000
80001580:	fba3 2302 	umull	r2, r3, r3, r2
80001584:	0bdb      	lsrs	r3, r3, #15
80001586:	3301      	adds	r3, #1
80001588:	673b      	str	r3, [r7, #112]	; 0x70
8000158a:	6f3b      	ldr	r3, [r7, #112]	; 0x70
8000158c:	3b01      	subs	r3, #1
8000158e:	2b06      	cmp	r3, #6
80001590:	d82e      	bhi.n	800015f0 <uart_setbaudrate+0x1c2>
80001592:	a202      	add	r2, pc, #8	; (adr r2, 8000159c <uart_setbaudrate+0x16e>)
80001594:	f852 3023 	ldr.w	r3, [r2, r3, lsl #2]
80001598:	441a      	add	r2, r3
8000159a:	4710      	bx	r2
8000159c:	0000001d 	andeq	r0, r0, sp, lsl r0
800015a0:	00000025 	andeq	r0, r0, r5, lsr #32
800015a4:	0000002d 	andeq	r0, r0, sp, lsr #32
800015a8:	00000035 	andeq	r0, r0, r5, lsr r0
800015ac:	0000003d 	andeq	r0, r0, sp, lsr r0
800015b0:	00000045 	andeq	r0, r0, r5, asr #32
800015b4:	0000004d 	andeq	r0, r0, sp, asr #32
800015b8:	2305      	movs	r3, #5
800015ba:	f8c7 3080 	str.w	r3, [r7, #128]	; 0x80
800015be:	e01b      	b.n	800015f8 <uart_setbaudrate+0x1ca>
800015c0:	2304      	movs	r3, #4
800015c2:	f8c7 3080 	str.w	r3, [r7, #128]	; 0x80
800015c6:	e017      	b.n	800015f8 <uart_setbaudrate+0x1ca>
800015c8:	2303      	movs	r3, #3
800015ca:	f8c7 3080 	str.w	r3, [r7, #128]	; 0x80
800015ce:	e013      	b.n	800015f8 <uart_setbaudrate+0x1ca>
800015d0:	2302      	movs	r3, #2
800015d2:	f8c7 3080 	str.w	r3, [r7, #128]	; 0x80
800015d6:	e00f      	b.n	800015f8 <uart_setbaudrate+0x1ca>
800015d8:	2301      	movs	r3, #1
800015da:	f8c7 3080 	str.w	r3, [r7, #128]	; 0x80
800015de:	e00b      	b.n	800015f8 <uart_setbaudrate+0x1ca>
800015e0:	2300      	movs	r3, #0
800015e2:	f8c7 3080 	str.w	r3, [r7, #128]	; 0x80
800015e6:	e007      	b.n	800015f8 <uart_setbaudrate+0x1ca>
800015e8:	2306      	movs	r3, #6
800015ea:	f8c7 3080 	str.w	r3, [r7, #128]	; 0x80
800015ee:	e003      	b.n	800015f8 <uart_setbaudrate+0x1ca>
800015f0:	2305      	movs	r3, #5
800015f2:	f8c7 3080 	str.w	r3, [r7, #128]	; 0x80
800015f6:	bf00      	nop
800015f8:	6cfb      	ldr	r3, [r7, #76]	; 0x4c
800015fa:	2200      	movs	r2, #0
800015fc:	613b      	str	r3, [r7, #16]
800015fe:	617a      	str	r2, [r7, #20]
80001600:	e9d7 2304 	ldrd	r2, r3, [r7, #16]
80001604:	e9c7 231e 	strd	r2, r3, [r7, #120]	; 0x78
80001608:	f8d7 308c 	ldr.w	r3, [r7, #140]	; 0x8c
8000160c:	011b      	lsls	r3, r3, #4
8000160e:	677b      	str	r3, [r7, #116]	; 0x74
80001610:	2301      	movs	r3, #1
80001612:	f8c7 3084 	str.w	r3, [r7, #132]	; 0x84
80001616:	e017      	b.n	80001648 <uart_setbaudrate+0x21a>
80001618:	6f7b      	ldr	r3, [r7, #116]	; 0x74
8000161a:	f8c7 3084 	str.w	r3, [r7, #132]	; 0x84
8000161e:	6f7b      	ldr	r3, [r7, #116]	; 0x74
80001620:	2200      	movs	r2, #0
80001622:	643b      	str	r3, [r7, #64]	; 0x40
80001624:	647a      	str	r2, [r7, #68]	; 0x44
80001626:	e9d7 011e 	ldrd	r0, r1, [r7, #120]	; 0x78
8000162a:	e9d7 2310 	ldrd	r2, r3, [r7, #64]	; 0x40
8000162e:	f002 fc1b 	bl	80003e68 <__aeabi_uldivmod>
80001632:	4613      	mov	r3, r2
80001634:	677b      	str	r3, [r7, #116]	; 0x74
80001636:	f8d7 3084 	ldr.w	r3, [r7, #132]	; 0x84
8000163a:	2200      	movs	r2, #0
8000163c:	60bb      	str	r3, [r7, #8]
8000163e:	60fa      	str	r2, [r7, #12]
80001640:	e9d7 2302 	ldrd	r2, r3, [r7, #8]
80001644:	e9c7 231e 	strd	r2, r3, [r7, #120]	; 0x78
80001648:	6f7b      	ldr	r3, [r7, #116]	; 0x74
8000164a:	2b00      	cmp	r3, #0
8000164c:	d1e4      	bne.n	80001618 <uart_setbaudrate+0x1ea>
8000164e:	f8d7 1084 	ldr.w	r1, [r7, #132]	; 0x84
80001652:	6cf8      	ldr	r0, [r7, #76]	; 0x4c
80001654:	f002 facc 	bl	80003bf0 <__udivsi3>
80001658:	4603      	mov	r3, r0
8000165a:	461a      	mov	r2, r3
8000165c:	2300      	movs	r3, #0
8000165e:	603a      	str	r2, [r7, #0]
80001660:	607b      	str	r3, [r7, #4]
80001662:	e9d7 2300 	ldrd	r2, r3, [r7]
80001666:	e9c7 231e 	strd	r2, r3, [r7, #120]	; 0x78
8000166a:	f8d7 308c 	ldr.w	r3, [r7, #140]	; 0x8c
8000166e:	011b      	lsls	r3, r3, #4
80001670:	f8d7 1084 	ldr.w	r1, [r7, #132]	; 0x84
80001674:	4618      	mov	r0, r3
80001676:	f002 fabb 	bl	80003bf0 <__udivsi3>
8000167a:	4603      	mov	r3, r0
8000167c:	677b      	str	r3, [r7, #116]	; 0x74
8000167e:	f8d7 3088 	ldr.w	r3, [r7, #136]	; 0x88
80001682:	2200      	movs	r2, #0
80001684:	469a      	mov	sl, r3
80001686:	4693      	mov	fp, r2
80001688:	6fbb      	ldr	r3, [r7, #120]	; 0x78
8000168a:	fb0b f203 	mul.w	r2, fp, r3
8000168e:	6ffb      	ldr	r3, [r7, #124]	; 0x7c
80001690:	fb0a f303 	mul.w	r3, sl, r3
80001694:	441a      	add	r2, r3
80001696:	6fbb      	ldr	r3, [r7, #120]	; 0x78
80001698:	fba3 890a 	umull	r8, r9, r3, sl
8000169c:	eb02 0309 	add.w	r3, r2, r9
800016a0:	4699      	mov	r9, r3
800016a2:	6f7b      	ldr	r3, [r7, #116]	; 0x74
800016a4:	2200      	movs	r2, #0
800016a6:	63bb      	str	r3, [r7, #56]	; 0x38
800016a8:	63fa      	str	r2, [r7, #60]	; 0x3c
800016aa:	e9d7 230e 	ldrd	r2, r3, [r7, #56]	; 0x38
800016ae:	4640      	mov	r0, r8
800016b0:	4649      	mov	r1, r9
800016b2:	f002 fbd9 	bl	80003e68 <__aeabi_uldivmod>
800016b6:	4602      	mov	r2, r0
800016b8:	460b      	mov	r3, r1
800016ba:	e9c7 231a 	strd	r2, r3, [r7, #104]	; 0x68
800016be:	6d3b      	ldr	r3, [r7, #80]	; 0x50
800016c0:	2200      	movs	r2, #0
800016c2:	633b      	str	r3, [r7, #48]	; 0x30
800016c4:	637a      	str	r2, [r7, #52]	; 0x34
800016c6:	e9d7 231a 	ldrd	r2, r3, [r7, #104]	; 0x68
800016ca:	e9d7 890c 	ldrd	r8, r9, [r7, #48]	; 0x30
800016ce:	4641      	mov	r1, r8
800016d0:	428a      	cmp	r2, r1
800016d2:	4649      	mov	r1, r9
800016d4:	418b      	sbcs	r3, r1
800016d6:	d30d      	bcc.n	800016f4 <uart_setbaudrate+0x2c6>
800016d8:	6d3b      	ldr	r3, [r7, #80]	; 0x50
800016da:	2200      	movs	r2, #0
800016dc:	62bb      	str	r3, [r7, #40]	; 0x28
800016de:	62fa      	str	r2, [r7, #44]	; 0x2c
800016e0:	e9d7 231a 	ldrd	r2, r3, [r7, #104]	; 0x68
800016e4:	e9d7 890a 	ldrd	r8, r9, [r7, #40]	; 0x28
800016e8:	4641      	mov	r1, r8
800016ea:	1a54      	subs	r4, r2, r1
800016ec:	4649      	mov	r1, r9
800016ee:	eb63 0501 	sbc.w	r5, r3, r1
800016f2:	e00c      	b.n	8000170e <uart_setbaudrate+0x2e0>
800016f4:	6d3b      	ldr	r3, [r7, #80]	; 0x50
800016f6:	2200      	movs	r2, #0
800016f8:	623b      	str	r3, [r7, #32]
800016fa:	627a      	str	r2, [r7, #36]	; 0x24
800016fc:	e9d7 231a 	ldrd	r2, r3, [r7, #104]	; 0x68
80001700:	e9d7 8908 	ldrd	r8, r9, [r7, #32]
80001704:	4641      	mov	r1, r8
80001706:	1a8c      	subs	r4, r1, r2
80001708:	4649      	mov	r1, r9
8000170a:	eb61 0503 	sbc.w	r5, r1, r3
8000170e:	e9c7 451a 	strd	r4, r5, [r7, #104]	; 0x68
80001712:	6d3a      	ldr	r2, [r7, #80]	; 0x50
80001714:	f248 531f 	movw	r3, #34079	; 0x851f
80001718:	f2c5 13eb 	movt	r3, #20971	; 0x51eb
8000171c:	fba3 2302 	umull	r2, r3, r3, r2
80001720:	095a      	lsrs	r2, r3, #5
80001722:	4613      	mov	r3, r2
80001724:	005b      	lsls	r3, r3, #1
80001726:	4413      	add	r3, r2
80001728:	2200      	movs	r2, #0
8000172a:	61bb      	str	r3, [r7, #24]
8000172c:	61fa      	str	r2, [r7, #28]
8000172e:	e9d7 231a 	ldrd	r2, r3, [r7, #104]	; 0x68
80001732:	e9d7 4506 	ldrd	r4, r5, [r7, #24]
80001736:	4621      	mov	r1, r4
80001738:	428a      	cmp	r2, r1
8000173a:	4629      	mov	r1, r5
8000173c:	418b      	sbcs	r3, r1
8000173e:	d225      	bcs.n	8000178c <uart_setbaudrate+0x35e>
80001740:	6d7b      	ldr	r3, [r7, #84]	; 0x54
80001742:	f8d3 3090 	ldr.w	r3, [r3, #144]	; 0x90
80001746:	f423 7260 	bic.w	r2, r3, #896	; 0x380
8000174a:	6d7b      	ldr	r3, [r7, #84]	; 0x54
8000174c:	f8c3 2090 	str.w	r2, [r3, #144]	; 0x90
80001750:	6d7b      	ldr	r3, [r7, #84]	; 0x54
80001752:	f8d3 2090 	ldr.w	r2, [r3, #144]	; 0x90
80001756:	f8d7 3080 	ldr.w	r3, [r7, #128]	; 0x80
8000175a:	01db      	lsls	r3, r3, #7
8000175c:	f403 7360 	and.w	r3, r3, #896	; 0x380
80001760:	431a      	orrs	r2, r3
80001762:	6d7b      	ldr	r3, [r7, #84]	; 0x54
80001764:	f8c3 2090 	str.w	r2, [r3, #144]	; 0x90
80001768:	f8d7 3088 	ldr.w	r3, [r7, #136]	; 0x88
8000176c:	3b01      	subs	r3, #1
8000176e:	b29a      	uxth	r2, r3
80001770:	6d7b      	ldr	r3, [r7, #84]	; 0x54
80001772:	f8c3 20a4 	str.w	r2, [r3, #164]	; 0xa4
80001776:	6f39      	ldr	r1, [r7, #112]	; 0x70
80001778:	f8d7 008c 	ldr.w	r0, [r7, #140]	; 0x8c
8000177c:	f002 fa38 	bl	80003bf0 <__udivsi3>
80001780:	4603      	mov	r3, r0
80001782:	3b01      	subs	r3, #1
80001784:	b29a      	uxth	r2, r3
80001786:	6d7b      	ldr	r3, [r7, #84]	; 0x54
80001788:	f8c3 20a8 	str.w	r2, [r3, #168]	; 0xa8
8000178c:	bf00      	nop
8000178e:	3790      	adds	r7, #144	; 0x90
80001790:	46bd      	mov	sp, r7
80001792:	e8bd 8fb0 	ldmia.w	sp!, {r4, r5, r7, r8, r9, sl, fp, pc}

80001796 <uart_disable>:
80001796:	b480      	push	{r7}
80001798:	b083      	sub	sp, #12
8000179a:	af00      	add	r7, sp, #0
8000179c:	6078      	str	r0, [r7, #4]
8000179e:	687b      	ldr	r3, [r7, #4]
800017a0:	f8d3 3080 	ldr.w	r3, [r3, #128]	; 0x80
800017a4:	f023 0201 	bic.w	r2, r3, #1
800017a8:	687b      	ldr	r3, [r7, #4]
800017aa:	f8c3 2080 	str.w	r2, [r3, #128]	; 0x80
800017ae:	bf00      	nop
800017b0:	370c      	adds	r7, #12
800017b2:	46bd      	mov	sp, r7
800017b4:	f85d 7b04 	ldr.w	r7, [sp], #4
800017b8:	4770      	bx	lr

800017ba <uart_enable>:
800017ba:	b480      	push	{r7}
800017bc:	b083      	sub	sp, #12
800017be:	af00      	add	r7, sp, #0
800017c0:	6078      	str	r0, [r7, #4]
800017c2:	687b      	ldr	r3, [r7, #4]
800017c4:	f8d3 3080 	ldr.w	r3, [r3, #128]	; 0x80
800017c8:	f043 0201 	orr.w	r2, r3, #1
800017cc:	687b      	ldr	r3, [r7, #4]
800017ce:	f8c3 2080 	str.w	r2, [r3, #128]	; 0x80
800017d2:	bf00      	nop
800017d4:	370c      	adds	r7, #12
800017d6:	46bd      	mov	sp, r7
800017d8:	f85d 7b04 	ldr.w	r7, [sp], #4
800017dc:	4770      	bx	lr

800017de <uart_softreset>:
800017de:	b480      	push	{r7}
800017e0:	b083      	sub	sp, #12
800017e2:	af00      	add	r7, sp, #0
800017e4:	6078      	str	r0, [r7, #4]
800017e6:	687b      	ldr	r3, [r7, #4]
800017e8:	f8d3 3084 	ldr.w	r3, [r3, #132]	; 0x84
800017ec:	f023 0201 	bic.w	r2, r3, #1
800017f0:	687b      	ldr	r3, [r7, #4]
800017f2:	f8c3 2084 	str.w	r2, [r3, #132]	; 0x84
800017f6:	bf00      	nop
800017f8:	687b      	ldr	r3, [r7, #4]
800017fa:	f8d3 3084 	ldr.w	r3, [r3, #132]	; 0x84
800017fe:	f003 0301 	and.w	r3, r3, #1
80001802:	2b00      	cmp	r3, #0
80001804:	d0f8      	beq.n	800017f8 <uart_softreset+0x1a>
80001806:	bf00      	nop
80001808:	bf00      	nop
8000180a:	370c      	adds	r7, #12
8000180c:	46bd      	mov	sp, r7
8000180e:	f85d 7b04 	ldr.w	r7, [sp], #4
80001812:	4770      	bx	lr

80001814 <putc>:
80001814:	b480      	push	{r7}
80001816:	b083      	sub	sp, #12
80001818:	af00      	add	r7, sp, #0
8000181a:	4603      	mov	r3, r0
8000181c:	71fb      	strb	r3, [r7, #7]
8000181e:	bf00      	nop
80001820:	2300      	movs	r3, #0
80001822:	f2c0 2302 	movt	r3, #514	; 0x202
80001826:	f8d3 3098 	ldr.w	r3, [r3, #152]	; 0x98
8000182a:	f003 0308 	and.w	r3, r3, #8
8000182e:	2b00      	cmp	r3, #0
80001830:	d0f6      	beq.n	80001820 <putc+0xc>
80001832:	2300      	movs	r3, #0
80001834:	f2c0 2302 	movt	r3, #514	; 0x202
80001838:	79fa      	ldrb	r2, [r7, #7]
8000183a:	641a      	str	r2, [r3, #64]	; 0x40
8000183c:	bf00      	nop
8000183e:	370c      	adds	r7, #12
80001840:	46bd      	mov	sp, r7
80001842:	f85d 7b04 	ldr.w	r7, [sp], #4
80001846:	4770      	bx	lr

80001848 <puts>:
80001848:	b580      	push	{r7, lr}
8000184a:	b084      	sub	sp, #16
8000184c:	af00      	add	r7, sp, #0
8000184e:	6078      	str	r0, [r7, #4]
80001850:	687b      	ldr	r3, [r7, #4]
80001852:	60fb      	str	r3, [r7, #12]
80001854:	e006      	b.n	80001864 <puts+0x1c>
80001856:	68fb      	ldr	r3, [r7, #12]
80001858:	1c5a      	adds	r2, r3, #1
8000185a:	60fa      	str	r2, [r7, #12]
8000185c:	781b      	ldrb	r3, [r3, #0]
8000185e:	4618      	mov	r0, r3
80001860:	f7ff ffd8 	bl	80001814 <putc>
80001864:	68fb      	ldr	r3, [r7, #12]
80001866:	781b      	ldrb	r3, [r3, #0]
80001868:	2b00      	cmp	r3, #0
8000186a:	d1f4      	bne.n	80001856 <puts+0xe>
8000186c:	bf00      	nop
8000186e:	bf00      	nop
80001870:	3710      	adds	r7, #16
80001872:	46bd      	mov	sp, r7
80001874:	bd80      	pop	{r7, pc}

80001876 <getc>:
80001876:	b480      	push	{r7}
80001878:	af00      	add	r7, sp, #0
8000187a:	bf00      	nop
8000187c:	2300      	movs	r3, #0
8000187e:	f2c0 2302 	movt	r3, #514	; 0x202
80001882:	f8d3 3098 	ldr.w	r3, [r3, #152]	; 0x98
80001886:	f003 0301 	and.w	r3, r3, #1
8000188a:	2b00      	cmp	r3, #0
8000188c:	d0f6      	beq.n	8000187c <getc+0x6>
8000188e:	2300      	movs	r3, #0
80001890:	f2c0 2302 	movt	r3, #514	; 0x202
80001894:	681b      	ldr	r3, [r3, #0]
80001896:	b2db      	uxtb	r3, r3
80001898:	4618      	mov	r0, r3
8000189a:	46bd      	mov	sp, r7
8000189c:	f85d 7b04 	ldr.w	r7, [sp], #4
800018a0:	4770      	bx	lr

800018a2 <raise>:
800018a2:	b480      	push	{r7}
800018a4:	b083      	sub	sp, #12
800018a6:	af00      	add	r7, sp, #0
800018a8:	6078      	str	r0, [r7, #4]
800018aa:	bf00      	nop
800018ac:	370c      	adds	r7, #12
800018ae:	46bd      	mov	sp, r7
800018b0:	f85d 7b04 	ldr.w	r7, [sp], #4
800018b4:	4770      	bx	lr
800018b6:	bf00      	nop

800018b8 <__div64_32>:
800018b8:	e92d 4fb0 	stmdb	sp!, {r4, r5, r7, r8, r9, sl, fp, lr}
800018bc:	b096      	sub	sp, #88	; 0x58
800018be:	af00      	add	r7, sp, #0
800018c0:	62f8      	str	r0, [r7, #44]	; 0x2c
800018c2:	62b9      	str	r1, [r7, #40]	; 0x28
800018c4:	6afb      	ldr	r3, [r7, #44]	; 0x2c
800018c6:	e9d3 2300 	ldrd	r2, r3, [r3]
800018ca:	e9c7 2314 	strd	r2, r3, [r7, #80]	; 0x50
800018ce:	6abb      	ldr	r3, [r7, #40]	; 0x28
800018d0:	2200      	movs	r2, #0
800018d2:	461c      	mov	r4, r3
800018d4:	4615      	mov	r5, r2
800018d6:	e9c7 4512 	strd	r4, r5, [r7, #72]	; 0x48
800018da:	f04f 0201 	mov.w	r2, #1
800018de:	f04f 0300 	mov.w	r3, #0
800018e2:	e9c7 230e 	strd	r2, r3, [r7, #56]	; 0x38
800018e6:	e9d7 2314 	ldrd	r2, r3, [r7, #80]	; 0x50
800018ea:	f04f 0000 	mov.w	r0, #0
800018ee:	f04f 0100 	mov.w	r1, #0
800018f2:	0018      	movs	r0, r3
800018f4:	2100      	movs	r1, #0
800018f6:	4603      	mov	r3, r0
800018f8:	637b      	str	r3, [r7, #52]	; 0x34
800018fa:	f04f 0200 	mov.w	r2, #0
800018fe:	f04f 0300 	mov.w	r3, #0
80001902:	e9c7 2310 	strd	r2, r3, [r7, #64]	; 0x40
80001906:	6b7a      	ldr	r2, [r7, #52]	; 0x34
80001908:	6abb      	ldr	r3, [r7, #40]	; 0x28
8000190a:	429a      	cmp	r2, r3
8000190c:	d340      	bcc.n	80001990 <__div64_32+0xd8>
8000190e:	6ab9      	ldr	r1, [r7, #40]	; 0x28
80001910:	6b78      	ldr	r0, [r7, #52]	; 0x34
80001912:	f002 f96d 	bl	80003bf0 <__udivsi3>
80001916:	4603      	mov	r3, r0
80001918:	637b      	str	r3, [r7, #52]	; 0x34
8000191a:	6b7b      	ldr	r3, [r7, #52]	; 0x34
8000191c:	2200      	movs	r2, #0
8000191e:	623b      	str	r3, [r7, #32]
80001920:	627a      	str	r2, [r7, #36]	; 0x24
80001922:	f04f 0200 	mov.w	r2, #0
80001926:	f04f 0300 	mov.w	r3, #0
8000192a:	6a39      	ldr	r1, [r7, #32]
8000192c:	000b      	movs	r3, r1
8000192e:	2200      	movs	r2, #0
80001930:	e9c7 2310 	strd	r2, r3, [r7, #64]	; 0x40
80001934:	6b7b      	ldr	r3, [r7, #52]	; 0x34
80001936:	6aba      	ldr	r2, [r7, #40]	; 0x28
80001938:	fb02 f303 	mul.w	r3, r2, r3
8000193c:	2200      	movs	r2, #0
8000193e:	61bb      	str	r3, [r7, #24]
80001940:	61fa      	str	r2, [r7, #28]
80001942:	f04f 0200 	mov.w	r2, #0
80001946:	f04f 0300 	mov.w	r3, #0
8000194a:	69b9      	ldr	r1, [r7, #24]
8000194c:	000b      	movs	r3, r1
8000194e:	2200      	movs	r2, #0
80001950:	e9d7 0114 	ldrd	r0, r1, [r7, #80]	; 0x50
80001954:	1a84      	subs	r4, r0, r2
80001956:	613c      	str	r4, [r7, #16]
80001958:	eb61 0303 	sbc.w	r3, r1, r3
8000195c:	617b      	str	r3, [r7, #20]
8000195e:	e9d7 3404 	ldrd	r3, r4, [r7, #16]
80001962:	e9c7 3414 	strd	r3, r4, [r7, #80]	; 0x50
80001966:	e013      	b.n	80001990 <__div64_32+0xd8>
80001968:	e9d7 2312 	ldrd	r2, r3, [r7, #72]	; 0x48
8000196c:	1891      	adds	r1, r2, r2
8000196e:	60b9      	str	r1, [r7, #8]
80001970:	415b      	adcs	r3, r3
80001972:	60fb      	str	r3, [r7, #12]
80001974:	e9d7 3402 	ldrd	r3, r4, [r7, #8]
80001978:	e9c7 3412 	strd	r3, r4, [r7, #72]	; 0x48
8000197c:	e9d7 230e 	ldrd	r2, r3, [r7, #56]	; 0x38
80001980:	1891      	adds	r1, r2, r2
80001982:	6039      	str	r1, [r7, #0]
80001984:	415b      	adcs	r3, r3
80001986:	607b      	str	r3, [r7, #4]
80001988:	e9d7 3400 	ldrd	r3, r4, [r7]
8000198c:	e9c7 340e 	strd	r3, r4, [r7, #56]	; 0x38
80001990:	e9d7 2312 	ldrd	r2, r3, [r7, #72]	; 0x48
80001994:	2a01      	cmp	r2, #1
80001996:	f173 0300 	sbcs.w	r3, r3, #0
8000199a:	db07      	blt.n	800019ac <__div64_32+0xf4>
8000199c:	e9d7 0112 	ldrd	r0, r1, [r7, #72]	; 0x48
800019a0:	e9d7 2314 	ldrd	r2, r3, [r7, #80]	; 0x50
800019a4:	4290      	cmp	r0, r2
800019a6:	eb71 0303 	sbcs.w	r3, r1, r3
800019aa:	d3dd      	bcc.n	80001968 <__div64_32+0xb0>
800019ac:	e9d7 0114 	ldrd	r0, r1, [r7, #80]	; 0x50
800019b0:	e9d7 2312 	ldrd	r2, r3, [r7, #72]	; 0x48
800019b4:	4290      	cmp	r0, r2
800019b6:	eb71 0303 	sbcs.w	r3, r1, r3
800019ba:	d313      	bcc.n	800019e4 <__div64_32+0x12c>
800019bc:	e9d7 0114 	ldrd	r0, r1, [r7, #80]	; 0x50
800019c0:	e9d7 2312 	ldrd	r2, r3, [r7, #72]	; 0x48
800019c4:	ebb0 0802 	subs.w	r8, r0, r2
800019c8:	eb61 0903 	sbc.w	r9, r1, r3
800019cc:	e9c7 8914 	strd	r8, r9, [r7, #80]	; 0x50
800019d0:	e9d7 0110 	ldrd	r0, r1, [r7, #64]	; 0x40
800019d4:	e9d7 230e 	ldrd	r2, r3, [r7, #56]	; 0x38
800019d8:	eb10 0a02 	adds.w	sl, r0, r2
800019dc:	eb41 0b03 	adc.w	fp, r1, r3
800019e0:	e9c7 ab10 	strd	sl, fp, [r7, #64]	; 0x40
800019e4:	e9d7 0112 	ldrd	r0, r1, [r7, #72]	; 0x48
800019e8:	f04f 0200 	mov.w	r2, #0
800019ec:	f04f 0300 	mov.w	r3, #0
800019f0:	0842      	lsrs	r2, r0, #1
800019f2:	ea42 72c1 	orr.w	r2, r2, r1, lsl #31
800019f6:	084b      	lsrs	r3, r1, #1
800019f8:	e9c7 2312 	strd	r2, r3, [r7, #72]	; 0x48
800019fc:	e9d7 010e 	ldrd	r0, r1, [r7, #56]	; 0x38
80001a00:	f04f 0200 	mov.w	r2, #0
80001a04:	f04f 0300 	mov.w	r3, #0
80001a08:	0842      	lsrs	r2, r0, #1
80001a0a:	ea42 72c1 	orr.w	r2, r2, r1, lsl #31
80001a0e:	084b      	lsrs	r3, r1, #1
80001a10:	e9c7 230e 	strd	r2, r3, [r7, #56]	; 0x38
80001a14:	e9d7 230e 	ldrd	r2, r3, [r7, #56]	; 0x38
80001a18:	4313      	orrs	r3, r2
80001a1a:	d1c7      	bne.n	800019ac <__div64_32+0xf4>
80001a1c:	6af9      	ldr	r1, [r7, #44]	; 0x2c
80001a1e:	e9d7 2310 	ldrd	r2, r3, [r7, #64]	; 0x40
80001a22:	e9c1 2300 	strd	r2, r3, [r1]
80001a26:	6d3b      	ldr	r3, [r7, #80]	; 0x50
80001a28:	4618      	mov	r0, r3
80001a2a:	3758      	adds	r7, #88	; 0x58
80001a2c:	46bd      	mov	sp, r7
80001a2e:	e8bd 8fb0 	ldmia.w	sp!, {r4, r5, r7, r8, r9, sl, fp, pc}

80001a32 <__muldi3>:
80001a32:	b490      	push	{r4, r7}
80001a34:	b08c      	sub	sp, #48	; 0x30
80001a36:	af00      	add	r7, sp, #0
80001a38:	e9c7 0102 	strd	r0, r1, [r7, #8]
80001a3c:	e9c7 2300 	strd	r2, r3, [r7]
80001a40:	e9d7 2302 	ldrd	r2, r3, [r7, #8]
80001a44:	e9c7 2308 	strd	r2, r3, [r7, #32]
80001a48:	e9d7 2300 	ldrd	r2, r3, [r7]
80001a4c:	e9c7 2306 	strd	r2, r3, [r7, #24]
80001a50:	6a3b      	ldr	r3, [r7, #32]
80001a52:	69ba      	ldr	r2, [r7, #24]
80001a54:	4611      	mov	r1, r2
80001a56:	ea4f 4013 	mov.w	r0, r3, lsr #16
80001a5a:	ea4f 4211 	mov.w	r2, r1, lsr #16
80001a5e:	ea23 4400 	bic.w	r4, r3, r0, lsl #16
80001a62:	ea21 4102 	bic.w	r1, r1, r2, lsl #16
80001a66:	fb04 f301 	mul.w	r3, r4, r1
80001a6a:	fb00 f101 	mul.w	r1, r0, r1
80001a6e:	fb02 f404 	mul.w	r4, r2, r4
80001a72:	fb00 f202 	mul.w	r2, r0, r2
80001a76:	190c      	adds	r4, r1, r4
80001a78:	bf28      	it	cs
80001a7a:	f502 3280 	addcs.w	r2, r2, #65536	; 0x10000
80001a7e:	eb13 4304 	adds.w	r3, r3, r4, lsl #16
80001a82:	eb42 4214 	adc.w	r2, r2, r4, lsr #16
80001a86:	617a      	str	r2, [r7, #20]
80001a88:	613b      	str	r3, [r7, #16]
80001a8a:	e9d7 2304 	ldrd	r2, r3, [r7, #16]
80001a8e:	e9c7 230a 	strd	r2, r3, [r7, #40]	; 0x28
80001a92:	6afb      	ldr	r3, [r7, #44]	; 0x2c
80001a94:	4619      	mov	r1, r3
80001a96:	6a3b      	ldr	r3, [r7, #32]
80001a98:	69fa      	ldr	r2, [r7, #28]
80001a9a:	fb03 f202 	mul.w	r2, r3, r2
80001a9e:	6a7b      	ldr	r3, [r7, #36]	; 0x24
80001aa0:	69b8      	ldr	r0, [r7, #24]
80001aa2:	fb00 f303 	mul.w	r3, r0, r3
80001aa6:	4413      	add	r3, r2
80001aa8:	440b      	add	r3, r1
80001aaa:	62fb      	str	r3, [r7, #44]	; 0x2c
80001aac:	e9d7 230a 	ldrd	r2, r3, [r7, #40]	; 0x28
80001ab0:	4610      	mov	r0, r2
80001ab2:	4619      	mov	r1, r3
80001ab4:	3730      	adds	r7, #48	; 0x30
80001ab6:	46bd      	mov	sp, r7
80001ab8:	bc90      	pop	{r4, r7}
80001aba:	4770      	bx	lr

80001abc <printf>:
80001abc:	b40f      	push	{r0, r1, r2, r3}
80001abe:	b580      	push	{r7, lr}
80001ac0:	b084      	sub	sp, #16
80001ac2:	af00      	add	r7, sp, #0
80001ac4:	f107 031c 	add.w	r3, r7, #28
80001ac8:	60bb      	str	r3, [r7, #8]
80001aca:	69bb      	ldr	r3, [r7, #24]
80001acc:	68ba      	ldr	r2, [r7, #8]
80001ace:	4619      	mov	r1, r3
80001ad0:	4b12      	ldr	r3, [pc, #72]	; (80001b1c <printf+0x60>)
80001ad2:	447b      	add	r3, pc
80001ad4:	4618      	mov	r0, r3
80001ad6:	f001 fcd4 	bl	80003482 <vsprintf>
80001ada:	6078      	str	r0, [r7, #4]
80001adc:	2300      	movs	r3, #0
80001ade:	60fb      	str	r3, [r7, #12]
80001ae0:	e00a      	b.n	80001af8 <printf+0x3c>
80001ae2:	4a0f      	ldr	r2, [pc, #60]	; (80001b20 <printf+0x64>)
80001ae4:	447a      	add	r2, pc
80001ae6:	68fb      	ldr	r3, [r7, #12]
80001ae8:	4413      	add	r3, r2
80001aea:	781b      	ldrb	r3, [r3, #0]
80001aec:	4618      	mov	r0, r3
80001aee:	f7ff fe91 	bl	80001814 <putc>
80001af2:	68fb      	ldr	r3, [r7, #12]
80001af4:	3301      	adds	r3, #1
80001af6:	60fb      	str	r3, [r7, #12]
80001af8:	4b0a      	ldr	r3, [pc, #40]	; (80001b24 <printf+0x68>)
80001afa:	447b      	add	r3, pc
80001afc:	4618      	mov	r0, r3
80001afe:	f000 f9c1 	bl	80001e84 <strlen>
80001b02:	4602      	mov	r2, r0
80001b04:	68fb      	ldr	r3, [r7, #12]
80001b06:	429a      	cmp	r2, r3
80001b08:	d8eb      	bhi.n	80001ae2 <printf+0x26>
80001b0a:	687b      	ldr	r3, [r7, #4]
80001b0c:	4618      	mov	r0, r3
80001b0e:	3710      	adds	r7, #16
80001b10:	46bd      	mov	sp, r7
80001b12:	e8bd 4080 	ldmia.w	sp!, {r7, lr}
80001b16:	b004      	add	sp, #16
80001b18:	4770      	bx	lr
80001b1a:	bf00      	nop
80001b1c:	00002b62 	andeq	r2, r0, r2, ror #22
80001b20:	00002b50 	andeq	r2, r0, r0, asr fp
80001b24:	00002b3a 	andeq	r2, r0, sl, lsr fp

80001b28 <scanf>:
80001b28:	b40f      	push	{r0, r1, r2, r3}
80001b2a:	b580      	push	{r7, lr}
80001b2c:	b084      	sub	sp, #16
80001b2e:	af00      	add	r7, sp, #0
80001b30:	2300      	movs	r3, #0
80001b32:	60fb      	str	r3, [r7, #12]
80001b34:	f7ff fe9f 	bl	80001876 <getc>
80001b38:	4603      	mov	r3, r0
80001b3a:	72fb      	strb	r3, [r7, #11]
80001b3c:	7afb      	ldrb	r3, [r7, #11]
80001b3e:	4618      	mov	r0, r3
80001b40:	f7ff fe68 	bl	80001814 <putc>
80001b44:	7afb      	ldrb	r3, [r7, #11]
80001b46:	2b0d      	cmp	r3, #13
80001b48:	d002      	beq.n	80001b50 <scanf+0x28>
80001b4a:	7afb      	ldrb	r3, [r7, #11]
80001b4c:	2b0a      	cmp	r3, #10
80001b4e:	d106      	bne.n	80001b5e <scanf+0x36>
80001b50:	4a11      	ldr	r2, [pc, #68]	; (80001b98 <scanf+0x70>)
80001b52:	447a      	add	r2, pc
80001b54:	68fb      	ldr	r3, [r7, #12]
80001b56:	4413      	add	r3, r2
80001b58:	2200      	movs	r2, #0
80001b5a:	701a      	strb	r2, [r3, #0]
80001b5c:	e007      	b.n	80001b6e <scanf+0x46>
80001b5e:	68fb      	ldr	r3, [r7, #12]
80001b60:	1c5a      	adds	r2, r3, #1
80001b62:	60fa      	str	r2, [r7, #12]
80001b64:	4a0d      	ldr	r2, [pc, #52]	; (80001b9c <scanf+0x74>)
80001b66:	447a      	add	r2, pc
80001b68:	7af9      	ldrb	r1, [r7, #11]
80001b6a:	54d1      	strb	r1, [r2, r3]
80001b6c:	e7e2      	b.n	80001b34 <scanf+0xc>
80001b6e:	f107 031c 	add.w	r3, r7, #28
80001b72:	607b      	str	r3, [r7, #4]
80001b74:	69bb      	ldr	r3, [r7, #24]
80001b76:	687a      	ldr	r2, [r7, #4]
80001b78:	4619      	mov	r1, r3
80001b7a:	4b09      	ldr	r3, [pc, #36]	; (80001ba0 <scanf+0x78>)
80001b7c:	447b      	add	r3, pc
80001b7e:	4618      	mov	r0, r3
80001b80:	f001 fca8 	bl	800034d4 <vsscanf>
80001b84:	60f8      	str	r0, [r7, #12]
80001b86:	68fb      	ldr	r3, [r7, #12]
80001b88:	4618      	mov	r0, r3
80001b8a:	3710      	adds	r7, #16
80001b8c:	46bd      	mov	sp, r7
80001b8e:	e8bd 4080 	ldmia.w	sp!, {r7, lr}
80001b92:	b004      	add	sp, #16
80001b94:	4770      	bx	lr
80001b96:	bf00      	nop
80001b98:	00002ee2 	andeq	r2, r0, r2, ror #29
80001b9c:	00002ece 	andeq	r2, r0, lr, asr #29
80001ba0:	00002eb8 			; <UNDEFINED> instruction: 0x00002eb8

80001ba4 <__tolower>:
80001ba4:	b480      	push	{r7}
80001ba6:	b083      	sub	sp, #12
80001ba8:	af00      	add	r7, sp, #0
80001baa:	4603      	mov	r3, r0
80001bac:	71fb      	strb	r3, [r7, #7]
80001bae:	490a      	ldr	r1, [pc, #40]	; (80001bd8 <__tolower+0x34>)
80001bb0:	4479      	add	r1, pc
80001bb2:	79fb      	ldrb	r3, [r7, #7]
80001bb4:	4a09      	ldr	r2, [pc, #36]	; (80001bdc <__tolower+0x38>)
80001bb6:	588a      	ldr	r2, [r1, r2]
80001bb8:	5cd3      	ldrb	r3, [r2, r3]
80001bba:	f003 0301 	and.w	r3, r3, #1
80001bbe:	2b00      	cmp	r3, #0
80001bc0:	d002      	beq.n	80001bc8 <__tolower+0x24>
80001bc2:	79fb      	ldrb	r3, [r7, #7]
80001bc4:	3320      	adds	r3, #32
80001bc6:	71fb      	strb	r3, [r7, #7]
80001bc8:	79fb      	ldrb	r3, [r7, #7]
80001bca:	4618      	mov	r0, r3
80001bcc:	370c      	adds	r7, #12
80001bce:	46bd      	mov	sp, r7
80001bd0:	f85d 7b04 	ldr.w	r7, [sp], #4
80001bd4:	4770      	bx	lr
80001bd6:	bf00      	nop
80001bd8:	00002570 	andeq	r2, r0, r0, ror r5
80001bdc:	00000000 	andeq	r0, r0, r0

80001be0 <strnicmp>:
80001be0:	b580      	push	{r7, lr}
80001be2:	b086      	sub	sp, #24
80001be4:	af00      	add	r7, sp, #0
80001be6:	60f8      	str	r0, [r7, #12]
80001be8:	60b9      	str	r1, [r7, #8]
80001bea:	607a      	str	r2, [r7, #4]
80001bec:	2300      	movs	r3, #0
80001bee:	75fb      	strb	r3, [r7, #23]
80001bf0:	2300      	movs	r3, #0
80001bf2:	75bb      	strb	r3, [r7, #22]
80001bf4:	687b      	ldr	r3, [r7, #4]
80001bf6:	2b00      	cmp	r3, #0
80001bf8:	d033      	beq.n	80001c62 <strnicmp+0x82>
80001bfa:	68fb      	ldr	r3, [r7, #12]
80001bfc:	781b      	ldrb	r3, [r3, #0]
80001bfe:	75fb      	strb	r3, [r7, #23]
80001c00:	68bb      	ldr	r3, [r7, #8]
80001c02:	781b      	ldrb	r3, [r3, #0]
80001c04:	75bb      	strb	r3, [r7, #22]
80001c06:	68fb      	ldr	r3, [r7, #12]
80001c08:	3301      	adds	r3, #1
80001c0a:	60fb      	str	r3, [r7, #12]
80001c0c:	68bb      	ldr	r3, [r7, #8]
80001c0e:	3301      	adds	r3, #1
80001c10:	60bb      	str	r3, [r7, #8]
80001c12:	7dfb      	ldrb	r3, [r7, #23]
80001c14:	2b00      	cmp	r3, #0
80001c16:	d01f      	beq.n	80001c58 <strnicmp+0x78>
80001c18:	7dbb      	ldrb	r3, [r7, #22]
80001c1a:	2b00      	cmp	r3, #0
80001c1c:	d01e      	beq.n	80001c5c <strnicmp+0x7c>
80001c1e:	7dfa      	ldrb	r2, [r7, #23]
80001c20:	7dbb      	ldrb	r3, [r7, #22]
80001c22:	429a      	cmp	r2, r3
80001c24:	d010      	beq.n	80001c48 <strnicmp+0x68>
80001c26:	7dfb      	ldrb	r3, [r7, #23]
80001c28:	4618      	mov	r0, r3
80001c2a:	f7ff ffbb 	bl	80001ba4 <__tolower>
80001c2e:	4603      	mov	r3, r0
80001c30:	75fb      	strb	r3, [r7, #23]
80001c32:	7dbb      	ldrb	r3, [r7, #22]
80001c34:	4618      	mov	r0, r3
80001c36:	f7ff ffb5 	bl	80001ba4 <__tolower>
80001c3a:	4603      	mov	r3, r0
80001c3c:	75bb      	strb	r3, [r7, #22]
80001c3e:	7dfa      	ldrb	r2, [r7, #23]
80001c40:	7dbb      	ldrb	r3, [r7, #22]
80001c42:	429a      	cmp	r2, r3
80001c44:	d10c      	bne.n	80001c60 <strnicmp+0x80>
80001c46:	e000      	b.n	80001c4a <strnicmp+0x6a>
80001c48:	bf00      	nop
80001c4a:	687b      	ldr	r3, [r7, #4]
80001c4c:	3b01      	subs	r3, #1
80001c4e:	607b      	str	r3, [r7, #4]
80001c50:	687b      	ldr	r3, [r7, #4]
80001c52:	2b00      	cmp	r3, #0
80001c54:	d1d1      	bne.n	80001bfa <strnicmp+0x1a>
80001c56:	e004      	b.n	80001c62 <strnicmp+0x82>
80001c58:	bf00      	nop
80001c5a:	e002      	b.n	80001c62 <strnicmp+0x82>
80001c5c:	bf00      	nop
80001c5e:	e000      	b.n	80001c62 <strnicmp+0x82>
80001c60:	bf00      	nop
80001c62:	7dfa      	ldrb	r2, [r7, #23]
80001c64:	7dbb      	ldrb	r3, [r7, #22]
80001c66:	1ad3      	subs	r3, r2, r3
80001c68:	4618      	mov	r0, r3
80001c6a:	3718      	adds	r7, #24
80001c6c:	46bd      	mov	sp, r7
80001c6e:	bd80      	pop	{r7, pc}

80001c70 <strcpy>:
80001c70:	b480      	push	{r7}
80001c72:	b085      	sub	sp, #20
80001c74:	af00      	add	r7, sp, #0
80001c76:	6078      	str	r0, [r7, #4]
80001c78:	6039      	str	r1, [r7, #0]
80001c7a:	687b      	ldr	r3, [r7, #4]
80001c7c:	60fb      	str	r3, [r7, #12]
80001c7e:	bf00      	nop
80001c80:	683a      	ldr	r2, [r7, #0]
80001c82:	1c53      	adds	r3, r2, #1
80001c84:	603b      	str	r3, [r7, #0]
80001c86:	687b      	ldr	r3, [r7, #4]
80001c88:	1c59      	adds	r1, r3, #1
80001c8a:	6079      	str	r1, [r7, #4]
80001c8c:	7812      	ldrb	r2, [r2, #0]
80001c8e:	701a      	strb	r2, [r3, #0]
80001c90:	781b      	ldrb	r3, [r3, #0]
80001c92:	2b00      	cmp	r3, #0
80001c94:	d1f4      	bne.n	80001c80 <strcpy+0x10>
80001c96:	68fb      	ldr	r3, [r7, #12]
80001c98:	4618      	mov	r0, r3
80001c9a:	3714      	adds	r7, #20
80001c9c:	46bd      	mov	sp, r7
80001c9e:	f85d 7b04 	ldr.w	r7, [sp], #4
80001ca2:	4770      	bx	lr

80001ca4 <strncpy>:
80001ca4:	b480      	push	{r7}
80001ca6:	b087      	sub	sp, #28
80001ca8:	af00      	add	r7, sp, #0
80001caa:	60f8      	str	r0, [r7, #12]
80001cac:	60b9      	str	r1, [r7, #8]
80001cae:	607a      	str	r2, [r7, #4]
80001cb0:	68fb      	ldr	r3, [r7, #12]
80001cb2:	617b      	str	r3, [r7, #20]
80001cb4:	bf00      	nop
80001cb6:	687b      	ldr	r3, [r7, #4]
80001cb8:	1e5a      	subs	r2, r3, #1
80001cba:	607a      	str	r2, [r7, #4]
80001cbc:	2b00      	cmp	r3, #0
80001cbe:	d00a      	beq.n	80001cd6 <strncpy+0x32>
80001cc0:	68ba      	ldr	r2, [r7, #8]
80001cc2:	1c53      	adds	r3, r2, #1
80001cc4:	60bb      	str	r3, [r7, #8]
80001cc6:	68fb      	ldr	r3, [r7, #12]
80001cc8:	1c59      	adds	r1, r3, #1
80001cca:	60f9      	str	r1, [r7, #12]
80001ccc:	7812      	ldrb	r2, [r2, #0]
80001cce:	701a      	strb	r2, [r3, #0]
80001cd0:	781b      	ldrb	r3, [r3, #0]
80001cd2:	2b00      	cmp	r3, #0
80001cd4:	d1ef      	bne.n	80001cb6 <strncpy+0x12>
80001cd6:	697b      	ldr	r3, [r7, #20]
80001cd8:	4618      	mov	r0, r3
80001cda:	371c      	adds	r7, #28
80001cdc:	46bd      	mov	sp, r7
80001cde:	f85d 7b04 	ldr.w	r7, [sp], #4
80001ce2:	4770      	bx	lr

80001ce4 <strcat>:
80001ce4:	b480      	push	{r7}
80001ce6:	b085      	sub	sp, #20
80001ce8:	af00      	add	r7, sp, #0
80001cea:	6078      	str	r0, [r7, #4]
80001cec:	6039      	str	r1, [r7, #0]
80001cee:	687b      	ldr	r3, [r7, #4]
80001cf0:	60fb      	str	r3, [r7, #12]
80001cf2:	e002      	b.n	80001cfa <strcat+0x16>
80001cf4:	687b      	ldr	r3, [r7, #4]
80001cf6:	3301      	adds	r3, #1
80001cf8:	607b      	str	r3, [r7, #4]
80001cfa:	687b      	ldr	r3, [r7, #4]
80001cfc:	781b      	ldrb	r3, [r3, #0]
80001cfe:	2b00      	cmp	r3, #0
80001d00:	d1f8      	bne.n	80001cf4 <strcat+0x10>
80001d02:	bf00      	nop
80001d04:	683a      	ldr	r2, [r7, #0]
80001d06:	1c53      	adds	r3, r2, #1
80001d08:	603b      	str	r3, [r7, #0]
80001d0a:	687b      	ldr	r3, [r7, #4]
80001d0c:	1c59      	adds	r1, r3, #1
80001d0e:	6079      	str	r1, [r7, #4]
80001d10:	7812      	ldrb	r2, [r2, #0]
80001d12:	701a      	strb	r2, [r3, #0]
80001d14:	781b      	ldrb	r3, [r3, #0]
80001d16:	2b00      	cmp	r3, #0
80001d18:	d1f4      	bne.n	80001d04 <strcat+0x20>
80001d1a:	68fb      	ldr	r3, [r7, #12]
80001d1c:	4618      	mov	r0, r3
80001d1e:	3714      	adds	r7, #20
80001d20:	46bd      	mov	sp, r7
80001d22:	f85d 7b04 	ldr.w	r7, [sp], #4
80001d26:	4770      	bx	lr

80001d28 <strncat>:
80001d28:	b480      	push	{r7}
80001d2a:	b087      	sub	sp, #28
80001d2c:	af00      	add	r7, sp, #0
80001d2e:	60f8      	str	r0, [r7, #12]
80001d30:	60b9      	str	r1, [r7, #8]
80001d32:	607a      	str	r2, [r7, #4]
80001d34:	68fb      	ldr	r3, [r7, #12]
80001d36:	617b      	str	r3, [r7, #20]
80001d38:	687b      	ldr	r3, [r7, #4]
80001d3a:	2b00      	cmp	r3, #0
80001d3c:	d01d      	beq.n	80001d7a <strncat+0x52>
80001d3e:	e002      	b.n	80001d46 <strncat+0x1e>
80001d40:	68fb      	ldr	r3, [r7, #12]
80001d42:	3301      	adds	r3, #1
80001d44:	60fb      	str	r3, [r7, #12]
80001d46:	68fb      	ldr	r3, [r7, #12]
80001d48:	781b      	ldrb	r3, [r3, #0]
80001d4a:	2b00      	cmp	r3, #0
80001d4c:	d1f8      	bne.n	80001d40 <strncat+0x18>
80001d4e:	e009      	b.n	80001d64 <strncat+0x3c>
80001d50:	687b      	ldr	r3, [r7, #4]
80001d52:	3b01      	subs	r3, #1
80001d54:	607b      	str	r3, [r7, #4]
80001d56:	687b      	ldr	r3, [r7, #4]
80001d58:	2b00      	cmp	r3, #0
80001d5a:	d103      	bne.n	80001d64 <strncat+0x3c>
80001d5c:	68fb      	ldr	r3, [r7, #12]
80001d5e:	2200      	movs	r2, #0
80001d60:	701a      	strb	r2, [r3, #0]
80001d62:	e00a      	b.n	80001d7a <strncat+0x52>
80001d64:	68ba      	ldr	r2, [r7, #8]
80001d66:	1c53      	adds	r3, r2, #1
80001d68:	60bb      	str	r3, [r7, #8]
80001d6a:	68fb      	ldr	r3, [r7, #12]
80001d6c:	1c59      	adds	r1, r3, #1
80001d6e:	60f9      	str	r1, [r7, #12]
80001d70:	7812      	ldrb	r2, [r2, #0]
80001d72:	701a      	strb	r2, [r3, #0]
80001d74:	781b      	ldrb	r3, [r3, #0]
80001d76:	2b00      	cmp	r3, #0
80001d78:	d1ea      	bne.n	80001d50 <strncat+0x28>
80001d7a:	697b      	ldr	r3, [r7, #20]
80001d7c:	4618      	mov	r0, r3
80001d7e:	371c      	adds	r7, #28
80001d80:	46bd      	mov	sp, r7
80001d82:	f85d 7b04 	ldr.w	r7, [sp], #4
80001d86:	4770      	bx	lr

80001d88 <strcmp>:
80001d88:	b490      	push	{r4, r7}
80001d8a:	b082      	sub	sp, #8
80001d8c:	af00      	add	r7, sp, #0
80001d8e:	6078      	str	r0, [r7, #4]
80001d90:	6039      	str	r1, [r7, #0]
80001d92:	687b      	ldr	r3, [r7, #4]
80001d94:	781a      	ldrb	r2, [r3, #0]
80001d96:	683b      	ldr	r3, [r7, #0]
80001d98:	1c59      	adds	r1, r3, #1
80001d9a:	6039      	str	r1, [r7, #0]
80001d9c:	781b      	ldrb	r3, [r3, #0]
80001d9e:	1ad3      	subs	r3, r2, r3
80001da0:	b2db      	uxtb	r3, r3
80001da2:	b25c      	sxtb	r4, r3
80001da4:	2c00      	cmp	r4, #0
80001da6:	d106      	bne.n	80001db6 <strcmp+0x2e>
80001da8:	687b      	ldr	r3, [r7, #4]
80001daa:	1c5a      	adds	r2, r3, #1
80001dac:	607a      	str	r2, [r7, #4]
80001dae:	781b      	ldrb	r3, [r3, #0]
80001db0:	2b00      	cmp	r3, #0
80001db2:	d000      	beq.n	80001db6 <strcmp+0x2e>
80001db4:	e7ed      	b.n	80001d92 <strcmp+0xa>
80001db6:	4623      	mov	r3, r4
80001db8:	4618      	mov	r0, r3
80001dba:	3708      	adds	r7, #8
80001dbc:	46bd      	mov	sp, r7
80001dbe:	bc90      	pop	{r4, r7}
80001dc0:	4770      	bx	lr

80001dc2 <strncmp>:
80001dc2:	b490      	push	{r4, r7}
80001dc4:	b084      	sub	sp, #16
80001dc6:	af00      	add	r7, sp, #0
80001dc8:	60f8      	str	r0, [r7, #12]
80001dca:	60b9      	str	r1, [r7, #8]
80001dcc:	607a      	str	r2, [r7, #4]
80001dce:	2400      	movs	r4, #0
80001dd0:	e013      	b.n	80001dfa <strncmp+0x38>
80001dd2:	68fb      	ldr	r3, [r7, #12]
80001dd4:	781a      	ldrb	r2, [r3, #0]
80001dd6:	68bb      	ldr	r3, [r7, #8]
80001dd8:	1c59      	adds	r1, r3, #1
80001dda:	60b9      	str	r1, [r7, #8]
80001ddc:	781b      	ldrb	r3, [r3, #0]
80001dde:	1ad3      	subs	r3, r2, r3
80001de0:	b2db      	uxtb	r3, r3
80001de2:	b25c      	sxtb	r4, r3
80001de4:	2c00      	cmp	r4, #0
80001de6:	d10b      	bne.n	80001e00 <strncmp+0x3e>
80001de8:	68fb      	ldr	r3, [r7, #12]
80001dea:	1c5a      	adds	r2, r3, #1
80001dec:	60fa      	str	r2, [r7, #12]
80001dee:	781b      	ldrb	r3, [r3, #0]
80001df0:	2b00      	cmp	r3, #0
80001df2:	d005      	beq.n	80001e00 <strncmp+0x3e>
80001df4:	687b      	ldr	r3, [r7, #4]
80001df6:	3b01      	subs	r3, #1
80001df8:	607b      	str	r3, [r7, #4]
80001dfa:	687b      	ldr	r3, [r7, #4]
80001dfc:	2b00      	cmp	r3, #0
80001dfe:	d1e8      	bne.n	80001dd2 <strncmp+0x10>
80001e00:	4623      	mov	r3, r4
80001e02:	4618      	mov	r0, r3
80001e04:	3710      	adds	r7, #16
80001e06:	46bd      	mov	sp, r7
80001e08:	bc90      	pop	{r4, r7}
80001e0a:	4770      	bx	lr

80001e0c <strchr>:
80001e0c:	b480      	push	{r7}
80001e0e:	b083      	sub	sp, #12
80001e10:	af00      	add	r7, sp, #0
80001e12:	6078      	str	r0, [r7, #4]
80001e14:	6039      	str	r1, [r7, #0]
80001e16:	e008      	b.n	80001e2a <strchr+0x1e>
80001e18:	687b      	ldr	r3, [r7, #4]
80001e1a:	781b      	ldrb	r3, [r3, #0]
80001e1c:	2b00      	cmp	r3, #0
80001e1e:	d101      	bne.n	80001e24 <strchr+0x18>
80001e20:	2300      	movs	r3, #0
80001e22:	e009      	b.n	80001e38 <strchr+0x2c>
80001e24:	687b      	ldr	r3, [r7, #4]
80001e26:	3301      	adds	r3, #1
80001e28:	607b      	str	r3, [r7, #4]
80001e2a:	687b      	ldr	r3, [r7, #4]
80001e2c:	781a      	ldrb	r2, [r3, #0]
80001e2e:	683b      	ldr	r3, [r7, #0]
80001e30:	b2db      	uxtb	r3, r3
80001e32:	429a      	cmp	r2, r3
80001e34:	d1f0      	bne.n	80001e18 <strchr+0xc>
80001e36:	687b      	ldr	r3, [r7, #4]
80001e38:	4618      	mov	r0, r3
80001e3a:	370c      	adds	r7, #12
80001e3c:	46bd      	mov	sp, r7
80001e3e:	f85d 7b04 	ldr.w	r7, [sp], #4
80001e42:	4770      	bx	lr

80001e44 <strrchr>:
80001e44:	b580      	push	{r7, lr}
80001e46:	b084      	sub	sp, #16
80001e48:	af00      	add	r7, sp, #0
80001e4a:	6078      	str	r0, [r7, #4]
80001e4c:	6039      	str	r1, [r7, #0]
80001e4e:	6878      	ldr	r0, [r7, #4]
80001e50:	f000 f818 	bl	80001e84 <strlen>
80001e54:	4602      	mov	r2, r0
80001e56:	687b      	ldr	r3, [r7, #4]
80001e58:	4413      	add	r3, r2
80001e5a:	60fb      	str	r3, [r7, #12]
80001e5c:	68fb      	ldr	r3, [r7, #12]
80001e5e:	781a      	ldrb	r2, [r3, #0]
80001e60:	683b      	ldr	r3, [r7, #0]
80001e62:	b2db      	uxtb	r3, r3
80001e64:	429a      	cmp	r2, r3
80001e66:	d101      	bne.n	80001e6c <strrchr+0x28>
80001e68:	68fb      	ldr	r3, [r7, #12]
80001e6a:	e007      	b.n	80001e7c <strrchr+0x38>
80001e6c:	68fb      	ldr	r3, [r7, #12]
80001e6e:	3b01      	subs	r3, #1
80001e70:	60fb      	str	r3, [r7, #12]
80001e72:	68fa      	ldr	r2, [r7, #12]
80001e74:	687b      	ldr	r3, [r7, #4]
80001e76:	429a      	cmp	r2, r3
80001e78:	d2f0      	bcs.n	80001e5c <strrchr+0x18>
80001e7a:	2300      	movs	r3, #0
80001e7c:	4618      	mov	r0, r3
80001e7e:	3710      	adds	r7, #16
80001e80:	46bd      	mov	sp, r7
80001e82:	bd80      	pop	{r7, pc}

80001e84 <strlen>:
80001e84:	b480      	push	{r7}
80001e86:	b085      	sub	sp, #20
80001e88:	af00      	add	r7, sp, #0
80001e8a:	6078      	str	r0, [r7, #4]
80001e8c:	687b      	ldr	r3, [r7, #4]
80001e8e:	60fb      	str	r3, [r7, #12]
80001e90:	e002      	b.n	80001e98 <strlen+0x14>
80001e92:	68fb      	ldr	r3, [r7, #12]
80001e94:	3301      	adds	r3, #1
80001e96:	60fb      	str	r3, [r7, #12]
80001e98:	68fb      	ldr	r3, [r7, #12]
80001e9a:	781b      	ldrb	r3, [r3, #0]
80001e9c:	2b00      	cmp	r3, #0
80001e9e:	d1f8      	bne.n	80001e92 <strlen+0xe>
80001ea0:	68fa      	ldr	r2, [r7, #12]
80001ea2:	687b      	ldr	r3, [r7, #4]
80001ea4:	1ad3      	subs	r3, r2, r3
80001ea6:	4618      	mov	r0, r3
80001ea8:	3714      	adds	r7, #20
80001eaa:	46bd      	mov	sp, r7
80001eac:	f85d 7b04 	ldr.w	r7, [sp], #4
80001eb0:	4770      	bx	lr

80001eb2 <strnlen>:
80001eb2:	b480      	push	{r7}
80001eb4:	b085      	sub	sp, #20
80001eb6:	af00      	add	r7, sp, #0
80001eb8:	6078      	str	r0, [r7, #4]
80001eba:	6039      	str	r1, [r7, #0]
80001ebc:	687b      	ldr	r3, [r7, #4]
80001ebe:	60fb      	str	r3, [r7, #12]
80001ec0:	e002      	b.n	80001ec8 <strnlen+0x16>
80001ec2:	68fb      	ldr	r3, [r7, #12]
80001ec4:	3301      	adds	r3, #1
80001ec6:	60fb      	str	r3, [r7, #12]
80001ec8:	683b      	ldr	r3, [r7, #0]
80001eca:	1e5a      	subs	r2, r3, #1
80001ecc:	603a      	str	r2, [r7, #0]
80001ece:	2b00      	cmp	r3, #0
80001ed0:	d003      	beq.n	80001eda <strnlen+0x28>
80001ed2:	68fb      	ldr	r3, [r7, #12]
80001ed4:	781b      	ldrb	r3, [r3, #0]
80001ed6:	2b00      	cmp	r3, #0
80001ed8:	d1f3      	bne.n	80001ec2 <strnlen+0x10>
80001eda:	68fa      	ldr	r2, [r7, #12]
80001edc:	687b      	ldr	r3, [r7, #4]
80001ede:	1ad3      	subs	r3, r2, r3
80001ee0:	4618      	mov	r0, r3
80001ee2:	3714      	adds	r7, #20
80001ee4:	46bd      	mov	sp, r7
80001ee6:	f85d 7b04 	ldr.w	r7, [sp], #4
80001eea:	4770      	bx	lr

80001eec <strspn>:
80001eec:	b480      	push	{r7}
80001eee:	b087      	sub	sp, #28
80001ef0:	af00      	add	r7, sp, #0
80001ef2:	6078      	str	r0, [r7, #4]
80001ef4:	6039      	str	r1, [r7, #0]
80001ef6:	2300      	movs	r3, #0
80001ef8:	60fb      	str	r3, [r7, #12]
80001efa:	687b      	ldr	r3, [r7, #4]
80001efc:	617b      	str	r3, [r7, #20]
80001efe:	e01d      	b.n	80001f3c <strspn+0x50>
80001f00:	683b      	ldr	r3, [r7, #0]
80001f02:	613b      	str	r3, [r7, #16]
80001f04:	e008      	b.n	80001f18 <strspn+0x2c>
80001f06:	697b      	ldr	r3, [r7, #20]
80001f08:	781a      	ldrb	r2, [r3, #0]
80001f0a:	693b      	ldr	r3, [r7, #16]
80001f0c:	781b      	ldrb	r3, [r3, #0]
80001f0e:	429a      	cmp	r2, r3
80001f10:	d007      	beq.n	80001f22 <strspn+0x36>
80001f12:	693b      	ldr	r3, [r7, #16]
80001f14:	3301      	adds	r3, #1
80001f16:	613b      	str	r3, [r7, #16]
80001f18:	693b      	ldr	r3, [r7, #16]
80001f1a:	781b      	ldrb	r3, [r3, #0]
80001f1c:	2b00      	cmp	r3, #0
80001f1e:	d1f2      	bne.n	80001f06 <strspn+0x1a>
80001f20:	e000      	b.n	80001f24 <strspn+0x38>
80001f22:	bf00      	nop
80001f24:	693b      	ldr	r3, [r7, #16]
80001f26:	781b      	ldrb	r3, [r3, #0]
80001f28:	2b00      	cmp	r3, #0
80001f2a:	d101      	bne.n	80001f30 <strspn+0x44>
80001f2c:	68fb      	ldr	r3, [r7, #12]
80001f2e:	e00a      	b.n	80001f46 <strspn+0x5a>
80001f30:	68fb      	ldr	r3, [r7, #12]
80001f32:	3301      	adds	r3, #1
80001f34:	60fb      	str	r3, [r7, #12]
80001f36:	697b      	ldr	r3, [r7, #20]
80001f38:	3301      	adds	r3, #1
80001f3a:	617b      	str	r3, [r7, #20]
80001f3c:	697b      	ldr	r3, [r7, #20]
80001f3e:	781b      	ldrb	r3, [r3, #0]
80001f40:	2b00      	cmp	r3, #0
80001f42:	d1dd      	bne.n	80001f00 <strspn+0x14>
80001f44:	68fb      	ldr	r3, [r7, #12]
80001f46:	4618      	mov	r0, r3
80001f48:	371c      	adds	r7, #28
80001f4a:	46bd      	mov	sp, r7
80001f4c:	f85d 7b04 	ldr.w	r7, [sp], #4
80001f50:	4770      	bx	lr

80001f52 <strpbrk>:
80001f52:	b480      	push	{r7}
80001f54:	b085      	sub	sp, #20
80001f56:	af00      	add	r7, sp, #0
80001f58:	6078      	str	r0, [r7, #4]
80001f5a:	6039      	str	r1, [r7, #0]
80001f5c:	687b      	ldr	r3, [r7, #4]
80001f5e:	60fb      	str	r3, [r7, #12]
80001f60:	e014      	b.n	80001f8c <strpbrk+0x3a>
80001f62:	683b      	ldr	r3, [r7, #0]
80001f64:	60bb      	str	r3, [r7, #8]
80001f66:	e00a      	b.n	80001f7e <strpbrk+0x2c>
80001f68:	68fb      	ldr	r3, [r7, #12]
80001f6a:	781a      	ldrb	r2, [r3, #0]
80001f6c:	68bb      	ldr	r3, [r7, #8]
80001f6e:	781b      	ldrb	r3, [r3, #0]
80001f70:	429a      	cmp	r2, r3
80001f72:	d101      	bne.n	80001f78 <strpbrk+0x26>
80001f74:	68fb      	ldr	r3, [r7, #12]
80001f76:	e00e      	b.n	80001f96 <strpbrk+0x44>
80001f78:	68bb      	ldr	r3, [r7, #8]
80001f7a:	3301      	adds	r3, #1
80001f7c:	60bb      	str	r3, [r7, #8]
80001f7e:	68bb      	ldr	r3, [r7, #8]
80001f80:	781b      	ldrb	r3, [r3, #0]
80001f82:	2b00      	cmp	r3, #0
80001f84:	d1f0      	bne.n	80001f68 <strpbrk+0x16>
80001f86:	68fb      	ldr	r3, [r7, #12]
80001f88:	3301      	adds	r3, #1
80001f8a:	60fb      	str	r3, [r7, #12]
80001f8c:	68fb      	ldr	r3, [r7, #12]
80001f8e:	781b      	ldrb	r3, [r3, #0]
80001f90:	2b00      	cmp	r3, #0
80001f92:	d1e6      	bne.n	80001f62 <strpbrk+0x10>
80001f94:	2300      	movs	r3, #0
80001f96:	4618      	mov	r0, r3
80001f98:	3714      	adds	r7, #20
80001f9a:	46bd      	mov	sp, r7
80001f9c:	f85d 7b04 	ldr.w	r7, [sp], #4
80001fa0:	4770      	bx	lr

80001fa2 <strtok>:
80001fa2:	b580      	push	{r7, lr}
80001fa4:	b084      	sub	sp, #16
80001fa6:	af00      	add	r7, sp, #0
80001fa8:	6078      	str	r0, [r7, #4]
80001faa:	6039      	str	r1, [r7, #0]
80001fac:	687b      	ldr	r3, [r7, #4]
80001fae:	2b00      	cmp	r3, #0
80001fb0:	d001      	beq.n	80001fb6 <strtok+0x14>
80001fb2:	687b      	ldr	r3, [r7, #4]
80001fb4:	e002      	b.n	80001fbc <strtok+0x1a>
80001fb6:	4b1a      	ldr	r3, [pc, #104]	; (80002020 <strtok+0x7e>)
80001fb8:	447b      	add	r3, pc
80001fba:	681b      	ldr	r3, [r3, #0]
80001fbc:	60bb      	str	r3, [r7, #8]
80001fbe:	68bb      	ldr	r3, [r7, #8]
80001fc0:	2b00      	cmp	r3, #0
80001fc2:	d101      	bne.n	80001fc8 <strtok+0x26>
80001fc4:	2300      	movs	r3, #0
80001fc6:	e027      	b.n	80002018 <strtok+0x76>
80001fc8:	6839      	ldr	r1, [r7, #0]
80001fca:	68b8      	ldr	r0, [r7, #8]
80001fcc:	f7ff ff8e 	bl	80001eec <strspn>
80001fd0:	4602      	mov	r2, r0
80001fd2:	68bb      	ldr	r3, [r7, #8]
80001fd4:	4413      	add	r3, r2
80001fd6:	60bb      	str	r3, [r7, #8]
80001fd8:	68bb      	ldr	r3, [r7, #8]
80001fda:	781b      	ldrb	r3, [r3, #0]
80001fdc:	2b00      	cmp	r3, #0
80001fde:	d105      	bne.n	80001fec <strtok+0x4a>
80001fe0:	4b10      	ldr	r3, [pc, #64]	; (80002024 <strtok+0x82>)
80001fe2:	447b      	add	r3, pc
80001fe4:	2200      	movs	r2, #0
80001fe6:	601a      	str	r2, [r3, #0]
80001fe8:	2300      	movs	r3, #0
80001fea:	e015      	b.n	80002018 <strtok+0x76>
80001fec:	6839      	ldr	r1, [r7, #0]
80001fee:	68b8      	ldr	r0, [r7, #8]
80001ff0:	f7ff ffaf 	bl	80001f52 <strpbrk>
80001ff4:	60f8      	str	r0, [r7, #12]
80001ff6:	68fb      	ldr	r3, [r7, #12]
80001ff8:	2b00      	cmp	r3, #0
80001ffa:	d008      	beq.n	8000200e <strtok+0x6c>
80001ffc:	68fb      	ldr	r3, [r7, #12]
80001ffe:	781b      	ldrb	r3, [r3, #0]
80002000:	2b00      	cmp	r3, #0
80002002:	d004      	beq.n	8000200e <strtok+0x6c>
80002004:	68fb      	ldr	r3, [r7, #12]
80002006:	1c5a      	adds	r2, r3, #1
80002008:	60fa      	str	r2, [r7, #12]
8000200a:	2200      	movs	r2, #0
8000200c:	701a      	strb	r2, [r3, #0]
8000200e:	4b06      	ldr	r3, [pc, #24]	; (80002028 <strtok+0x86>)
80002010:	447b      	add	r3, pc
80002012:	68fa      	ldr	r2, [r7, #12]
80002014:	601a      	str	r2, [r3, #0]
80002016:	68bb      	ldr	r3, [r7, #8]
80002018:	4618      	mov	r0, r3
8000201a:	3710      	adds	r7, #16
8000201c:	46bd      	mov	sp, r7
8000201e:	bd80      	pop	{r7, pc}
80002020:	00002e7c 	andeq	r2, r0, ip, ror lr
80002024:	00002e52 	andeq	r2, r0, r2, asr lr
80002028:	00002e24 	andeq	r2, r0, r4, lsr #28

8000202c <strsep>:
8000202c:	b580      	push	{r7, lr}
8000202e:	b084      	sub	sp, #16
80002030:	af00      	add	r7, sp, #0
80002032:	6078      	str	r0, [r7, #4]
80002034:	6039      	str	r1, [r7, #0]
80002036:	687b      	ldr	r3, [r7, #4]
80002038:	681b      	ldr	r3, [r3, #0]
8000203a:	60bb      	str	r3, [r7, #8]
8000203c:	68bb      	ldr	r3, [r7, #8]
8000203e:	2b00      	cmp	r3, #0
80002040:	d101      	bne.n	80002046 <strsep+0x1a>
80002042:	2300      	movs	r3, #0
80002044:	e010      	b.n	80002068 <strsep+0x3c>
80002046:	6839      	ldr	r1, [r7, #0]
80002048:	68b8      	ldr	r0, [r7, #8]
8000204a:	f7ff ff82 	bl	80001f52 <strpbrk>
8000204e:	60f8      	str	r0, [r7, #12]
80002050:	68fb      	ldr	r3, [r7, #12]
80002052:	2b00      	cmp	r3, #0
80002054:	d004      	beq.n	80002060 <strsep+0x34>
80002056:	68fb      	ldr	r3, [r7, #12]
80002058:	1c5a      	adds	r2, r3, #1
8000205a:	60fa      	str	r2, [r7, #12]
8000205c:	2200      	movs	r2, #0
8000205e:	701a      	strb	r2, [r3, #0]
80002060:	687b      	ldr	r3, [r7, #4]
80002062:	68fa      	ldr	r2, [r7, #12]
80002064:	601a      	str	r2, [r3, #0]
80002066:	68bb      	ldr	r3, [r7, #8]
80002068:	4618      	mov	r0, r3
8000206a:	3710      	adds	r7, #16
8000206c:	46bd      	mov	sp, r7
8000206e:	bd80      	pop	{r7, pc}

80002070 <memset>:
80002070:	b480      	push	{r7}
80002072:	b087      	sub	sp, #28
80002074:	af00      	add	r7, sp, #0
80002076:	60f8      	str	r0, [r7, #12]
80002078:	60b9      	str	r1, [r7, #8]
8000207a:	607a      	str	r2, [r7, #4]
8000207c:	68fb      	ldr	r3, [r7, #12]
8000207e:	617b      	str	r3, [r7, #20]
80002080:	e005      	b.n	8000208e <memset+0x1e>
80002082:	697b      	ldr	r3, [r7, #20]
80002084:	1c5a      	adds	r2, r3, #1
80002086:	617a      	str	r2, [r7, #20]
80002088:	68ba      	ldr	r2, [r7, #8]
8000208a:	b2d2      	uxtb	r2, r2
8000208c:	701a      	strb	r2, [r3, #0]
8000208e:	687b      	ldr	r3, [r7, #4]
80002090:	1e5a      	subs	r2, r3, #1
80002092:	607a      	str	r2, [r7, #4]
80002094:	2b00      	cmp	r3, #0
80002096:	d1f4      	bne.n	80002082 <memset+0x12>
80002098:	68fb      	ldr	r3, [r7, #12]
8000209a:	4618      	mov	r0, r3
8000209c:	371c      	adds	r7, #28
8000209e:	46bd      	mov	sp, r7
800020a0:	f85d 7b04 	ldr.w	r7, [sp], #4
800020a4:	4770      	bx	lr

800020a6 <bcopy>:
800020a6:	b480      	push	{r7}
800020a8:	b087      	sub	sp, #28
800020aa:	af00      	add	r7, sp, #0
800020ac:	60f8      	str	r0, [r7, #12]
800020ae:	60b9      	str	r1, [r7, #8]
800020b0:	607a      	str	r2, [r7, #4]
800020b2:	68bb      	ldr	r3, [r7, #8]
800020b4:	617b      	str	r3, [r7, #20]
800020b6:	68fb      	ldr	r3, [r7, #12]
800020b8:	613b      	str	r3, [r7, #16]
800020ba:	e007      	b.n	800020cc <bcopy+0x26>
800020bc:	693a      	ldr	r2, [r7, #16]
800020be:	1c53      	adds	r3, r2, #1
800020c0:	613b      	str	r3, [r7, #16]
800020c2:	697b      	ldr	r3, [r7, #20]
800020c4:	1c59      	adds	r1, r3, #1
800020c6:	6179      	str	r1, [r7, #20]
800020c8:	7812      	ldrb	r2, [r2, #0]
800020ca:	701a      	strb	r2, [r3, #0]
800020cc:	687b      	ldr	r3, [r7, #4]
800020ce:	1e5a      	subs	r2, r3, #1
800020d0:	607a      	str	r2, [r7, #4]
800020d2:	2b00      	cmp	r3, #0
800020d4:	d1f2      	bne.n	800020bc <bcopy+0x16>
800020d6:	bf00      	nop
800020d8:	bf00      	nop
800020da:	371c      	adds	r7, #28
800020dc:	46bd      	mov	sp, r7
800020de:	f85d 7b04 	ldr.w	r7, [sp], #4
800020e2:	4770      	bx	lr

800020e4 <memcpy>:
800020e4:	b480      	push	{r7}
800020e6:	b087      	sub	sp, #28
800020e8:	af00      	add	r7, sp, #0
800020ea:	60f8      	str	r0, [r7, #12]
800020ec:	60b9      	str	r1, [r7, #8]
800020ee:	607a      	str	r2, [r7, #4]
800020f0:	68fb      	ldr	r3, [r7, #12]
800020f2:	617b      	str	r3, [r7, #20]
800020f4:	68bb      	ldr	r3, [r7, #8]
800020f6:	613b      	str	r3, [r7, #16]
800020f8:	e007      	b.n	8000210a <memcpy+0x26>
800020fa:	693a      	ldr	r2, [r7, #16]
800020fc:	1c53      	adds	r3, r2, #1
800020fe:	613b      	str	r3, [r7, #16]
80002100:	697b      	ldr	r3, [r7, #20]
80002102:	1c59      	adds	r1, r3, #1
80002104:	6179      	str	r1, [r7, #20]
80002106:	7812      	ldrb	r2, [r2, #0]
80002108:	701a      	strb	r2, [r3, #0]
8000210a:	687b      	ldr	r3, [r7, #4]
8000210c:	1e5a      	subs	r2, r3, #1
8000210e:	607a      	str	r2, [r7, #4]
80002110:	2b00      	cmp	r3, #0
80002112:	d1f2      	bne.n	800020fa <memcpy+0x16>
80002114:	68fb      	ldr	r3, [r7, #12]
80002116:	4618      	mov	r0, r3
80002118:	371c      	adds	r7, #28
8000211a:	46bd      	mov	sp, r7
8000211c:	f85d 7b04 	ldr.w	r7, [sp], #4
80002120:	4770      	bx	lr

80002122 <memmove>:
80002122:	b480      	push	{r7}
80002124:	b087      	sub	sp, #28
80002126:	af00      	add	r7, sp, #0
80002128:	60f8      	str	r0, [r7, #12]
8000212a:	60b9      	str	r1, [r7, #8]
8000212c:	607a      	str	r2, [r7, #4]
8000212e:	68fa      	ldr	r2, [r7, #12]
80002130:	68bb      	ldr	r3, [r7, #8]
80002132:	429a      	cmp	r2, r3
80002134:	d812      	bhi.n	8000215c <memmove+0x3a>
80002136:	68fb      	ldr	r3, [r7, #12]
80002138:	617b      	str	r3, [r7, #20]
8000213a:	68bb      	ldr	r3, [r7, #8]
8000213c:	613b      	str	r3, [r7, #16]
8000213e:	e007      	b.n	80002150 <memmove+0x2e>
80002140:	693a      	ldr	r2, [r7, #16]
80002142:	1c53      	adds	r3, r2, #1
80002144:	613b      	str	r3, [r7, #16]
80002146:	697b      	ldr	r3, [r7, #20]
80002148:	1c59      	adds	r1, r3, #1
8000214a:	6179      	str	r1, [r7, #20]
8000214c:	7812      	ldrb	r2, [r2, #0]
8000214e:	701a      	strb	r2, [r3, #0]
80002150:	687b      	ldr	r3, [r7, #4]
80002152:	1e5a      	subs	r2, r3, #1
80002154:	607a      	str	r2, [r7, #4]
80002156:	2b00      	cmp	r3, #0
80002158:	d1f2      	bne.n	80002140 <memmove+0x1e>
8000215a:	e017      	b.n	8000218c <memmove+0x6a>
8000215c:	68fa      	ldr	r2, [r7, #12]
8000215e:	687b      	ldr	r3, [r7, #4]
80002160:	4413      	add	r3, r2
80002162:	617b      	str	r3, [r7, #20]
80002164:	68ba      	ldr	r2, [r7, #8]
80002166:	687b      	ldr	r3, [r7, #4]
80002168:	4413      	add	r3, r2
8000216a:	613b      	str	r3, [r7, #16]
8000216c:	e009      	b.n	80002182 <memmove+0x60>
8000216e:	693b      	ldr	r3, [r7, #16]
80002170:	3b01      	subs	r3, #1
80002172:	613b      	str	r3, [r7, #16]
80002174:	697b      	ldr	r3, [r7, #20]
80002176:	3b01      	subs	r3, #1
80002178:	617b      	str	r3, [r7, #20]
8000217a:	693b      	ldr	r3, [r7, #16]
8000217c:	781a      	ldrb	r2, [r3, #0]
8000217e:	697b      	ldr	r3, [r7, #20]
80002180:	701a      	strb	r2, [r3, #0]
80002182:	687b      	ldr	r3, [r7, #4]
80002184:	1e5a      	subs	r2, r3, #1
80002186:	607a      	str	r2, [r7, #4]
80002188:	2b00      	cmp	r3, #0
8000218a:	d1f0      	bne.n	8000216e <memmove+0x4c>
8000218c:	68fb      	ldr	r3, [r7, #12]
8000218e:	4618      	mov	r0, r3
80002190:	371c      	adds	r7, #28
80002192:	46bd      	mov	sp, r7
80002194:	f85d 7b04 	ldr.w	r7, [sp], #4
80002198:	4770      	bx	lr

8000219a <memcmp>:
8000219a:	b480      	push	{r7}
8000219c:	b089      	sub	sp, #36	; 0x24
8000219e:	af00      	add	r7, sp, #0
800021a0:	60f8      	str	r0, [r7, #12]
800021a2:	60b9      	str	r1, [r7, #8]
800021a4:	607a      	str	r2, [r7, #4]
800021a6:	2300      	movs	r3, #0
800021a8:	617b      	str	r3, [r7, #20]
800021aa:	68fb      	ldr	r3, [r7, #12]
800021ac:	61fb      	str	r3, [r7, #28]
800021ae:	68bb      	ldr	r3, [r7, #8]
800021b0:	61bb      	str	r3, [r7, #24]
800021b2:	e012      	b.n	800021da <memcmp+0x40>
800021b4:	69fb      	ldr	r3, [r7, #28]
800021b6:	781b      	ldrb	r3, [r3, #0]
800021b8:	461a      	mov	r2, r3
800021ba:	69bb      	ldr	r3, [r7, #24]
800021bc:	781b      	ldrb	r3, [r3, #0]
800021be:	1ad3      	subs	r3, r2, r3
800021c0:	617b      	str	r3, [r7, #20]
800021c2:	697b      	ldr	r3, [r7, #20]
800021c4:	2b00      	cmp	r3, #0
800021c6:	d10c      	bne.n	800021e2 <memcmp+0x48>
800021c8:	69fb      	ldr	r3, [r7, #28]
800021ca:	3301      	adds	r3, #1
800021cc:	61fb      	str	r3, [r7, #28]
800021ce:	69bb      	ldr	r3, [r7, #24]
800021d0:	3301      	adds	r3, #1
800021d2:	61bb      	str	r3, [r7, #24]
800021d4:	687b      	ldr	r3, [r7, #4]
800021d6:	3b01      	subs	r3, #1
800021d8:	607b      	str	r3, [r7, #4]
800021da:	687b      	ldr	r3, [r7, #4]
800021dc:	2b00      	cmp	r3, #0
800021de:	d1e9      	bne.n	800021b4 <memcmp+0x1a>
800021e0:	e000      	b.n	800021e4 <memcmp+0x4a>
800021e2:	bf00      	nop
800021e4:	697b      	ldr	r3, [r7, #20]
800021e6:	4618      	mov	r0, r3
800021e8:	3724      	adds	r7, #36	; 0x24
800021ea:	46bd      	mov	sp, r7
800021ec:	f85d 7b04 	ldr.w	r7, [sp], #4
800021f0:	4770      	bx	lr

800021f2 <memscan>:
800021f2:	b480      	push	{r7}
800021f4:	b087      	sub	sp, #28
800021f6:	af00      	add	r7, sp, #0
800021f8:	60f8      	str	r0, [r7, #12]
800021fa:	60b9      	str	r1, [r7, #8]
800021fc:	607a      	str	r2, [r7, #4]
800021fe:	68fb      	ldr	r3, [r7, #12]
80002200:	617b      	str	r3, [r7, #20]
80002202:	e00d      	b.n	80002220 <memscan+0x2e>
80002204:	697b      	ldr	r3, [r7, #20]
80002206:	781b      	ldrb	r3, [r3, #0]
80002208:	461a      	mov	r2, r3
8000220a:	68bb      	ldr	r3, [r7, #8]
8000220c:	4293      	cmp	r3, r2
8000220e:	d101      	bne.n	80002214 <memscan+0x22>
80002210:	697b      	ldr	r3, [r7, #20]
80002212:	e009      	b.n	80002228 <memscan+0x36>
80002214:	697b      	ldr	r3, [r7, #20]
80002216:	3301      	adds	r3, #1
80002218:	617b      	str	r3, [r7, #20]
8000221a:	687b      	ldr	r3, [r7, #4]
8000221c:	3b01      	subs	r3, #1
8000221e:	607b      	str	r3, [r7, #4]
80002220:	687b      	ldr	r3, [r7, #4]
80002222:	2b00      	cmp	r3, #0
80002224:	d1ee      	bne.n	80002204 <memscan+0x12>
80002226:	697b      	ldr	r3, [r7, #20]
80002228:	4618      	mov	r0, r3
8000222a:	371c      	adds	r7, #28
8000222c:	46bd      	mov	sp, r7
8000222e:	f85d 7b04 	ldr.w	r7, [sp], #4
80002232:	4770      	bx	lr

80002234 <strstr>:
80002234:	b580      	push	{r7, lr}
80002236:	b084      	sub	sp, #16
80002238:	af00      	add	r7, sp, #0
8000223a:	6078      	str	r0, [r7, #4]
8000223c:	6039      	str	r1, [r7, #0]
8000223e:	6838      	ldr	r0, [r7, #0]
80002240:	f7ff fe20 	bl	80001e84 <strlen>
80002244:	4603      	mov	r3, r0
80002246:	60bb      	str	r3, [r7, #8]
80002248:	68bb      	ldr	r3, [r7, #8]
8000224a:	2b00      	cmp	r3, #0
8000224c:	d101      	bne.n	80002252 <strstr+0x1e>
8000224e:	687b      	ldr	r3, [r7, #4]
80002250:	e01b      	b.n	8000228a <strstr+0x56>
80002252:	6878      	ldr	r0, [r7, #4]
80002254:	f7ff fe16 	bl	80001e84 <strlen>
80002258:	4603      	mov	r3, r0
8000225a:	60fb      	str	r3, [r7, #12]
8000225c:	e010      	b.n	80002280 <strstr+0x4c>
8000225e:	68fb      	ldr	r3, [r7, #12]
80002260:	3b01      	subs	r3, #1
80002262:	60fb      	str	r3, [r7, #12]
80002264:	68bb      	ldr	r3, [r7, #8]
80002266:	461a      	mov	r2, r3
80002268:	6839      	ldr	r1, [r7, #0]
8000226a:	6878      	ldr	r0, [r7, #4]
8000226c:	f7ff ff95 	bl	8000219a <memcmp>
80002270:	4603      	mov	r3, r0
80002272:	2b00      	cmp	r3, #0
80002274:	d101      	bne.n	8000227a <strstr+0x46>
80002276:	687b      	ldr	r3, [r7, #4]
80002278:	e007      	b.n	8000228a <strstr+0x56>
8000227a:	687b      	ldr	r3, [r7, #4]
8000227c:	3301      	adds	r3, #1
8000227e:	607b      	str	r3, [r7, #4]
80002280:	68fa      	ldr	r2, [r7, #12]
80002282:	68bb      	ldr	r3, [r7, #8]
80002284:	429a      	cmp	r2, r3
80002286:	daea      	bge.n	8000225e <strstr+0x2a>
80002288:	2300      	movs	r3, #0
8000228a:	4618      	mov	r0, r3
8000228c:	3710      	adds	r7, #16
8000228e:	46bd      	mov	sp, r7
80002290:	bd80      	pop	{r7, pc}

80002292 <memchr>:
80002292:	b480      	push	{r7}
80002294:	b087      	sub	sp, #28
80002296:	af00      	add	r7, sp, #0
80002298:	60f8      	str	r0, [r7, #12]
8000229a:	60b9      	str	r1, [r7, #8]
8000229c:	607a      	str	r2, [r7, #4]
8000229e:	68fb      	ldr	r3, [r7, #12]
800022a0:	617b      	str	r3, [r7, #20]
800022a2:	e00a      	b.n	800022ba <memchr+0x28>
800022a4:	68bb      	ldr	r3, [r7, #8]
800022a6:	b2da      	uxtb	r2, r3
800022a8:	697b      	ldr	r3, [r7, #20]
800022aa:	1c59      	adds	r1, r3, #1
800022ac:	6179      	str	r1, [r7, #20]
800022ae:	781b      	ldrb	r3, [r3, #0]
800022b0:	429a      	cmp	r2, r3
800022b2:	d102      	bne.n	800022ba <memchr+0x28>
800022b4:	697b      	ldr	r3, [r7, #20]
800022b6:	3b01      	subs	r3, #1
800022b8:	e005      	b.n	800022c6 <memchr+0x34>
800022ba:	687b      	ldr	r3, [r7, #4]
800022bc:	1e5a      	subs	r2, r3, #1
800022be:	607a      	str	r2, [r7, #4]
800022c0:	2b00      	cmp	r3, #0
800022c2:	d1ef      	bne.n	800022a4 <memchr+0x12>
800022c4:	2300      	movs	r3, #0
800022c6:	4618      	mov	r0, r3
800022c8:	371c      	adds	r7, #28
800022ca:	46bd      	mov	sp, r7
800022cc:	f85d 7b04 	ldr.w	r7, [sp], #4
800022d0:	4770      	bx	lr
800022d2:	bf00      	nop

800022d4 <__toupper>:
800022d4:	b480      	push	{r7}
800022d6:	b083      	sub	sp, #12
800022d8:	af00      	add	r7, sp, #0
800022da:	4603      	mov	r3, r0
800022dc:	71fb      	strb	r3, [r7, #7]
800022de:	490a      	ldr	r1, [pc, #40]	; (80002308 <__toupper+0x34>)
800022e0:	4479      	add	r1, pc
800022e2:	79fb      	ldrb	r3, [r7, #7]
800022e4:	4a09      	ldr	r2, [pc, #36]	; (8000230c <__toupper+0x38>)
800022e6:	588a      	ldr	r2, [r1, r2]
800022e8:	5cd3      	ldrb	r3, [r2, r3]
800022ea:	f003 0302 	and.w	r3, r3, #2
800022ee:	2b00      	cmp	r3, #0
800022f0:	d002      	beq.n	800022f8 <__toupper+0x24>
800022f2:	79fb      	ldrb	r3, [r7, #7]
800022f4:	3b20      	subs	r3, #32
800022f6:	71fb      	strb	r3, [r7, #7]
800022f8:	79fb      	ldrb	r3, [r7, #7]
800022fa:	4618      	mov	r0, r3
800022fc:	370c      	adds	r7, #12
800022fe:	46bd      	mov	sp, r7
80002300:	f85d 7b04 	ldr.w	r7, [sp], #4
80002304:	4770      	bx	lr
80002306:	bf00      	nop
80002308:	00001e40 	andeq	r1, r0, r0, asr #28
8000230c:	00000000 	andeq	r0, r0, r0

80002310 <simple_strtoul>:
80002310:	b590      	push	{r4, r7, lr}
80002312:	b087      	sub	sp, #28
80002314:	af00      	add	r7, sp, #0
80002316:	60f8      	str	r0, [r7, #12]
80002318:	60b9      	str	r1, [r7, #8]
8000231a:	607a      	str	r2, [r7, #4]
8000231c:	4c3b      	ldr	r4, [pc, #236]	; (8000240c <simple_strtoul+0xfc>)
8000231e:	447c      	add	r4, pc
80002320:	2300      	movs	r3, #0
80002322:	617b      	str	r3, [r7, #20]
80002324:	687b      	ldr	r3, [r7, #4]
80002326:	2b00      	cmp	r3, #0
80002328:	d123      	bne.n	80002372 <simple_strtoul+0x62>
8000232a:	230a      	movs	r3, #10
8000232c:	607b      	str	r3, [r7, #4]
8000232e:	68fb      	ldr	r3, [r7, #12]
80002330:	781b      	ldrb	r3, [r3, #0]
80002332:	2b30      	cmp	r3, #48	; 0x30
80002334:	d13b      	bne.n	800023ae <simple_strtoul+0x9e>
80002336:	2308      	movs	r3, #8
80002338:	607b      	str	r3, [r7, #4]
8000233a:	68fb      	ldr	r3, [r7, #12]
8000233c:	3301      	adds	r3, #1
8000233e:	60fb      	str	r3, [r7, #12]
80002340:	68fb      	ldr	r3, [r7, #12]
80002342:	781b      	ldrb	r3, [r3, #0]
80002344:	4618      	mov	r0, r3
80002346:	f7ff ffc5 	bl	800022d4 <__toupper>
8000234a:	4603      	mov	r3, r0
8000234c:	2b58      	cmp	r3, #88	; 0x58
8000234e:	d12e      	bne.n	800023ae <simple_strtoul+0x9e>
80002350:	68fb      	ldr	r3, [r7, #12]
80002352:	3301      	adds	r3, #1
80002354:	781b      	ldrb	r3, [r3, #0]
80002356:	461a      	mov	r2, r3
80002358:	4b2d      	ldr	r3, [pc, #180]	; (80002410 <simple_strtoul+0x100>)
8000235a:	58e3      	ldr	r3, [r4, r3]
8000235c:	5c9b      	ldrb	r3, [r3, r2]
8000235e:	f003 0344 	and.w	r3, r3, #68	; 0x44
80002362:	2b00      	cmp	r3, #0
80002364:	d023      	beq.n	800023ae <simple_strtoul+0x9e>
80002366:	68fb      	ldr	r3, [r7, #12]
80002368:	3301      	adds	r3, #1
8000236a:	60fb      	str	r3, [r7, #12]
8000236c:	2310      	movs	r3, #16
8000236e:	607b      	str	r3, [r7, #4]
80002370:	e01d      	b.n	800023ae <simple_strtoul+0x9e>
80002372:	687b      	ldr	r3, [r7, #4]
80002374:	2b10      	cmp	r3, #16
80002376:	d11a      	bne.n	800023ae <simple_strtoul+0x9e>
80002378:	68fb      	ldr	r3, [r7, #12]
8000237a:	781b      	ldrb	r3, [r3, #0]
8000237c:	2b30      	cmp	r3, #48	; 0x30
8000237e:	d116      	bne.n	800023ae <simple_strtoul+0x9e>
80002380:	68fb      	ldr	r3, [r7, #12]
80002382:	3301      	adds	r3, #1
80002384:	781b      	ldrb	r3, [r3, #0]
80002386:	4618      	mov	r0, r3
80002388:	f7ff ffa4 	bl	800022d4 <__toupper>
8000238c:	4603      	mov	r3, r0
8000238e:	2b58      	cmp	r3, #88	; 0x58
80002390:	d10d      	bne.n	800023ae <simple_strtoul+0x9e>
80002392:	68fb      	ldr	r3, [r7, #12]
80002394:	3302      	adds	r3, #2
80002396:	60fb      	str	r3, [r7, #12]
80002398:	e009      	b.n	800023ae <simple_strtoul+0x9e>
8000239a:	697b      	ldr	r3, [r7, #20]
8000239c:	687a      	ldr	r2, [r7, #4]
8000239e:	fb02 f303 	mul.w	r3, r2, r3
800023a2:	693a      	ldr	r2, [r7, #16]
800023a4:	4413      	add	r3, r2
800023a6:	617b      	str	r3, [r7, #20]
800023a8:	68fb      	ldr	r3, [r7, #12]
800023aa:	3301      	adds	r3, #1
800023ac:	60fb      	str	r3, [r7, #12]
800023ae:	68fb      	ldr	r3, [r7, #12]
800023b0:	781b      	ldrb	r3, [r3, #0]
800023b2:	461a      	mov	r2, r3
800023b4:	4b16      	ldr	r3, [pc, #88]	; (80002410 <simple_strtoul+0x100>)
800023b6:	58e3      	ldr	r3, [r4, r3]
800023b8:	5c9b      	ldrb	r3, [r3, r2]
800023ba:	f003 0344 	and.w	r3, r3, #68	; 0x44
800023be:	2b00      	cmp	r3, #0
800023c0:	d019      	beq.n	800023f6 <simple_strtoul+0xe6>
800023c2:	68fb      	ldr	r3, [r7, #12]
800023c4:	781b      	ldrb	r3, [r3, #0]
800023c6:	461a      	mov	r2, r3
800023c8:	4b11      	ldr	r3, [pc, #68]	; (80002410 <simple_strtoul+0x100>)
800023ca:	58e3      	ldr	r3, [r4, r3]
800023cc:	5c9b      	ldrb	r3, [r3, r2]
800023ce:	f003 0304 	and.w	r3, r3, #4
800023d2:	2b00      	cmp	r3, #0
800023d4:	d003      	beq.n	800023de <simple_strtoul+0xce>
800023d6:	68fb      	ldr	r3, [r7, #12]
800023d8:	781b      	ldrb	r3, [r3, #0]
800023da:	3b30      	subs	r3, #48	; 0x30
800023dc:	e006      	b.n	800023ec <simple_strtoul+0xdc>
800023de:	68fb      	ldr	r3, [r7, #12]
800023e0:	781b      	ldrb	r3, [r3, #0]
800023e2:	4618      	mov	r0, r3
800023e4:	f7ff ff76 	bl	800022d4 <__toupper>
800023e8:	4603      	mov	r3, r0
800023ea:	3b37      	subs	r3, #55	; 0x37
800023ec:	613b      	str	r3, [r7, #16]
800023ee:	693a      	ldr	r2, [r7, #16]
800023f0:	687b      	ldr	r3, [r7, #4]
800023f2:	429a      	cmp	r2, r3
800023f4:	d3d1      	bcc.n	8000239a <simple_strtoul+0x8a>
800023f6:	68bb      	ldr	r3, [r7, #8]
800023f8:	2b00      	cmp	r3, #0
800023fa:	d002      	beq.n	80002402 <simple_strtoul+0xf2>
800023fc:	68bb      	ldr	r3, [r7, #8]
800023fe:	68fa      	ldr	r2, [r7, #12]
80002400:	601a      	str	r2, [r3, #0]
80002402:	697b      	ldr	r3, [r7, #20]
80002404:	4618      	mov	r0, r3
80002406:	371c      	adds	r7, #28
80002408:	46bd      	mov	sp, r7
8000240a:	bd90      	pop	{r4, r7, pc}
8000240c:	00001e02 	andeq	r1, r0, r2, lsl #28
80002410:	00000000 	andeq	r0, r0, r0

80002414 <simple_strtol>:
80002414:	b580      	push	{r7, lr}
80002416:	b084      	sub	sp, #16
80002418:	af00      	add	r7, sp, #0
8000241a:	60f8      	str	r0, [r7, #12]
8000241c:	60b9      	str	r1, [r7, #8]
8000241e:	607a      	str	r2, [r7, #4]
80002420:	68fb      	ldr	r3, [r7, #12]
80002422:	781b      	ldrb	r3, [r3, #0]
80002424:	2b2d      	cmp	r3, #45	; 0x2d
80002426:	d109      	bne.n	8000243c <simple_strtol+0x28>
80002428:	68fb      	ldr	r3, [r7, #12]
8000242a:	3301      	adds	r3, #1
8000242c:	687a      	ldr	r2, [r7, #4]
8000242e:	68b9      	ldr	r1, [r7, #8]
80002430:	4618      	mov	r0, r3
80002432:	f7ff ff6d 	bl	80002310 <simple_strtoul>
80002436:	4603      	mov	r3, r0
80002438:	425b      	negs	r3, r3
8000243a:	e005      	b.n	80002448 <simple_strtol+0x34>
8000243c:	687a      	ldr	r2, [r7, #4]
8000243e:	68b9      	ldr	r1, [r7, #8]
80002440:	68f8      	ldr	r0, [r7, #12]
80002442:	f7ff ff65 	bl	80002310 <simple_strtoul>
80002446:	4603      	mov	r3, r0
80002448:	4618      	mov	r0, r3
8000244a:	3710      	adds	r7, #16
8000244c:	46bd      	mov	sp, r7
8000244e:	bd80      	pop	{r7, pc}

80002450 <simple_strtoull>:
80002450:	e92d 4ff0 	stmdb	sp!, {r4, r5, r6, r7, r8, r9, sl, fp, lr}
80002454:	b08d      	sub	sp, #52	; 0x34
80002456:	af00      	add	r7, sp, #0
80002458:	61f8      	str	r0, [r7, #28]
8000245a:	61b9      	str	r1, [r7, #24]
8000245c:	617a      	str	r2, [r7, #20]
8000245e:	4e56      	ldr	r6, [pc, #344]	; (800025b8 <simple_strtoull+0x168>)
80002460:	447e      	add	r6, pc
80002462:	f04f 0200 	mov.w	r2, #0
80002466:	f04f 0300 	mov.w	r3, #0
8000246a:	e9c7 230a 	strd	r2, r3, [r7, #40]	; 0x28
8000246e:	697b      	ldr	r3, [r7, #20]
80002470:	2b00      	cmp	r3, #0
80002472:	d123      	bne.n	800024bc <simple_strtoull+0x6c>
80002474:	230a      	movs	r3, #10
80002476:	617b      	str	r3, [r7, #20]
80002478:	69fb      	ldr	r3, [r7, #28]
8000247a:	781b      	ldrb	r3, [r3, #0]
8000247c:	2b30      	cmp	r3, #48	; 0x30
8000247e:	d14e      	bne.n	8000251e <simple_strtoull+0xce>
80002480:	2308      	movs	r3, #8
80002482:	617b      	str	r3, [r7, #20]
80002484:	69fb      	ldr	r3, [r7, #28]
80002486:	3301      	adds	r3, #1
80002488:	61fb      	str	r3, [r7, #28]
8000248a:	69fb      	ldr	r3, [r7, #28]
8000248c:	781b      	ldrb	r3, [r3, #0]
8000248e:	4618      	mov	r0, r3
80002490:	f7ff ff20 	bl	800022d4 <__toupper>
80002494:	4603      	mov	r3, r0
80002496:	2b58      	cmp	r3, #88	; 0x58
80002498:	d141      	bne.n	8000251e <simple_strtoull+0xce>
8000249a:	69fb      	ldr	r3, [r7, #28]
8000249c:	3301      	adds	r3, #1
8000249e:	781b      	ldrb	r3, [r3, #0]
800024a0:	461a      	mov	r2, r3
800024a2:	4b46      	ldr	r3, [pc, #280]	; (800025bc <simple_strtoull+0x16c>)
800024a4:	58f3      	ldr	r3, [r6, r3]
800024a6:	5c9b      	ldrb	r3, [r3, r2]
800024a8:	f003 0344 	and.w	r3, r3, #68	; 0x44
800024ac:	2b00      	cmp	r3, #0
800024ae:	d036      	beq.n	8000251e <simple_strtoull+0xce>
800024b0:	69fb      	ldr	r3, [r7, #28]
800024b2:	3301      	adds	r3, #1
800024b4:	61fb      	str	r3, [r7, #28]
800024b6:	2310      	movs	r3, #16
800024b8:	617b      	str	r3, [r7, #20]
800024ba:	e030      	b.n	8000251e <simple_strtoull+0xce>
800024bc:	697b      	ldr	r3, [r7, #20]
800024be:	2b10      	cmp	r3, #16
800024c0:	d12d      	bne.n	8000251e <simple_strtoull+0xce>
800024c2:	69fb      	ldr	r3, [r7, #28]
800024c4:	781b      	ldrb	r3, [r3, #0]
800024c6:	2b30      	cmp	r3, #48	; 0x30
800024c8:	d129      	bne.n	8000251e <simple_strtoull+0xce>
800024ca:	69fb      	ldr	r3, [r7, #28]
800024cc:	3301      	adds	r3, #1
800024ce:	781b      	ldrb	r3, [r3, #0]
800024d0:	4618      	mov	r0, r3
800024d2:	f7ff feff 	bl	800022d4 <__toupper>
800024d6:	4603      	mov	r3, r0
800024d8:	2b58      	cmp	r3, #88	; 0x58
800024da:	d120      	bne.n	8000251e <simple_strtoull+0xce>
800024dc:	69fb      	ldr	r3, [r7, #28]
800024de:	3302      	adds	r3, #2
800024e0:	61fb      	str	r3, [r7, #28]
800024e2:	e01c      	b.n	8000251e <simple_strtoull+0xce>
800024e4:	697b      	ldr	r3, [r7, #20]
800024e6:	2200      	movs	r2, #0
800024e8:	4698      	mov	r8, r3
800024ea:	4691      	mov	r9, r2
800024ec:	6abb      	ldr	r3, [r7, #40]	; 0x28
800024ee:	fb09 f203 	mul.w	r2, r9, r3
800024f2:	6afb      	ldr	r3, [r7, #44]	; 0x2c
800024f4:	fb08 f303 	mul.w	r3, r8, r3
800024f8:	4413      	add	r3, r2
800024fa:	6aba      	ldr	r2, [r7, #40]	; 0x28
800024fc:	fba2 4508 	umull	r4, r5, r2, r8
80002500:	442b      	add	r3, r5
80002502:	461d      	mov	r5, r3
80002504:	e9d7 2308 	ldrd	r2, r3, [r7, #32]
80002508:	1911      	adds	r1, r2, r4
8000250a:	60b9      	str	r1, [r7, #8]
8000250c:	416b      	adcs	r3, r5
8000250e:	60fb      	str	r3, [r7, #12]
80002510:	e9d7 2302 	ldrd	r2, r3, [r7, #8]
80002514:	e9c7 230a 	strd	r2, r3, [r7, #40]	; 0x28
80002518:	69fb      	ldr	r3, [r7, #28]
8000251a:	3301      	adds	r3, #1
8000251c:	61fb      	str	r3, [r7, #28]
8000251e:	69fb      	ldr	r3, [r7, #28]
80002520:	781b      	ldrb	r3, [r3, #0]
80002522:	461a      	mov	r2, r3
80002524:	4b25      	ldr	r3, [pc, #148]	; (800025bc <simple_strtoull+0x16c>)
80002526:	58f3      	ldr	r3, [r6, r3]
80002528:	5c9b      	ldrb	r3, [r3, r2]
8000252a:	f003 0344 	and.w	r3, r3, #68	; 0x44
8000252e:	2b00      	cmp	r3, #0
80002530:	d033      	beq.n	8000259a <simple_strtoull+0x14a>
80002532:	69fb      	ldr	r3, [r7, #28]
80002534:	781b      	ldrb	r3, [r3, #0]
80002536:	461a      	mov	r2, r3
80002538:	4b20      	ldr	r3, [pc, #128]	; (800025bc <simple_strtoull+0x16c>)
8000253a:	58f3      	ldr	r3, [r6, r3]
8000253c:	5c9b      	ldrb	r3, [r3, r2]
8000253e:	f003 0304 	and.w	r3, r3, #4
80002542:	2b00      	cmp	r3, #0
80002544:	d003      	beq.n	8000254e <simple_strtoull+0xfe>
80002546:	69fb      	ldr	r3, [r7, #28]
80002548:	781b      	ldrb	r3, [r3, #0]
8000254a:	3b30      	subs	r3, #48	; 0x30
8000254c:	e014      	b.n	80002578 <simple_strtoull+0x128>
8000254e:	69fb      	ldr	r3, [r7, #28]
80002550:	781b      	ldrb	r3, [r3, #0]
80002552:	461a      	mov	r2, r3
80002554:	4b19      	ldr	r3, [pc, #100]	; (800025bc <simple_strtoull+0x16c>)
80002556:	58f3      	ldr	r3, [r6, r3]
80002558:	5c9b      	ldrb	r3, [r3, r2]
8000255a:	f003 0302 	and.w	r3, r3, #2
8000255e:	2b00      	cmp	r3, #0
80002560:	d007      	beq.n	80002572 <simple_strtoull+0x122>
80002562:	69fb      	ldr	r3, [r7, #28]
80002564:	781b      	ldrb	r3, [r3, #0]
80002566:	4618      	mov	r0, r3
80002568:	f7ff feb4 	bl	800022d4 <__toupper>
8000256c:	4603      	mov	r3, r0
8000256e:	3b37      	subs	r3, #55	; 0x37
80002570:	e002      	b.n	80002578 <simple_strtoull+0x128>
80002572:	69fb      	ldr	r3, [r7, #28]
80002574:	781b      	ldrb	r3, [r3, #0]
80002576:	3b37      	subs	r3, #55	; 0x37
80002578:	17da      	asrs	r2, r3, #31
8000257a:	603b      	str	r3, [r7, #0]
8000257c:	607a      	str	r2, [r7, #4]
8000257e:	e9d7 2300 	ldrd	r2, r3, [r7]
80002582:	e9c7 2308 	strd	r2, r3, [r7, #32]
80002586:	697b      	ldr	r3, [r7, #20]
80002588:	2200      	movs	r2, #0
8000258a:	469a      	mov	sl, r3
8000258c:	4693      	mov	fp, r2
8000258e:	e9d7 2308 	ldrd	r2, r3, [r7, #32]
80002592:	4552      	cmp	r2, sl
80002594:	eb73 030b 	sbcs.w	r3, r3, fp
80002598:	d3a4      	bcc.n	800024e4 <simple_strtoull+0x94>
8000259a:	69bb      	ldr	r3, [r7, #24]
8000259c:	2b00      	cmp	r3, #0
8000259e:	d002      	beq.n	800025a6 <simple_strtoull+0x156>
800025a0:	69bb      	ldr	r3, [r7, #24]
800025a2:	69fa      	ldr	r2, [r7, #28]
800025a4:	601a      	str	r2, [r3, #0]
800025a6:	e9d7 230a 	ldrd	r2, r3, [r7, #40]	; 0x28
800025aa:	4610      	mov	r0, r2
800025ac:	4619      	mov	r1, r3
800025ae:	3734      	adds	r7, #52	; 0x34
800025b0:	46bd      	mov	sp, r7
800025b2:	e8bd 8ff0 	ldmia.w	sp!, {r4, r5, r6, r7, r8, r9, sl, fp, pc}
800025b6:	bf00      	nop
800025b8:	00001cc0 	andeq	r1, r0, r0, asr #25
800025bc:	00000000 	andeq	r0, r0, r0

800025c0 <simple_strtoll>:
800025c0:	b5b0      	push	{r4, r5, r7, lr}
800025c2:	b084      	sub	sp, #16
800025c4:	af00      	add	r7, sp, #0
800025c6:	60f8      	str	r0, [r7, #12]
800025c8:	60b9      	str	r1, [r7, #8]
800025ca:	607a      	str	r2, [r7, #4]
800025cc:	68fb      	ldr	r3, [r7, #12]
800025ce:	781b      	ldrb	r3, [r3, #0]
800025d0:	2b2d      	cmp	r3, #45	; 0x2d
800025d2:	d10f      	bne.n	800025f4 <simple_strtoll+0x34>
800025d4:	68fb      	ldr	r3, [r7, #12]
800025d6:	3301      	adds	r3, #1
800025d8:	687a      	ldr	r2, [r7, #4]
800025da:	68b9      	ldr	r1, [r7, #8]
800025dc:	4618      	mov	r0, r3
800025de:	f7ff ff37 	bl	80002450 <simple_strtoull>
800025e2:	4602      	mov	r2, r0
800025e4:	460b      	mov	r3, r1
800025e6:	2100      	movs	r1, #0
800025e8:	4254      	negs	r4, r2
800025ea:	eb61 0503 	sbc.w	r5, r1, r3
800025ee:	4622      	mov	r2, r4
800025f0:	462b      	mov	r3, r5
800025f2:	e006      	b.n	80002602 <simple_strtoll+0x42>
800025f4:	687a      	ldr	r2, [r7, #4]
800025f6:	68b9      	ldr	r1, [r7, #8]
800025f8:	68f8      	ldr	r0, [r7, #12]
800025fa:	f7ff ff29 	bl	80002450 <simple_strtoull>
800025fe:	4602      	mov	r2, r0
80002600:	460b      	mov	r3, r1
80002602:	4610      	mov	r0, r2
80002604:	4619      	mov	r1, r3
80002606:	3710      	adds	r7, #16
80002608:	46bd      	mov	sp, r7
8000260a:	bdb0      	pop	{r4, r5, r7, pc}

8000260c <skip_atoi>:
8000260c:	b490      	push	{r4, r7}
8000260e:	b084      	sub	sp, #16
80002610:	af00      	add	r7, sp, #0
80002612:	6078      	str	r0, [r7, #4]
80002614:	4a11      	ldr	r2, [pc, #68]	; (8000265c <skip_atoi+0x50>)
80002616:	447a      	add	r2, pc
80002618:	2300      	movs	r3, #0
8000261a:	60fb      	str	r3, [r7, #12]
8000261c:	e00c      	b.n	80002638 <skip_atoi+0x2c>
8000261e:	68fb      	ldr	r3, [r7, #12]
80002620:	210a      	movs	r1, #10
80002622:	fb03 f101 	mul.w	r1, r3, r1
80002626:	687b      	ldr	r3, [r7, #4]
80002628:	681b      	ldr	r3, [r3, #0]
8000262a:	1c5c      	adds	r4, r3, #1
8000262c:	6878      	ldr	r0, [r7, #4]
8000262e:	6004      	str	r4, [r0, #0]
80002630:	781b      	ldrb	r3, [r3, #0]
80002632:	440b      	add	r3, r1
80002634:	3b30      	subs	r3, #48	; 0x30
80002636:	60fb      	str	r3, [r7, #12]
80002638:	687b      	ldr	r3, [r7, #4]
8000263a:	681b      	ldr	r3, [r3, #0]
8000263c:	781b      	ldrb	r3, [r3, #0]
8000263e:	4619      	mov	r1, r3
80002640:	4b07      	ldr	r3, [pc, #28]	; (80002660 <skip_atoi+0x54>)
80002642:	58d3      	ldr	r3, [r2, r3]
80002644:	5c5b      	ldrb	r3, [r3, r1]
80002646:	f003 0304 	and.w	r3, r3, #4
8000264a:	2b00      	cmp	r3, #0
8000264c:	d1e7      	bne.n	8000261e <skip_atoi+0x12>
8000264e:	68fb      	ldr	r3, [r7, #12]
80002650:	4618      	mov	r0, r3
80002652:	3710      	adds	r7, #16
80002654:	46bd      	mov	sp, r7
80002656:	bc90      	pop	{r4, r7}
80002658:	4770      	bx	lr
8000265a:	bf00      	nop
8000265c:	00001b0a 	andeq	r1, r0, sl, lsl #22
80002660:	00000000 	andeq	r0, r0, r0

80002664 <put_dec_trunc>:
80002664:	b480      	push	{r7}
80002666:	b087      	sub	sp, #28
80002668:	af00      	add	r7, sp, #0
8000266a:	6078      	str	r0, [r7, #4]
8000266c:	6039      	str	r1, [r7, #0]
8000266e:	683b      	ldr	r3, [r7, #0]
80002670:	091b      	lsrs	r3, r3, #4
80002672:	f003 030f 	and.w	r3, r3, #15
80002676:	617b      	str	r3, [r7, #20]
80002678:	683b      	ldr	r3, [r7, #0]
8000267a:	0a1b      	lsrs	r3, r3, #8
8000267c:	f003 030f 	and.w	r3, r3, #15
80002680:	613b      	str	r3, [r7, #16]
80002682:	683b      	ldr	r3, [r7, #0]
80002684:	0b1b      	lsrs	r3, r3, #12
80002686:	60fb      	str	r3, [r7, #12]
80002688:	68fa      	ldr	r2, [r7, #12]
8000268a:	693b      	ldr	r3, [r7, #16]
8000268c:	441a      	add	r2, r3
8000268e:	697b      	ldr	r3, [r7, #20]
80002690:	4413      	add	r3, r2
80002692:	2206      	movs	r2, #6
80002694:	fb03 f202 	mul.w	r2, r3, r2
80002698:	683b      	ldr	r3, [r7, #0]
8000269a:	f003 030f 	and.w	r3, r3, #15
8000269e:	4413      	add	r3, r2
800026a0:	60bb      	str	r3, [r7, #8]
800026a2:	68bb      	ldr	r3, [r7, #8]
800026a4:	22cd      	movs	r2, #205	; 0xcd
800026a6:	fb02 f303 	mul.w	r3, r2, r3
800026aa:	0adb      	lsrs	r3, r3, #11
800026ac:	603b      	str	r3, [r7, #0]
800026ae:	683b      	ldr	r3, [r7, #0]
800026b0:	220a      	movs	r2, #10
800026b2:	fb02 f303 	mul.w	r3, r2, r3
800026b6:	68ba      	ldr	r2, [r7, #8]
800026b8:	1ad3      	subs	r3, r2, r3
800026ba:	60bb      	str	r3, [r7, #8]
800026bc:	68bb      	ldr	r3, [r7, #8]
800026be:	b2da      	uxtb	r2, r3
800026c0:	687b      	ldr	r3, [r7, #4]
800026c2:	1c59      	adds	r1, r3, #1
800026c4:	6079      	str	r1, [r7, #4]
800026c6:	3230      	adds	r2, #48	; 0x30
800026c8:	b2d2      	uxtb	r2, r2
800026ca:	701a      	strb	r2, [r3, #0]
800026cc:	68fa      	ldr	r2, [r7, #12]
800026ce:	4613      	mov	r3, r2
800026d0:	00db      	lsls	r3, r3, #3
800026d2:	1899      	adds	r1, r3, r2
800026d4:	693a      	ldr	r2, [r7, #16]
800026d6:	4613      	mov	r3, r2
800026d8:	009b      	lsls	r3, r3, #2
800026da:	4413      	add	r3, r2
800026dc:	18ca      	adds	r2, r1, r3
800026de:	683b      	ldr	r3, [r7, #0]
800026e0:	4413      	add	r3, r2
800026e2:	697a      	ldr	r2, [r7, #20]
800026e4:	4413      	add	r3, r2
800026e6:	617b      	str	r3, [r7, #20]
800026e8:	697b      	ldr	r3, [r7, #20]
800026ea:	2b00      	cmp	r3, #0
800026ec:	d05c      	beq.n	800027a8 <put_dec_trunc+0x144>
800026ee:	697b      	ldr	r3, [r7, #20]
800026f0:	22cd      	movs	r2, #205	; 0xcd
800026f2:	fb02 f303 	mul.w	r3, r2, r3
800026f6:	0adb      	lsrs	r3, r3, #11
800026f8:	603b      	str	r3, [r7, #0]
800026fa:	683b      	ldr	r3, [r7, #0]
800026fc:	220a      	movs	r2, #10
800026fe:	fb02 f303 	mul.w	r3, r2, r3
80002702:	697a      	ldr	r2, [r7, #20]
80002704:	1ad3      	subs	r3, r2, r3
80002706:	617b      	str	r3, [r7, #20]
80002708:	697b      	ldr	r3, [r7, #20]
8000270a:	b2da      	uxtb	r2, r3
8000270c:	687b      	ldr	r3, [r7, #4]
8000270e:	1c59      	adds	r1, r3, #1
80002710:	6079      	str	r1, [r7, #4]
80002712:	3230      	adds	r2, #48	; 0x30
80002714:	b2d2      	uxtb	r2, r2
80002716:	701a      	strb	r2, [r3, #0]
80002718:	693b      	ldr	r3, [r7, #16]
8000271a:	005b      	lsls	r3, r3, #1
8000271c:	683a      	ldr	r2, [r7, #0]
8000271e:	4413      	add	r3, r2
80002720:	613b      	str	r3, [r7, #16]
80002722:	693b      	ldr	r3, [r7, #16]
80002724:	2b00      	cmp	r3, #0
80002726:	d102      	bne.n	8000272e <put_dec_trunc+0xca>
80002728:	68fb      	ldr	r3, [r7, #12]
8000272a:	2b00      	cmp	r3, #0
8000272c:	d03c      	beq.n	800027a8 <put_dec_trunc+0x144>
8000272e:	693b      	ldr	r3, [r7, #16]
80002730:	220d      	movs	r2, #13
80002732:	fb02 f303 	mul.w	r3, r2, r3
80002736:	09db      	lsrs	r3, r3, #7
80002738:	603b      	str	r3, [r7, #0]
8000273a:	683b      	ldr	r3, [r7, #0]
8000273c:	220a      	movs	r2, #10
8000273e:	fb02 f303 	mul.w	r3, r2, r3
80002742:	693a      	ldr	r2, [r7, #16]
80002744:	1ad3      	subs	r3, r2, r3
80002746:	613b      	str	r3, [r7, #16]
80002748:	693b      	ldr	r3, [r7, #16]
8000274a:	b2da      	uxtb	r2, r3
8000274c:	687b      	ldr	r3, [r7, #4]
8000274e:	1c59      	adds	r1, r3, #1
80002750:	6079      	str	r1, [r7, #4]
80002752:	3230      	adds	r2, #48	; 0x30
80002754:	b2d2      	uxtb	r2, r2
80002756:	701a      	strb	r2, [r3, #0]
80002758:	68fb      	ldr	r3, [r7, #12]
8000275a:	009b      	lsls	r3, r3, #2
8000275c:	683a      	ldr	r2, [r7, #0]
8000275e:	4413      	add	r3, r2
80002760:	60fb      	str	r3, [r7, #12]
80002762:	68fb      	ldr	r3, [r7, #12]
80002764:	2b00      	cmp	r3, #0
80002766:	d01f      	beq.n	800027a8 <put_dec_trunc+0x144>
80002768:	68fb      	ldr	r3, [r7, #12]
8000276a:	22cd      	movs	r2, #205	; 0xcd
8000276c:	fb02 f303 	mul.w	r3, r2, r3
80002770:	0adb      	lsrs	r3, r3, #11
80002772:	603b      	str	r3, [r7, #0]
80002774:	683b      	ldr	r3, [r7, #0]
80002776:	220a      	movs	r2, #10
80002778:	fb02 f303 	mul.w	r3, r2, r3
8000277c:	68fa      	ldr	r2, [r7, #12]
8000277e:	1ad3      	subs	r3, r2, r3
80002780:	60fb      	str	r3, [r7, #12]
80002782:	68fb      	ldr	r3, [r7, #12]
80002784:	b2da      	uxtb	r2, r3
80002786:	687b      	ldr	r3, [r7, #4]
80002788:	1c59      	adds	r1, r3, #1
8000278a:	6079      	str	r1, [r7, #4]
8000278c:	3230      	adds	r2, #48	; 0x30
8000278e:	b2d2      	uxtb	r2, r2
80002790:	701a      	strb	r2, [r3, #0]
80002792:	683b      	ldr	r3, [r7, #0]
80002794:	2b00      	cmp	r3, #0
80002796:	d007      	beq.n	800027a8 <put_dec_trunc+0x144>
80002798:	683b      	ldr	r3, [r7, #0]
8000279a:	b2da      	uxtb	r2, r3
8000279c:	687b      	ldr	r3, [r7, #4]
8000279e:	1c59      	adds	r1, r3, #1
800027a0:	6079      	str	r1, [r7, #4]
800027a2:	3230      	adds	r2, #48	; 0x30
800027a4:	b2d2      	uxtb	r2, r2
800027a6:	701a      	strb	r2, [r3, #0]
800027a8:	687b      	ldr	r3, [r7, #4]
800027aa:	4618      	mov	r0, r3
800027ac:	371c      	adds	r7, #28
800027ae:	46bd      	mov	sp, r7
800027b0:	f85d 7b04 	ldr.w	r7, [sp], #4
800027b4:	4770      	bx	lr

800027b6 <put_dec_full>:
800027b6:	b480      	push	{r7}
800027b8:	b087      	sub	sp, #28
800027ba:	af00      	add	r7, sp, #0
800027bc:	6078      	str	r0, [r7, #4]
800027be:	6039      	str	r1, [r7, #0]
800027c0:	683b      	ldr	r3, [r7, #0]
800027c2:	091b      	lsrs	r3, r3, #4
800027c4:	f003 030f 	and.w	r3, r3, #15
800027c8:	617b      	str	r3, [r7, #20]
800027ca:	683b      	ldr	r3, [r7, #0]
800027cc:	0a1b      	lsrs	r3, r3, #8
800027ce:	f003 030f 	and.w	r3, r3, #15
800027d2:	613b      	str	r3, [r7, #16]
800027d4:	683b      	ldr	r3, [r7, #0]
800027d6:	0b1b      	lsrs	r3, r3, #12
800027d8:	60fb      	str	r3, [r7, #12]
800027da:	68fa      	ldr	r2, [r7, #12]
800027dc:	693b      	ldr	r3, [r7, #16]
800027de:	441a      	add	r2, r3
800027e0:	697b      	ldr	r3, [r7, #20]
800027e2:	4413      	add	r3, r2
800027e4:	2206      	movs	r2, #6
800027e6:	fb03 f202 	mul.w	r2, r3, r2
800027ea:	683b      	ldr	r3, [r7, #0]
800027ec:	f003 030f 	and.w	r3, r3, #15
800027f0:	4413      	add	r3, r2
800027f2:	60bb      	str	r3, [r7, #8]
800027f4:	68bb      	ldr	r3, [r7, #8]
800027f6:	22cd      	movs	r2, #205	; 0xcd
800027f8:	fb02 f303 	mul.w	r3, r2, r3
800027fc:	0adb      	lsrs	r3, r3, #11
800027fe:	603b      	str	r3, [r7, #0]
80002800:	683b      	ldr	r3, [r7, #0]
80002802:	220a      	movs	r2, #10
80002804:	fb02 f303 	mul.w	r3, r2, r3
80002808:	68ba      	ldr	r2, [r7, #8]
8000280a:	1ad3      	subs	r3, r2, r3
8000280c:	60bb      	str	r3, [r7, #8]
8000280e:	68bb      	ldr	r3, [r7, #8]
80002810:	b2da      	uxtb	r2, r3
80002812:	687b      	ldr	r3, [r7, #4]
80002814:	1c59      	adds	r1, r3, #1
80002816:	6079      	str	r1, [r7, #4]
80002818:	3230      	adds	r2, #48	; 0x30
8000281a:	b2d2      	uxtb	r2, r2
8000281c:	701a      	strb	r2, [r3, #0]
8000281e:	68fa      	ldr	r2, [r7, #12]
80002820:	4613      	mov	r3, r2
80002822:	00db      	lsls	r3, r3, #3
80002824:	1899      	adds	r1, r3, r2
80002826:	693a      	ldr	r2, [r7, #16]
80002828:	4613      	mov	r3, r2
8000282a:	009b      	lsls	r3, r3, #2
8000282c:	4413      	add	r3, r2
8000282e:	18ca      	adds	r2, r1, r3
80002830:	683b      	ldr	r3, [r7, #0]
80002832:	4413      	add	r3, r2
80002834:	697a      	ldr	r2, [r7, #20]
80002836:	4413      	add	r3, r2
80002838:	617b      	str	r3, [r7, #20]
8000283a:	697b      	ldr	r3, [r7, #20]
8000283c:	22cd      	movs	r2, #205	; 0xcd
8000283e:	fb02 f303 	mul.w	r3, r2, r3
80002842:	0adb      	lsrs	r3, r3, #11
80002844:	603b      	str	r3, [r7, #0]
80002846:	683b      	ldr	r3, [r7, #0]
80002848:	220a      	movs	r2, #10
8000284a:	fb02 f303 	mul.w	r3, r2, r3
8000284e:	697a      	ldr	r2, [r7, #20]
80002850:	1ad3      	subs	r3, r2, r3
80002852:	617b      	str	r3, [r7, #20]
80002854:	697b      	ldr	r3, [r7, #20]
80002856:	b2da      	uxtb	r2, r3
80002858:	687b      	ldr	r3, [r7, #4]
8000285a:	1c59      	adds	r1, r3, #1
8000285c:	6079      	str	r1, [r7, #4]
8000285e:	3230      	adds	r2, #48	; 0x30
80002860:	b2d2      	uxtb	r2, r2
80002862:	701a      	strb	r2, [r3, #0]
80002864:	693b      	ldr	r3, [r7, #16]
80002866:	005b      	lsls	r3, r3, #1
80002868:	683a      	ldr	r2, [r7, #0]
8000286a:	4413      	add	r3, r2
8000286c:	613b      	str	r3, [r7, #16]
8000286e:	693b      	ldr	r3, [r7, #16]
80002870:	220d      	movs	r2, #13
80002872:	fb02 f303 	mul.w	r3, r2, r3
80002876:	09db      	lsrs	r3, r3, #7
80002878:	603b      	str	r3, [r7, #0]
8000287a:	683b      	ldr	r3, [r7, #0]
8000287c:	220a      	movs	r2, #10
8000287e:	fb02 f303 	mul.w	r3, r2, r3
80002882:	693a      	ldr	r2, [r7, #16]
80002884:	1ad3      	subs	r3, r2, r3
80002886:	613b      	str	r3, [r7, #16]
80002888:	693b      	ldr	r3, [r7, #16]
8000288a:	b2da      	uxtb	r2, r3
8000288c:	687b      	ldr	r3, [r7, #4]
8000288e:	1c59      	adds	r1, r3, #1
80002890:	6079      	str	r1, [r7, #4]
80002892:	3230      	adds	r2, #48	; 0x30
80002894:	b2d2      	uxtb	r2, r2
80002896:	701a      	strb	r2, [r3, #0]
80002898:	68fb      	ldr	r3, [r7, #12]
8000289a:	009b      	lsls	r3, r3, #2
8000289c:	683a      	ldr	r2, [r7, #0]
8000289e:	4413      	add	r3, r2
800028a0:	60fb      	str	r3, [r7, #12]
800028a2:	68fb      	ldr	r3, [r7, #12]
800028a4:	22cd      	movs	r2, #205	; 0xcd
800028a6:	fb02 f303 	mul.w	r3, r2, r3
800028aa:	0adb      	lsrs	r3, r3, #11
800028ac:	603b      	str	r3, [r7, #0]
800028ae:	683b      	ldr	r3, [r7, #0]
800028b0:	220a      	movs	r2, #10
800028b2:	fb02 f303 	mul.w	r3, r2, r3
800028b6:	68fa      	ldr	r2, [r7, #12]
800028b8:	1ad3      	subs	r3, r2, r3
800028ba:	60fb      	str	r3, [r7, #12]
800028bc:	68fb      	ldr	r3, [r7, #12]
800028be:	b2da      	uxtb	r2, r3
800028c0:	687b      	ldr	r3, [r7, #4]
800028c2:	1c59      	adds	r1, r3, #1
800028c4:	6079      	str	r1, [r7, #4]
800028c6:	3230      	adds	r2, #48	; 0x30
800028c8:	b2d2      	uxtb	r2, r2
800028ca:	701a      	strb	r2, [r3, #0]
800028cc:	683b      	ldr	r3, [r7, #0]
800028ce:	b2da      	uxtb	r2, r3
800028d0:	687b      	ldr	r3, [r7, #4]
800028d2:	1c59      	adds	r1, r3, #1
800028d4:	6079      	str	r1, [r7, #4]
800028d6:	3230      	adds	r2, #48	; 0x30
800028d8:	b2d2      	uxtb	r2, r2
800028da:	701a      	strb	r2, [r3, #0]
800028dc:	687b      	ldr	r3, [r7, #4]
800028de:	4618      	mov	r0, r3
800028e0:	371c      	adds	r7, #28
800028e2:	46bd      	mov	sp, r7
800028e4:	f85d 7b04 	ldr.w	r7, [sp], #4
800028e8:	4770      	bx	lr

800028ea <put_dec>:
800028ea:	b5b0      	push	{r4, r5, r7, lr}
800028ec:	b088      	sub	sp, #32
800028ee:	af00      	add	r7, sp, #0
800028f0:	60f8      	str	r0, [r7, #12]
800028f2:	e9c7 2300 	strd	r2, r3, [r7]
800028f6:	e9d7 2300 	ldrd	r2, r3, [r7]
800028fa:	f248 61a0 	movw	r1, #34464	; 0x86a0
800028fe:	f2c0 0101 	movt	r1, #1
80002902:	428a      	cmp	r2, r1
80002904:	f173 0300 	sbcs.w	r3, r3, #0
80002908:	d208      	bcs.n	8000291c <put_dec+0x32>
8000290a:	e9d7 2300 	ldrd	r2, r3, [r7]
8000290e:	4613      	mov	r3, r2
80002910:	4619      	mov	r1, r3
80002912:	68f8      	ldr	r0, [r7, #12]
80002914:	f7ff fea6 	bl	80002664 <put_dec_trunc>
80002918:	4603      	mov	r3, r0
8000291a:	e034      	b.n	80002986 <put_dec+0x9c>
8000291c:	f248 63a0 	movw	r3, #34464	; 0x86a0
80002920:	f2c0 0301 	movt	r3, #1
80002924:	61bb      	str	r3, [r7, #24]
80002926:	e9d7 0100 	ldrd	r0, r1, [r7]
8000292a:	f04f 0200 	mov.w	r2, #0
8000292e:	f04f 0300 	mov.w	r3, #0
80002932:	000a      	movs	r2, r1
80002934:	2300      	movs	r3, #0
80002936:	4313      	orrs	r3, r2
80002938:	d117      	bne.n	8000296a <put_dec+0x80>
8000293a:	e9d7 2300 	ldrd	r2, r3, [r7]
8000293e:	4613      	mov	r3, r2
80002940:	69b9      	ldr	r1, [r7, #24]
80002942:	4618      	mov	r0, r3
80002944:	f001 fa82 	bl	80003e4c <__aeabi_uidivmod>
80002948:	460b      	mov	r3, r1
8000294a:	61fb      	str	r3, [r7, #28]
8000294c:	e9d7 2300 	ldrd	r2, r3, [r7]
80002950:	4613      	mov	r3, r2
80002952:	69b9      	ldr	r1, [r7, #24]
80002954:	4618      	mov	r0, r3
80002956:	f001 f94b 	bl	80003bf0 <__udivsi3>
8000295a:	4603      	mov	r3, r0
8000295c:	461a      	mov	r2, r3
8000295e:	2300      	movs	r3, #0
80002960:	4614      	mov	r4, r2
80002962:	461d      	mov	r5, r3
80002964:	e9c7 4500 	strd	r4, r5, [r7]
80002968:	e005      	b.n	80002976 <put_dec+0x8c>
8000296a:	463b      	mov	r3, r7
8000296c:	69b9      	ldr	r1, [r7, #24]
8000296e:	4618      	mov	r0, r3
80002970:	f7fe ffa2 	bl	800018b8 <__div64_32>
80002974:	61f8      	str	r0, [r7, #28]
80002976:	69fb      	ldr	r3, [r7, #28]
80002978:	617b      	str	r3, [r7, #20]
8000297a:	6979      	ldr	r1, [r7, #20]
8000297c:	68f8      	ldr	r0, [r7, #12]
8000297e:	f7ff ff1a 	bl	800027b6 <put_dec_full>
80002982:	60f8      	str	r0, [r7, #12]
80002984:	e7b7      	b.n	800028f6 <put_dec+0xc>
80002986:	4618      	mov	r0, r3
80002988:	3720      	adds	r7, #32
8000298a:	46bd      	mov	sp, r7
8000298c:	bdb0      	pop	{r4, r5, r7, pc}

8000298e <number>:
8000298e:	e92d 43f0 	stmdb	sp!, {r4, r5, r6, r7, r8, r9, lr}
80002992:	b0a5      	sub	sp, #148	; 0x94
80002994:	af00      	add	r7, sp, #0
80002996:	60f8      	str	r0, [r7, #12]
80002998:	60b9      	str	r1, [r7, #8]
8000299a:	e9c7 2300 	strd	r2, r3, [r7]
8000299e:	f8d7 30bc 	ldr.w	r3, [r7, #188]	; 0xbc
800029a2:	f003 0320 	and.w	r3, r3, #32
800029a6:	2b00      	cmp	r3, #0
800029a8:	d005      	beq.n	800029b6 <number+0x28>
800029aa:	f8d7 30b0 	ldr.w	r3, [r7, #176]	; 0xb0
800029ae:	2b0a      	cmp	r3, #10
800029b0:	d001      	beq.n	800029b6 <number+0x28>
800029b2:	2301      	movs	r3, #1
800029b4:	e000      	b.n	800029b8 <number+0x2a>
800029b6:	2300      	movs	r3, #0
800029b8:	f8c7 3080 	str.w	r3, [r7, #128]	; 0x80
800029bc:	f8d7 30bc 	ldr.w	r3, [r7, #188]	; 0xbc
800029c0:	b2db      	uxtb	r3, r3
800029c2:	f003 0320 	and.w	r3, r3, #32
800029c6:	f887 307f 	strb.w	r3, [r7, #127]	; 0x7f
800029ca:	f8d7 30bc 	ldr.w	r3, [r7, #188]	; 0xbc
800029ce:	f003 0310 	and.w	r3, r3, #16
800029d2:	2b00      	cmp	r3, #0
800029d4:	d005      	beq.n	800029e2 <number+0x54>
800029d6:	f8d7 30bc 	ldr.w	r3, [r7, #188]	; 0xbc
800029da:	f023 0301 	bic.w	r3, r3, #1
800029de:	f8c7 30bc 	str.w	r3, [r7, #188]	; 0xbc
800029e2:	2300      	movs	r3, #0
800029e4:	f887 308f 	strb.w	r3, [r7, #143]	; 0x8f
800029e8:	f8d7 30bc 	ldr.w	r3, [r7, #188]	; 0xbc
800029ec:	f003 0302 	and.w	r3, r3, #2
800029f0:	2b00      	cmp	r3, #0
800029f2:	d032      	beq.n	80002a5a <number+0xcc>
800029f4:	e9d7 2300 	ldrd	r2, r3, [r7]
800029f8:	2b00      	cmp	r3, #0
800029fa:	da11      	bge.n	80002a20 <number+0x92>
800029fc:	232d      	movs	r3, #45	; 0x2d
800029fe:	f887 308f 	strb.w	r3, [r7, #143]	; 0x8f
80002a02:	e9d7 2300 	ldrd	r2, r3, [r7]
80002a06:	2100      	movs	r1, #0
80002a08:	f1d2 0800 	rsbs	r8, r2, #0
80002a0c:	eb61 0903 	sbc.w	r9, r1, r3
80002a10:	e9c7 8900 	strd	r8, r9, [r7]
80002a14:	f8d7 30b4 	ldr.w	r3, [r7, #180]	; 0xb4
80002a18:	3b01      	subs	r3, #1
80002a1a:	f8c7 30b4 	str.w	r3, [r7, #180]	; 0xb4
80002a1e:	e01c      	b.n	80002a5a <number+0xcc>
80002a20:	f8d7 30bc 	ldr.w	r3, [r7, #188]	; 0xbc
80002a24:	f003 0304 	and.w	r3, r3, #4
80002a28:	2b00      	cmp	r3, #0
80002a2a:	d008      	beq.n	80002a3e <number+0xb0>
80002a2c:	232b      	movs	r3, #43	; 0x2b
80002a2e:	f887 308f 	strb.w	r3, [r7, #143]	; 0x8f
80002a32:	f8d7 30b4 	ldr.w	r3, [r7, #180]	; 0xb4
80002a36:	3b01      	subs	r3, #1
80002a38:	f8c7 30b4 	str.w	r3, [r7, #180]	; 0xb4
80002a3c:	e00d      	b.n	80002a5a <number+0xcc>
80002a3e:	f8d7 30bc 	ldr.w	r3, [r7, #188]	; 0xbc
80002a42:	f003 0308 	and.w	r3, r3, #8
80002a46:	2b00      	cmp	r3, #0
80002a48:	d007      	beq.n	80002a5a <number+0xcc>
80002a4a:	2320      	movs	r3, #32
80002a4c:	f887 308f 	strb.w	r3, [r7, #143]	; 0x8f
80002a50:	f8d7 30b4 	ldr.w	r3, [r7, #180]	; 0xb4
80002a54:	3b01      	subs	r3, #1
80002a56:	f8c7 30b4 	str.w	r3, [r7, #180]	; 0xb4
80002a5a:	f8d7 3080 	ldr.w	r3, [r7, #128]	; 0x80
80002a5e:	2b00      	cmp	r3, #0
80002a60:	d00d      	beq.n	80002a7e <number+0xf0>
80002a62:	f8d7 30b4 	ldr.w	r3, [r7, #180]	; 0xb4
80002a66:	3b01      	subs	r3, #1
80002a68:	f8c7 30b4 	str.w	r3, [r7, #180]	; 0xb4
80002a6c:	f8d7 30b0 	ldr.w	r3, [r7, #176]	; 0xb0
80002a70:	2b10      	cmp	r3, #16
80002a72:	d104      	bne.n	80002a7e <number+0xf0>
80002a74:	f8d7 30b4 	ldr.w	r3, [r7, #180]	; 0xb4
80002a78:	3b01      	subs	r3, #1
80002a7a:	f8c7 30b4 	str.w	r3, [r7, #180]	; 0xb4
80002a7e:	2300      	movs	r3, #0
80002a80:	f8c7 3088 	str.w	r3, [r7, #136]	; 0x88
80002a84:	e9d7 2300 	ldrd	r2, r3, [r7]
80002a88:	4313      	orrs	r3, r2
80002a8a:	d10a      	bne.n	80002aa2 <number+0x114>
80002a8c:	f8d7 3088 	ldr.w	r3, [r7, #136]	; 0x88
80002a90:	1c5a      	adds	r2, r3, #1
80002a92:	f8c7 2088 	str.w	r2, [r7, #136]	; 0x88
80002a96:	3390      	adds	r3, #144	; 0x90
80002a98:	443b      	add	r3, r7
80002a9a:	2230      	movs	r2, #48	; 0x30
80002a9c:	f803 2c80 	strb.w	r2, [r3, #-128]
80002aa0:	e04d      	b.n	80002b3e <number+0x1b0>
80002aa2:	f8d7 30b0 	ldr.w	r3, [r7, #176]	; 0xb0
80002aa6:	2b0a      	cmp	r3, #10
80002aa8:	d03c      	beq.n	80002b24 <number+0x196>
80002aaa:	f8d7 30b0 	ldr.w	r3, [r7, #176]	; 0xb0
80002aae:	3b01      	subs	r3, #1
80002ab0:	67bb      	str	r3, [r7, #120]	; 0x78
80002ab2:	2303      	movs	r3, #3
80002ab4:	f8c7 3084 	str.w	r3, [r7, #132]	; 0x84
80002ab8:	f8d7 30b0 	ldr.w	r3, [r7, #176]	; 0xb0
80002abc:	2b10      	cmp	r3, #16
80002abe:	d102      	bne.n	80002ac6 <number+0x138>
80002ac0:	2304      	movs	r3, #4
80002ac2:	f8c7 3084 	str.w	r3, [r7, #132]	; 0x84
80002ac6:	783b      	ldrb	r3, [r7, #0]
80002ac8:	461a      	mov	r2, r3
80002aca:	6fbb      	ldr	r3, [r7, #120]	; 0x78
80002acc:	4013      	ands	r3, r2
80002ace:	4a80      	ldr	r2, [pc, #512]	; (80002cd0 <number+0x342>)
80002ad0:	447a      	add	r2, pc
80002ad2:	5cd1      	ldrb	r1, [r2, r3]
80002ad4:	f8d7 3088 	ldr.w	r3, [r7, #136]	; 0x88
80002ad8:	1c5a      	adds	r2, r3, #1
80002ada:	f8c7 2088 	str.w	r2, [r7, #136]	; 0x88
80002ade:	f897 207f 	ldrb.w	r2, [r7, #127]	; 0x7f
80002ae2:	430a      	orrs	r2, r1
80002ae4:	b2d2      	uxtb	r2, r2
80002ae6:	3390      	adds	r3, #144	; 0x90
80002ae8:	443b      	add	r3, r7
80002aea:	f803 2c80 	strb.w	r2, [r3, #-128]
80002aee:	e9d7 2300 	ldrd	r2, r3, [r7]
80002af2:	f8d7 1084 	ldr.w	r1, [r7, #132]	; 0x84
80002af6:	f1c1 0620 	rsb	r6, r1, #32
80002afa:	f1b1 0020 	subs.w	r0, r1, #32
80002afe:	fa22 f401 	lsr.w	r4, r2, r1
80002b02:	fa03 f606 	lsl.w	r6, r3, r6
80002b06:	ea44 0406 	orr.w	r4, r4, r6
80002b0a:	d402      	bmi.n	80002b12 <number+0x184>
80002b0c:	fa43 f000 	asr.w	r0, r3, r0
80002b10:	4304      	orrs	r4, r0
80002b12:	fa43 f501 	asr.w	r5, r3, r1
80002b16:	e9c7 4500 	strd	r4, r5, [r7]
80002b1a:	e9d7 2300 	ldrd	r2, r3, [r7]
80002b1e:	4313      	orrs	r3, r2
80002b20:	d1d1      	bne.n	80002ac6 <number+0x138>
80002b22:	e00c      	b.n	80002b3e <number+0x1b0>
80002b24:	e9d7 2300 	ldrd	r2, r3, [r7]
80002b28:	f107 0110 	add.w	r1, r7, #16
80002b2c:	4608      	mov	r0, r1
80002b2e:	f7ff fedc 	bl	800028ea <put_dec>
80002b32:	4602      	mov	r2, r0
80002b34:	f107 0310 	add.w	r3, r7, #16
80002b38:	1ad3      	subs	r3, r2, r3
80002b3a:	f8c7 3088 	str.w	r3, [r7, #136]	; 0x88
80002b3e:	f8d7 2088 	ldr.w	r2, [r7, #136]	; 0x88
80002b42:	f8d7 30b8 	ldr.w	r3, [r7, #184]	; 0xb8
80002b46:	429a      	cmp	r2, r3
80002b48:	dd03      	ble.n	80002b52 <number+0x1c4>
80002b4a:	f8d7 3088 	ldr.w	r3, [r7, #136]	; 0x88
80002b4e:	f8c7 30b8 	str.w	r3, [r7, #184]	; 0xb8
80002b52:	f8d7 20b4 	ldr.w	r2, [r7, #180]	; 0xb4
80002b56:	f8d7 30b8 	ldr.w	r3, [r7, #184]	; 0xb8
80002b5a:	1ad3      	subs	r3, r2, r3
80002b5c:	f8c7 30b4 	str.w	r3, [r7, #180]	; 0xb4
80002b60:	f8d7 30bc 	ldr.w	r3, [r7, #188]	; 0xbc
80002b64:	f003 0311 	and.w	r3, r3, #17
80002b68:	2b00      	cmp	r3, #0
80002b6a:	d113      	bne.n	80002b94 <number+0x206>
80002b6c:	e009      	b.n	80002b82 <number+0x1f4>
80002b6e:	68fa      	ldr	r2, [r7, #12]
80002b70:	68bb      	ldr	r3, [r7, #8]
80002b72:	429a      	cmp	r2, r3
80002b74:	d202      	bcs.n	80002b7c <number+0x1ee>
80002b76:	68fb      	ldr	r3, [r7, #12]
80002b78:	2220      	movs	r2, #32
80002b7a:	701a      	strb	r2, [r3, #0]
80002b7c:	68fb      	ldr	r3, [r7, #12]
80002b7e:	3301      	adds	r3, #1
80002b80:	60fb      	str	r3, [r7, #12]
80002b82:	f8d7 30b4 	ldr.w	r3, [r7, #180]	; 0xb4
80002b86:	3b01      	subs	r3, #1
80002b88:	f8c7 30b4 	str.w	r3, [r7, #180]	; 0xb4
80002b8c:	f8d7 30b4 	ldr.w	r3, [r7, #180]	; 0xb4
80002b90:	2b00      	cmp	r3, #0
80002b92:	daec      	bge.n	80002b6e <number+0x1e0>
80002b94:	f897 308f 	ldrb.w	r3, [r7, #143]	; 0x8f
80002b98:	2b00      	cmp	r3, #0
80002b9a:	d00a      	beq.n	80002bb2 <number+0x224>
80002b9c:	68fa      	ldr	r2, [r7, #12]
80002b9e:	68bb      	ldr	r3, [r7, #8]
80002ba0:	429a      	cmp	r2, r3
80002ba2:	d203      	bcs.n	80002bac <number+0x21e>
80002ba4:	68fb      	ldr	r3, [r7, #12]
80002ba6:	f897 208f 	ldrb.w	r2, [r7, #143]	; 0x8f
80002baa:	701a      	strb	r2, [r3, #0]
80002bac:	68fb      	ldr	r3, [r7, #12]
80002bae:	3301      	adds	r3, #1
80002bb0:	60fb      	str	r3, [r7, #12]
80002bb2:	f8d7 3080 	ldr.w	r3, [r7, #128]	; 0x80
80002bb6:	2b00      	cmp	r3, #0
80002bb8:	d01b      	beq.n	80002bf2 <number+0x264>
80002bba:	68fa      	ldr	r2, [r7, #12]
80002bbc:	68bb      	ldr	r3, [r7, #8]
80002bbe:	429a      	cmp	r2, r3
80002bc0:	d202      	bcs.n	80002bc8 <number+0x23a>
80002bc2:	68fb      	ldr	r3, [r7, #12]
80002bc4:	2230      	movs	r2, #48	; 0x30
80002bc6:	701a      	strb	r2, [r3, #0]
80002bc8:	68fb      	ldr	r3, [r7, #12]
80002bca:	3301      	adds	r3, #1
80002bcc:	60fb      	str	r3, [r7, #12]
80002bce:	f8d7 30b0 	ldr.w	r3, [r7, #176]	; 0xb0
80002bd2:	2b10      	cmp	r3, #16
80002bd4:	d10d      	bne.n	80002bf2 <number+0x264>
80002bd6:	68fa      	ldr	r2, [r7, #12]
80002bd8:	68bb      	ldr	r3, [r7, #8]
80002bda:	429a      	cmp	r2, r3
80002bdc:	d206      	bcs.n	80002bec <number+0x25e>
80002bde:	f897 307f 	ldrb.w	r3, [r7, #127]	; 0x7f
80002be2:	f043 0358 	orr.w	r3, r3, #88	; 0x58
80002be6:	b2da      	uxtb	r2, r3
80002be8:	68fb      	ldr	r3, [r7, #12]
80002bea:	701a      	strb	r2, [r3, #0]
80002bec:	68fb      	ldr	r3, [r7, #12]
80002bee:	3301      	adds	r3, #1
80002bf0:	60fb      	str	r3, [r7, #12]
80002bf2:	f8d7 30bc 	ldr.w	r3, [r7, #188]	; 0xbc
80002bf6:	f003 0310 	and.w	r3, r3, #16
80002bfa:	2b00      	cmp	r3, #0
80002bfc:	d12a      	bne.n	80002c54 <number+0x2c6>
80002bfe:	f8d7 30bc 	ldr.w	r3, [r7, #188]	; 0xbc
80002c02:	f003 0301 	and.w	r3, r3, #1
80002c06:	2b00      	cmp	r3, #0
80002c08:	d001      	beq.n	80002c0e <number+0x280>
80002c0a:	2330      	movs	r3, #48	; 0x30
80002c0c:	e000      	b.n	80002c10 <number+0x282>
80002c0e:	2320      	movs	r3, #32
80002c10:	f887 3077 	strb.w	r3, [r7, #119]	; 0x77
80002c14:	e00a      	b.n	80002c2c <number+0x29e>
80002c16:	68fa      	ldr	r2, [r7, #12]
80002c18:	68bb      	ldr	r3, [r7, #8]
80002c1a:	429a      	cmp	r2, r3
80002c1c:	d203      	bcs.n	80002c26 <number+0x298>
80002c1e:	68fb      	ldr	r3, [r7, #12]
80002c20:	f897 2077 	ldrb.w	r2, [r7, #119]	; 0x77
80002c24:	701a      	strb	r2, [r3, #0]
80002c26:	68fb      	ldr	r3, [r7, #12]
80002c28:	3301      	adds	r3, #1
80002c2a:	60fb      	str	r3, [r7, #12]
80002c2c:	f8d7 30b4 	ldr.w	r3, [r7, #180]	; 0xb4
80002c30:	3b01      	subs	r3, #1
80002c32:	f8c7 30b4 	str.w	r3, [r7, #180]	; 0xb4
80002c36:	f8d7 30b4 	ldr.w	r3, [r7, #180]	; 0xb4
80002c3a:	2b00      	cmp	r3, #0
80002c3c:	daeb      	bge.n	80002c16 <number+0x288>
80002c3e:	e009      	b.n	80002c54 <number+0x2c6>
80002c40:	68fa      	ldr	r2, [r7, #12]
80002c42:	68bb      	ldr	r3, [r7, #8]
80002c44:	429a      	cmp	r2, r3
80002c46:	d202      	bcs.n	80002c4e <number+0x2c0>
80002c48:	68fb      	ldr	r3, [r7, #12]
80002c4a:	2230      	movs	r2, #48	; 0x30
80002c4c:	701a      	strb	r2, [r3, #0]
80002c4e:	68fb      	ldr	r3, [r7, #12]
80002c50:	3301      	adds	r3, #1
80002c52:	60fb      	str	r3, [r7, #12]
80002c54:	f8d7 30b8 	ldr.w	r3, [r7, #184]	; 0xb8
80002c58:	3b01      	subs	r3, #1
80002c5a:	f8c7 30b8 	str.w	r3, [r7, #184]	; 0xb8
80002c5e:	f8d7 20b8 	ldr.w	r2, [r7, #184]	; 0xb8
80002c62:	f8d7 3088 	ldr.w	r3, [r7, #136]	; 0x88
80002c66:	429a      	cmp	r2, r3
80002c68:	daea      	bge.n	80002c40 <number+0x2b2>
80002c6a:	e00e      	b.n	80002c8a <number+0x2fc>
80002c6c:	68fa      	ldr	r2, [r7, #12]
80002c6e:	68bb      	ldr	r3, [r7, #8]
80002c70:	429a      	cmp	r2, r3
80002c72:	d207      	bcs.n	80002c84 <number+0x2f6>
80002c74:	f107 0210 	add.w	r2, r7, #16
80002c78:	f8d7 3088 	ldr.w	r3, [r7, #136]	; 0x88
80002c7c:	4413      	add	r3, r2
80002c7e:	781a      	ldrb	r2, [r3, #0]
80002c80:	68fb      	ldr	r3, [r7, #12]
80002c82:	701a      	strb	r2, [r3, #0]
80002c84:	68fb      	ldr	r3, [r7, #12]
80002c86:	3301      	adds	r3, #1
80002c88:	60fb      	str	r3, [r7, #12]
80002c8a:	f8d7 3088 	ldr.w	r3, [r7, #136]	; 0x88
80002c8e:	3b01      	subs	r3, #1
80002c90:	f8c7 3088 	str.w	r3, [r7, #136]	; 0x88
80002c94:	f8d7 3088 	ldr.w	r3, [r7, #136]	; 0x88
80002c98:	2b00      	cmp	r3, #0
80002c9a:	dae7      	bge.n	80002c6c <number+0x2de>
80002c9c:	e009      	b.n	80002cb2 <number+0x324>
80002c9e:	68fa      	ldr	r2, [r7, #12]
80002ca0:	68bb      	ldr	r3, [r7, #8]
80002ca2:	429a      	cmp	r2, r3
80002ca4:	d202      	bcs.n	80002cac <number+0x31e>
80002ca6:	68fb      	ldr	r3, [r7, #12]
80002ca8:	2220      	movs	r2, #32
80002caa:	701a      	strb	r2, [r3, #0]
80002cac:	68fb      	ldr	r3, [r7, #12]
80002cae:	3301      	adds	r3, #1
80002cb0:	60fb      	str	r3, [r7, #12]
80002cb2:	f8d7 30b4 	ldr.w	r3, [r7, #180]	; 0xb4
80002cb6:	3b01      	subs	r3, #1
80002cb8:	f8c7 30b4 	str.w	r3, [r7, #180]	; 0xb4
80002cbc:	f8d7 30b4 	ldr.w	r3, [r7, #180]	; 0xb4
80002cc0:	2b00      	cmp	r3, #0
80002cc2:	daec      	bge.n	80002c9e <number+0x310>
80002cc4:	68fb      	ldr	r3, [r7, #12]
80002cc6:	4618      	mov	r0, r3
80002cc8:	3794      	adds	r7, #148	; 0x94
80002cca:	46bd      	mov	sp, r7
80002ccc:	e8bd 83f0 	ldmia.w	sp!, {r4, r5, r6, r7, r8, r9, pc}
80002cd0:	00001534 	andeq	r1, r0, r4, lsr r5

80002cd4 <vsnprintf>:
80002cd4:	e92d 4ff0 	stmdb	sp!, {r4, r5, r6, r7, r8, r9, sl, fp, lr}
80002cd8:	b0a3      	sub	sp, #140	; 0x8c
80002cda:	af04      	add	r7, sp, #16
80002cdc:	6378      	str	r0, [r7, #52]	; 0x34
80002cde:	6339      	str	r1, [r7, #48]	; 0x30
80002ce0:	62fa      	str	r2, [r7, #44]	; 0x2c
80002ce2:	62bb      	str	r3, [r7, #40]	; 0x28
80002ce4:	f8df 46ec 	ldr.w	r4, [pc, #1772]	; 800033d4 <vsnprintf+0x700>
80002ce8:	447c      	add	r4, pc
80002cea:	6b3b      	ldr	r3, [r7, #48]	; 0x30
80002cec:	0fdb      	lsrs	r3, r3, #31
80002cee:	b2db      	uxtb	r3, r3
80002cf0:	2b00      	cmp	r3, #0
80002cf2:	d001      	beq.n	80002cf8 <vsnprintf+0x24>
80002cf4:	2300      	movs	r3, #0
80002cf6:	e368      	b.n	800033ca <vsnprintf+0x6f6>
80002cf8:	6b7b      	ldr	r3, [r7, #52]	; 0x34
80002cfa:	667b      	str	r3, [r7, #100]	; 0x64
80002cfc:	6b3b      	ldr	r3, [r7, #48]	; 0x30
80002cfe:	1e5a      	subs	r2, r3, #1
80002d00:	6b7b      	ldr	r3, [r7, #52]	; 0x34
80002d02:	4413      	add	r3, r2
80002d04:	663b      	str	r3, [r7, #96]	; 0x60
80002d06:	6b7b      	ldr	r3, [r7, #52]	; 0x34
80002d08:	1e5a      	subs	r2, r3, #1
80002d0a:	6e3b      	ldr	r3, [r7, #96]	; 0x60
80002d0c:	4293      	cmp	r3, r2
80002d0e:	f080 8346 	bcs.w	8000339e <vsnprintf+0x6ca>
80002d12:	f04f 33ff 	mov.w	r3, #4294967295	; 0xffffffff
80002d16:	663b      	str	r3, [r7, #96]	; 0x60
80002d18:	6e3a      	ldr	r2, [r7, #96]	; 0x60
80002d1a:	6b7b      	ldr	r3, [r7, #52]	; 0x34
80002d1c:	1ad3      	subs	r3, r2, r3
80002d1e:	3301      	adds	r3, #1
80002d20:	633b      	str	r3, [r7, #48]	; 0x30
80002d22:	e33c      	b.n	8000339e <vsnprintf+0x6ca>
80002d24:	6afb      	ldr	r3, [r7, #44]	; 0x2c
80002d26:	781b      	ldrb	r3, [r3, #0]
80002d28:	2b25      	cmp	r3, #37	; 0x25
80002d2a:	d00b      	beq.n	80002d44 <vsnprintf+0x70>
80002d2c:	6e7a      	ldr	r2, [r7, #100]	; 0x64
80002d2e:	6e3b      	ldr	r3, [r7, #96]	; 0x60
80002d30:	429a      	cmp	r2, r3
80002d32:	d803      	bhi.n	80002d3c <vsnprintf+0x68>
80002d34:	6afb      	ldr	r3, [r7, #44]	; 0x2c
80002d36:	781b      	ldrb	r3, [r3, #0]
80002d38:	6e7a      	ldr	r2, [r7, #100]	; 0x64
80002d3a:	7013      	strb	r3, [r2, #0]
80002d3c:	6e7b      	ldr	r3, [r7, #100]	; 0x64
80002d3e:	3301      	adds	r3, #1
80002d40:	667b      	str	r3, [r7, #100]	; 0x64
80002d42:	e329      	b.n	80003398 <vsnprintf+0x6c4>
80002d44:	2300      	movs	r3, #0
80002d46:	65bb      	str	r3, [r7, #88]	; 0x58
80002d48:	6afb      	ldr	r3, [r7, #44]	; 0x2c
80002d4a:	3301      	adds	r3, #1
80002d4c:	62fb      	str	r3, [r7, #44]	; 0x2c
80002d4e:	6afb      	ldr	r3, [r7, #44]	; 0x2c
80002d50:	781b      	ldrb	r3, [r3, #0]
80002d52:	3b20      	subs	r3, #32
80002d54:	2b10      	cmp	r3, #16
80002d56:	d840      	bhi.n	80002dda <vsnprintf+0x106>
80002d58:	a202      	add	r2, pc, #8	; (adr r2, 80002d64 <vsnprintf+0x90>)
80002d5a:	f852 3023 	ldr.w	r3, [r2, r3, lsl #2]
80002d5e:	441a      	add	r2, r3
80002d60:	4710      	bx	r2
80002d62:	bf00      	nop
80002d64:	00000059 	andeq	r0, r0, r9, asr r0
80002d68:	00000077 	andeq	r0, r0, r7, ror r0
80002d6c:	00000077 	andeq	r0, r0, r7, ror r0
80002d70:	00000063 	andeq	r0, r0, r3, rrx
80002d74:	00000077 	andeq	r0, r0, r7, ror r0
80002d78:	00000077 	andeq	r0, r0, r7, ror r0
80002d7c:	00000077 	andeq	r0, r0, r7, ror r0
80002d80:	00000077 	andeq	r0, r0, r7, ror r0
80002d84:	00000077 	andeq	r0, r0, r7, ror r0
80002d88:	00000077 	andeq	r0, r0, r7, ror r0
80002d8c:	00000077 	andeq	r0, r0, r7, ror r0
80002d90:	0000004f 	andeq	r0, r0, pc, asr #32
80002d94:	00000077 	andeq	r0, r0, r7, ror r0
80002d98:	00000045 	andeq	r0, r0, r5, asr #32
80002d9c:	00000077 	andeq	r0, r0, r7, ror r0
80002da0:	00000077 	andeq	r0, r0, r7, ror r0
80002da4:	0000006d 	andeq	r0, r0, sp, rrx
80002da8:	6dbb      	ldr	r3, [r7, #88]	; 0x58
80002daa:	f043 0310 	orr.w	r3, r3, #16
80002dae:	65bb      	str	r3, [r7, #88]	; 0x58
80002db0:	e7ca      	b.n	80002d48 <vsnprintf+0x74>
80002db2:	6dbb      	ldr	r3, [r7, #88]	; 0x58
80002db4:	f043 0304 	orr.w	r3, r3, #4
80002db8:	65bb      	str	r3, [r7, #88]	; 0x58
80002dba:	e7c5      	b.n	80002d48 <vsnprintf+0x74>
80002dbc:	6dbb      	ldr	r3, [r7, #88]	; 0x58
80002dbe:	f043 0308 	orr.w	r3, r3, #8
80002dc2:	65bb      	str	r3, [r7, #88]	; 0x58
80002dc4:	e7c0      	b.n	80002d48 <vsnprintf+0x74>
80002dc6:	6dbb      	ldr	r3, [r7, #88]	; 0x58
80002dc8:	f043 0320 	orr.w	r3, r3, #32
80002dcc:	65bb      	str	r3, [r7, #88]	; 0x58
80002dce:	e7bb      	b.n	80002d48 <vsnprintf+0x74>
80002dd0:	6dbb      	ldr	r3, [r7, #88]	; 0x58
80002dd2:	f043 0301 	orr.w	r3, r3, #1
80002dd6:	65bb      	str	r3, [r7, #88]	; 0x58
80002dd8:	e7b6      	b.n	80002d48 <vsnprintf+0x74>
80002dda:	f04f 33ff 	mov.w	r3, #4294967295	; 0xffffffff
80002dde:	657b      	str	r3, [r7, #84]	; 0x54
80002de0:	6afb      	ldr	r3, [r7, #44]	; 0x2c
80002de2:	781b      	ldrb	r3, [r3, #0]
80002de4:	461a      	mov	r2, r3
80002de6:	f8df 35f0 	ldr.w	r3, [pc, #1520]	; 800033d8 <vsnprintf+0x704>
80002dea:	58e3      	ldr	r3, [r4, r3]
80002dec:	5c9b      	ldrb	r3, [r3, r2]
80002dee:	f003 0304 	and.w	r3, r3, #4
80002df2:	2b00      	cmp	r3, #0
80002df4:	d006      	beq.n	80002e04 <vsnprintf+0x130>
80002df6:	f107 032c 	add.w	r3, r7, #44	; 0x2c
80002dfa:	4618      	mov	r0, r3
80002dfc:	f7ff fc06 	bl	8000260c <skip_atoi>
80002e00:	6578      	str	r0, [r7, #84]	; 0x54
80002e02:	e017      	b.n	80002e34 <vsnprintf+0x160>
80002e04:	6afb      	ldr	r3, [r7, #44]	; 0x2c
80002e06:	781b      	ldrb	r3, [r3, #0]
80002e08:	2b2a      	cmp	r3, #42	; 0x2a
80002e0a:	d113      	bne.n	80002e34 <vsnprintf+0x160>
80002e0c:	6afb      	ldr	r3, [r7, #44]	; 0x2c
80002e0e:	3301      	adds	r3, #1
80002e10:	62fb      	str	r3, [r7, #44]	; 0x2c
80002e12:	6abb      	ldr	r3, [r7, #40]	; 0x28
80002e14:	3304      	adds	r3, #4
80002e16:	62bb      	str	r3, [r7, #40]	; 0x28
80002e18:	6abb      	ldr	r3, [r7, #40]	; 0x28
80002e1a:	f853 3c04 	ldr.w	r3, [r3, #-4]
80002e1e:	657b      	str	r3, [r7, #84]	; 0x54
80002e20:	6d7b      	ldr	r3, [r7, #84]	; 0x54
80002e22:	2b00      	cmp	r3, #0
80002e24:	da06      	bge.n	80002e34 <vsnprintf+0x160>
80002e26:	6d7b      	ldr	r3, [r7, #84]	; 0x54
80002e28:	425b      	negs	r3, r3
80002e2a:	657b      	str	r3, [r7, #84]	; 0x54
80002e2c:	6dbb      	ldr	r3, [r7, #88]	; 0x58
80002e2e:	f043 0310 	orr.w	r3, r3, #16
80002e32:	65bb      	str	r3, [r7, #88]	; 0x58
80002e34:	f04f 33ff 	mov.w	r3, #4294967295	; 0xffffffff
80002e38:	653b      	str	r3, [r7, #80]	; 0x50
80002e3a:	6afb      	ldr	r3, [r7, #44]	; 0x2c
80002e3c:	781b      	ldrb	r3, [r3, #0]
80002e3e:	2b2e      	cmp	r3, #46	; 0x2e
80002e40:	d127      	bne.n	80002e92 <vsnprintf+0x1be>
80002e42:	6afb      	ldr	r3, [r7, #44]	; 0x2c
80002e44:	3301      	adds	r3, #1
80002e46:	62fb      	str	r3, [r7, #44]	; 0x2c
80002e48:	6afb      	ldr	r3, [r7, #44]	; 0x2c
80002e4a:	781b      	ldrb	r3, [r3, #0]
80002e4c:	461a      	mov	r2, r3
80002e4e:	f8df 3588 	ldr.w	r3, [pc, #1416]	; 800033d8 <vsnprintf+0x704>
80002e52:	58e3      	ldr	r3, [r4, r3]
80002e54:	5c9b      	ldrb	r3, [r3, r2]
80002e56:	f003 0304 	and.w	r3, r3, #4
80002e5a:	2b00      	cmp	r3, #0
80002e5c:	d006      	beq.n	80002e6c <vsnprintf+0x198>
80002e5e:	f107 032c 	add.w	r3, r7, #44	; 0x2c
80002e62:	4618      	mov	r0, r3
80002e64:	f7ff fbd2 	bl	8000260c <skip_atoi>
80002e68:	6538      	str	r0, [r7, #80]	; 0x50
80002e6a:	e00d      	b.n	80002e88 <vsnprintf+0x1b4>
80002e6c:	6afb      	ldr	r3, [r7, #44]	; 0x2c
80002e6e:	781b      	ldrb	r3, [r3, #0]
80002e70:	2b2a      	cmp	r3, #42	; 0x2a
80002e72:	d109      	bne.n	80002e88 <vsnprintf+0x1b4>
80002e74:	6afb      	ldr	r3, [r7, #44]	; 0x2c
80002e76:	3301      	adds	r3, #1
80002e78:	62fb      	str	r3, [r7, #44]	; 0x2c
80002e7a:	6abb      	ldr	r3, [r7, #40]	; 0x28
80002e7c:	3304      	adds	r3, #4
80002e7e:	62bb      	str	r3, [r7, #40]	; 0x28
80002e80:	6abb      	ldr	r3, [r7, #40]	; 0x28
80002e82:	f853 3c04 	ldr.w	r3, [r3, #-4]
80002e86:	653b      	str	r3, [r7, #80]	; 0x50
80002e88:	6d3b      	ldr	r3, [r7, #80]	; 0x50
80002e8a:	2b00      	cmp	r3, #0
80002e8c:	da01      	bge.n	80002e92 <vsnprintf+0x1be>
80002e8e:	2300      	movs	r3, #0
80002e90:	653b      	str	r3, [r7, #80]	; 0x50
80002e92:	f04f 33ff 	mov.w	r3, #4294967295	; 0xffffffff
80002e96:	64fb      	str	r3, [r7, #76]	; 0x4c
80002e98:	6afb      	ldr	r3, [r7, #44]	; 0x2c
80002e9a:	781b      	ldrb	r3, [r3, #0]
80002e9c:	2b68      	cmp	r3, #104	; 0x68
80002e9e:	d00f      	beq.n	80002ec0 <vsnprintf+0x1ec>
80002ea0:	6afb      	ldr	r3, [r7, #44]	; 0x2c
80002ea2:	781b      	ldrb	r3, [r3, #0]
80002ea4:	2b6c      	cmp	r3, #108	; 0x6c
80002ea6:	d00b      	beq.n	80002ec0 <vsnprintf+0x1ec>
80002ea8:	6afb      	ldr	r3, [r7, #44]	; 0x2c
80002eaa:	781b      	ldrb	r3, [r3, #0]
80002eac:	2b4c      	cmp	r3, #76	; 0x4c
80002eae:	d007      	beq.n	80002ec0 <vsnprintf+0x1ec>
80002eb0:	6afb      	ldr	r3, [r7, #44]	; 0x2c
80002eb2:	781b      	ldrb	r3, [r3, #0]
80002eb4:	2b5a      	cmp	r3, #90	; 0x5a
80002eb6:	d003      	beq.n	80002ec0 <vsnprintf+0x1ec>
80002eb8:	6afb      	ldr	r3, [r7, #44]	; 0x2c
80002eba:	781b      	ldrb	r3, [r3, #0]
80002ebc:	2b7a      	cmp	r3, #122	; 0x7a
80002ebe:	d111      	bne.n	80002ee4 <vsnprintf+0x210>
80002ec0:	6afb      	ldr	r3, [r7, #44]	; 0x2c
80002ec2:	781b      	ldrb	r3, [r3, #0]
80002ec4:	64fb      	str	r3, [r7, #76]	; 0x4c
80002ec6:	6afb      	ldr	r3, [r7, #44]	; 0x2c
80002ec8:	3301      	adds	r3, #1
80002eca:	62fb      	str	r3, [r7, #44]	; 0x2c
80002ecc:	6cfb      	ldr	r3, [r7, #76]	; 0x4c
80002ece:	2b6c      	cmp	r3, #108	; 0x6c
80002ed0:	d108      	bne.n	80002ee4 <vsnprintf+0x210>
80002ed2:	6afb      	ldr	r3, [r7, #44]	; 0x2c
80002ed4:	781b      	ldrb	r3, [r3, #0]
80002ed6:	2b6c      	cmp	r3, #108	; 0x6c
80002ed8:	d104      	bne.n	80002ee4 <vsnprintf+0x210>
80002eda:	234c      	movs	r3, #76	; 0x4c
80002edc:	64fb      	str	r3, [r7, #76]	; 0x4c
80002ede:	6afb      	ldr	r3, [r7, #44]	; 0x2c
80002ee0:	3301      	adds	r3, #1
80002ee2:	62fb      	str	r3, [r7, #44]	; 0x2c
80002ee4:	230a      	movs	r3, #10
80002ee6:	66bb      	str	r3, [r7, #104]	; 0x68
80002ee8:	6afb      	ldr	r3, [r7, #44]	; 0x2c
80002eea:	781b      	ldrb	r3, [r3, #0]
80002eec:	3b25      	subs	r3, #37	; 0x25
80002eee:	2b53      	cmp	r3, #83	; 0x53
80002ef0:	f200 81ae 	bhi.w	80003250 <vsnprintf+0x57c>
80002ef4:	a202      	add	r2, pc, #8	; (adr r2, 80002f00 <vsnprintf+0x22c>)
80002ef6:	f852 3023 	ldr.w	r3, [r2, r3, lsl #2]
80002efa:	441a      	add	r2, r3
80002efc:	4710      	bx	r2
80002efe:	bf00      	nop
80002f00:	0000031d 	andeq	r0, r0, sp, lsl r3
80002f04:	00000351 	andeq	r0, r0, r1, asr r3
80002f08:	00000351 	andeq	r0, r0, r1, asr r3
80002f0c:	00000351 	andeq	r0, r0, r1, asr r3
80002f10:	00000351 	andeq	r0, r0, r1, asr r3
80002f14:	00000351 	andeq	r0, r0, r1, asr r3
80002f18:	00000351 	andeq	r0, r0, r1, asr r3
80002f1c:	00000351 	andeq	r0, r0, r1, asr r3
80002f20:	00000351 	andeq	r0, r0, r1, asr r3
80002f24:	00000351 	andeq	r0, r0, r1, asr r3
80002f28:	00000351 	andeq	r0, r0, r1, asr r3
80002f2c:	00000351 	andeq	r0, r0, r1, asr r3
80002f30:	00000351 	andeq	r0, r0, r1, asr r3
80002f34:	00000351 	andeq	r0, r0, r1, asr r3
80002f38:	00000351 	andeq	r0, r0, r1, asr r3
80002f3c:	00000351 	andeq	r0, r0, r1, asr r3
80002f40:	00000351 	andeq	r0, r0, r1, asr r3
80002f44:	00000351 	andeq	r0, r0, r1, asr r3
80002f48:	00000351 	andeq	r0, r0, r1, asr r3
80002f4c:	00000351 	andeq	r0, r0, r1, asr r3
80002f50:	00000351 	andeq	r0, r0, r1, asr r3
80002f54:	00000351 	andeq	r0, r0, r1, asr r3
80002f58:	00000351 	andeq	r0, r0, r1, asr r3
80002f5c:	00000351 	andeq	r0, r0, r1, asr r3
80002f60:	00000351 	andeq	r0, r0, r1, asr r3
80002f64:	00000351 	andeq	r0, r0, r1, asr r3
80002f68:	00000351 	andeq	r0, r0, r1, asr r3
80002f6c:	00000351 	andeq	r0, r0, r1, asr r3
80002f70:	00000351 	andeq	r0, r0, r1, asr r3
80002f74:	00000351 	andeq	r0, r0, r1, asr r3
80002f78:	00000351 	andeq	r0, r0, r1, asr r3
80002f7c:	00000351 	andeq	r0, r0, r1, asr r3
80002f80:	00000351 	andeq	r0, r0, r1, asr r3
80002f84:	00000351 	andeq	r0, r0, r1, asr r3
80002f88:	00000351 	andeq	r0, r0, r1, asr r3
80002f8c:	00000351 	andeq	r0, r0, r1, asr r3
80002f90:	00000351 	andeq	r0, r0, r1, asr r3
80002f94:	00000351 	andeq	r0, r0, r1, asr r3
80002f98:	00000351 	andeq	r0, r0, r1, asr r3
80002f9c:	00000351 	andeq	r0, r0, r1, asr r3
80002fa0:	00000351 	andeq	r0, r0, r1, asr r3
80002fa4:	00000351 	andeq	r0, r0, r1, asr r3
80002fa8:	00000351 	andeq	r0, r0, r1, asr r3
80002fac:	00000351 	andeq	r0, r0, r1, asr r3
80002fb0:	00000351 	andeq	r0, r0, r1, asr r3
80002fb4:	00000351 	andeq	r0, r0, r1, asr r3
80002fb8:	00000351 	andeq	r0, r0, r1, asr r3
80002fbc:	00000351 	andeq	r0, r0, r1, asr r3
80002fc0:	00000351 	andeq	r0, r0, r1, asr r3
80002fc4:	00000351 	andeq	r0, r0, r1, asr r3
80002fc8:	00000351 	andeq	r0, r0, r1, asr r3
80002fcc:	00000339 	andeq	r0, r0, r9, lsr r3
80002fd0:	00000351 	andeq	r0, r0, r1, asr r3
80002fd4:	00000351 	andeq	r0, r0, r1, asr r3
80002fd8:	00000351 	andeq	r0, r0, r1, asr r3
80002fdc:	00000351 	andeq	r0, r0, r1, asr r3
80002fe0:	00000351 	andeq	r0, r0, r1, asr r3
80002fe4:	00000351 	andeq	r0, r0, r1, asr r3
80002fe8:	00000351 	andeq	r0, r0, r1, asr r3
80002fec:	00000351 	andeq	r0, r0, r1, asr r3
80002ff0:	00000351 	andeq	r0, r0, r1, asr r3
80002ff4:	00000351 	andeq	r0, r0, r1, asr r3
80002ff8:	00000151 	andeq	r0, r0, r1, asr r1
80002ffc:	00000347 	andeq	r0, r0, r7, asr #6
80003000:	00000351 	andeq	r0, r0, r1, asr r3
80003004:	00000351 	andeq	r0, r0, r1, asr r3
80003008:	00000351 	andeq	r0, r0, r1, asr r3
8000300c:	00000351 	andeq	r0, r0, r1, asr r3
80003010:	00000347 	andeq	r0, r0, r7, asr #6
80003014:	00000351 	andeq	r0, r0, r1, asr r3
80003018:	00000351 	andeq	r0, r0, r1, asr r3
8000301c:	00000351 	andeq	r0, r0, r1, asr r3
80003020:	00000351 	andeq	r0, r0, r1, asr r3
80003024:	000002b9 			; <UNDEFINED> instruction: 0x000002b9
80003028:	00000333 	andeq	r0, r0, r3, lsr r3
8000302c:	00000271 	andeq	r0, r0, r1, ror r2
80003030:	00000351 	andeq	r0, r0, r1, asr r3
80003034:	00000351 	andeq	r0, r0, r1, asr r3
80003038:	000001c7 	andeq	r0, r0, r7, asr #3
8000303c:	00000351 	andeq	r0, r0, r1, asr r3
80003040:	0000038d 	andeq	r0, r0, sp, lsl #7
80003044:	00000351 	andeq	r0, r0, r1, asr r3
80003048:	00000351 	andeq	r0, r0, r1, asr r3
8000304c:	00000341 	andeq	r0, r0, r1, asr #6
80003050:	6dbb      	ldr	r3, [r7, #88]	; 0x58
80003052:	f003 0310 	and.w	r3, r3, #16
80003056:	2b00      	cmp	r3, #0
80003058:	d110      	bne.n	8000307c <vsnprintf+0x3a8>
8000305a:	e009      	b.n	80003070 <vsnprintf+0x39c>
8000305c:	6e7a      	ldr	r2, [r7, #100]	; 0x64
8000305e:	6e3b      	ldr	r3, [r7, #96]	; 0x60
80003060:	429a      	cmp	r2, r3
80003062:	d802      	bhi.n	8000306a <vsnprintf+0x396>
80003064:	6e7a      	ldr	r2, [r7, #100]	; 0x64
80003066:	2320      	movs	r3, #32
80003068:	7013      	strb	r3, [r2, #0]
8000306a:	6e7b      	ldr	r3, [r7, #100]	; 0x64
8000306c:	3301      	adds	r3, #1
8000306e:	667b      	str	r3, [r7, #100]	; 0x64
80003070:	6d7b      	ldr	r3, [r7, #84]	; 0x54
80003072:	3b01      	subs	r3, #1
80003074:	657b      	str	r3, [r7, #84]	; 0x54
80003076:	6d7b      	ldr	r3, [r7, #84]	; 0x54
80003078:	2b00      	cmp	r3, #0
8000307a:	dcef      	bgt.n	8000305c <vsnprintf+0x388>
8000307c:	6abb      	ldr	r3, [r7, #40]	; 0x28
8000307e:	3304      	adds	r3, #4
80003080:	62bb      	str	r3, [r7, #40]	; 0x28
80003082:	6abb      	ldr	r3, [r7, #40]	; 0x28
80003084:	3b04      	subs	r3, #4
80003086:	681b      	ldr	r3, [r3, #0]
80003088:	f887 303b 	strb.w	r3, [r7, #59]	; 0x3b
8000308c:	6e7a      	ldr	r2, [r7, #100]	; 0x64
8000308e:	6e3b      	ldr	r3, [r7, #96]	; 0x60
80003090:	429a      	cmp	r2, r3
80003092:	d803      	bhi.n	8000309c <vsnprintf+0x3c8>
80003094:	6e7a      	ldr	r2, [r7, #100]	; 0x64
80003096:	f897 303b 	ldrb.w	r3, [r7, #59]	; 0x3b
8000309a:	7013      	strb	r3, [r2, #0]
8000309c:	6e7b      	ldr	r3, [r7, #100]	; 0x64
8000309e:	3301      	adds	r3, #1
800030a0:	667b      	str	r3, [r7, #100]	; 0x64
800030a2:	e009      	b.n	800030b8 <vsnprintf+0x3e4>
800030a4:	6e7a      	ldr	r2, [r7, #100]	; 0x64
800030a6:	6e3b      	ldr	r3, [r7, #96]	; 0x60
800030a8:	429a      	cmp	r2, r3
800030aa:	d802      	bhi.n	800030b2 <vsnprintf+0x3de>
800030ac:	6e7a      	ldr	r2, [r7, #100]	; 0x64
800030ae:	2320      	movs	r3, #32
800030b0:	7013      	strb	r3, [r2, #0]
800030b2:	6e7b      	ldr	r3, [r7, #100]	; 0x64
800030b4:	3301      	adds	r3, #1
800030b6:	667b      	str	r3, [r7, #100]	; 0x64
800030b8:	6d7b      	ldr	r3, [r7, #84]	; 0x54
800030ba:	3b01      	subs	r3, #1
800030bc:	657b      	str	r3, [r7, #84]	; 0x54
800030be:	6d7b      	ldr	r3, [r7, #84]	; 0x54
800030c0:	2b00      	cmp	r3, #0
800030c2:	dcef      	bgt.n	800030a4 <vsnprintf+0x3d0>
800030c4:	e168      	b.n	80003398 <vsnprintf+0x6c4>
800030c6:	6abb      	ldr	r3, [r7, #40]	; 0x28
800030c8:	3304      	adds	r3, #4
800030ca:	62bb      	str	r3, [r7, #40]	; 0x28
800030cc:	6abb      	ldr	r3, [r7, #40]	; 0x28
800030ce:	f853 3c04 	ldr.w	r3, [r3, #-4]
800030d2:	65fb      	str	r3, [r7, #92]	; 0x5c
800030d4:	6dfb      	ldr	r3, [r7, #92]	; 0x5c
800030d6:	f5b3 6f80 	cmp.w	r3, #1024	; 0x400
800030da:	d202      	bcs.n	800030e2 <vsnprintf+0x40e>
800030dc:	4bbf      	ldr	r3, [pc, #764]	; (800033dc <vsnprintf+0x708>)
800030de:	447b      	add	r3, pc
800030e0:	65fb      	str	r3, [r7, #92]	; 0x5c
800030e2:	6d3b      	ldr	r3, [r7, #80]	; 0x50
800030e4:	4619      	mov	r1, r3
800030e6:	6df8      	ldr	r0, [r7, #92]	; 0x5c
800030e8:	f7fe fee3 	bl	80001eb2 <strnlen>
800030ec:	4603      	mov	r3, r0
800030ee:	64bb      	str	r3, [r7, #72]	; 0x48
800030f0:	6dbb      	ldr	r3, [r7, #88]	; 0x58
800030f2:	f003 0310 	and.w	r3, r3, #16
800030f6:	2b00      	cmp	r3, #0
800030f8:	d110      	bne.n	8000311c <vsnprintf+0x448>
800030fa:	e009      	b.n	80003110 <vsnprintf+0x43c>
800030fc:	6e7a      	ldr	r2, [r7, #100]	; 0x64
800030fe:	6e3b      	ldr	r3, [r7, #96]	; 0x60
80003100:	429a      	cmp	r2, r3
80003102:	d802      	bhi.n	8000310a <vsnprintf+0x436>
80003104:	6e7a      	ldr	r2, [r7, #100]	; 0x64
80003106:	2320      	movs	r3, #32
80003108:	7013      	strb	r3, [r2, #0]
8000310a:	6e7b      	ldr	r3, [r7, #100]	; 0x64
8000310c:	3301      	adds	r3, #1
8000310e:	667b      	str	r3, [r7, #100]	; 0x64
80003110:	6d7a      	ldr	r2, [r7, #84]	; 0x54
80003112:	1e53      	subs	r3, r2, #1
80003114:	657b      	str	r3, [r7, #84]	; 0x54
80003116:	6cbb      	ldr	r3, [r7, #72]	; 0x48
80003118:	4293      	cmp	r3, r2
8000311a:	dbef      	blt.n	800030fc <vsnprintf+0x428>
8000311c:	2300      	movs	r3, #0
8000311e:	66fb      	str	r3, [r7, #108]	; 0x6c
80003120:	e010      	b.n	80003144 <vsnprintf+0x470>
80003122:	6e7a      	ldr	r2, [r7, #100]	; 0x64
80003124:	6e3b      	ldr	r3, [r7, #96]	; 0x60
80003126:	429a      	cmp	r2, r3
80003128:	d803      	bhi.n	80003132 <vsnprintf+0x45e>
8000312a:	6dfb      	ldr	r3, [r7, #92]	; 0x5c
8000312c:	781b      	ldrb	r3, [r3, #0]
8000312e:	6e7a      	ldr	r2, [r7, #100]	; 0x64
80003130:	7013      	strb	r3, [r2, #0]
80003132:	6e7b      	ldr	r3, [r7, #100]	; 0x64
80003134:	3301      	adds	r3, #1
80003136:	667b      	str	r3, [r7, #100]	; 0x64
80003138:	6dfb      	ldr	r3, [r7, #92]	; 0x5c
8000313a:	3301      	adds	r3, #1
8000313c:	65fb      	str	r3, [r7, #92]	; 0x5c
8000313e:	6efb      	ldr	r3, [r7, #108]	; 0x6c
80003140:	3301      	adds	r3, #1
80003142:	66fb      	str	r3, [r7, #108]	; 0x6c
80003144:	6efa      	ldr	r2, [r7, #108]	; 0x6c
80003146:	6cbb      	ldr	r3, [r7, #72]	; 0x48
80003148:	429a      	cmp	r2, r3
8000314a:	dbea      	blt.n	80003122 <vsnprintf+0x44e>
8000314c:	e009      	b.n	80003162 <vsnprintf+0x48e>
8000314e:	6e7a      	ldr	r2, [r7, #100]	; 0x64
80003150:	6e3b      	ldr	r3, [r7, #96]	; 0x60
80003152:	429a      	cmp	r2, r3
80003154:	d802      	bhi.n	8000315c <vsnprintf+0x488>
80003156:	6e7a      	ldr	r2, [r7, #100]	; 0x64
80003158:	2320      	movs	r3, #32
8000315a:	7013      	strb	r3, [r2, #0]
8000315c:	6e7b      	ldr	r3, [r7, #100]	; 0x64
8000315e:	3301      	adds	r3, #1
80003160:	667b      	str	r3, [r7, #100]	; 0x64
80003162:	6d7a      	ldr	r2, [r7, #84]	; 0x54
80003164:	1e53      	subs	r3, r2, #1
80003166:	657b      	str	r3, [r7, #84]	; 0x54
80003168:	6cbb      	ldr	r3, [r7, #72]	; 0x48
8000316a:	4293      	cmp	r3, r2
8000316c:	dbef      	blt.n	8000314e <vsnprintf+0x47a>
8000316e:	e113      	b.n	80003398 <vsnprintf+0x6c4>
80003170:	6d7b      	ldr	r3, [r7, #84]	; 0x54
80003172:	f1b3 3fff 	cmp.w	r3, #4294967295	; 0xffffffff
80003176:	d105      	bne.n	80003184 <vsnprintf+0x4b0>
80003178:	2308      	movs	r3, #8
8000317a:	657b      	str	r3, [r7, #84]	; 0x54
8000317c:	6dbb      	ldr	r3, [r7, #88]	; 0x58
8000317e:	f043 0301 	orr.w	r3, r3, #1
80003182:	65bb      	str	r3, [r7, #88]	; 0x58
80003184:	6abb      	ldr	r3, [r7, #40]	; 0x28
80003186:	3304      	adds	r3, #4
80003188:	62bb      	str	r3, [r7, #40]	; 0x28
8000318a:	6abb      	ldr	r3, [r7, #40]	; 0x28
8000318c:	3b04      	subs	r3, #4
8000318e:	681b      	ldr	r3, [r3, #0]
80003190:	461a      	mov	r2, r3
80003192:	2300      	movs	r3, #0
80003194:	623a      	str	r2, [r7, #32]
80003196:	627b      	str	r3, [r7, #36]	; 0x24
80003198:	6dbb      	ldr	r3, [r7, #88]	; 0x58
8000319a:	9303      	str	r3, [sp, #12]
8000319c:	6d3b      	ldr	r3, [r7, #80]	; 0x50
8000319e:	9302      	str	r3, [sp, #8]
800031a0:	6d7b      	ldr	r3, [r7, #84]	; 0x54
800031a2:	9301      	str	r3, [sp, #4]
800031a4:	2310      	movs	r3, #16
800031a6:	9300      	str	r3, [sp, #0]
800031a8:	e9d7 2308 	ldrd	r2, r3, [r7, #32]
800031ac:	6e39      	ldr	r1, [r7, #96]	; 0x60
800031ae:	6e78      	ldr	r0, [r7, #100]	; 0x64
800031b0:	f7ff fbed 	bl	8000298e <number>
800031b4:	6678      	str	r0, [r7, #100]	; 0x64
800031b6:	e0ef      	b.n	80003398 <vsnprintf+0x6c4>
800031b8:	6cfb      	ldr	r3, [r7, #76]	; 0x4c
800031ba:	2b6c      	cmp	r3, #108	; 0x6c
800031bc:	d10c      	bne.n	800031d8 <vsnprintf+0x504>
800031be:	6abb      	ldr	r3, [r7, #40]	; 0x28
800031c0:	3304      	adds	r3, #4
800031c2:	62bb      	str	r3, [r7, #40]	; 0x28
800031c4:	6abb      	ldr	r3, [r7, #40]	; 0x28
800031c6:	f853 3c04 	ldr.w	r3, [r3, #-4]
800031ca:	63fb      	str	r3, [r7, #60]	; 0x3c
800031cc:	6e7a      	ldr	r2, [r7, #100]	; 0x64
800031ce:	6b7b      	ldr	r3, [r7, #52]	; 0x34
800031d0:	1ad2      	subs	r2, r2, r3
800031d2:	6bfb      	ldr	r3, [r7, #60]	; 0x3c
800031d4:	601a      	str	r2, [r3, #0]
800031d6:	e0df      	b.n	80003398 <vsnprintf+0x6c4>
800031d8:	6cfb      	ldr	r3, [r7, #76]	; 0x4c
800031da:	2b5a      	cmp	r3, #90	; 0x5a
800031dc:	d002      	beq.n	800031e4 <vsnprintf+0x510>
800031de:	6cfb      	ldr	r3, [r7, #76]	; 0x4c
800031e0:	2b7a      	cmp	r3, #122	; 0x7a
800031e2:	d10e      	bne.n	80003202 <vsnprintf+0x52e>
800031e4:	6abb      	ldr	r3, [r7, #40]	; 0x28
800031e6:	3304      	adds	r3, #4
800031e8:	62bb      	str	r3, [r7, #40]	; 0x28
800031ea:	6abb      	ldr	r3, [r7, #40]	; 0x28
800031ec:	f853 3c04 	ldr.w	r3, [r3, #-4]
800031f0:	643b      	str	r3, [r7, #64]	; 0x40
800031f2:	6e7a      	ldr	r2, [r7, #100]	; 0x64
800031f4:	6b7b      	ldr	r3, [r7, #52]	; 0x34
800031f6:	1ad3      	subs	r3, r2, r3
800031f8:	461a      	mov	r2, r3
800031fa:	6c3b      	ldr	r3, [r7, #64]	; 0x40
800031fc:	601a      	str	r2, [r3, #0]
800031fe:	bf00      	nop
80003200:	e0ca      	b.n	80003398 <vsnprintf+0x6c4>
80003202:	6abb      	ldr	r3, [r7, #40]	; 0x28
80003204:	3304      	adds	r3, #4
80003206:	62bb      	str	r3, [r7, #40]	; 0x28
80003208:	6abb      	ldr	r3, [r7, #40]	; 0x28
8000320a:	f853 3c04 	ldr.w	r3, [r3, #-4]
8000320e:	647b      	str	r3, [r7, #68]	; 0x44
80003210:	6e7a      	ldr	r2, [r7, #100]	; 0x64
80003212:	6b7b      	ldr	r3, [r7, #52]	; 0x34
80003214:	1ad2      	subs	r2, r2, r3
80003216:	6c7b      	ldr	r3, [r7, #68]	; 0x44
80003218:	601a      	str	r2, [r3, #0]
8000321a:	e0bd      	b.n	80003398 <vsnprintf+0x6c4>
8000321c:	6e7a      	ldr	r2, [r7, #100]	; 0x64
8000321e:	6e3b      	ldr	r3, [r7, #96]	; 0x60
80003220:	429a      	cmp	r2, r3
80003222:	d802      	bhi.n	8000322a <vsnprintf+0x556>
80003224:	6e7a      	ldr	r2, [r7, #100]	; 0x64
80003226:	2325      	movs	r3, #37	; 0x25
80003228:	7013      	strb	r3, [r2, #0]
8000322a:	6e7b      	ldr	r3, [r7, #100]	; 0x64
8000322c:	3301      	adds	r3, #1
8000322e:	667b      	str	r3, [r7, #100]	; 0x64
80003230:	e0b2      	b.n	80003398 <vsnprintf+0x6c4>
80003232:	2308      	movs	r3, #8
80003234:	66bb      	str	r3, [r7, #104]	; 0x68
80003236:	e02a      	b.n	8000328e <vsnprintf+0x5ba>
80003238:	6dbb      	ldr	r3, [r7, #88]	; 0x58
8000323a:	f043 0340 	orr.w	r3, r3, #64	; 0x40
8000323e:	65bb      	str	r3, [r7, #88]	; 0x58
80003240:	2310      	movs	r3, #16
80003242:	66bb      	str	r3, [r7, #104]	; 0x68
80003244:	e023      	b.n	8000328e <vsnprintf+0x5ba>
80003246:	6dbb      	ldr	r3, [r7, #88]	; 0x58
80003248:	f043 0302 	orr.w	r3, r3, #2
8000324c:	65bb      	str	r3, [r7, #88]	; 0x58
8000324e:	e01d      	b.n	8000328c <vsnprintf+0x5b8>
80003250:	6e7a      	ldr	r2, [r7, #100]	; 0x64
80003252:	6e3b      	ldr	r3, [r7, #96]	; 0x60
80003254:	429a      	cmp	r2, r3
80003256:	d802      	bhi.n	8000325e <vsnprintf+0x58a>
80003258:	6e7a      	ldr	r2, [r7, #100]	; 0x64
8000325a:	2325      	movs	r3, #37	; 0x25
8000325c:	7013      	strb	r3, [r2, #0]
8000325e:	6e7b      	ldr	r3, [r7, #100]	; 0x64
80003260:	3301      	adds	r3, #1
80003262:	667b      	str	r3, [r7, #100]	; 0x64
80003264:	6afb      	ldr	r3, [r7, #44]	; 0x2c
80003266:	781b      	ldrb	r3, [r3, #0]
80003268:	2b00      	cmp	r3, #0
8000326a:	d00b      	beq.n	80003284 <vsnprintf+0x5b0>
8000326c:	6e7a      	ldr	r2, [r7, #100]	; 0x64
8000326e:	6e3b      	ldr	r3, [r7, #96]	; 0x60
80003270:	429a      	cmp	r2, r3
80003272:	d803      	bhi.n	8000327c <vsnprintf+0x5a8>
80003274:	6afb      	ldr	r3, [r7, #44]	; 0x2c
80003276:	781b      	ldrb	r3, [r3, #0]
80003278:	6e7a      	ldr	r2, [r7, #100]	; 0x64
8000327a:	7013      	strb	r3, [r2, #0]
8000327c:	6e7b      	ldr	r3, [r7, #100]	; 0x64
8000327e:	3301      	adds	r3, #1
80003280:	667b      	str	r3, [r7, #100]	; 0x64
80003282:	e089      	b.n	80003398 <vsnprintf+0x6c4>
80003284:	6afb      	ldr	r3, [r7, #44]	; 0x2c
80003286:	3b01      	subs	r3, #1
80003288:	62fb      	str	r3, [r7, #44]	; 0x2c
8000328a:	e085      	b.n	80003398 <vsnprintf+0x6c4>
8000328c:	bf00      	nop
8000328e:	6cfb      	ldr	r3, [r7, #76]	; 0x4c
80003290:	2b4c      	cmp	r3, #76	; 0x4c
80003292:	d108      	bne.n	800032a6 <vsnprintf+0x5d2>
80003294:	6abb      	ldr	r3, [r7, #40]	; 0x28
80003296:	3308      	adds	r3, #8
80003298:	62bb      	str	r3, [r7, #40]	; 0x28
8000329a:	6abb      	ldr	r3, [r7, #40]	; 0x28
8000329c:	e953 2302 	ldrd	r2, r3, [r3, #-8]
800032a0:	e9c7 231c 	strd	r2, r3, [r7, #112]	; 0x70
800032a4:	e067      	b.n	80003376 <vsnprintf+0x6a2>
800032a6:	6cfb      	ldr	r3, [r7, #76]	; 0x4c
800032a8:	2b6c      	cmp	r3, #108	; 0x6c
800032aa:	d118      	bne.n	800032de <vsnprintf+0x60a>
800032ac:	6abb      	ldr	r3, [r7, #40]	; 0x28
800032ae:	3304      	adds	r3, #4
800032b0:	62bb      	str	r3, [r7, #40]	; 0x28
800032b2:	6abb      	ldr	r3, [r7, #40]	; 0x28
800032b4:	3b04      	subs	r3, #4
800032b6:	681b      	ldr	r3, [r3, #0]
800032b8:	2200      	movs	r2, #0
800032ba:	61bb      	str	r3, [r7, #24]
800032bc:	61fa      	str	r2, [r7, #28]
800032be:	e9d7 2306 	ldrd	r2, r3, [r7, #24]
800032c2:	e9c7 231c 	strd	r2, r3, [r7, #112]	; 0x70
800032c6:	6dbb      	ldr	r3, [r7, #88]	; 0x58
800032c8:	f003 0302 	and.w	r3, r3, #2
800032cc:	2b00      	cmp	r3, #0
800032ce:	d052      	beq.n	80003376 <vsnprintf+0x6a2>
800032d0:	6f3b      	ldr	r3, [r7, #112]	; 0x70
800032d2:	17da      	asrs	r2, r3, #31
800032d4:	469a      	mov	sl, r3
800032d6:	4693      	mov	fp, r2
800032d8:	e9c7 ab1c 	strd	sl, fp, [r7, #112]	; 0x70
800032dc:	e04b      	b.n	80003376 <vsnprintf+0x6a2>
800032de:	6cfb      	ldr	r3, [r7, #76]	; 0x4c
800032e0:	2b5a      	cmp	r3, #90	; 0x5a
800032e2:	d002      	beq.n	800032ea <vsnprintf+0x616>
800032e4:	6cfb      	ldr	r3, [r7, #76]	; 0x4c
800032e6:	2b7a      	cmp	r3, #122	; 0x7a
800032e8:	d10b      	bne.n	80003302 <vsnprintf+0x62e>
800032ea:	6abb      	ldr	r3, [r7, #40]	; 0x28
800032ec:	3304      	adds	r3, #4
800032ee:	62bb      	str	r3, [r7, #40]	; 0x28
800032f0:	6abb      	ldr	r3, [r7, #40]	; 0x28
800032f2:	3b04      	subs	r3, #4
800032f4:	681b      	ldr	r3, [r3, #0]
800032f6:	2200      	movs	r2, #0
800032f8:	461d      	mov	r5, r3
800032fa:	4616      	mov	r6, r2
800032fc:	e9c7 561c 	strd	r5, r6, [r7, #112]	; 0x70
80003300:	e039      	b.n	80003376 <vsnprintf+0x6a2>
80003302:	6cfb      	ldr	r3, [r7, #76]	; 0x4c
80003304:	2b68      	cmp	r3, #104	; 0x68
80003306:	d11e      	bne.n	80003346 <vsnprintf+0x672>
80003308:	6abb      	ldr	r3, [r7, #40]	; 0x28
8000330a:	3304      	adds	r3, #4
8000330c:	62bb      	str	r3, [r7, #40]	; 0x28
8000330e:	6abb      	ldr	r3, [r7, #40]	; 0x28
80003310:	3b04      	subs	r3, #4
80003312:	681b      	ldr	r3, [r3, #0]
80003314:	b29b      	uxth	r3, r3
80003316:	b29b      	uxth	r3, r3
80003318:	2200      	movs	r2, #0
8000331a:	613b      	str	r3, [r7, #16]
8000331c:	617a      	str	r2, [r7, #20]
8000331e:	e9d7 2304 	ldrd	r2, r3, [r7, #16]
80003322:	e9c7 231c 	strd	r2, r3, [r7, #112]	; 0x70
80003326:	6dbb      	ldr	r3, [r7, #88]	; 0x58
80003328:	f003 0302 	and.w	r3, r3, #2
8000332c:	2b00      	cmp	r3, #0
8000332e:	d022      	beq.n	80003376 <vsnprintf+0x6a2>
80003330:	f9b7 3070 	ldrsh.w	r3, [r7, #112]	; 0x70
80003334:	b21b      	sxth	r3, r3
80003336:	17da      	asrs	r2, r3, #31
80003338:	60bb      	str	r3, [r7, #8]
8000333a:	60fa      	str	r2, [r7, #12]
8000333c:	e9d7 2302 	ldrd	r2, r3, [r7, #8]
80003340:	e9c7 231c 	strd	r2, r3, [r7, #112]	; 0x70
80003344:	e017      	b.n	80003376 <vsnprintf+0x6a2>
80003346:	6abb      	ldr	r3, [r7, #40]	; 0x28
80003348:	3304      	adds	r3, #4
8000334a:	62bb      	str	r3, [r7, #40]	; 0x28
8000334c:	6abb      	ldr	r3, [r7, #40]	; 0x28
8000334e:	3b04      	subs	r3, #4
80003350:	681b      	ldr	r3, [r3, #0]
80003352:	2200      	movs	r2, #0
80003354:	603b      	str	r3, [r7, #0]
80003356:	607a      	str	r2, [r7, #4]
80003358:	e9d7 2300 	ldrd	r2, r3, [r7]
8000335c:	e9c7 231c 	strd	r2, r3, [r7, #112]	; 0x70
80003360:	6dbb      	ldr	r3, [r7, #88]	; 0x58
80003362:	f003 0302 	and.w	r3, r3, #2
80003366:	2b00      	cmp	r3, #0
80003368:	d005      	beq.n	80003376 <vsnprintf+0x6a2>
8000336a:	6f3b      	ldr	r3, [r7, #112]	; 0x70
8000336c:	17da      	asrs	r2, r3, #31
8000336e:	4698      	mov	r8, r3
80003370:	4691      	mov	r9, r2
80003372:	e9c7 891c 	strd	r8, r9, [r7, #112]	; 0x70
80003376:	e9d7 011c 	ldrd	r0, r1, [r7, #112]	; 0x70
8000337a:	6dbb      	ldr	r3, [r7, #88]	; 0x58
8000337c:	9303      	str	r3, [sp, #12]
8000337e:	6d3b      	ldr	r3, [r7, #80]	; 0x50
80003380:	9302      	str	r3, [sp, #8]
80003382:	6d7b      	ldr	r3, [r7, #84]	; 0x54
80003384:	9301      	str	r3, [sp, #4]
80003386:	6ebb      	ldr	r3, [r7, #104]	; 0x68
80003388:	9300      	str	r3, [sp, #0]
8000338a:	4602      	mov	r2, r0
8000338c:	460b      	mov	r3, r1
8000338e:	6e39      	ldr	r1, [r7, #96]	; 0x60
80003390:	6e78      	ldr	r0, [r7, #100]	; 0x64
80003392:	f7ff fafc 	bl	8000298e <number>
80003396:	6678      	str	r0, [r7, #100]	; 0x64
80003398:	6afb      	ldr	r3, [r7, #44]	; 0x2c
8000339a:	3301      	adds	r3, #1
8000339c:	62fb      	str	r3, [r7, #44]	; 0x2c
8000339e:	6afb      	ldr	r3, [r7, #44]	; 0x2c
800033a0:	781b      	ldrb	r3, [r3, #0]
800033a2:	2b00      	cmp	r3, #0
800033a4:	f47f acbe 	bne.w	80002d24 <vsnprintf+0x50>
800033a8:	6e7a      	ldr	r2, [r7, #100]	; 0x64
800033aa:	6e3b      	ldr	r3, [r7, #96]	; 0x60
800033ac:	429a      	cmp	r2, r3
800033ae:	d803      	bhi.n	800033b8 <vsnprintf+0x6e4>
800033b0:	6e7b      	ldr	r3, [r7, #100]	; 0x64
800033b2:	2200      	movs	r2, #0
800033b4:	701a      	strb	r2, [r3, #0]
800033b6:	e005      	b.n	800033c4 <vsnprintf+0x6f0>
800033b8:	6b3b      	ldr	r3, [r7, #48]	; 0x30
800033ba:	2b00      	cmp	r3, #0
800033bc:	d002      	beq.n	800033c4 <vsnprintf+0x6f0>
800033be:	6e3b      	ldr	r3, [r7, #96]	; 0x60
800033c0:	2200      	movs	r2, #0
800033c2:	701a      	strb	r2, [r3, #0]
800033c4:	6e7a      	ldr	r2, [r7, #100]	; 0x64
800033c6:	6b7b      	ldr	r3, [r7, #52]	; 0x34
800033c8:	1ad3      	subs	r3, r2, r3
800033ca:	4618      	mov	r0, r3
800033cc:	377c      	adds	r7, #124	; 0x7c
800033ce:	46bd      	mov	sp, r7
800033d0:	e8bd 8ff0 	ldmia.w	sp!, {r4, r5, r6, r7, r8, r9, sl, fp, pc}
800033d4:	00001438 	andeq	r1, r0, r8, lsr r4
800033d8:	00000000 	andeq	r0, r0, r0
800033dc:	00000f1e 	andeq	r0, r0, lr, lsl pc

800033e0 <vscnprintf>:
800033e0:	b580      	push	{r7, lr}
800033e2:	b086      	sub	sp, #24
800033e4:	af00      	add	r7, sp, #0
800033e6:	60f8      	str	r0, [r7, #12]
800033e8:	60b9      	str	r1, [r7, #8]
800033ea:	607a      	str	r2, [r7, #4]
800033ec:	603b      	str	r3, [r7, #0]
800033ee:	683b      	ldr	r3, [r7, #0]
800033f0:	687a      	ldr	r2, [r7, #4]
800033f2:	68b9      	ldr	r1, [r7, #8]
800033f4:	68f8      	ldr	r0, [r7, #12]
800033f6:	f7ff fc6d 	bl	80002cd4 <vsnprintf>
800033fa:	6178      	str	r0, [r7, #20]
800033fc:	697b      	ldr	r3, [r7, #20]
800033fe:	68ba      	ldr	r2, [r7, #8]
80003400:	429a      	cmp	r2, r3
80003402:	d802      	bhi.n	8000340a <vscnprintf+0x2a>
80003404:	68bb      	ldr	r3, [r7, #8]
80003406:	3b01      	subs	r3, #1
80003408:	e000      	b.n	8000340c <vscnprintf+0x2c>
8000340a:	697b      	ldr	r3, [r7, #20]
8000340c:	4618      	mov	r0, r3
8000340e:	3718      	adds	r7, #24
80003410:	46bd      	mov	sp, r7
80003412:	bd80      	pop	{r7, pc}

80003414 <snprintf>:
80003414:	b40c      	push	{r2, r3}
80003416:	b580      	push	{r7, lr}
80003418:	b084      	sub	sp, #16
8000341a:	af00      	add	r7, sp, #0
8000341c:	6078      	str	r0, [r7, #4]
8000341e:	6039      	str	r1, [r7, #0]
80003420:	f107 031c 	add.w	r3, r7, #28
80003424:	60fb      	str	r3, [r7, #12]
80003426:	69ba      	ldr	r2, [r7, #24]
80003428:	68fb      	ldr	r3, [r7, #12]
8000342a:	6839      	ldr	r1, [r7, #0]
8000342c:	6878      	ldr	r0, [r7, #4]
8000342e:	f7ff fc51 	bl	80002cd4 <vsnprintf>
80003432:	60b8      	str	r0, [r7, #8]
80003434:	68bb      	ldr	r3, [r7, #8]
80003436:	4618      	mov	r0, r3
80003438:	3710      	adds	r7, #16
8000343a:	46bd      	mov	sp, r7
8000343c:	e8bd 4080 	ldmia.w	sp!, {r7, lr}
80003440:	b002      	add	sp, #8
80003442:	4770      	bx	lr

80003444 <scnprintf>:
80003444:	b40c      	push	{r2, r3}
80003446:	b580      	push	{r7, lr}
80003448:	b084      	sub	sp, #16
8000344a:	af00      	add	r7, sp, #0
8000344c:	6078      	str	r0, [r7, #4]
8000344e:	6039      	str	r1, [r7, #0]
80003450:	f107 031c 	add.w	r3, r7, #28
80003454:	60fb      	str	r3, [r7, #12]
80003456:	69ba      	ldr	r2, [r7, #24]
80003458:	68fb      	ldr	r3, [r7, #12]
8000345a:	6839      	ldr	r1, [r7, #0]
8000345c:	6878      	ldr	r0, [r7, #4]
8000345e:	f7ff fc39 	bl	80002cd4 <vsnprintf>
80003462:	60b8      	str	r0, [r7, #8]
80003464:	68bb      	ldr	r3, [r7, #8]
80003466:	683a      	ldr	r2, [r7, #0]
80003468:	429a      	cmp	r2, r3
8000346a:	d802      	bhi.n	80003472 <scnprintf+0x2e>
8000346c:	683b      	ldr	r3, [r7, #0]
8000346e:	3b01      	subs	r3, #1
80003470:	e000      	b.n	80003474 <scnprintf+0x30>
80003472:	68bb      	ldr	r3, [r7, #8]
80003474:	4618      	mov	r0, r3
80003476:	3710      	adds	r7, #16
80003478:	46bd      	mov	sp, r7
8000347a:	e8bd 4080 	ldmia.w	sp!, {r7, lr}
8000347e:	b002      	add	sp, #8
80003480:	4770      	bx	lr

80003482 <vsprintf>:
80003482:	b580      	push	{r7, lr}
80003484:	b084      	sub	sp, #16
80003486:	af00      	add	r7, sp, #0
80003488:	60f8      	str	r0, [r7, #12]
8000348a:	60b9      	str	r1, [r7, #8]
8000348c:	607a      	str	r2, [r7, #4]
8000348e:	687b      	ldr	r3, [r7, #4]
80003490:	68ba      	ldr	r2, [r7, #8]
80003492:	f06f 4100 	mvn.w	r1, #2147483648	; 0x80000000
80003496:	68f8      	ldr	r0, [r7, #12]
80003498:	f7ff fc1c 	bl	80002cd4 <vsnprintf>
8000349c:	4603      	mov	r3, r0
8000349e:	4618      	mov	r0, r3
800034a0:	3710      	adds	r7, #16
800034a2:	46bd      	mov	sp, r7
800034a4:	bd80      	pop	{r7, pc}

800034a6 <sprintf>:
800034a6:	b40e      	push	{r1, r2, r3}
800034a8:	b580      	push	{r7, lr}
800034aa:	b085      	sub	sp, #20
800034ac:	af00      	add	r7, sp, #0
800034ae:	6078      	str	r0, [r7, #4]
800034b0:	f107 0320 	add.w	r3, r7, #32
800034b4:	60fb      	str	r3, [r7, #12]
800034b6:	69fb      	ldr	r3, [r7, #28]
800034b8:	68fa      	ldr	r2, [r7, #12]
800034ba:	4619      	mov	r1, r3
800034bc:	6878      	ldr	r0, [r7, #4]
800034be:	f7ff ffe0 	bl	80003482 <vsprintf>
800034c2:	60b8      	str	r0, [r7, #8]
800034c4:	68bb      	ldr	r3, [r7, #8]
800034c6:	4618      	mov	r0, r3
800034c8:	3714      	adds	r7, #20
800034ca:	46bd      	mov	sp, r7
800034cc:	e8bd 4080 	ldmia.w	sp!, {r7, lr}
800034d0:	b003      	add	sp, #12
800034d2:	4770      	bx	lr

800034d4 <vsscanf>:
800034d4:	b590      	push	{r4, r7, lr}
800034d6:	b09b      	sub	sp, #108	; 0x6c
800034d8:	af00      	add	r7, sp, #0
800034da:	60f8      	str	r0, [r7, #12]
800034dc:	60b9      	str	r1, [r7, #8]
800034de:	607a      	str	r2, [r7, #4]
800034e0:	f8df 46d4 	ldr.w	r4, [pc, #1748]	; 80003bb8 <vsscanf+0x6e4>
800034e4:	447c      	add	r4, pc
800034e6:	68fb      	ldr	r3, [r7, #12]
800034e8:	667b      	str	r3, [r7, #100]	; 0x64
800034ea:	2300      	movs	r3, #0
800034ec:	65fb      	str	r3, [r7, #92]	; 0x5c
800034ee:	2300      	movs	r3, #0
800034f0:	64fb      	str	r3, [r7, #76]	; 0x4c
800034f2:	e34d      	b.n	80003b90 <vsscanf+0x6bc>
800034f4:	68bb      	ldr	r3, [r7, #8]
800034f6:	781b      	ldrb	r3, [r3, #0]
800034f8:	461a      	mov	r2, r3
800034fa:	f8df 36c0 	ldr.w	r3, [pc, #1728]	; 80003bbc <vsscanf+0x6e8>
800034fe:	58e3      	ldr	r3, [r4, r3]
80003500:	5c9b      	ldrb	r3, [r3, r2]
80003502:	f003 0320 	and.w	r3, r3, #32
80003506:	2b00      	cmp	r3, #0
80003508:	d01d      	beq.n	80003546 <vsscanf+0x72>
8000350a:	e002      	b.n	80003512 <vsscanf+0x3e>
8000350c:	68bb      	ldr	r3, [r7, #8]
8000350e:	3301      	adds	r3, #1
80003510:	60bb      	str	r3, [r7, #8]
80003512:	68bb      	ldr	r3, [r7, #8]
80003514:	781b      	ldrb	r3, [r3, #0]
80003516:	461a      	mov	r2, r3
80003518:	f8df 36a0 	ldr.w	r3, [pc, #1696]	; 80003bbc <vsscanf+0x6e8>
8000351c:	58e3      	ldr	r3, [r4, r3]
8000351e:	5c9b      	ldrb	r3, [r3, r2]
80003520:	f003 0320 	and.w	r3, r3, #32
80003524:	2b00      	cmp	r3, #0
80003526:	d1f1      	bne.n	8000350c <vsscanf+0x38>
80003528:	e002      	b.n	80003530 <vsscanf+0x5c>
8000352a:	6e7b      	ldr	r3, [r7, #100]	; 0x64
8000352c:	3301      	adds	r3, #1
8000352e:	667b      	str	r3, [r7, #100]	; 0x64
80003530:	6e7b      	ldr	r3, [r7, #100]	; 0x64
80003532:	781b      	ldrb	r3, [r3, #0]
80003534:	461a      	mov	r2, r3
80003536:	f8df 3684 	ldr.w	r3, [pc, #1668]	; 80003bbc <vsscanf+0x6e8>
8000353a:	58e3      	ldr	r3, [r4, r3]
8000353c:	5c9b      	ldrb	r3, [r3, r2]
8000353e:	f003 0320 	and.w	r3, r3, #32
80003542:	2b00      	cmp	r3, #0
80003544:	d1f1      	bne.n	8000352a <vsscanf+0x56>
80003546:	68bb      	ldr	r3, [r7, #8]
80003548:	781b      	ldrb	r3, [r3, #0]
8000354a:	2b25      	cmp	r3, #37	; 0x25
8000354c:	d00f      	beq.n	8000356e <vsscanf+0x9a>
8000354e:	68bb      	ldr	r3, [r7, #8]
80003550:	781b      	ldrb	r3, [r3, #0]
80003552:	2b00      	cmp	r3, #0
80003554:	d00b      	beq.n	8000356e <vsscanf+0x9a>
80003556:	68bb      	ldr	r3, [r7, #8]
80003558:	1c5a      	adds	r2, r3, #1
8000355a:	60ba      	str	r2, [r7, #8]
8000355c:	781a      	ldrb	r2, [r3, #0]
8000355e:	6e7b      	ldr	r3, [r7, #100]	; 0x64
80003560:	1c59      	adds	r1, r3, #1
80003562:	6679      	str	r1, [r7, #100]	; 0x64
80003564:	781b      	ldrb	r3, [r3, #0]
80003566:	429a      	cmp	r2, r3
80003568:	f040 831c 	bne.w	80003ba4 <vsscanf+0x6d0>
8000356c:	e310      	b.n	80003b90 <vsscanf+0x6bc>
8000356e:	68bb      	ldr	r3, [r7, #8]
80003570:	781b      	ldrb	r3, [r3, #0]
80003572:	2b00      	cmp	r3, #0
80003574:	f000 8318 	beq.w	80003ba8 <vsscanf+0x6d4>
80003578:	68bb      	ldr	r3, [r7, #8]
8000357a:	3301      	adds	r3, #1
8000357c:	60bb      	str	r3, [r7, #8]
8000357e:	68bb      	ldr	r3, [r7, #8]
80003580:	781b      	ldrb	r3, [r3, #0]
80003582:	2b2a      	cmp	r3, #42	; 0x2a
80003584:	d127      	bne.n	800035d6 <vsscanf+0x102>
80003586:	e002      	b.n	8000358e <vsscanf+0xba>
80003588:	68bb      	ldr	r3, [r7, #8]
8000358a:	3301      	adds	r3, #1
8000358c:	60bb      	str	r3, [r7, #8]
8000358e:	68bb      	ldr	r3, [r7, #8]
80003590:	781b      	ldrb	r3, [r3, #0]
80003592:	461a      	mov	r2, r3
80003594:	f8df 3624 	ldr.w	r3, [pc, #1572]	; 80003bbc <vsscanf+0x6e8>
80003598:	58e3      	ldr	r3, [r4, r3]
8000359a:	5c9b      	ldrb	r3, [r3, r2]
8000359c:	f003 0320 	and.w	r3, r3, #32
800035a0:	2b00      	cmp	r3, #0
800035a2:	d107      	bne.n	800035b4 <vsscanf+0xe0>
800035a4:	68bb      	ldr	r3, [r7, #8]
800035a6:	781b      	ldrb	r3, [r3, #0]
800035a8:	2b00      	cmp	r3, #0
800035aa:	d1ed      	bne.n	80003588 <vsscanf+0xb4>
800035ac:	e002      	b.n	800035b4 <vsscanf+0xe0>
800035ae:	6e7b      	ldr	r3, [r7, #100]	; 0x64
800035b0:	3301      	adds	r3, #1
800035b2:	667b      	str	r3, [r7, #100]	; 0x64
800035b4:	6e7b      	ldr	r3, [r7, #100]	; 0x64
800035b6:	781b      	ldrb	r3, [r3, #0]
800035b8:	461a      	mov	r2, r3
800035ba:	f8df 3600 	ldr.w	r3, [pc, #1536]	; 80003bbc <vsscanf+0x6e8>
800035be:	58e3      	ldr	r3, [r4, r3]
800035c0:	5c9b      	ldrb	r3, [r3, r2]
800035c2:	f003 0320 	and.w	r3, r3, #32
800035c6:	2b00      	cmp	r3, #0
800035c8:	f040 82e2 	bne.w	80003b90 <vsscanf+0x6bc>
800035cc:	6e7b      	ldr	r3, [r7, #100]	; 0x64
800035ce:	781b      	ldrb	r3, [r3, #0]
800035d0:	2b00      	cmp	r3, #0
800035d2:	d1ec      	bne.n	800035ae <vsscanf+0xda>
800035d4:	e2dc      	b.n	80003b90 <vsscanf+0x6bc>
800035d6:	f04f 33ff 	mov.w	r3, #4294967295	; 0xffffffff
800035da:	653b      	str	r3, [r7, #80]	; 0x50
800035dc:	68bb      	ldr	r3, [r7, #8]
800035de:	781b      	ldrb	r3, [r3, #0]
800035e0:	461a      	mov	r2, r3
800035e2:	f8df 35d8 	ldr.w	r3, [pc, #1496]	; 80003bbc <vsscanf+0x6e8>
800035e6:	58e3      	ldr	r3, [r4, r3]
800035e8:	5c9b      	ldrb	r3, [r3, r2]
800035ea:	f003 0304 	and.w	r3, r3, #4
800035ee:	2b00      	cmp	r3, #0
800035f0:	d005      	beq.n	800035fe <vsscanf+0x12a>
800035f2:	f107 0308 	add.w	r3, r7, #8
800035f6:	4618      	mov	r0, r3
800035f8:	f7ff f808 	bl	8000260c <skip_atoi>
800035fc:	6538      	str	r0, [r7, #80]	; 0x50
800035fe:	f04f 33ff 	mov.w	r3, #4294967295	; 0xffffffff
80003602:	65bb      	str	r3, [r7, #88]	; 0x58
80003604:	68bb      	ldr	r3, [r7, #8]
80003606:	781b      	ldrb	r3, [r3, #0]
80003608:	2b68      	cmp	r3, #104	; 0x68
8000360a:	d00f      	beq.n	8000362c <vsscanf+0x158>
8000360c:	68bb      	ldr	r3, [r7, #8]
8000360e:	781b      	ldrb	r3, [r3, #0]
80003610:	2b6c      	cmp	r3, #108	; 0x6c
80003612:	d00b      	beq.n	8000362c <vsscanf+0x158>
80003614:	68bb      	ldr	r3, [r7, #8]
80003616:	781b      	ldrb	r3, [r3, #0]
80003618:	2b4c      	cmp	r3, #76	; 0x4c
8000361a:	d007      	beq.n	8000362c <vsscanf+0x158>
8000361c:	68bb      	ldr	r3, [r7, #8]
8000361e:	781b      	ldrb	r3, [r3, #0]
80003620:	2b5a      	cmp	r3, #90	; 0x5a
80003622:	d003      	beq.n	8000362c <vsscanf+0x158>
80003624:	68bb      	ldr	r3, [r7, #8]
80003626:	781b      	ldrb	r3, [r3, #0]
80003628:	2b7a      	cmp	r3, #122	; 0x7a
8000362a:	d120      	bne.n	8000366e <vsscanf+0x19a>
8000362c:	68bb      	ldr	r3, [r7, #8]
8000362e:	1c5a      	adds	r2, r3, #1
80003630:	60ba      	str	r2, [r7, #8]
80003632:	781b      	ldrb	r3, [r3, #0]
80003634:	65bb      	str	r3, [r7, #88]	; 0x58
80003636:	68bb      	ldr	r3, [r7, #8]
80003638:	781b      	ldrb	r3, [r3, #0]
8000363a:	461a      	mov	r2, r3
8000363c:	6dbb      	ldr	r3, [r7, #88]	; 0x58
8000363e:	4293      	cmp	r3, r2
80003640:	bf0c      	ite	eq
80003642:	2301      	moveq	r3, #1
80003644:	2300      	movne	r3, #0
80003646:	b2db      	uxtb	r3, r3
80003648:	2b00      	cmp	r3, #0
8000364a:	d010      	beq.n	8000366e <vsscanf+0x19a>
8000364c:	6dbb      	ldr	r3, [r7, #88]	; 0x58
8000364e:	2b68      	cmp	r3, #104	; 0x68
80003650:	d105      	bne.n	8000365e <vsscanf+0x18a>
80003652:	2348      	movs	r3, #72	; 0x48
80003654:	65bb      	str	r3, [r7, #88]	; 0x58
80003656:	68bb      	ldr	r3, [r7, #8]
80003658:	3301      	adds	r3, #1
8000365a:	60bb      	str	r3, [r7, #8]
8000365c:	e007      	b.n	8000366e <vsscanf+0x19a>
8000365e:	6dbb      	ldr	r3, [r7, #88]	; 0x58
80003660:	2b6c      	cmp	r3, #108	; 0x6c
80003662:	d104      	bne.n	8000366e <vsscanf+0x19a>
80003664:	234c      	movs	r3, #76	; 0x4c
80003666:	65bb      	str	r3, [r7, #88]	; 0x58
80003668:	68bb      	ldr	r3, [r7, #8]
8000366a:	3301      	adds	r3, #1
8000366c:	60bb      	str	r3, [r7, #8]
8000366e:	230a      	movs	r3, #10
80003670:	657b      	str	r3, [r7, #84]	; 0x54
80003672:	2300      	movs	r3, #0
80003674:	64fb      	str	r3, [r7, #76]	; 0x4c
80003676:	68bb      	ldr	r3, [r7, #8]
80003678:	781b      	ldrb	r3, [r3, #0]
8000367a:	2b00      	cmp	r3, #0
8000367c:	f000 8297 	beq.w	80003bae <vsscanf+0x6da>
80003680:	6e7b      	ldr	r3, [r7, #100]	; 0x64
80003682:	781b      	ldrb	r3, [r3, #0]
80003684:	2b00      	cmp	r3, #0
80003686:	f000 8292 	beq.w	80003bae <vsscanf+0x6da>
8000368a:	68bb      	ldr	r3, [r7, #8]
8000368c:	1c5a      	adds	r2, r3, #1
8000368e:	60ba      	str	r2, [r7, #8]
80003690:	781b      	ldrb	r3, [r3, #0]
80003692:	2b25      	cmp	r3, #37	; 0x25
80003694:	f000 80cf 	beq.w	80003836 <vsscanf+0x362>
80003698:	2b25      	cmp	r3, #37	; 0x25
8000369a:	f2c0 80d5 	blt.w	80003848 <vsscanf+0x374>
8000369e:	2b78      	cmp	r3, #120	; 0x78
800036a0:	f300 80d2 	bgt.w	80003848 <vsscanf+0x374>
800036a4:	2b58      	cmp	r3, #88	; 0x58
800036a6:	f2c0 80cf 	blt.w	80003848 <vsscanf+0x374>
800036aa:	3b58      	subs	r3, #88	; 0x58
800036ac:	2b20      	cmp	r3, #32
800036ae:	f200 80cb 	bhi.w	80003848 <vsscanf+0x374>
800036b2:	a202      	add	r2, pc, #8	; (adr r2, 800036bc <vsscanf+0x1e8>)
800036b4:	f852 3023 	ldr.w	r3, [r2, r3, lsl #2]
800036b8:	441a      	add	r2, r3
800036ba:	4710      	bx	r2
800036bc:	0000016b 	andeq	r0, r0, fp, ror #2
800036c0:	0000018d 	andeq	r0, r0, sp, lsl #3
800036c4:	0000018d 	andeq	r0, r0, sp, lsl #3
800036c8:	0000018d 	andeq	r0, r0, sp, lsl #3
800036cc:	0000018d 	andeq	r0, r0, sp, lsl #3
800036d0:	0000018d 	andeq	r0, r0, sp, lsl #3
800036d4:	0000018d 	andeq	r0, r0, sp, lsl #3
800036d8:	0000018d 	andeq	r0, r0, sp, lsl #3
800036dc:	0000018d 	andeq	r0, r0, sp, lsl #3
800036e0:	0000018d 	andeq	r0, r0, sp, lsl #3
800036e4:	0000018d 	andeq	r0, r0, sp, lsl #3
800036e8:	00000085 	andeq	r0, r0, r5, lsl #1
800036ec:	00000175 	andeq	r0, r0, r5, ror r1
800036f0:	0000018d 	andeq	r0, r0, sp, lsl #3
800036f4:	0000018d 	andeq	r0, r0, sp, lsl #3
800036f8:	0000018d 	andeq	r0, r0, sp, lsl #3
800036fc:	0000018d 	andeq	r0, r0, sp, lsl #3
80003700:	00000171 	andeq	r0, r0, r1, ror r1
80003704:	0000018d 	andeq	r0, r0, sp, lsl #3
80003708:	0000018d 	andeq	r0, r0, sp, lsl #3
8000370c:	0000018d 	andeq	r0, r0, sp, lsl #3
80003710:	0000018d 	andeq	r0, r0, sp, lsl #3
80003714:	0000014b 	andeq	r0, r0, fp, asr #2
80003718:	00000165 	andeq	r0, r0, r5, ror #2
8000371c:	0000018d 	andeq	r0, r0, sp, lsl #3
80003720:	0000018d 	andeq	r0, r0, sp, lsl #3
80003724:	0000018d 	andeq	r0, r0, sp, lsl #3
80003728:	000000cb 	andeq	r0, r0, fp, asr #1
8000372c:	0000018d 	andeq	r0, r0, sp, lsl #3
80003730:	00000191 	muleq	r0, r1, r1
80003734:	0000018d 	andeq	r0, r0, sp, lsl #3
80003738:	0000018d 	andeq	r0, r0, sp, lsl #3
8000373c:	0000016b 	andeq	r0, r0, fp, ror #2
80003740:	687b      	ldr	r3, [r7, #4]
80003742:	3304      	adds	r3, #4
80003744:	607b      	str	r3, [r7, #4]
80003746:	687b      	ldr	r3, [r7, #4]
80003748:	f853 3c04 	ldr.w	r3, [r3, #-4]
8000374c:	64bb      	str	r3, [r7, #72]	; 0x48
8000374e:	6d3b      	ldr	r3, [r7, #80]	; 0x50
80003750:	f1b3 3fff 	cmp.w	r3, #4294967295	; 0xffffffff
80003754:	d101      	bne.n	8000375a <vsscanf+0x286>
80003756:	2301      	movs	r3, #1
80003758:	653b      	str	r3, [r7, #80]	; 0x50
8000375a:	6e7a      	ldr	r2, [r7, #100]	; 0x64
8000375c:	1c53      	adds	r3, r2, #1
8000375e:	667b      	str	r3, [r7, #100]	; 0x64
80003760:	6cbb      	ldr	r3, [r7, #72]	; 0x48
80003762:	1c59      	adds	r1, r3, #1
80003764:	64b9      	str	r1, [r7, #72]	; 0x48
80003766:	7812      	ldrb	r2, [r2, #0]
80003768:	701a      	strb	r2, [r3, #0]
8000376a:	6d3b      	ldr	r3, [r7, #80]	; 0x50
8000376c:	3b01      	subs	r3, #1
8000376e:	653b      	str	r3, [r7, #80]	; 0x50
80003770:	6d3b      	ldr	r3, [r7, #80]	; 0x50
80003772:	2b00      	cmp	r3, #0
80003774:	dd03      	ble.n	8000377e <vsscanf+0x2aa>
80003776:	6e7b      	ldr	r3, [r7, #100]	; 0x64
80003778:	781b      	ldrb	r3, [r3, #0]
8000377a:	2b00      	cmp	r3, #0
8000377c:	d1ed      	bne.n	8000375a <vsscanf+0x286>
8000377e:	6dfb      	ldr	r3, [r7, #92]	; 0x5c
80003780:	3301      	adds	r3, #1
80003782:	65fb      	str	r3, [r7, #92]	; 0x5c
80003784:	e204      	b.n	80003b90 <vsscanf+0x6bc>
80003786:	687b      	ldr	r3, [r7, #4]
80003788:	3304      	adds	r3, #4
8000378a:	607b      	str	r3, [r7, #4]
8000378c:	687b      	ldr	r3, [r7, #4]
8000378e:	f853 3c04 	ldr.w	r3, [r3, #-4]
80003792:	647b      	str	r3, [r7, #68]	; 0x44
80003794:	6d3b      	ldr	r3, [r7, #80]	; 0x50
80003796:	f1b3 3fff 	cmp.w	r3, #4294967295	; 0xffffffff
8000379a:	d106      	bne.n	800037aa <vsscanf+0x2d6>
8000379c:	f06f 4300 	mvn.w	r3, #2147483648	; 0x80000000
800037a0:	653b      	str	r3, [r7, #80]	; 0x50
800037a2:	e002      	b.n	800037aa <vsscanf+0x2d6>
800037a4:	6e7b      	ldr	r3, [r7, #100]	; 0x64
800037a6:	3301      	adds	r3, #1
800037a8:	667b      	str	r3, [r7, #100]	; 0x64
800037aa:	6e7b      	ldr	r3, [r7, #100]	; 0x64
800037ac:	781b      	ldrb	r3, [r3, #0]
800037ae:	461a      	mov	r2, r3
800037b0:	f8df 3408 	ldr.w	r3, [pc, #1032]	; 80003bbc <vsscanf+0x6e8>
800037b4:	58e3      	ldr	r3, [r4, r3]
800037b6:	5c9b      	ldrb	r3, [r3, r2]
800037b8:	f003 0320 	and.w	r3, r3, #32
800037bc:	2b00      	cmp	r3, #0
800037be:	d1f1      	bne.n	800037a4 <vsscanf+0x2d0>
800037c0:	e007      	b.n	800037d2 <vsscanf+0x2fe>
800037c2:	6e7a      	ldr	r2, [r7, #100]	; 0x64
800037c4:	1c53      	adds	r3, r2, #1
800037c6:	667b      	str	r3, [r7, #100]	; 0x64
800037c8:	6c7b      	ldr	r3, [r7, #68]	; 0x44
800037ca:	1c59      	adds	r1, r3, #1
800037cc:	6479      	str	r1, [r7, #68]	; 0x44
800037ce:	7812      	ldrb	r2, [r2, #0]
800037d0:	701a      	strb	r2, [r3, #0]
800037d2:	6e7b      	ldr	r3, [r7, #100]	; 0x64
800037d4:	781b      	ldrb	r3, [r3, #0]
800037d6:	2b00      	cmp	r3, #0
800037d8:	d00e      	beq.n	800037f8 <vsscanf+0x324>
800037da:	6e7b      	ldr	r3, [r7, #100]	; 0x64
800037dc:	781b      	ldrb	r3, [r3, #0]
800037de:	461a      	mov	r2, r3
800037e0:	4bf6      	ldr	r3, [pc, #984]	; (80003bbc <vsscanf+0x6e8>)
800037e2:	58e3      	ldr	r3, [r4, r3]
800037e4:	5c9b      	ldrb	r3, [r3, r2]
800037e6:	f003 0320 	and.w	r3, r3, #32
800037ea:	2b00      	cmp	r3, #0
800037ec:	d104      	bne.n	800037f8 <vsscanf+0x324>
800037ee:	6d3b      	ldr	r3, [r7, #80]	; 0x50
800037f0:	1e5a      	subs	r2, r3, #1
800037f2:	653a      	str	r2, [r7, #80]	; 0x50
800037f4:	2b00      	cmp	r3, #0
800037f6:	d1e4      	bne.n	800037c2 <vsscanf+0x2ee>
800037f8:	6c7b      	ldr	r3, [r7, #68]	; 0x44
800037fa:	2200      	movs	r2, #0
800037fc:	701a      	strb	r2, [r3, #0]
800037fe:	6dfb      	ldr	r3, [r7, #92]	; 0x5c
80003800:	3301      	adds	r3, #1
80003802:	65fb      	str	r3, [r7, #92]	; 0x5c
80003804:	e1c4      	b.n	80003b90 <vsscanf+0x6bc>
80003806:	687b      	ldr	r3, [r7, #4]
80003808:	3304      	adds	r3, #4
8000380a:	607b      	str	r3, [r7, #4]
8000380c:	687b      	ldr	r3, [r7, #4]
8000380e:	f853 3c04 	ldr.w	r3, [r3, #-4]
80003812:	643b      	str	r3, [r7, #64]	; 0x40
80003814:	6e7a      	ldr	r2, [r7, #100]	; 0x64
80003816:	68fb      	ldr	r3, [r7, #12]
80003818:	1ad2      	subs	r2, r2, r3
8000381a:	6c3b      	ldr	r3, [r7, #64]	; 0x40
8000381c:	601a      	str	r2, [r3, #0]
8000381e:	e1b7      	b.n	80003b90 <vsscanf+0x6bc>
80003820:	2308      	movs	r3, #8
80003822:	657b      	str	r3, [r7, #84]	; 0x54
80003824:	e013      	b.n	8000384e <vsscanf+0x37a>
80003826:	2310      	movs	r3, #16
80003828:	657b      	str	r3, [r7, #84]	; 0x54
8000382a:	e010      	b.n	8000384e <vsscanf+0x37a>
8000382c:	2300      	movs	r3, #0
8000382e:	657b      	str	r3, [r7, #84]	; 0x54
80003830:	2301      	movs	r3, #1
80003832:	64fb      	str	r3, [r7, #76]	; 0x4c
80003834:	e00a      	b.n	8000384c <vsscanf+0x378>
80003836:	6e7b      	ldr	r3, [r7, #100]	; 0x64
80003838:	1c5a      	adds	r2, r3, #1
8000383a:	667a      	str	r2, [r7, #100]	; 0x64
8000383c:	781b      	ldrb	r3, [r3, #0]
8000383e:	2b25      	cmp	r3, #37	; 0x25
80003840:	f000 81a6 	beq.w	80003b90 <vsscanf+0x6bc>
80003844:	6dfb      	ldr	r3, [r7, #92]	; 0x5c
80003846:	e1b3      	b.n	80003bb0 <vsscanf+0x6dc>
80003848:	6dfb      	ldr	r3, [r7, #92]	; 0x5c
8000384a:	e1b1      	b.n	80003bb0 <vsscanf+0x6dc>
8000384c:	bf00      	nop
8000384e:	e002      	b.n	80003856 <vsscanf+0x382>
80003850:	6e7b      	ldr	r3, [r7, #100]	; 0x64
80003852:	3301      	adds	r3, #1
80003854:	667b      	str	r3, [r7, #100]	; 0x64
80003856:	6e7b      	ldr	r3, [r7, #100]	; 0x64
80003858:	781b      	ldrb	r3, [r3, #0]
8000385a:	461a      	mov	r2, r3
8000385c:	4bd7      	ldr	r3, [pc, #860]	; (80003bbc <vsscanf+0x6e8>)
8000385e:	58e3      	ldr	r3, [r4, r3]
80003860:	5c9b      	ldrb	r3, [r3, r2]
80003862:	f003 0320 	and.w	r3, r3, #32
80003866:	2b00      	cmp	r3, #0
80003868:	d1f2      	bne.n	80003850 <vsscanf+0x37c>
8000386a:	6e7b      	ldr	r3, [r7, #100]	; 0x64
8000386c:	781b      	ldrb	r3, [r3, #0]
8000386e:	f887 3063 	strb.w	r3, [r7, #99]	; 0x63
80003872:	6cfb      	ldr	r3, [r7, #76]	; 0x4c
80003874:	2b00      	cmp	r3, #0
80003876:	d008      	beq.n	8000388a <vsscanf+0x3b6>
80003878:	f897 3063 	ldrb.w	r3, [r7, #99]	; 0x63
8000387c:	2b2d      	cmp	r3, #45	; 0x2d
8000387e:	d104      	bne.n	8000388a <vsscanf+0x3b6>
80003880:	6e7b      	ldr	r3, [r7, #100]	; 0x64
80003882:	3301      	adds	r3, #1
80003884:	781b      	ldrb	r3, [r3, #0]
80003886:	f887 3063 	strb.w	r3, [r7, #99]	; 0x63
8000388a:	f897 3063 	ldrb.w	r3, [r7, #99]	; 0x63
8000388e:	2b00      	cmp	r3, #0
80003890:	f000 818d 	beq.w	80003bae <vsscanf+0x6da>
80003894:	6d7b      	ldr	r3, [r7, #84]	; 0x54
80003896:	2b10      	cmp	r3, #16
80003898:	d109      	bne.n	800038ae <vsscanf+0x3da>
8000389a:	f897 3063 	ldrb.w	r3, [r7, #99]	; 0x63
8000389e:	4ac7      	ldr	r2, [pc, #796]	; (80003bbc <vsscanf+0x6e8>)
800038a0:	58a2      	ldr	r2, [r4, r2]
800038a2:	5cd3      	ldrb	r3, [r2, r3]
800038a4:	f003 0344 	and.w	r3, r3, #68	; 0x44
800038a8:	2b00      	cmp	r3, #0
800038aa:	f000 8180 	beq.w	80003bae <vsscanf+0x6da>
800038ae:	6d7b      	ldr	r3, [r7, #84]	; 0x54
800038b0:	2b0a      	cmp	r3, #10
800038b2:	d109      	bne.n	800038c8 <vsscanf+0x3f4>
800038b4:	f897 3063 	ldrb.w	r3, [r7, #99]	; 0x63
800038b8:	4ac0      	ldr	r2, [pc, #768]	; (80003bbc <vsscanf+0x6e8>)
800038ba:	58a2      	ldr	r2, [r4, r2]
800038bc:	5cd3      	ldrb	r3, [r2, r3]
800038be:	f003 0304 	and.w	r3, r3, #4
800038c2:	2b00      	cmp	r3, #0
800038c4:	f000 8173 	beq.w	80003bae <vsscanf+0x6da>
800038c8:	6d7b      	ldr	r3, [r7, #84]	; 0x54
800038ca:	2b08      	cmp	r3, #8
800038cc:	d10e      	bne.n	800038ec <vsscanf+0x418>
800038ce:	f897 3063 	ldrb.w	r3, [r7, #99]	; 0x63
800038d2:	4aba      	ldr	r2, [pc, #744]	; (80003bbc <vsscanf+0x6e8>)
800038d4:	58a2      	ldr	r2, [r4, r2]
800038d6:	5cd3      	ldrb	r3, [r2, r3]
800038d8:	f003 0304 	and.w	r3, r3, #4
800038dc:	2b00      	cmp	r3, #0
800038de:	f000 8166 	beq.w	80003bae <vsscanf+0x6da>
800038e2:	f897 3063 	ldrb.w	r3, [r7, #99]	; 0x63
800038e6:	2b37      	cmp	r3, #55	; 0x37
800038e8:	f200 8161 	bhi.w	80003bae <vsscanf+0x6da>
800038ec:	6d7b      	ldr	r3, [r7, #84]	; 0x54
800038ee:	2b00      	cmp	r3, #0
800038f0:	d109      	bne.n	80003906 <vsscanf+0x432>
800038f2:	f897 3063 	ldrb.w	r3, [r7, #99]	; 0x63
800038f6:	4ab1      	ldr	r2, [pc, #708]	; (80003bbc <vsscanf+0x6e8>)
800038f8:	58a2      	ldr	r2, [r4, r2]
800038fa:	5cd3      	ldrb	r3, [r2, r3]
800038fc:	f003 0304 	and.w	r3, r3, #4
80003900:	2b00      	cmp	r3, #0
80003902:	f000 8154 	beq.w	80003bae <vsscanf+0x6da>
80003906:	6dbb      	ldr	r3, [r7, #88]	; 0x58
80003908:	2b6c      	cmp	r3, #108	; 0x6c
8000390a:	dc57      	bgt.n	800039bc <vsscanf+0x4e8>
8000390c:	6dbb      	ldr	r3, [r7, #88]	; 0x58
8000390e:	2b48      	cmp	r3, #72	; 0x48
80003910:	f2c0 810f 	blt.w	80003b32 <vsscanf+0x65e>
80003914:	6dbb      	ldr	r3, [r7, #88]	; 0x58
80003916:	3b48      	subs	r3, #72	; 0x48
80003918:	2b24      	cmp	r3, #36	; 0x24
8000391a:	f200 810a 	bhi.w	80003b32 <vsscanf+0x65e>
8000391e:	a202      	add	r2, pc, #8	; (adr r2, 80003928 <vsscanf+0x454>)
80003920:	f852 3023 	ldr.w	r3, [r2, r3, lsl #2]
80003924:	441a      	add	r2, r3
80003926:	4710      	bx	r2
80003928:	0000009f 	muleq	r0, pc, r0	; <UNPREDICTABLE>
8000392c:	0000020b 	andeq	r0, r0, fp, lsl #4
80003930:	0000020b 	andeq	r0, r0, fp, lsl #4
80003934:	0000020b 	andeq	r0, r0, fp, lsl #4
80003938:	00000191 	muleq	r0, r1, r1
8000393c:	0000020b 	andeq	r0, r0, fp, lsl #4
80003940:	0000020b 	andeq	r0, r0, fp, lsl #4
80003944:	0000020b 	andeq	r0, r0, fp, lsl #4
80003948:	0000020b 	andeq	r0, r0, fp, lsl #4
8000394c:	0000020b 	andeq	r0, r0, fp, lsl #4
80003950:	0000020b 	andeq	r0, r0, fp, lsl #4
80003954:	0000020b 	andeq	r0, r0, fp, lsl #4
80003958:	0000020b 	andeq	r0, r0, fp, lsl #4
8000395c:	0000020b 	andeq	r0, r0, fp, lsl #4
80003960:	0000020b 	andeq	r0, r0, fp, lsl #4
80003964:	0000020b 	andeq	r0, r0, fp, lsl #4
80003968:	0000020b 	andeq	r0, r0, fp, lsl #4
8000396c:	0000020b 	andeq	r0, r0, fp, lsl #4
80003970:	000001e7 	andeq	r0, r0, r7, ror #3
80003974:	0000020b 	andeq	r0, r0, fp, lsl #4
80003978:	0000020b 	andeq	r0, r0, fp, lsl #4
8000397c:	0000020b 	andeq	r0, r0, fp, lsl #4
80003980:	0000020b 	andeq	r0, r0, fp, lsl #4
80003984:	0000020b 	andeq	r0, r0, fp, lsl #4
80003988:	0000020b 	andeq	r0, r0, fp, lsl #4
8000398c:	0000020b 	andeq	r0, r0, fp, lsl #4
80003990:	0000020b 	andeq	r0, r0, fp, lsl #4
80003994:	0000020b 	andeq	r0, r0, fp, lsl #4
80003998:	0000020b 	andeq	r0, r0, fp, lsl #4
8000399c:	0000020b 	andeq	r0, r0, fp, lsl #4
800039a0:	0000020b 	andeq	r0, r0, fp, lsl #4
800039a4:	0000020b 	andeq	r0, r0, fp, lsl #4
800039a8:	000000f1 	strdeq	r0, [r0], -r1
800039ac:	0000020b 	andeq	r0, r0, fp, lsl #4
800039b0:	0000020b 	andeq	r0, r0, fp, lsl #4
800039b4:	0000020b 	andeq	r0, r0, fp, lsl #4
800039b8:	00000143 	andeq	r0, r0, r3, asr #2
800039bc:	6dbb      	ldr	r3, [r7, #88]	; 0x58
800039be:	2b7a      	cmp	r3, #122	; 0x7a
800039c0:	f000 80a5 	beq.w	80003b0e <vsscanf+0x63a>
800039c4:	e0b5      	b.n	80003b32 <vsscanf+0x65e>
800039c6:	6cfb      	ldr	r3, [r7, #76]	; 0x4c
800039c8:	2b00      	cmp	r3, #0
800039ca:	d012      	beq.n	800039f2 <vsscanf+0x51e>
800039cc:	687b      	ldr	r3, [r7, #4]
800039ce:	3304      	adds	r3, #4
800039d0:	607b      	str	r3, [r7, #4]
800039d2:	687b      	ldr	r3, [r7, #4]
800039d4:	f853 3c04 	ldr.w	r3, [r3, #-4]
800039d8:	61fb      	str	r3, [r7, #28]
800039da:	6d7a      	ldr	r2, [r7, #84]	; 0x54
800039dc:	f107 0310 	add.w	r3, r7, #16
800039e0:	4619      	mov	r1, r3
800039e2:	6e78      	ldr	r0, [r7, #100]	; 0x64
800039e4:	f7fe fd16 	bl	80002414 <simple_strtol>
800039e8:	4603      	mov	r3, r0
800039ea:	b25a      	sxtb	r2, r3
800039ec:	69fb      	ldr	r3, [r7, #28]
800039ee:	701a      	strb	r2, [r3, #0]
800039f0:	e0c6      	b.n	80003b80 <vsscanf+0x6ac>
800039f2:	687b      	ldr	r3, [r7, #4]
800039f4:	3304      	adds	r3, #4
800039f6:	607b      	str	r3, [r7, #4]
800039f8:	687b      	ldr	r3, [r7, #4]
800039fa:	f853 3c04 	ldr.w	r3, [r3, #-4]
800039fe:	623b      	str	r3, [r7, #32]
80003a00:	6d7a      	ldr	r2, [r7, #84]	; 0x54
80003a02:	f107 0310 	add.w	r3, r7, #16
80003a06:	4619      	mov	r1, r3
80003a08:	6e78      	ldr	r0, [r7, #100]	; 0x64
80003a0a:	f7fe fc81 	bl	80002310 <simple_strtoul>
80003a0e:	4603      	mov	r3, r0
80003a10:	b2da      	uxtb	r2, r3
80003a12:	6a3b      	ldr	r3, [r7, #32]
80003a14:	701a      	strb	r2, [r3, #0]
80003a16:	e0b3      	b.n	80003b80 <vsscanf+0x6ac>
80003a18:	6cfb      	ldr	r3, [r7, #76]	; 0x4c
80003a1a:	2b00      	cmp	r3, #0
80003a1c:	d012      	beq.n	80003a44 <vsscanf+0x570>
80003a1e:	687b      	ldr	r3, [r7, #4]
80003a20:	3304      	adds	r3, #4
80003a22:	607b      	str	r3, [r7, #4]
80003a24:	687b      	ldr	r3, [r7, #4]
80003a26:	f853 3c04 	ldr.w	r3, [r3, #-4]
80003a2a:	633b      	str	r3, [r7, #48]	; 0x30
80003a2c:	6d7a      	ldr	r2, [r7, #84]	; 0x54
80003a2e:	f107 0310 	add.w	r3, r7, #16
80003a32:	4619      	mov	r1, r3
80003a34:	6e78      	ldr	r0, [r7, #100]	; 0x64
80003a36:	f7fe fced 	bl	80002414 <simple_strtol>
80003a3a:	4603      	mov	r3, r0
80003a3c:	b21a      	sxth	r2, r3
80003a3e:	6b3b      	ldr	r3, [r7, #48]	; 0x30
80003a40:	801a      	strh	r2, [r3, #0]
80003a42:	e09d      	b.n	80003b80 <vsscanf+0x6ac>
80003a44:	687b      	ldr	r3, [r7, #4]
80003a46:	3304      	adds	r3, #4
80003a48:	607b      	str	r3, [r7, #4]
80003a4a:	687b      	ldr	r3, [r7, #4]
80003a4c:	f853 3c04 	ldr.w	r3, [r3, #-4]
80003a50:	637b      	str	r3, [r7, #52]	; 0x34
80003a52:	6d7a      	ldr	r2, [r7, #84]	; 0x54
80003a54:	f107 0310 	add.w	r3, r7, #16
80003a58:	4619      	mov	r1, r3
80003a5a:	6e78      	ldr	r0, [r7, #100]	; 0x64
80003a5c:	f7fe fc58 	bl	80002310 <simple_strtoul>
80003a60:	4603      	mov	r3, r0
80003a62:	b29a      	uxth	r2, r3
80003a64:	6b7b      	ldr	r3, [r7, #52]	; 0x34
80003a66:	801a      	strh	r2, [r3, #0]
80003a68:	e08a      	b.n	80003b80 <vsscanf+0x6ac>
80003a6a:	6cfb      	ldr	r3, [r7, #76]	; 0x4c
80003a6c:	2b00      	cmp	r3, #0
80003a6e:	d011      	beq.n	80003a94 <vsscanf+0x5c0>
80003a70:	687b      	ldr	r3, [r7, #4]
80003a72:	3304      	adds	r3, #4
80003a74:	607b      	str	r3, [r7, #4]
80003a76:	687b      	ldr	r3, [r7, #4]
80003a78:	f853 3c04 	ldr.w	r3, [r3, #-4]
80003a7c:	63bb      	str	r3, [r7, #56]	; 0x38
80003a7e:	6d7a      	ldr	r2, [r7, #84]	; 0x54
80003a80:	f107 0310 	add.w	r3, r7, #16
80003a84:	4619      	mov	r1, r3
80003a86:	6e78      	ldr	r0, [r7, #100]	; 0x64
80003a88:	f7fe fcc4 	bl	80002414 <simple_strtol>
80003a8c:	4602      	mov	r2, r0
80003a8e:	6bbb      	ldr	r3, [r7, #56]	; 0x38
80003a90:	601a      	str	r2, [r3, #0]
80003a92:	e075      	b.n	80003b80 <vsscanf+0x6ac>
80003a94:	687b      	ldr	r3, [r7, #4]
80003a96:	3304      	adds	r3, #4
80003a98:	607b      	str	r3, [r7, #4]
80003a9a:	687b      	ldr	r3, [r7, #4]
80003a9c:	f853 3c04 	ldr.w	r3, [r3, #-4]
80003aa0:	63fb      	str	r3, [r7, #60]	; 0x3c
80003aa2:	6d7a      	ldr	r2, [r7, #84]	; 0x54
80003aa4:	f107 0310 	add.w	r3, r7, #16
80003aa8:	4619      	mov	r1, r3
80003aaa:	6e78      	ldr	r0, [r7, #100]	; 0x64
80003aac:	f7fe fc30 	bl	80002310 <simple_strtoul>
80003ab0:	4602      	mov	r2, r0
80003ab2:	6bfb      	ldr	r3, [r7, #60]	; 0x3c
80003ab4:	601a      	str	r2, [r3, #0]
80003ab6:	e063      	b.n	80003b80 <vsscanf+0x6ac>
80003ab8:	6cfb      	ldr	r3, [r7, #76]	; 0x4c
80003aba:	2b00      	cmp	r3, #0
80003abc:	d013      	beq.n	80003ae6 <vsscanf+0x612>
80003abe:	687b      	ldr	r3, [r7, #4]
80003ac0:	3304      	adds	r3, #4
80003ac2:	607b      	str	r3, [r7, #4]
80003ac4:	687b      	ldr	r3, [r7, #4]
80003ac6:	f853 3c04 	ldr.w	r3, [r3, #-4]
80003aca:	627b      	str	r3, [r7, #36]	; 0x24
80003acc:	6d7a      	ldr	r2, [r7, #84]	; 0x54
80003ace:	f107 0310 	add.w	r3, r7, #16
80003ad2:	4619      	mov	r1, r3
80003ad4:	6e78      	ldr	r0, [r7, #100]	; 0x64
80003ad6:	f7fe fd73 	bl	800025c0 <simple_strtoll>
80003ada:	4602      	mov	r2, r0
80003adc:	460b      	mov	r3, r1
80003ade:	6a79      	ldr	r1, [r7, #36]	; 0x24
80003ae0:	e9c1 2300 	strd	r2, r3, [r1]
80003ae4:	e04c      	b.n	80003b80 <vsscanf+0x6ac>
80003ae6:	687b      	ldr	r3, [r7, #4]
80003ae8:	3304      	adds	r3, #4
80003aea:	607b      	str	r3, [r7, #4]
80003aec:	687b      	ldr	r3, [r7, #4]
80003aee:	f853 3c04 	ldr.w	r3, [r3, #-4]
80003af2:	62bb      	str	r3, [r7, #40]	; 0x28
80003af4:	6d7a      	ldr	r2, [r7, #84]	; 0x54
80003af6:	f107 0310 	add.w	r3, r7, #16
80003afa:	4619      	mov	r1, r3
80003afc:	6e78      	ldr	r0, [r7, #100]	; 0x64
80003afe:	f7fe fca7 	bl	80002450 <simple_strtoull>
80003b02:	4602      	mov	r2, r0
80003b04:	460b      	mov	r3, r1
80003b06:	6ab9      	ldr	r1, [r7, #40]	; 0x28
80003b08:	e9c1 2300 	strd	r2, r3, [r1]
80003b0c:	e038      	b.n	80003b80 <vsscanf+0x6ac>
80003b0e:	687b      	ldr	r3, [r7, #4]
80003b10:	3304      	adds	r3, #4
80003b12:	607b      	str	r3, [r7, #4]
80003b14:	687b      	ldr	r3, [r7, #4]
80003b16:	f853 3c04 	ldr.w	r3, [r3, #-4]
80003b1a:	62fb      	str	r3, [r7, #44]	; 0x2c
80003b1c:	6d7a      	ldr	r2, [r7, #84]	; 0x54
80003b1e:	f107 0310 	add.w	r3, r7, #16
80003b22:	4619      	mov	r1, r3
80003b24:	6e78      	ldr	r0, [r7, #100]	; 0x64
80003b26:	f7fe fbf3 	bl	80002310 <simple_strtoul>
80003b2a:	4602      	mov	r2, r0
80003b2c:	6afb      	ldr	r3, [r7, #44]	; 0x2c
80003b2e:	601a      	str	r2, [r3, #0]
80003b30:	e026      	b.n	80003b80 <vsscanf+0x6ac>
80003b32:	6cfb      	ldr	r3, [r7, #76]	; 0x4c
80003b34:	2b00      	cmp	r3, #0
80003b36:	d011      	beq.n	80003b5c <vsscanf+0x688>
80003b38:	687b      	ldr	r3, [r7, #4]
80003b3a:	3304      	adds	r3, #4
80003b3c:	607b      	str	r3, [r7, #4]
80003b3e:	687b      	ldr	r3, [r7, #4]
80003b40:	f853 3c04 	ldr.w	r3, [r3, #-4]
80003b44:	617b      	str	r3, [r7, #20]
80003b46:	6d7a      	ldr	r2, [r7, #84]	; 0x54
80003b48:	f107 0310 	add.w	r3, r7, #16
80003b4c:	4619      	mov	r1, r3
80003b4e:	6e78      	ldr	r0, [r7, #100]	; 0x64
80003b50:	f7fe fc60 	bl	80002414 <simple_strtol>
80003b54:	4602      	mov	r2, r0
80003b56:	697b      	ldr	r3, [r7, #20]
80003b58:	601a      	str	r2, [r3, #0]
80003b5a:	e010      	b.n	80003b7e <vsscanf+0x6aa>
80003b5c:	687b      	ldr	r3, [r7, #4]
80003b5e:	3304      	adds	r3, #4
80003b60:	607b      	str	r3, [r7, #4]
80003b62:	687b      	ldr	r3, [r7, #4]
80003b64:	f853 3c04 	ldr.w	r3, [r3, #-4]
80003b68:	61bb      	str	r3, [r7, #24]
80003b6a:	6d7a      	ldr	r2, [r7, #84]	; 0x54
80003b6c:	f107 0310 	add.w	r3, r7, #16
80003b70:	4619      	mov	r1, r3
80003b72:	6e78      	ldr	r0, [r7, #100]	; 0x64
80003b74:	f7fe fbcc 	bl	80002310 <simple_strtoul>
80003b78:	4602      	mov	r2, r0
80003b7a:	69bb      	ldr	r3, [r7, #24]
80003b7c:	601a      	str	r2, [r3, #0]
80003b7e:	bf00      	nop
80003b80:	6dfb      	ldr	r3, [r7, #92]	; 0x5c
80003b82:	3301      	adds	r3, #1
80003b84:	65fb      	str	r3, [r7, #92]	; 0x5c
80003b86:	693b      	ldr	r3, [r7, #16]
80003b88:	2b00      	cmp	r3, #0
80003b8a:	d00f      	beq.n	80003bac <vsscanf+0x6d8>
80003b8c:	693b      	ldr	r3, [r7, #16]
80003b8e:	667b      	str	r3, [r7, #100]	; 0x64
80003b90:	68bb      	ldr	r3, [r7, #8]
80003b92:	781b      	ldrb	r3, [r3, #0]
80003b94:	2b00      	cmp	r3, #0
80003b96:	d00a      	beq.n	80003bae <vsscanf+0x6da>
80003b98:	6e7b      	ldr	r3, [r7, #100]	; 0x64
80003b9a:	781b      	ldrb	r3, [r3, #0]
80003b9c:	2b00      	cmp	r3, #0
80003b9e:	f47f aca9 	bne.w	800034f4 <vsscanf+0x20>
80003ba2:	e004      	b.n	80003bae <vsscanf+0x6da>
80003ba4:	bf00      	nop
80003ba6:	e002      	b.n	80003bae <vsscanf+0x6da>
80003ba8:	bf00      	nop
80003baa:	e000      	b.n	80003bae <vsscanf+0x6da>
80003bac:	bf00      	nop
80003bae:	6dfb      	ldr	r3, [r7, #92]	; 0x5c
80003bb0:	4618      	mov	r0, r3
80003bb2:	376c      	adds	r7, #108	; 0x6c
80003bb4:	46bd      	mov	sp, r7
80003bb6:	bd90      	pop	{r4, r7, pc}
80003bb8:	00000c3c 	andeq	r0, r0, ip, lsr ip
80003bbc:	00000000 	andeq	r0, r0, r0

80003bc0 <sscanf>:
80003bc0:	b40e      	push	{r1, r2, r3}
80003bc2:	b580      	push	{r7, lr}
80003bc4:	b085      	sub	sp, #20
80003bc6:	af00      	add	r7, sp, #0
80003bc8:	6078      	str	r0, [r7, #4]
80003bca:	f107 0320 	add.w	r3, r7, #32
80003bce:	60fb      	str	r3, [r7, #12]
80003bd0:	69fb      	ldr	r3, [r7, #28]
80003bd2:	68fa      	ldr	r2, [r7, #12]
80003bd4:	4619      	mov	r1, r3
80003bd6:	6878      	ldr	r0, [r7, #4]
80003bd8:	f7ff fc7c 	bl	800034d4 <vsscanf>
80003bdc:	60b8      	str	r0, [r7, #8]
80003bde:	68bb      	ldr	r3, [r7, #8]
80003be0:	4618      	mov	r0, r3
80003be2:	3714      	adds	r7, #20
80003be4:	46bd      	mov	sp, r7
80003be6:	e8bd 4080 	ldmia.w	sp!, {r7, lr}
80003bea:	b003      	add	sp, #12
80003bec:	4770      	bx	lr
80003bee:	bf00      	nop

80003bf0 <__udivsi3>:
80003bf0:	1e4a      	subs	r2, r1, #1
80003bf2:	bf08      	it	eq
80003bf4:	4770      	bxeq	lr
80003bf6:	f0c0 8124 	bcc.w	80003e42 <__udivsi3+0x252>
80003bfa:	4288      	cmp	r0, r1
80003bfc:	f240 8116 	bls.w	80003e2c <__udivsi3+0x23c>
80003c00:	4211      	tst	r1, r2
80003c02:	f000 8117 	beq.w	80003e34 <__udivsi3+0x244>
80003c06:	fab0 f380 	clz	r3, r0
80003c0a:	fab1 f281 	clz	r2, r1
80003c0e:	eba2 0303 	sub.w	r3, r2, r3
80003c12:	f1c3 031f 	rsb	r3, r3, #31
80003c16:	a204      	add	r2, pc, #16	; (adr r2, 80003c28 <__udivsi3+0x38>)
80003c18:	eb02 1303 	add.w	r3, r2, r3, lsl #4
80003c1c:	f04f 0200 	mov.w	r2, #0
80003c20:	469f      	mov	pc, r3
80003c22:	bf00      	nop
80003c24:	f3af 8000 	nop.w
80003c28:	ebb0 7fc1 	cmp.w	r0, r1, lsl #31
80003c2c:	bf00      	nop
80003c2e:	eb42 0202 	adc.w	r2, r2, r2
80003c32:	bf28      	it	cs
80003c34:	eba0 70c1 	subcs.w	r0, r0, r1, lsl #31
80003c38:	ebb0 7f81 	cmp.w	r0, r1, lsl #30
80003c3c:	bf00      	nop
80003c3e:	eb42 0202 	adc.w	r2, r2, r2
80003c42:	bf28      	it	cs
80003c44:	eba0 7081 	subcs.w	r0, r0, r1, lsl #30
80003c48:	ebb0 7f41 	cmp.w	r0, r1, lsl #29
80003c4c:	bf00      	nop
80003c4e:	eb42 0202 	adc.w	r2, r2, r2
80003c52:	bf28      	it	cs
80003c54:	eba0 7041 	subcs.w	r0, r0, r1, lsl #29
80003c58:	ebb0 7f01 	cmp.w	r0, r1, lsl #28
80003c5c:	bf00      	nop
80003c5e:	eb42 0202 	adc.w	r2, r2, r2
80003c62:	bf28      	it	cs
80003c64:	eba0 7001 	subcs.w	r0, r0, r1, lsl #28
80003c68:	ebb0 6fc1 	cmp.w	r0, r1, lsl #27
80003c6c:	bf00      	nop
80003c6e:	eb42 0202 	adc.w	r2, r2, r2
80003c72:	bf28      	it	cs
80003c74:	eba0 60c1 	subcs.w	r0, r0, r1, lsl #27
80003c78:	ebb0 6f81 	cmp.w	r0, r1, lsl #26
80003c7c:	bf00      	nop
80003c7e:	eb42 0202 	adc.w	r2, r2, r2
80003c82:	bf28      	it	cs
80003c84:	eba0 6081 	subcs.w	r0, r0, r1, lsl #26
80003c88:	ebb0 6f41 	cmp.w	r0, r1, lsl #25
80003c8c:	bf00      	nop
80003c8e:	eb42 0202 	adc.w	r2, r2, r2
80003c92:	bf28      	it	cs
80003c94:	eba0 6041 	subcs.w	r0, r0, r1, lsl #25
80003c98:	ebb0 6f01 	cmp.w	r0, r1, lsl #24
80003c9c:	bf00      	nop
80003c9e:	eb42 0202 	adc.w	r2, r2, r2
80003ca2:	bf28      	it	cs
80003ca4:	eba0 6001 	subcs.w	r0, r0, r1, lsl #24
80003ca8:	ebb0 5fc1 	cmp.w	r0, r1, lsl #23
80003cac:	bf00      	nop
80003cae:	eb42 0202 	adc.w	r2, r2, r2
80003cb2:	bf28      	it	cs
80003cb4:	eba0 50c1 	subcs.w	r0, r0, r1, lsl #23
80003cb8:	ebb0 5f81 	cmp.w	r0, r1, lsl #22
80003cbc:	bf00      	nop
80003cbe:	eb42 0202 	adc.w	r2, r2, r2
80003cc2:	bf28      	it	cs
80003cc4:	eba0 5081 	subcs.w	r0, r0, r1, lsl #22
80003cc8:	ebb0 5f41 	cmp.w	r0, r1, lsl #21
80003ccc:	bf00      	nop
80003cce:	eb42 0202 	adc.w	r2, r2, r2
80003cd2:	bf28      	it	cs
80003cd4:	eba0 5041 	subcs.w	r0, r0, r1, lsl #21
80003cd8:	ebb0 5f01 	cmp.w	r0, r1, lsl #20
80003cdc:	bf00      	nop
80003cde:	eb42 0202 	adc.w	r2, r2, r2
80003ce2:	bf28      	it	cs
80003ce4:	eba0 5001 	subcs.w	r0, r0, r1, lsl #20
80003ce8:	ebb0 4fc1 	cmp.w	r0, r1, lsl #19
80003cec:	bf00      	nop
80003cee:	eb42 0202 	adc.w	r2, r2, r2
80003cf2:	bf28      	it	cs
80003cf4:	eba0 40c1 	subcs.w	r0, r0, r1, lsl #19
80003cf8:	ebb0 4f81 	cmp.w	r0, r1, lsl #18
80003cfc:	bf00      	nop
80003cfe:	eb42 0202 	adc.w	r2, r2, r2
80003d02:	bf28      	it	cs
80003d04:	eba0 4081 	subcs.w	r0, r0, r1, lsl #18
80003d08:	ebb0 4f41 	cmp.w	r0, r1, lsl #17
80003d0c:	bf00      	nop
80003d0e:	eb42 0202 	adc.w	r2, r2, r2
80003d12:	bf28      	it	cs
80003d14:	eba0 4041 	subcs.w	r0, r0, r1, lsl #17
80003d18:	ebb0 4f01 	cmp.w	r0, r1, lsl #16
80003d1c:	bf00      	nop
80003d1e:	eb42 0202 	adc.w	r2, r2, r2
80003d22:	bf28      	it	cs
80003d24:	eba0 4001 	subcs.w	r0, r0, r1, lsl #16
80003d28:	ebb0 3fc1 	cmp.w	r0, r1, lsl #15
80003d2c:	bf00      	nop
80003d2e:	eb42 0202 	adc.w	r2, r2, r2
80003d32:	bf28      	it	cs
80003d34:	eba0 30c1 	subcs.w	r0, r0, r1, lsl #15
80003d38:	ebb0 3f81 	cmp.w	r0, r1, lsl #14
80003d3c:	bf00      	nop
80003d3e:	eb42 0202 	adc.w	r2, r2, r2
80003d42:	bf28      	it	cs
80003d44:	eba0 3081 	subcs.w	r0, r0, r1, lsl #14
80003d48:	ebb0 3f41 	cmp.w	r0, r1, lsl #13
80003d4c:	bf00      	nop
80003d4e:	eb42 0202 	adc.w	r2, r2, r2
80003d52:	bf28      	it	cs
80003d54:	eba0 3041 	subcs.w	r0, r0, r1, lsl #13
80003d58:	ebb0 3f01 	cmp.w	r0, r1, lsl #12
80003d5c:	bf00      	nop
80003d5e:	eb42 0202 	adc.w	r2, r2, r2
80003d62:	bf28      	it	cs
80003d64:	eba0 3001 	subcs.w	r0, r0, r1, lsl #12
80003d68:	ebb0 2fc1 	cmp.w	r0, r1, lsl #11
80003d6c:	bf00      	nop
80003d6e:	eb42 0202 	adc.w	r2, r2, r2
80003d72:	bf28      	it	cs
80003d74:	eba0 20c1 	subcs.w	r0, r0, r1, lsl #11
80003d78:	ebb0 2f81 	cmp.w	r0, r1, lsl #10
80003d7c:	bf00      	nop
80003d7e:	eb42 0202 	adc.w	r2, r2, r2
80003d82:	bf28      	it	cs
80003d84:	eba0 2081 	subcs.w	r0, r0, r1, lsl #10
80003d88:	ebb0 2f41 	cmp.w	r0, r1, lsl #9
80003d8c:	bf00      	nop
80003d8e:	eb42 0202 	adc.w	r2, r2, r2
80003d92:	bf28      	it	cs
80003d94:	eba0 2041 	subcs.w	r0, r0, r1, lsl #9
80003d98:	ebb0 2f01 	cmp.w	r0, r1, lsl #8
80003d9c:	bf00      	nop
80003d9e:	eb42 0202 	adc.w	r2, r2, r2
80003da2:	bf28      	it	cs
80003da4:	eba0 2001 	subcs.w	r0, r0, r1, lsl #8
80003da8:	ebb0 1fc1 	cmp.w	r0, r1, lsl #7
80003dac:	bf00      	nop
80003dae:	eb42 0202 	adc.w	r2, r2, r2
80003db2:	bf28      	it	cs
80003db4:	eba0 10c1 	subcs.w	r0, r0, r1, lsl #7
80003db8:	ebb0 1f81 	cmp.w	r0, r1, lsl #6
80003dbc:	bf00      	nop
80003dbe:	eb42 0202 	adc.w	r2, r2, r2
80003dc2:	bf28      	it	cs
80003dc4:	eba0 1081 	subcs.w	r0, r0, r1, lsl #6
80003dc8:	ebb0 1f41 	cmp.w	r0, r1, lsl #5
80003dcc:	bf00      	nop
80003dce:	eb42 0202 	adc.w	r2, r2, r2
80003dd2:	bf28      	it	cs
80003dd4:	eba0 1041 	subcs.w	r0, r0, r1, lsl #5
80003dd8:	ebb0 1f01 	cmp.w	r0, r1, lsl #4
80003ddc:	bf00      	nop
80003dde:	eb42 0202 	adc.w	r2, r2, r2
80003de2:	bf28      	it	cs
80003de4:	eba0 1001 	subcs.w	r0, r0, r1, lsl #4
80003de8:	ebb0 0fc1 	cmp.w	r0, r1, lsl #3
80003dec:	bf00      	nop
80003dee:	eb42 0202 	adc.w	r2, r2, r2
80003df2:	bf28      	it	cs
80003df4:	eba0 00c1 	subcs.w	r0, r0, r1, lsl #3
80003df8:	ebb0 0f81 	cmp.w	r0, r1, lsl #2
80003dfc:	bf00      	nop
80003dfe:	eb42 0202 	adc.w	r2, r2, r2
80003e02:	bf28      	it	cs
80003e04:	eba0 0081 	subcs.w	r0, r0, r1, lsl #2
80003e08:	ebb0 0f41 	cmp.w	r0, r1, lsl #1
80003e0c:	bf00      	nop
80003e0e:	eb42 0202 	adc.w	r2, r2, r2
80003e12:	bf28      	it	cs
80003e14:	eba0 0041 	subcs.w	r0, r0, r1, lsl #1
80003e18:	ebb0 0f01 	cmp.w	r0, r1
80003e1c:	bf00      	nop
80003e1e:	eb42 0202 	adc.w	r2, r2, r2
80003e22:	bf28      	it	cs
80003e24:	eba0 0001 	subcs.w	r0, r0, r1
80003e28:	4610      	mov	r0, r2
80003e2a:	4770      	bx	lr
80003e2c:	bf0c      	ite	eq
80003e2e:	2001      	moveq	r0, #1
80003e30:	2000      	movne	r0, #0
80003e32:	4770      	bx	lr
80003e34:	fab1 f281 	clz	r2, r1
80003e38:	f1c2 021f 	rsb	r2, r2, #31
80003e3c:	fa20 f002 	lsr.w	r0, r0, r2
80003e40:	4770      	bx	lr
80003e42:	b108      	cbz	r0, 80003e48 <__udivsi3+0x258>
80003e44:	f04f 30ff 	mov.w	r0, #4294967295	; 0xffffffff
80003e48:	f000 b826 	b.w	80003e98 <__aeabi_idiv0>

80003e4c <__aeabi_uidivmod>:
80003e4c:	2900      	cmp	r1, #0
80003e4e:	d0f8      	beq.n	80003e42 <__udivsi3+0x252>
80003e50:	e92d 4003 	stmdb	sp!, {r0, r1, lr}
80003e54:	f7ff fecc 	bl	80003bf0 <__udivsi3>
80003e58:	e8bd 4006 	ldmia.w	sp!, {r1, r2, lr}
80003e5c:	fb02 f300 	mul.w	r3, r2, r0
80003e60:	eba1 0103 	sub.w	r1, r1, r3
80003e64:	4770      	bx	lr
80003e66:	bf00      	nop

80003e68 <__aeabi_uldivmod>:
80003e68:	b953      	cbnz	r3, 80003e80 <__aeabi_uldivmod+0x18>
80003e6a:	b94a      	cbnz	r2, 80003e80 <__aeabi_uldivmod+0x18>
80003e6c:	2900      	cmp	r1, #0
80003e6e:	bf08      	it	eq
80003e70:	2800      	cmpeq	r0, #0
80003e72:	bf1c      	itt	ne
80003e74:	f04f 31ff 	movne.w	r1, #4294967295	; 0xffffffff
80003e78:	f04f 30ff 	movne.w	r0, #4294967295	; 0xffffffff
80003e7c:	f000 b80c 	b.w	80003e98 <__aeabi_idiv0>
80003e80:	f1ad 0c08 	sub.w	ip, sp, #8
80003e84:	e96d ce04 	strd	ip, lr, [sp, #-16]!
80003e88:	f000 f80c 	bl	80003ea4 <__udivmoddi4>
80003e8c:	f8dd e004 	ldr.w	lr, [sp, #4]
80003e90:	e9dd 2302 	ldrd	r2, r3, [sp, #8]
80003e94:	b004      	add	sp, #16
80003e96:	4770      	bx	lr

80003e98 <__aeabi_idiv0>:
80003e98:	b502      	push	{r1, lr}
80003e9a:	f04f 0008 	mov.w	r0, #8
80003e9e:	f7fd fd00 	bl	800018a2 <raise>
80003ea2:	bd02      	pop	{r1, pc}

80003ea4 <__udivmoddi4>:
80003ea4:	e92d 43f0 	stmdb	sp!, {r4, r5, r6, r7, r8, r9, lr}
80003ea8:	460d      	mov	r5, r1
80003eaa:	429d      	cmp	r5, r3
80003eac:	4604      	mov	r4, r0
80003eae:	4610      	mov	r0, r2
80003eb0:	4619      	mov	r1, r3
80003eb2:	bf08      	it	eq
80003eb4:	4284      	cmpeq	r4, r0
80003eb6:	9a07      	ldr	r2, [sp, #28]
80003eb8:	bf3c      	itt	cc
80003eba:	2000      	movcc	r0, #0
80003ebc:	2100      	movcc	r1, #0
80003ebe:	d36a      	bcc.n	80003f96 <__udivmoddi4+0xf2>
80003ec0:	fab1 f681 	clz	r6, r1
80003ec4:	2900      	cmp	r1, #0
80003ec6:	d06f      	beq.n	80003fa8 <__udivmoddi4+0x104>
80003ec8:	fab5 f385 	clz	r3, r5
80003ecc:	2d00      	cmp	r5, #0
80003ece:	d067      	beq.n	80003fa0 <__udivmoddi4+0xfc>
80003ed0:	1af3      	subs	r3, r6, r3
80003ed2:	f1a3 0c20 	sub.w	ip, r3, #32
80003ed6:	fa01 f703 	lsl.w	r7, r1, r3
80003eda:	fa00 fe0c 	lsl.w	lr, r0, ip
80003ede:	f1c3 0820 	rsb	r8, r3, #32
80003ee2:	fa20 f108 	lsr.w	r1, r0, r8
80003ee6:	fa00 f603 	lsl.w	r6, r0, r3
80003eea:	ea47 070e 	orr.w	r7, r7, lr
80003eee:	469e      	mov	lr, r3
80003ef0:	430f      	orrs	r7, r1
80003ef2:	42bd      	cmp	r5, r7
80003ef4:	bf08      	it	eq
80003ef6:	42b4      	cmpeq	r4, r6
80003ef8:	bf3c      	itt	cc
80003efa:	2000      	movcc	r0, #0
80003efc:	2100      	movcc	r1, #0
80003efe:	d30c      	bcc.n	80003f1a <__udivmoddi4+0x76>
80003f00:	f04f 0901 	mov.w	r9, #1
80003f04:	1ba4      	subs	r4, r4, r6
80003f06:	fa29 f808 	lsr.w	r8, r9, r8
80003f0a:	fa09 f10c 	lsl.w	r1, r9, ip
80003f0e:	fa09 f003 	lsl.w	r0, r9, r3
80003f12:	ea41 0108 	orr.w	r1, r1, r8
80003f16:	eb65 0507 	sbc.w	r5, r5, r7
80003f1a:	2b00      	cmp	r3, #0
80003f1c:	d03b      	beq.n	80003f96 <__udivmoddi4+0xf2>
80003f1e:	087f      	lsrs	r7, r7, #1
80003f20:	ea4f 0636 	mov.w	r6, r6, rrx
80003f24:	e009      	b.n	80003f3a <__udivmoddi4+0x96>
80003f26:	1ba4      	subs	r4, r4, r6
80003f28:	eb65 0507 	sbc.w	r5, r5, r7
80003f2c:	1924      	adds	r4, r4, r4
80003f2e:	416d      	adcs	r5, r5
80003f30:	3401      	adds	r4, #1
80003f32:	f145 0500 	adc.w	r5, r5, #0
80003f36:	3b01      	subs	r3, #1
80003f38:	d007      	beq.n	80003f4a <__udivmoddi4+0xa6>
80003f3a:	42bd      	cmp	r5, r7
80003f3c:	bf08      	it	eq
80003f3e:	42b4      	cmpeq	r4, r6
80003f40:	d2f1      	bcs.n	80003f26 <__udivmoddi4+0x82>
80003f42:	1924      	adds	r4, r4, r4
80003f44:	416d      	adcs	r5, r5
80003f46:	3b01      	subs	r3, #1
80003f48:	d1f7      	bne.n	80003f3a <__udivmoddi4+0x96>
80003f4a:	f1ce 0720 	rsb	r7, lr, #32
80003f4e:	fa24 f60e 	lsr.w	r6, r4, lr
80003f52:	fa05 f707 	lsl.w	r7, r5, r7
80003f56:	f1ae 0320 	sub.w	r3, lr, #32
80003f5a:	fa25 f303 	lsr.w	r3, r5, r3
80003f5e:	fa25 fc0e 	lsr.w	ip, r5, lr
80003f62:	1900      	adds	r0, r0, r4
80003f64:	ea46 0607 	orr.w	r6, r6, r7
80003f68:	ea46 0403 	orr.w	r4, r6, r3
80003f6c:	4169      	adcs	r1, r5
80003f6e:	4665      	mov	r5, ip
80003f70:	f1ae 0c20 	sub.w	ip, lr, #32
80003f74:	fa05 f70e 	lsl.w	r7, r5, lr
80003f78:	fa04 fc0c 	lsl.w	ip, r4, ip
80003f7c:	fa04 f60e 	lsl.w	r6, r4, lr
80003f80:	f1ce 0320 	rsb	r3, lr, #32
80003f84:	fa24 f303 	lsr.w	r3, r4, r3
80003f88:	ea47 070c 	orr.w	r7, r7, ip
80003f8c:	1b80      	subs	r0, r0, r6
80003f8e:	ea47 0703 	orr.w	r7, r7, r3
80003f92:	eb61 0107 	sbc.w	r1, r1, r7
80003f96:	b10a      	cbz	r2, 80003f9c <__udivmoddi4+0xf8>
80003f98:	e9c2 4500 	strd	r4, r5, [r2]
80003f9c:	e8bd 83f0 	ldmia.w	sp!, {r4, r5, r6, r7, r8, r9, pc}
80003fa0:	fab4 f384 	clz	r3, r4
80003fa4:	3320      	adds	r3, #32
80003fa6:	e793      	b.n	80003ed0 <__udivmoddi4+0x2c>
80003fa8:	fab0 f380 	clz	r3, r0
80003fac:	f103 0620 	add.w	r6, r3, #32
80003fb0:	fab5 f385 	clz	r3, r5
80003fb4:	2d00      	cmp	r5, #0
80003fb6:	d18b      	bne.n	80003ed0 <__udivmoddi4+0x2c>
80003fb8:	e7f2      	b.n	80003fa0 <__udivmoddi4+0xfc>
80003fba:	bf00      	nop
80003fbc:	0000      	movs	r0, r0
	...

80003fc0 <__main_from_arm>:
80003fc0:	e51ff004 	ldr	pc, [pc, #-4]	; 80003fc4 <__main_from_arm+0x4>
80003fc4:	80000321 	andhi	r0, r0, r1, lsr #6

Disassembly of section .rodata:

80003fc8 <digits.0-0x40>:
80003fc8:	00003031 	andeq	r3, r0, r1, lsr r0
80003fcc:	65746e69 	ldrbvs	r6, [r4, #-3689]!	; 0xfffff197
80003fd0:	70757272 	rsbsvc	r7, r5, r2, ror r2
80003fd4:	74732074 	ldrbtvc	r2, [r3], #-116	; 0xffffff8c
80003fd8:	2c747261 	lfmcs	f7, 2, [r4], #-388	; 0xfffffe7c
80003fdc:	253a4449 	ldrcs	r4, [sl, #-1097]!	; 0xfffffbb7
80003fe0:	00000064 	andeq	r0, r0, r4, rrx
80003fe4:	61666564 	cmnvs	r6, r4, ror #10
80003fe8:	5f746c75 	svcpl	0x00746c75
80003fec:	68717269 	ldmdavs	r1!, {r0, r3, r5, r6, r9, ip, sp, lr}^
80003ff0:	6c646e61 	stclvs	14, cr6, [r4], #-388	; 0xfffffe7c
80003ff4:	72207265 	eorvc	r7, r0, #1342177286	; 0x50000006
80003ff8:	72757465 	rsbsvc	r7, r5, #1694498816	; 0x65000000
80003ffc:	0000216e 	andeq	r2, r0, lr, ror #2
80004000:	4c554e3c 	mrrcmi	14, 3, r4, r5, cr12
80004004:	00003e4c 	andeq	r3, r0, ip, asr #28

80004008 <digits.0>:
80004008:	33323130 	teqcc	r2, #48, 2
8000400c:	37363534 			; <UNDEFINED> instruction: 0x37363534
80004010:	42413938 	submi	r3, r1, #56, 18	; 0xe0000
80004014:	46454443 	strbmi	r4, [r5], -r3, asr #8

Disassembly of section .ARM.exidx:

80004018 <.ARM.exidx>:
80004018:	7ffffe8c 	svcvc	0x00fffe8c
8000401c:	00000001 	andeq	r0, r0, r1

Disassembly of section .data:

80004020 <relese.0>:
80004020:	00000001 	andeq	r0, r0, r1

80004024 <_ctype>:
80004024:	08080808 	stmdaeq	r8, {r3, fp}
80004028:	08080808 	stmdaeq	r8, {r3, fp}
8000402c:	28282808 	stmdacs	r8!, {r3, fp, sp}
80004030:	08082828 	stmdaeq	r8, {r3, r5, fp, sp}
80004034:	08080808 	stmdaeq	r8, {r3, fp}
80004038:	08080808 	stmdaeq	r8, {r3, fp}
8000403c:	08080808 	stmdaeq	r8, {r3, fp}
80004040:	08080808 	stmdaeq	r8, {r3, fp}
80004044:	101010a0 	andsne	r1, r0, r0, lsr #1
80004048:	10101010 	andsne	r1, r0, r0, lsl r0
8000404c:	10101010 	andsne	r1, r0, r0, lsl r0
80004050:	10101010 	andsne	r1, r0, r0, lsl r0
80004054:	04040404 	streq	r0, [r4], #-1028	; 0xfffffbfc
80004058:	04040404 	streq	r0, [r4], #-1028	; 0xfffffbfc
8000405c:	10100404 	andsne	r0, r0, r4, lsl #8
80004060:	10101010 	andsne	r1, r0, r0, lsl r0
80004064:	41414110 	cmpmi	r1, r0, lsl r1
80004068:	01414141 	cmpeq	r1, r1, asr #2
8000406c:	01010101 	tsteq	r1, r1, lsl #2
80004070:	01010101 	tsteq	r1, r1, lsl #2
80004074:	01010101 	tsteq	r1, r1, lsl #2
80004078:	01010101 	tsteq	r1, r1, lsl #2
8000407c:	10010101 	andne	r0, r1, r1, lsl #2
80004080:	10101010 	andsne	r1, r0, r0, lsl r0
80004084:	42424210 	submi	r4, r2, #16, 4
80004088:	02424242 	subeq	r4, r2, #536870916	; 0x20000004
8000408c:	02020202 	andeq	r0, r2, #536870912	; 0x20000000
80004090:	02020202 	andeq	r0, r2, #536870912	; 0x20000000
80004094:	02020202 	andeq	r0, r2, #536870912	; 0x20000000
80004098:	02020202 	andeq	r0, r2, #536870912	; 0x20000000
8000409c:	10020202 	andne	r0, r2, r2, lsl #4
800040a0:	08101010 	ldmdaeq	r0, {r4, ip}
	...
800040c4:	101010a0 	andsne	r1, r0, r0, lsr #1
800040c8:	10101010 	andsne	r1, r0, r0, lsl r0
800040cc:	10101010 	andsne	r1, r0, r0, lsl r0
800040d0:	10101010 	andsne	r1, r0, r0, lsl r0
800040d4:	10101010 	andsne	r1, r0, r0, lsl r0
800040d8:	10101010 	andsne	r1, r0, r0, lsl r0
800040dc:	10101010 	andsne	r1, r0, r0, lsl r0
800040e0:	10101010 	andsne	r1, r0, r0, lsl r0
800040e4:	01010101 	tsteq	r1, r1, lsl #2
800040e8:	01010101 	tsteq	r1, r1, lsl #2
800040ec:	01010101 	tsteq	r1, r1, lsl #2
800040f0:	01010101 	tsteq	r1, r1, lsl #2
800040f4:	01010101 	tsteq	r1, r1, lsl #2
800040f8:	10010101 	andne	r0, r1, r1, lsl #2
800040fc:	01010101 	tsteq	r1, r1, lsl #2
80004100:	02010101 	andeq	r0, r1, #1073741824	; 0x40000000
80004104:	02020202 	andeq	r0, r2, #536870912	; 0x20000000
80004108:	02020202 	andeq	r0, r2, #536870912	; 0x20000000
8000410c:	02020202 	andeq	r0, r2, #536870912	; 0x20000000
80004110:	02020202 	andeq	r0, r2, #536870912	; 0x20000000
80004114:	02020202 	andeq	r0, r2, #536870912	; 0x20000000
80004118:	10020202 	andne	r0, r2, r2, lsl #4
8000411c:	02020202 	andeq	r0, r2, #536870912	; 0x20000000
80004120:	02020202 	andeq	r0, r2, #536870912	; 0x20000000

Disassembly of section .got:

80004124 <.got>:
80004124:	80004024 	andhi	r4, r0, r4, lsr #32

Disassembly of section .got.plt:

80004128 <_GLOBAL_OFFSET_TABLE_>:
	...

Disassembly of section .bss:

80004134 <irqNesting>:
80004134:	00000000 	andeq	r0, r0, r0

80004138 <irqTable>:
	...

80004638 <g_pcOutBuf>:
	...

80004a38 <g_pcInBuf>:
	...

80004e38 <___strtok>:
80004e38:	00000000 	andeq	r0, r0, r0

Disassembly of section .ARM.attributes:

00000000 <.ARM.attributes>:
   0:	00002e41 	andeq	r2, r0, r1, asr #28
   4:	61656100 	cmnvs	r5, r0, lsl #2
   8:	01006962 	tsteq	r0, r2, ror #18
   c:	00000024 	andeq	r0, r0, r4, lsr #32
  10:	412d3705 			; <UNDEFINED> instruction: 0x412d3705
  14:	070a0600 	streq	r0, [sl, -r0, lsl #12]
  18:	09010841 	stmdbeq	r1, {r0, r6, fp}
  1c:	12040a02 	andne	r0, r4, #8192	; 0x2000
  20:	15011404 	strne	r1, [r1, #-1028]	; 0xfffffbfc
  24:	18031701 	stmdane	r3, {r0, r8, r9, sl, ip}
  28:	1c021a01 			; <UNDEFINED> instruction: 0x1c021a01
  2c:	Address 0x000000000000002c is out of bounds.


Disassembly of section .comment:

00000000 <.comment>:
   0:	3a434347 	bcc	10d0d24 <shift+0x10d0d24>
   4:	62552820 	subsvs	r2, r5, #32, 16	; 0x200000
   8:	75746e75 	ldrbvc	r6, [r4, #-3701]!	; 0xfffff18b
   c:	2e313120 	rsfcssp	f3, f1, f0
  10:	2d302e34 	ldccs	14, cr2, [r0, #-208]!	; 0xffffff30
  14:	75627531 	strbvc	r7, [r2, #-1329]!	; 0xfffffacf
  18:	3175746e 	cmncc	r5, lr, ror #8
  1c:	2e32327e 	mrccs	2, 1, r3, cr2, cr14, {3}
  20:	20293430 	eorcs	r3, r9, r0, lsr r4
  24:	342e3131 	strtcc	r3, [lr], #-305	; 0xfffffecf
  28:	4700302e 	strmi	r3, [r0, -lr, lsr #32]
  2c:	203a4343 	eorscs	r4, sl, r3, asr #6
  30:	6e694c28 	cdpvs	12, 6, cr4, cr9, cr8, {1}
  34:	206f7261 	rsbcs	r7, pc, r1, ror #4
  38:	20434347 	subcs	r4, r3, r7, asr #6
  3c:	2d392e34 	ldccs	14, cr2, [r9, #-208]!	; 0xffffff30
  40:	37313032 			; <UNDEFINED> instruction: 0x37313032
  44:	2931302e 	ldmdbcs	r1!, {r1, r2, r3, r5, ip, sp}
  48:	392e3420 	stmdbcc	lr!, {r5, sl, ip, sp}
  4c:	Address 0x000000000000004c is out of bounds.


Disassembly of section .debug_line:

00000000 <.debug_line>:
       0:	000000a7 	andeq	r0, r0, r7, lsr #1
       4:	00040005 	andeq	r0, r4, r5
       8:	0000002e 	andeq	r0, r0, lr, lsr #32
       c:	fb010102 	blx	4041e <shift+0x4041e>
      10:	01000d0e 	tsteq	r0, lr, lsl #26
      14:	00010101 	andeq	r0, r1, r1, lsl #2
      18:	00010000 	andeq	r0, r1, r0
      1c:	01010100 	mrseq	r0, (UNDEF: 17)
      20:	0000021f 	andeq	r0, r0, pc, lsl r2
      24:	001b0000 	andseq	r0, fp, r0
      28:	01020000 	mrseq	r0, (UNDEF: 2)
      2c:	020f021f 	andeq	r0, pc, #-268435455	; 0xf0000001
      30:	00000023 	andeq	r0, r0, r3, lsr #32
      34:	00002301 	andeq	r2, r0, r1, lsl #6
      38:	05000100 	streq	r0, [r0, #-256]	; 0xffffff00
      3c:	00000002 	andeq	r0, r0, r2
      40:	2f2f1a80 	svccs	0x002f1a80
      44:	2f2f2f2f 	svccs	0x002f2f2f
      48:	2f33342f 	svccs	0x0033342f
      4c:	2f2f2f2f 	svccs	0x002f2f2f
      50:	2f2f322f 	svccs	0x002f322f
      54:	362f2f2f 	strtcc	r2, [pc], -pc, lsr #30
      58:	2f2f2f2f 	svccs	0x002f2f2f
      5c:	2f2f2f31 	svccs	0x002f2f31
      60:	2f2f312f 	svccs	0x002f312f
      64:	31302f2f 	teqcc	r0, pc, lsr #30
      68:	2f312f2f 	svccs	0x00312f2f
      6c:	2f2f302f 	svccs	0x002f302f
      70:	32302f2f 	eorscc	r2, r0, #47, 30	; 0xbc
      74:	322f322f 	eorcc	r3, pc, #-268435454	; 0xf0000002
      78:	322f322f 	eorcc	r3, pc, #-268435454	; 0xf0000002
      7c:	302f332f 	eorcc	r3, pc, pc, lsr #6
      80:	2f30342f 	svccs	0x0030342f
      84:	2f303032 	svccs	0x00303032
      88:	2f2f302f 	svccs	0x002f302f
      8c:	302f302f 	eorcc	r3, pc, pc, lsr #32
      90:	2f332f2f 	svccs	0x00332f2f
      94:	2e7eea03 	vaddcs.f32	s29, s28, s6
      98:	2f2f2f2f 	svccs	0x002f2f2f
      9c:	032f2f2f 			; <UNDEFINED> instruction: 0x032f2f2f
      a0:	032f2e3e 			; <UNDEFINED> instruction: 0x032f2e3e
      a4:	02022e3d 	andeq	r2, r2, #976	; 0x3d0
      a8:	66010100 	strvs	r0, [r1], -r0, lsl #2
      ac:	05000000 	streq	r0, [r0, #-0]
      b0:	2e000400 	cfcpyscs	mvf0, mvf0
      b4:	02000000 	andeq	r0, r0, #0
      b8:	0efb0101 	cdpeq	1, 15, cr0, cr11, cr1, {0}
      bc:	0101000d 	tsteq	r1, sp
      c0:	00000101 	andeq	r0, r0, r1, lsl #2
      c4:	00000100 	andeq	r0, r0, r0, lsl #2
      c8:	1f010101 	svcne	0x00010101
      cc:	00000002 	andeq	r0, r0, r2
      d0:	00002b00 	andeq	r2, r0, r0, lsl #22
      d4:	1f010200 	svcne	0x00010200
      d8:	35020f02 	strcc	r0, [r2, #-3842]	; 0xfffff0fe
      dc:	01000000 	mrseq	r0, (UNDEF: 0)
      e0:	00000035 	andeq	r0, r0, r5, lsr r0
      e4:	02050001 	andeq	r0, r5, #1
      e8:	80000180 	andhi	r0, r0, r0, lsl #3
      ec:	0101f403 	tsteq	r1, r3, lsl #8	; <UNPREDICTABLE>
      f0:	2f2f2f2f 	svccs	0x002f2f2f
      f4:	02302f2f 	eorseq	r2, r0, #47, 30	; 0xbc
      f8:	2b03144e 	blcs	c5238 <shift+0xc5238>
      fc:	2f2f2f4a 	svccs	0x002f2f4a
     100:	2f2f2f2f 	svccs	0x002f2f2f
     104:	302f2f2f 	eorcc	r2, pc, pc, lsr #30
     108:	2f144e02 	svccs	0x00144e02
     10c:	2f30332f 	svccs	0x0030332f
     110:	01000202 	tsteq	r0, r2, lsl #4
     114:	0000fa01 	andeq	pc, r0, r1, lsl #20
     118:	a8000300 	stmdage	r0, {r8, r9}
     11c:	02000000 	andeq	r0, r0, #0
     120:	0d0efb01 	vstreq	d15, [lr, #-4]
     124:	01010100 	mrseq	r0, (UNDEF: 17)
     128:	00000001 	andeq	r0, r0, r1
     12c:	01000001 	tsteq	r0, r1
     130:	6a6f7270 	bvs	1bdcaf8 <shift+0x1bdcaf8>
     134:	00746365 	rsbseq	r6, r4, r5, ror #6
     138:	2f707362 	svccs	0x00707362
     13c:	616c6564 	cmnvs	ip, r4, ror #10
     140:	73620079 	cmnvc	r2, #121	; 0x79
     144:	61752f70 	cmnvs	r5, r0, ror pc
     148:	62007472 	andvs	r7, r0, #1912602624	; 0x72000000
     14c:	632f7073 			; <UNDEFINED> instruction: 0x632f7073
     150:	62006b6c 	andvs	r6, r0, #108, 22	; 0x1b000
     154:	692f7073 	stmdbvs	pc!, {r0, r1, r4, r5, r6, ip, sp, lr}	; <UNPREDICTABLE>
     158:	6400746e 	strvs	r7, [r0], #-1134	; 0xfffffb92
     15c:	63697665 	cmnvs	r9, #105906176	; 0x6500000
     160:	73007365 	movwvc	r7, #869	; 0x365
     164:	6f696474 	svcvs	0x00696474
     168:	636e692f 	cmnvs	lr, #770048	; 0xbc000
     16c:	6564756c 	strbvs	r7, [r4, #-1388]!	; 0xfffffa94
     170:	616d0000 	cmnvs	sp, r0
     174:	632e6e69 			; <UNDEFINED> instruction: 0x632e6e69
     178:	00000100 	andeq	r0, r0, r0, lsl #2
     17c:	5f707362 	svcpl	0x00707362
     180:	616c6564 	cmnvs	ip, r4, ror #10
     184:	00682e79 	rsbeq	r2, r8, r9, ror lr
     188:	62000002 	andvs	r0, r0, #2
     18c:	755f7073 	ldrbvc	r7, [pc, #-115]	; 121 <shift+0x121>
     190:	2e747261 	cdpcs	2, 7, cr7, cr4, cr1, {3}
     194:	00030068 	andeq	r0, r3, r8, rrx
     198:	70736200 	rsbsvc	r6, r3, r0, lsl #4
     19c:	6b6c635f 	blvs	1b18f20 <shift+0x1b18f20>
     1a0:	0400682e 	streq	r6, [r0], #-2094	; 0xfffff7d2
     1a4:	73620000 	cmnvc	r2, #0
     1a8:	6e695f70 	mcrvs	15, 3, r5, cr9, cr0, {3}
     1ac:	00682e74 	rsbeq	r2, r8, r4, ror lr
     1b0:	63000005 	movwvs	r0, #5
     1b4:	00682e63 	rsbeq	r2, r8, r3, ror #28
     1b8:	73000006 	movwvc	r0, #6
     1bc:	6f696474 	svcvs	0x00696474
     1c0:	0700682e 	streq	r6, [r0, -lr, lsr #16]
     1c4:	05000000 	streq	r0, [r0, #-0]
     1c8:	02050001 	andeq	r0, r5, #1
     1cc:	80000320 	andhi	r0, r0, r0, lsr #6
     1d0:	05010f03 	streq	r0, [r1, #-3843]	; 0xfffff0fd
     1d4:	06053e05 	streq	r3, [r5], -r5, lsl #28
     1d8:	4a1f052f 	bmi	7c169c <shift+0x7c169c>
     1dc:	052f0605 	streq	r0, [pc, #-1541]!	; fffffbdf <__bss_end+0x7fffada3>
     1e0:	06054a1f 			; <UNDEFINED> instruction: 0x06054a1f
     1e4:	4a1f052f 	bmi	7c16a8 <shift+0x7c16a8>
     1e8:	2f2f0505 	svccs	0x002f0505
     1ec:	0530322f 	ldreq	r3, [r0, #-559]!	; 0xfffffdd1
     1f0:	4505690e 	strmi	r6, [r5, #-2318]	; 0xfffff6f2
     1f4:	05580d03 	ldrbeq	r0, [r8, #-3331]	; 0xfffff2fd
     1f8:	11053c18 	tstne	r5, r8, lsl ip
     1fc:	00090521 	andeq	r0, r9, r1, lsr #10
     200:	6e010402 	cdpvs	4, 0, cr0, cr1, cr2, {0}
     204:	01040200 	mrseq	r0, R12_usr
     208:	0402004b 	streq	r0, [r2], #-75	; 0xffffffb5
     20c:	03025701 	movweq	r5, #9985	; 0x2701
     210:	fb010100 	blx	4061a <shift+0x4061a>
     214:	03000000 	movweq	r0, #0
     218:	00004600 	andeq	r4, r0, r0, lsl #12
     21c:	fb010200 	blx	40a26 <shift+0x40a26>
     220:	01000d0e 	tsteq	r0, lr, lsl #26
     224:	00010101 	andeq	r0, r1, r1, lsl #2
     228:	00010000 	andeq	r0, r1, r0
     22c:	73620100 	cmnvc	r2, #0, 2
     230:	6c632f70 	stclvs	15, cr2, [r3], #-448	; 0xfffffe40
     234:	6564006b 	strbvs	r0, [r4, #-107]!	; 0xffffff95
     238:	65636976 	strbvs	r6, [r3, #-2422]!	; 0xfffff68a
     23c:	62000073 	andvs	r0, r0, #115	; 0x73
     240:	635f7073 	cmpvs	pc, #115	; 0x73
     244:	632e6b6c 			; <UNDEFINED> instruction: 0x632e6b6c
     248:	00000100 	andeq	r0, r0, r0, lsl #2
     24c:	682e6363 	stmdavs	lr!, {r0, r1, r5, r6, r8, r9, sp, lr}
     250:	00000200 	andeq	r0, r0, r0, lsl #4
     254:	4d49434d 	stclmi	3, cr4, [r9, #-308]	; 0xfffffecc
     258:	32593658 	subscc	r3, r9, #88, 12	; 0x5800000
     25c:	0200682e 	andeq	r6, r0, #3014656	; 0x2e0000
     260:	05000000 	streq	r0, [r0, #-0]
     264:	02050001 	andeq	r0, r5, #1
     268:	800003a0 	andhi	r0, r0, r0, lsr #7
     26c:	2f050519 	svccs	0x00050519
     270:	054a0f05 	strbeq	r0, [sl, #-3845]	; 0xfffff0fb
     274:	0f053d05 	svceq	0x00053d05
     278:	3d05054a 	cfstr32cc	mvfx0, [r5, #-296]	; 0xfffffed8
     27c:	054a0f05 	strbeq	r0, [sl, #-3845]	; 0xfffff0fb
     280:	0f053d05 	svceq	0x00053d05
     284:	3d05054a 	cfstr32cc	mvfx0, [r5, #-296]	; 0xfffffed8
     288:	054a0f05 	strbeq	r0, [sl, #-3845]	; 0xfffff0fb
     28c:	0f053d05 	svceq	0x00053d05
     290:	3d05054a 	cfstr32cc	mvfx0, [r5, #-296]	; 0xfffffed8
     294:	054a0f05 	strbeq	r0, [sl, #-3845]	; 0xfffff0fb
     298:	055c3d01 	ldrbeq	r3, [ip, #-3329]	; 0xfffff2ff
     29c:	0f053d12 	svceq	0x00053d12
     2a0:	052e0a03 	streq	r0, [lr, #-2563]!	; 0xfffff5fd
     2a4:	08055824 	stmdaeq	r5, {r2, r5, fp, ip, lr}
     2a8:	3013052e 	andscc	r0, r3, lr, lsr #10
     2ac:	030f05bb 	movweq	r0, #62907	; 0xf5bb
     2b0:	1905ba0a 	stmdbne	r5, {r1, r3, r9, fp, ip, sp, pc}
     2b4:	3d0f054a 	cfstr32cc	mvfx0, [pc, #-296]	; 194 <shift+0x194>
     2b8:	05bb0805 	ldreq	r0, [fp, #2053]!	; 0x805
     2bc:	15054a10 	strne	r4, [r5, #-2576]	; 0xfffff5f0
     2c0:	4a090531 	bmi	24178c <shift+0x24178c>
     2c4:	4b4b4b3d 	blmi	12d2fc0 <shift+0x12d2fc0>
     2c8:	4b0f054b 	blmi	3c17fc <shift+0x3c17fc>
     2cc:	054a1905 	strbeq	r1, [sl, #-2309]	; 0xfffff6fb
     2d0:	15053f09 	strne	r3, [r5, #-3849]	; 0xfffff0f7
     2d4:	4a09052f 	bmi	241798 <shift+0x241798>
     2d8:	4b4b4b3d 	blmi	12d2fd4 <shift+0x12d2fd4>
     2dc:	4b0f054b 	blmi	3c1810 <shift+0x3c1810>
     2e0:	054a1905 	strbeq	r1, [sl, #-2309]	; 0xfffff6fb
     2e4:	bbbb3f10 	bllt	feecff2c <__bss_end+0x7eecb0f0>
     2e8:	05bb0b05 	ldreq	r0, [fp, #2821]!	; 0xb05
     2ec:	0402000f 	streq	r0, [r2], #-15
     2f0:	18052001 	stmdane	r5, {r0, sp}
     2f4:	01040200 	mrseq	r0, R12_usr
     2f8:	000c0558 	andeq	r0, ip, r8, asr r5
     2fc:	2e010402 	cdpcs	4, 0, cr0, cr1, cr2, {0}
     300:	11031005 	tstne	r3, r5
     304:	1105bb2e 	tstne	r5, lr, lsr #22
     308:	0105bbbd 			; <UNDEFINED> instruction: 0x0105bbbd
     30c:	000602bb 			; <UNDEFINED> instruction: 0x000602bb
     310:	00ea0101 	rsceq	r0, sl, r1, lsl #2
     314:	00030000 	andeq	r0, r3, r0
     318:	0000006d 	andeq	r0, r0, sp, rrx
     31c:	0efb0102 	cdpeq	1, 15, cr0, cr11, cr2, {0}
     320:	0101000d 	tsteq	r1, sp
     324:	00000101 	andeq	r0, r0, r1, lsl #2
     328:	00000100 	andeq	r0, r0, r0, lsl #2
     32c:	76656401 	strbtvc	r6, [r5], -r1, lsl #8
     330:	73656369 	cmnvc	r5, #-1543503871	; 0xa4000001
     334:	70736200 	rsbsvc	r6, r3, r0, lsl #4
     338:	64656c2f 	strbtvs	r6, [r5], #-3119	; 0xfffff3d1
     33c:	70736200 	rsbsvc	r6, r3, r0, lsl #4
     340:	6970672f 	ldmdbvs	r0!, {r0, r1, r2, r3, r5, r8, r9, sl, sp, lr}^
     344:	6600006f 	strvs	r0, [r0], -pc, rrx
     348:	695f6c73 	ldmdbvs	pc, {r0, r1, r4, r5, r6, sl, fp, sp, lr}^	; <UNPREDICTABLE>
     34c:	78756d6f 	ldmdavc	r5!, {r0, r1, r2, r3, r5, r6, r8, sl, fp, sp, lr}^
     350:	00682e63 	rsbeq	r2, r8, r3, ror #28
     354:	62000001 	andvs	r0, r0, #1
     358:	6c5f7073 	mrrcvs	0, 7, r7, pc, cr3	; <UNPREDICTABLE>
     35c:	632e6465 			; <UNDEFINED> instruction: 0x632e6465
     360:	00000200 	andeq	r0, r0, r0, lsl #4
     364:	4d49434d 	stclmi	3, cr4, [r9, #-308]	; 0xfffffecc
     368:	32593658 	subscc	r3, r9, #88, 12	; 0x5800000
     36c:	0100682e 	tsteq	r0, lr, lsr #16
     370:	63630000 	cmnvs	r3, #0
     374:	0100682e 	tsteq	r0, lr, lsr #16
     378:	73620000 	cmnvc	r2, #0
     37c:	70675f70 	rsbvc	r5, r7, r0, ror pc
     380:	682e6f69 	stmdavs	lr!, {r0, r3, r5, r6, r8, r9, sl, fp, sp, lr}
     384:	00000300 	andeq	r0, r0, r0, lsl #6
     388:	00010500 	andeq	r0, r1, r0, lsl #10
     38c:	05e20205 	strbeq	r0, [r2, #517]!	; 0x205
     390:	a9038000 	stmdbge	r3, {pc}
     394:	09050108 	stmdbeq	r5, {r3, r8}
     398:	3c330576 	cfldr32cc	mvfx0, [r3], #-472	; 0xfffffe28
     39c:	05490705 	strbeq	r0, [r9, #-1797]	; 0xfffff8fb
     3a0:	29052131 	stmdbcs	r5, {r0, r4, r5, r8, sp}
     3a4:	2308051f 	movwcs	r0, #34079	; 0x851f
     3a8:	053e0b05 	ldreq	r0, [lr, #-2821]!	; 0xfffff4fb
     3ac:	2f052031 	svccs	0x00052031
     3b0:	2201053c 	andcs	r0, r1, #60, 10	; 0xf000000
     3b4:	05661803 	strbeq	r1, [r6, #-2051]!	; 0xfffff7fd
     3b8:	0b057508 	bleq	15d7e0 <shift+0x15d7e0>
     3bc:	2030053e 	eorscs	r0, r0, lr, lsr r5
     3c0:	04300105 	ldrteq	r0, [r0], #-261	; 0xfffffefb
     3c4:	77b90302 	ldrvc	r0, [r9, r2, lsl #6]!
     3c8:	3e050566 	cfsh32cc	mvfx0, mvfx5, #54
     3cc:	05e40c03 	strbeq	r0, [r4, #3075]!	; 0xc03
     3d0:	0f05f411 	svceq	0x0005f411
     3d4:	bb0105bc 	bllt	41acc <shift+0x41acc>
     3d8:	320f0544 	andcc	r0, pc, #68, 10	; 0x11000000
     3dc:	60bb0105 	adcsvs	r0, fp, r5, lsl #2
     3e0:	05320f05 	ldreq	r0, [r2, #-3845]!	; 0xfffff0fb
     3e4:	2a05bb01 	bcs	16eff0 <shift+0x16eff0>
     3e8:	5908055a 	stmdbpl	r8, {r1, r3, r4, r6, r8, sl}
     3ec:	05820705 	streq	r0, [r2, #1797]	; 0x705
     3f0:	01052f09 	tsteq	r5, r9, lsl #30
     3f4:	1e090586 	cfsh32ne	mvfx0, mvfx9, #-58
     3f8:	02840105 	addeq	r0, r4, #1073741825	; 0x40000001
     3fc:	01010004 	tsteq	r1, r4
     400:	000001b1 			; <UNDEFINED> instruction: 0x000001b1
     404:	006d0003 	rsbeq	r0, sp, r3
     408:	01020000 	mrseq	r0, (UNDEF: 2)
     40c:	000d0efb 	strdeq	r0, [sp], -fp
     410:	01010101 	tsteq	r1, r1, lsl #2
     414:	01000000 	mrseq	r0, (UNDEF: 0)
     418:	62010000 	andvs	r0, r1, #0
     41c:	642f7073 	strtvs	r7, [pc], #-115	; 424 <shift+0x424>
     420:	79616c65 	stmdbvc	r1!, {r0, r2, r5, r6, sl, fp, sp, lr}^
     424:	76656400 	strbtvc	r6, [r5], -r0, lsl #8
     428:	73656369 	cmnvc	r5, #-1543503871	; 0xa4000001
     42c:	70736200 	rsbsvc	r6, r3, r0, lsl #4
     430:	746e692f 	strbtvc	r6, [lr], #-2351	; 0xfffff6d1
     434:	73620000 	cmnvc	r2, #0
     438:	65645f70 	strbvs	r5, [r4, #-3952]!	; 0xfffff090
     43c:	2e79616c 	rpwcsez	f6, f1, #4.0
     440:	00010063 	andeq	r0, r1, r3, rrx
     444:	726f6300 	rsbvc	r6, pc, #0, 6
     448:	61635f65 	cmnvs	r3, r5, ror #30
     44c:	00682e37 	rsbeq	r2, r8, r7, lsr lr
     450:	63000002 	movwvs	r0, #2
     454:	00682e63 	rsbeq	r2, r8, r3, ror #28
     458:	4d000002 	stcmi	0, cr0, [r0, #-8]
     45c:	584d4943 	stmdapl	sp, {r0, r1, r6, r8, fp, lr}^
     460:	2e325936 			; <UNDEFINED> instruction: 0x2e325936
     464:	00020068 	andeq	r0, r2, r8, rrx
     468:	70736200 	rsbsvc	r6, r3, r0, lsl #4
     46c:	746e695f 	strbtvc	r6, [lr], #-2399	; 0xfffff6a1
     470:	0300682e 	movweq	r6, #2094	; 0x82e
     474:	05000000 	streq	r0, [r0, #-0]
     478:	02050001 	andeq	r0, r5, #1
     47c:	80000754 	andhi	r0, r0, r4, asr r7
     480:	05010903 	streq	r0, [r1, #-2307]	; 0xfffff6fd
     484:	0b052f06 	bleq	14c0a4 <shift+0x14c0a4>
     488:	3006054a 	andcc	r0, r6, sl, asr #10
     48c:	054a0b05 	strbeq	r0, [sl, #-2821]	; 0xfffff4fb
     490:	0d053d07 	stceq	13, cr3, [r5, #-28]	; 0xffffffe4
     494:	01040200 	mrseq	r0, R12_usr
     498:	00080520 	andeq	r0, r8, r0, lsr #10
     49c:	58010402 	stmdapl	r1, {r1, sl}
     4a0:	09030605 	stmdbeq	r3, {r0, r2, r9, sl}
     4a4:	4a0b054a 	bmi	2c19d4 <shift+0x2c19d4>
     4a8:	05350605 	ldreq	r0, [r5, #-1541]!	; 0xfffff9fb
     4ac:	06054a0b 	streq	r4, [r5], -fp, lsl #20
     4b0:	052e0903 	streq	r0, [lr, #-2307]!	; 0xfffff6fd
     4b4:	0b054a0f 	bleq	152cf8 <shift+0x152cf8>
     4b8:	0301053e 	movweq	r0, #5438	; 0x153e
     4bc:	1603ba22 	strne	fp, [r3], -r2, lsr #20
     4c0:	4c100558 	cfldr32mi	mvfx0, [r0], {88}	; 0x58
     4c4:	05300f05 	ldreq	r0, [r0, #-3845]!	; 0xfffff0fb
     4c8:	10054a09 	andne	r4, r5, r9, lsl #20
     4cc:	4a0a0531 	bmi	281998 <shift+0x281998>
     4d0:	052f0505 	streq	r0, [pc, #-1285]!	; ffffffd3 <__bss_end+0x7fffb197>
     4d4:	19054c06 	stmdbne	r5, {r1, r2, sl, fp, lr}
     4d8:	3c0f054b 	cfstr32cc	mvfx0, [pc], {75}	; 0x4b
     4dc:	054c2405 	strbeq	r2, [ip, #-1029]	; 0xfffffbfb
     4e0:	0b053c0f 	bleq	14f524 <shift+0x14f524>
     4e4:	2f06054b 	svccs	0x0006054b
     4e8:	78030a05 	stmdavc	r3, {r0, r2, r9, fp}
     4ec:	0304054a 	movweq	r0, #17738	; 0x454a
     4f0:	01052009 	tsteq	r5, r9
     4f4:	06056e23 	streq	r6, [r5], -r3, lsr #28
     4f8:	2f07054b 	svccs	0x0007054b
     4fc:	052e0205 	streq	r0, [lr, #-517]!	; 0xfffffdfb
     500:	04020003 	streq	r0, [r2], #-3
     504:	17052203 	strne	r2, [r5, -r3, lsl #4]
     508:	03040200 	movweq	r0, #16896	; 0x4200
     50c:	000c0548 	andeq	r0, ip, r8, asr #10
     510:	3c010402 	cfstrscc	mvf0, [r1], {2}
     514:	604e0105 	subvs	r0, lr, r5, lsl #2
     518:	054b0705 	strbeq	r0, [fp, #-1797]	; 0xfffff8fb
     51c:	04020009 	streq	r0, [r2], #-9
     520:	08052001 	stmdaeq	r5, {r0, sp}
     524:	01040200 	mrseq	r0, R12_usr
     528:	2f01053c 	svccs	0x0001053c
     52c:	05740903 	ldrbeq	r0, [r4, #-2307]!	; 0xfffff6fd
     530:	03054b07 	movweq	r4, #23303	; 0x5b07
     534:	48090522 	stmdami	r9, {r1, r5, r8, sl}
     538:	053c0805 	ldreq	r0, [ip, #-2053]!	; 0xfffff7fb
     53c:	055c3201 	ldrbeq	r3, [ip, #-513]	; 0xfffffdff
     540:	0b054b06 	bleq	153160 <shift+0x153160>
     544:	3006054a 	andcc	r0, r6, sl, asr #10
     548:	054a0b05 	strbeq	r0, [sl, #-2821]	; 0xfffff4fb
     54c:	0d053d07 	stceq	13, cr3, [r5, #-28]	; 0xffffffe4
     550:	01040200 	mrseq	r0, R12_usr
     554:	00080520 	andeq	r0, r8, r0, lsr #10
     558:	58010402 	stmdapl	r1, {r1, sl}
     55c:	09030605 	stmdbeq	r3, {r0, r2, r9, sl}
     560:	4a0b054a 	bmi	2c1a90 <shift+0x2c1a90>
     564:	05350605 	ldreq	r0, [r5, #-1541]!	; 0xfffff9fb
     568:	05304a0b 	ldreq	r4, [r0, #-2571]!	; 0xfffff5f5
     56c:	0f05c106 	svceq	0x0005c106
     570:	340b054a 	strcc	r0, [fp], #-1354	; 0xfffffab6
     574:	0a050204 	beq	140d8c <shift+0x140d8c>
     578:	d602ce03 	strle	ip, [r2], -r3, lsl #28
     57c:	f8032e05 			; <UNDEFINED> instruction: 0xf8032e05
     580:	0e055800 	cdpeq	8, 0, cr5, cr5, cr0, {0}
     584:	214b052e 	cmpcs	fp, lr, lsr #10
     588:	05206405 	streq	r6, [r0, #-1029]!	; 0xfffffbfb
     58c:	2f052e16 	svccs	0x00052e16
     590:	20460520 	subcs	r0, r6, r0, lsr #10
     594:	052e3505 	streq	r3, [lr, #-1285]!	; 0xfffffafb
     598:	01045901 	tsteq	r4, r1, lsl #18
     59c:	bf030205 	svclt	0x00030205
     5a0:	0521207c 	streq	r2, [r1, #-124]!	; 0xffffff84
     5a4:	056b7701 	strbeq	r7, [fp, #-1793]!	; 0xfffff8ff
     5a8:	0b053309 	bleq	14d1d4 <shift+0x14d1d4>
     5ac:	bb01055d 	bllt	41b28 <shift+0x41b28>
     5b0:	01000502 	tsteq	r0, r2, lsl #10
     5b4:	0000c301 	andeq	ip, r0, r1, lsl #6
     5b8:	58000300 	stmdapl	r0, {r8, r9}
     5bc:	02000000 	andeq	r0, r0, #0
     5c0:	0d0efb01 	vstreq	d15, [lr, #-4]
     5c4:	01010100 	mrseq	r0, (UNDEF: 17)
     5c8:	00000001 	andeq	r0, r0, r1
     5cc:	01000001 	tsteq	r0, r1
     5d0:	69766564 	ldmdbvs	r6!, {r2, r5, r6, r8, sl, sp, lr}^
     5d4:	00736563 	rsbseq	r6, r3, r3, ror #10
     5d8:	2f707362 	svccs	0x00707362
     5dc:	70656562 	rsbvc	r6, r5, r2, ror #10
     5e0:	73660000 	cmnvc	r6, #0
     5e4:	6f695f6c 	svcvs	0x00695f6c
     5e8:	6378756d 	cmnvs	r8, #457179136	; 0x1b400000
     5ec:	0100682e 	tsteq	r0, lr, lsr #16
     5f0:	73620000 	cmnvc	r2, #0
     5f4:	65625f70 	strbvs	r5, [r2, #-3952]!	; 0xfffff090
     5f8:	632e7065 			; <UNDEFINED> instruction: 0x632e7065
     5fc:	00000200 	andeq	r0, r0, r0, lsl #4
     600:	4d49434d 	stclmi	3, cr4, [r9, #-308]	; 0xfffffecc
     604:	32593658 	subscc	r3, r9, #88, 12	; 0x5800000
     608:	0100682e 	tsteq	r0, lr, lsr #16
     60c:	63630000 	cmnvs	r3, #0
     610:	0100682e 	tsteq	r0, lr, lsr #16
     614:	05000000 	streq	r0, [r0, #-0]
     618:	02050001 	andeq	r0, r5, #1
     61c:	800009b8 			; <UNDEFINED> instruction: 0x800009b8
     620:	0108a903 	tsteq	r8, r3, lsl #18
     624:	05760905 	ldrbeq	r0, [r6, #-2309]!	; 0xfffff6fb
     628:	07053c33 	smladxeq	r5, r3, ip, r3
     62c:	21310549 	teqcs	r1, r9, asr #10
     630:	051f2905 	ldreq	r2, [pc, #-2309]	; fffffd33 <__bss_end+0x7fffaef7>
     634:	0b052308 	bleq	14925c <shift+0x14925c>
     638:	2031053e 	eorscs	r0, r1, lr, lsr r5
     63c:	053c2f05 	ldreq	r2, [ip, #-3845]!	; 0xfffff0fb
     640:	18032201 	stmdane	r3, {r0, r9, sp}
     644:	75080566 	strvc	r0, [r8, #-1382]	; 0xfffffa9a
     648:	053e0b05 	ldreq	r0, [lr, #-2821]!	; 0xfffff4fb
     64c:	01052030 	tsteq	r5, r0, lsr r0
     650:	03020430 	movweq	r0, #9264	; 0x2430
     654:	056677ba 	strbeq	r7, [r6, #-1978]!	; 0xfffff846
     658:	05d93e05 	ldrbeq	r3, [r9, #3589]	; 0xe05
     65c:	0f05e711 	svceq	0x0005e711
     660:	bb0105bd 	bllt	41d5c <shift+0x41d5c>
     664:	4b070544 	blmi	1c1b7c <shift+0x1c1b7c>
     668:	053d0f05 	ldreq	r0, [sp, #-3845]!	; 0xfffff0fb
     66c:	0c05bd01 	stceq	13, cr11, [r5], {1}
     670:	3d0f051e 	cfstr32cc	mvfx0, [pc, #-120]	; 600 <shift+0x600>
     674:	02bb0105 	adcseq	r0, fp, #1073741825	; 0x40000001
     678:	01010006 	tsteq	r1, r6
     67c:	00000197 	muleq	r0, r7, r1
     680:	00560003 	subseq	r0, r6, r3
     684:	01020000 	mrseq	r0, (UNDEF: 2)
     688:	000d0efb 	strdeq	r0, [sp], -fp
     68c:	01010101 	tsteq	r1, r1, lsl #2
     690:	01000000 	mrseq	r0, (UNDEF: 0)
     694:	62010000 	andvs	r0, r1, #0
     698:	672f7073 			; <UNDEFINED> instruction: 0x672f7073
     69c:	006f6970 	rsbeq	r6, pc, r0, ror r9	; <UNPREDICTABLE>
     6a0:	69766564 	ldmdbvs	r6!, {r2, r5, r6, r8, sl, sp, lr}^
     6a4:	00736563 	rsbseq	r6, r3, r3, ror #10
     6a8:	70736200 	rsbsvc	r6, r3, r0, lsl #4
     6ac:	6970675f 	ldmdbvs	r0!, {r0, r1, r2, r3, r4, r6, r8, r9, sl, sp, lr}^
     6b0:	00632e6f 	rsbeq	r2, r3, pc, ror #28
     6b4:	63000001 	movwvs	r0, #1
     6b8:	00682e63 	rsbeq	r2, r8, r3, ror #28
     6bc:	4d000002 	stcmi	0, cr0, [r0, #-8]
     6c0:	584d4943 	stmdapl	sp, {r0, r1, r6, r8, fp, lr}^
     6c4:	2e325936 			; <UNDEFINED> instruction: 0x2e325936
     6c8:	00020068 	andeq	r0, r2, r8, rrx
     6cc:	70736200 	rsbsvc	r6, r3, r0, lsl #4
     6d0:	6970675f 	ldmdbvs	r0!, {r0, r1, r2, r3, r4, r6, r8, r9, sl, sp, lr}^
     6d4:	00682e6f 	rsbeq	r2, r8, pc, ror #28
     6d8:	00000001 	andeq	r0, r0, r1
     6dc:	05002b05 	streq	r2, [r0, #-2821]	; 0xfffff4fb
     6e0:	000ae402 	andeq	lr, sl, r2, lsl #8
     6e4:	11051480 	smlabbne	r5, r0, r4, r1
     6e8:	2e160559 	mrccs	5, 0, r0, cr6, cr9, {2}
     6ec:	053c1e05 	ldreq	r1, [ip, #-3589]!	; 0xfffff1fb
     6f0:	38052f01 	stmdacc	r5, {r0, r8, r9, sl, fp, sp}
     6f4:	67070568 	strvs	r0, [r7, -r8, ror #10]
     6f8:	053d1205 	ldreq	r1, [sp, #-517]!	; 0xfffffdfb
     6fc:	15052e1b 	strne	r2, [r5, #-3611]	; 0xfffff1e5
     700:	2012054a 	andscs	r0, r2, sl, asr #10
     704:	05400105 	strbeq	r0, [r0, #-261]	; 0xfffffefb
     708:	19051e12 	stmdbne	r5, {r1, r4, r9, sl, fp, ip}
     70c:	4a12052e 	bmi	481bcc <shift+0x481bcc>
     710:	053e0105 	ldreq	r0, [lr, #-261]!	; 0xfffffefb
     714:	0e056844 	cdpeq	8, 0, cr6, cr5, cr4, {2}
     718:	2e070568 	cfsh32cs	mvfx0, mvfx7, #56
     71c:	052f1405 	streq	r1, [pc, #-1029]!	; 31f <shift+0x31f>
     720:	17052e1b 	smladne	r5, fp, lr, r2
     724:	2014054a 	andscs	r0, r4, sl, asr #10
     728:	2e1a054e 	cfmac32cs	mvfx0, mvfx10, mvfx14
     72c:	054a1405 	strbeq	r1, [sl, #-1029]	; 0xfffffbfb
     730:	09053e28 	stmdbeq	r5, {r3, r5, r9, sl, fp, ip, sp}
     734:	5b0e052e 	blpl	381bf4 <shift+0x381bf4>
     738:	052e0705 	streq	r0, [lr, #-1797]!	; 0xfffff8fb
     73c:	0402001f 	streq	r0, [r2], #-31	; 0xffffffe1
     740:	01052e01 	tsteq	r5, r1, lsl #28
     744:	4a0a0375 	bmi	281520 <shift+0x281520>
     748:	056a0b05 	strbeq	r0, [sl, #-2821]!	; 0xfffff4fb
     74c:	19053011 	stmdbne	r5, {r0, r4, ip, sp}
     750:	4a14052e 	bmi	501c10 <shift+0x501c10>
     754:	05201105 	streq	r1, [r0, #-261]!	; 0xfffffefb
     758:	07053e04 	streq	r3, [r5, -r4, lsl #28]
     75c:	0c054e3e 	stceq	14, cr4, [r5], {62}	; 0x3e
     760:	3e02053d 	mcrcc	5, 0, r0, cr2, cr13, {1}
     764:	3f080905 	svccc	0x00080905
     768:	052e1705 	streq	r1, [lr, #-1797]!	; 0xfffff8fb
     76c:	0c052e11 	stceq	14, cr2, [r5], {17}
     770:	2009053c 	andcs	r0, r9, ip, lsr r5
     774:	053d0405 	ldreq	r0, [sp, #-1029]!	; 0xfffffbfb
     778:	1f05220c 	svcne	0x0005220c
     77c:	2e19052e 	cfmul64cs	mvdx0, mvdx9, mvdx14
     780:	053c1405 	ldreq	r1, [ip, #-1029]!	; 0xfffffbfb
     784:	3a052011 	bcc	1487d0 <shift+0x1487d0>
     788:	2e340520 	cfabs64cs	mvdx0, mvdx4
     78c:	053c2e05 	ldreq	r2, [ip, #-3589]!	; 0xfffff1fb
     790:	04052009 	streq	r2, [r5], #-9
     794:	220c052f 	andcs	r0, ip, #197132288	; 0xbc00000
     798:	052e1f05 	streq	r1, [lr, #-3845]!	; 0xfffff0fb
     79c:	14052e19 	strne	r2, [r5], #-3609	; 0xfffff1e7
     7a0:	2011053c 	andscs	r0, r1, ip, lsr r5
     7a4:	05203a05 	streq	r3, [r0, #-2565]!	; 0xfffff5fb
     7a8:	2e052e34 	mcrcs	14, 0, r2, cr5, cr4, {1}
     7ac:	2009053c 	andcs	r0, r9, ip, lsr r5
     7b0:	052f0405 	streq	r0, [pc, #-1029]!	; 3b3 <shift+0x3b3>
     7b4:	16052209 	strne	r2, [r5], -r9, lsl #4
     7b8:	2e10052e 	cfmul64cs	mvdx0, mvdx0, mvdx14
     7bc:	053c0905 	ldreq	r0, [ip, #-2309]!	; 0xfffff6fb
     7c0:	13053d04 	movwne	r3, #23812	; 0x5d04
     7c4:	2e1a0522 	cfmul64cs	mvdx0, mvdx10, mvdx2
     7c8:	054a1305 	strbeq	r1, [sl, #-773]	; 0xfffffcfb
     7cc:	05223d04 	streq	r3, [r2, #-3332]!	; 0xfffff2fc
     7d0:	09032201 	stmdbeq	r3, {r0, r9, sp}
     7d4:	590f0566 	stmdbpl	pc, {r1, r2, r5, r6, r8, sl}	; <UNPREDICTABLE>
     7d8:	052e1505 	streq	r1, [lr, #-1285]!	; 0xfffffafb
     7dc:	01054a0f 	tsteq	r5, pc, lsl #20
     7e0:	6609033d 			; <UNDEFINED> instruction: 0x6609033d
     7e4:	05590f05 	ldrbeq	r0, [r9, #-3845]	; 0xfffff0fb
     7e8:	12052e16 	andne	r2, r5, #352	; 0x160
     7ec:	200f054a 	andcs	r0, pc, sl, asr #10
     7f0:	033d0105 	teqeq	sp, #1073741825	; 0x40000001
     7f4:	0f056609 	svceq	0x00056609
     7f8:	2e150559 	mrccs	5, 0, r0, cr5, cr9, {2}
     7fc:	054a0f05 	strbeq	r0, [sl, #-3845]	; 0xfffff0fb
     800:	05693d01 	strbeq	r3, [r9, #-3329]!	; 0xfffff2ff
     804:	1605590f 	strne	r5, [r5], -pc, lsl #18
     808:	4a12052e 	bmi	481cc8 <shift+0x481cc8>
     80c:	05200f05 	streq	r0, [r0, #-3845]!	; 0xfffff0fb
     810:	06023d01 	streq	r3, [r2], -r1, lsl #26
     814:	2e010100 	adfcss	f0, f1, f0
     818:	03000001 	movweq	r0, #1
     81c:	00009300 	andeq	r9, r0, r0, lsl #6
     820:	fb010200 	blx	4102a <shift+0x4102a>
     824:	01000d0e 	tsteq	r0, lr, lsl #26
     828:	00010101 	andeq	r0, r1, r1, lsl #2
     82c:	00010000 	andeq	r0, r1, r0
     830:	65640100 	strbvs	r0, [r4, #-256]!	; 0xffffff00
     834:	65636976 	strbvs	r6, [r3, #-2422]!	; 0xfffff68a
     838:	73620073 	cmnvc	r2, #115	; 0x73
     83c:	656b2f70 	strbvs	r2, [fp, #-3952]!	; 0xfffff090
     840:	73620079 	cmnvc	r2, #121	; 0x79
     844:	70672f70 	rsbvc	r2, r7, r0, ror pc
     848:	62006f69 	andvs	r6, r0, #420	; 0x1a4
     84c:	642f7073 	strtvs	r7, [pc], #-115	; 854 <shift+0x854>
     850:	79616c65 	stmdbvc	r1!, {r0, r2, r5, r6, sl, fp, sp, lr}^
     854:	73660000 	cmnvc	r6, #0
     858:	6f695f6c 	svcvs	0x00695f6c
     85c:	6378756d 	cmnvs	r8, #457179136	; 0x1b400000
     860:	0100682e 	tsteq	r0, lr, lsr #16
     864:	73620000 	cmnvc	r2, #0
     868:	656b5f70 	strbvs	r5, [fp, #-3952]!	; 0xfffff090
     86c:	00632e79 	rsbeq	r2, r3, r9, ror lr
     870:	63000002 	movwvs	r0, #2
     874:	00682e63 	rsbeq	r2, r8, r3, ror #28
     878:	4d000001 	stcmi	0, cr0, [r0, #-4]
     87c:	584d4943 	stmdapl	sp, {r0, r1, r6, r8, fp, lr}^
     880:	2e325936 			; <UNDEFINED> instruction: 0x2e325936
     884:	00010068 	andeq	r0, r1, r8, rrx
     888:	70736200 	rsbsvc	r6, r3, r0, lsl #4
     88c:	6970675f 	ldmdbvs	r0!, {r0, r1, r2, r3, r4, r6, r8, r9, sl, sp, lr}^
     890:	00682e6f 	rsbeq	r2, r8, pc, ror #28
     894:	62000003 	andvs	r0, r0, #3
     898:	6b5f7073 	blvs	17dca6c <shift+0x17dca6c>
     89c:	682e7965 	stmdavs	lr!, {r0, r2, r5, r6, r8, fp, ip, sp, lr}
     8a0:	00000200 	andeq	r0, r0, r0, lsl #4
     8a4:	5f707362 	svcpl	0x00707362
     8a8:	616c6564 	cmnvs	ip, r4, ror #10
     8ac:	00682e79 	rsbeq	r2, r8, r9, ror lr
     8b0:	00000004 	andeq	r0, r0, r4
     8b4:	05000105 	streq	r0, [r0, #-261]	; 0xfffffefb
     8b8:	000d5802 	andeq	r5, sp, r2, lsl #16
     8bc:	08a90380 	stmiaeq	r9!, {r7, r8, r9}
     8c0:	76090501 	strvc	r0, [r9], -r1, lsl #10
     8c4:	053c3305 	ldreq	r3, [ip, #-773]!	; 0xfffffcfb
     8c8:	31054907 	tstcc	r5, r7, lsl #18
     8cc:	1f290521 	svcne	0x00290521
     8d0:	05230805 	streq	r0, [r3, #-2053]!	; 0xfffff7fb
     8d4:	31053e0b 	tstcc	r5, fp, lsl #28
     8d8:	3c2f0520 	cfstr32cc	mvfx0, [pc], #-128	; 860 <shift+0x860>
     8dc:	03220105 			; <UNDEFINED> instruction: 0x03220105
     8e0:	08056618 	stmdaeq	r5, {r3, r4, r9, sl, sp, lr}
     8e4:	3e0b0575 	cfrshl64cc	mvdx11, mvdx5, r0
     8e8:	05203005 	streq	r3, [r0, #-5]!
     8ec:	02043001 	andeq	r3, r4, #1
     8f0:	b4031405 	strlt	r1, [r3], #-1029	; 0xfffffbfb
     8f4:	05056677 	streq	r6, [r5, #-1655]	; 0xfffff989
     8f8:	1a05e53e 	bne	179df8 <shift+0x179df8>
     8fc:	2f1e05f5 	svccs	0x001e05f5
     900:	052f0505 	streq	r0, [pc, #-1285]!	; 403 <shift+0x403>
     904:	17059101 	strne	r9, [r5, -r1, lsl #2]
     908:	3d11054d 	cfldr32cc	mvfx0, [r1, #-308]	; 0xfffffecc
     90c:	05300805 	ldreq	r0, [r0, #-2053]!	; 0xfffff7fb
     910:	13053c07 	movwne	r3, #23559	; 0x5c07
     914:	01040200 	mrseq	r0, R12_usr
     918:	000f052e 	andeq	r0, pc, lr, lsr #10
     91c:	82010402 	andhi	r0, r1, #33554432	; 0x2000000
     920:	052f0905 	streq	r0, [pc, #-2309]!	; 23 <shift+0x23>
     924:	0b053d0d 	bleq	14fd60 <shift+0x14fd60>
     928:	2f140582 	svccs	0x00140582
     92c:	054b1105 	strbeq	r1, [fp, #-261]	; 0xfffffefb
     930:	0e052c0b 	cdpeq	12, 0, cr2, cr5, cr11, {0}
     934:	820d0524 	andhi	r0, sp, #36, 10	; 0x9000000
     938:	052f1005 	streq	r1, [pc, #-5]!	; 93b <shift+0x93b>
     93c:	0c054b0d 			; <UNDEFINED> instruction: 0x0c054b0d
     940:	21010530 	tstcs	r1, r0, lsr r5
     944:	01000a02 	tsteq	r0, r2, lsl #20
     948:	00014c01 	andeq	r4, r1, r1, lsl #24
     94c:	8a000300 	bhi	1554 <shift+0x1554>
     950:	02000000 	andeq	r0, r0, #0
     954:	0d0efb01 	vstreq	d15, [lr, #-4]
     958:	01010100 	mrseq	r0, (UNDEF: 17)
     95c:	00000001 	andeq	r0, r0, r1
     960:	01000001 	tsteq	r0, r1
     964:	2f707362 	svccs	0x00707362
     968:	00746e69 	rsbseq	r6, r4, r9, ror #28
     96c:	69766564 	ldmdbvs	r6!, {r2, r5, r6, r8, sl, sp, lr}^
     970:	00736563 	rsbseq	r6, r3, r3, ror #10
     974:	69647473 	stmdbvs	r4!, {r0, r1, r4, r5, r6, sl, ip, sp, lr}^
     978:	6e692f6f 	cdpvs	15, 6, cr2, cr9, cr15, {3}
     97c:	64756c63 	ldrbtvs	r6, [r5], #-3171	; 0xfffff39d
     980:	62000065 	andvs	r0, r0, #101	; 0x65
     984:	695f7073 	ldmdbvs	pc, {r0, r1, r4, r5, r6, ip, sp, lr}^	; <UNPREDICTABLE>
     988:	632e746e 			; <UNDEFINED> instruction: 0x632e746e
     98c:	00000100 	andeq	r0, r0, r0, lsl #2
     990:	65726f63 	ldrbvs	r6, [r2, #-3939]!	; 0xfffff09d
     994:	3761635f 			; <UNDEFINED> instruction: 0x3761635f
     998:	0200682e 	andeq	r6, r0, #3014656	; 0x2e0000
     99c:	63630000 	cmnvs	r3, #0
     9a0:	0200682e 	andeq	r6, r0, #3014656	; 0x2e0000
     9a4:	73660000 	cmnvc	r6, #0
     9a8:	6f635f6c 	svcvs	0x00635f6c
     9ac:	6e6f6d6d 	cdpvs	13, 6, cr6, cr15, cr13, {3}
     9b0:	0200682e 	andeq	r6, r0, #3014656	; 0x2e0000
     9b4:	434d0000 	movtmi	r0, #53248	; 0xd000
     9b8:	36584d49 	ldrbcc	r4, [r8], -r9, asr #26
     9bc:	682e3259 	stmdavs	lr!, {r0, r3, r4, r6, r9, ip, sp}
     9c0:	00000200 	andeq	r0, r0, r0, lsl #4
     9c4:	5f707362 	svcpl	0x00707362
     9c8:	2e746e69 	cdpcs	14, 7, cr6, cr4, cr9, {3}
     9cc:	00010068 	andeq	r0, r1, r8, rrx
     9d0:	64747300 	ldrbtvs	r7, [r4], #-768	; 0xfffffd00
     9d4:	682e6f69 	stmdavs	lr!, {r0, r3, r5, r6, r8, r9, sl, fp, sp, lr}
     9d8:	00000300 	andeq	r0, r0, r0, lsl #6
     9dc:	00010500 	andeq	r0, r1, r0, lsl #10
     9e0:	0ea80205 	cdpeq	2, 10, cr0, cr8, cr5, {0}
     9e4:	0e038000 	cdpeq	0, 0, cr8, cr3, cr0, {0}
     9e8:	05020401 	streq	r0, [r2, #-1025]	; 0xfffffbff
     9ec:	0480030a 	streq	r0, [r0], #778	; 0x30a
     9f0:	032d053c 			; <UNDEFINED> instruction: 0x032d053c
     9f4:	055800dc 	ldrbeq	r0, [r8, #-220]	; 0xffffff24
     9f8:	11052e0d 	tstne	r5, sp, lsl #28
     9fc:	4a1b0522 	bmi	6c1e8c <shift+0x6c1e8c>
     a00:	052e0b05 	streq	r0, [lr, #-2821]!	; 0xfffff4fb
     a04:	0305330a 	movweq	r3, #21258	; 0x530a
     a08:	2119052e 	tstcs	r9, lr, lsr #10
     a0c:	05811d05 	streq	r1, [r1, #3333]	; 0xd05
     a10:	0e053c11 	mcreq	12, 0, r3, cr5, cr1, {0}
     a14:	0f05694e 	svceq	0x0005694e
     a18:	01056969 	tsteq	r5, r9, ror #18
     a1c:	05010467 	streq	r0, [r1, #-1127]	; 0xfffffb99
     a20:	7b910302 	blvc	fe441630 <__bss_end+0x7e43c7f4>
     a24:	05020420 	streq	r0, [r2, #-1056]	; 0xfffffbe0
     a28:	03e50303 	mvneq	r0, #201326592	; 0xc000000
     a2c:	3d010558 	cfstr32cc	mvfx0, [r1, #-352]	; 0xfffffea0
     a30:	9c030104 	stflss	f0, [r3], {4}
     a34:	0552207c 	ldrbeq	r2, [r2, #-124]	; 0xffffff84
     a38:	0d053d0f 	stceq	13, cr3, [r5, #-60]	; 0xffffffc4
     a3c:	4d08052f 	cfstr32mi	mvfx0, [r8, #-188]	; 0xffffff44
     a40:	052e0205 	streq	r0, [lr, #-517]!	; 0xfffffdfb
     a44:	04020003 	streq	r0, [r2], #-3
     a48:	29052203 	stmdbcs	r5, {r0, r1, r9, sp}
     a4c:	03040200 	movweq	r0, #16896	; 0x4200
     a50:	000f0572 	andeq	r0, pc, r2, ror r5	; <UNPREDICTABLE>
     a54:	3c010402 	cfstrscc	mvf0, [r1], {2}
     a58:	03400105 	movteq	r0, #261	; 0x105
     a5c:	1b059e0a 	blne	16828c <shift+0x16828c>
     a60:	671c0567 	ldrvs	r0, [ip, -r7, ror #10]
     a64:	03750105 	cmneq	r5, #1073741825	; 0x40000001
     a68:	0d05ac0a 	stceq	12, cr10, [r5, #-40]	; 0xffffffd8
     a6c:	4b04054c 	blmi	101fa4 <shift+0x101fa4>
     a70:	05680705 	strbeq	r0, [r8, #-1797]!	; 0xfffff8fb
     a74:	1405410e 	strne	r4, [r5], #-270	; 0xfffffef2
     a78:	58040577 	stmdapl	r4, {r0, r1, r2, r4, r5, r6, r8, sl}
     a7c:	05920e05 	ldreq	r0, [r2, #3589]	; 0xe05
     a80:	82780304 	rsbshi	r0, r8, #4, 6	; 0x10000000
     a84:	0a030105 	beq	c0ea0 <shift+0xc0ea0>
     a88:	08090320 	stmdaeq	r9, {r5, r8, r9}
     a8c:	59020512 	stmdbpl	r2, {r1, r4, r8, sl}
     a90:	21010559 	tstcs	r1, r9, asr r5
     a94:	01000502 	tsteq	r0, r2, lsl #10
     a98:	00012601 	andeq	r2, r1, r1, lsl #12
     a9c:	92000300 	andls	r0, r0, #0, 6
     aa0:	02000000 	andeq	r0, r0, #0
     aa4:	0d0efb01 	vstreq	d15, [lr, #-4]
     aa8:	01010100 	mrseq	r0, (UNDEF: 17)
     aac:	00000001 	andeq	r0, r0, r1
     ab0:	01000001 	tsteq	r0, r1
     ab4:	69766564 	ldmdbvs	r6!, {r2, r5, r6, r8, sl, sp, lr}^
     ab8:	00736563 	rsbseq	r6, r3, r3, ror #10
     abc:	2f707362 	svccs	0x00707362
     ac0:	69747865 	ldmdbvs	r4!, {r0, r2, r5, r6, fp, ip, sp, lr}^
     ac4:	70736200 	rsbsvc	r6, r3, r0, lsl #4
     ac8:	746e692f 	strbtvc	r6, [lr], #-2351	; 0xfffff6d1
     acc:	70736200 	rsbsvc	r6, r3, r0, lsl #4
     ad0:	6970672f 	ldmdbvs	r0!, {r0, r1, r2, r3, r5, r8, r9, sl, sp, lr}^
     ad4:	6600006f 	strvs	r0, [r0], -pc, rrx
     ad8:	695f6c73 	ldmdbvs	pc, {r0, r1, r4, r5, r6, sl, fp, sp, lr}^	; <UNPREDICTABLE>
     adc:	78756d6f 	ldmdavc	r5!, {r0, r1, r2, r3, r5, r6, r8, sl, fp, sp, lr}^
     ae0:	00682e63 	rsbeq	r2, r8, r3, ror #28
     ae4:	62000001 	andvs	r0, r0, #1
     ae8:	655f7073 	ldrbvs	r7, [pc, #-115]	; a7d <shift+0xa7d>
     aec:	2e697478 	mcrcs	4, 3, r7, cr9, cr8, {3}
     af0:	00020063 	andeq	r0, r2, r3, rrx
     af4:	726f6300 	rsbvc	r6, pc, #0, 6
     af8:	61635f65 	cmnvs	r3, r5, ror #30
     afc:	00682e37 	rsbeq	r2, r8, r7, lsr lr
     b00:	63000001 	movwvs	r0, #1
     b04:	00682e63 	rsbeq	r2, r8, r3, ror #28
     b08:	4d000001 	stcmi	0, cr0, [r0, #-4]
     b0c:	584d4943 	stmdapl	sp, {r0, r1, r6, r8, fp, lr}^
     b10:	2e325936 			; <UNDEFINED> instruction: 0x2e325936
     b14:	00010068 	andeq	r0, r1, r8, rrx
     b18:	70736200 	rsbsvc	r6, r3, r0, lsl #4
     b1c:	746e695f 	strbtvc	r6, [lr], #-2399	; 0xfffff6a1
     b20:	0300682e 	movweq	r6, #2094	; 0x82e
     b24:	73620000 	cmnvc	r2, #0
     b28:	70675f70 	rsbvc	r5, r7, r0, ror pc
     b2c:	682e6f69 	stmdavs	lr!, {r0, r3, r5, r6, r8, r9, sl, fp, sp, lr}
     b30:	00000400 	andeq	r0, r0, r0, lsl #8
     b34:	00010500 	andeq	r0, r1, r0, lsl #10
     b38:	10600205 	rsbne	r0, r0, r5, lsl #4
     b3c:	a9038000 	stmdbge	r3, {pc}
     b40:	09050108 	stmdbeq	r5, {r3, r8}
     b44:	3c330576 	cfldr32cc	mvfx0, [r3], #-472	; 0xfffffe28
     b48:	05490705 	strbeq	r0, [r9, #-1797]	; 0xfffff8fb
     b4c:	29052131 	stmdbcs	r5, {r0, r4, r5, r8, sp}
     b50:	2308051f 	movwcs	r0, #34079	; 0x851f
     b54:	053e0b05 	ldreq	r0, [lr, #-2821]!	; 0xfffff4fb
     b58:	2f052031 	svccs	0x00052031
     b5c:	2201053c 	andcs	r0, r1, #60, 10	; 0xf000000
     b60:	05661803 	strbeq	r1, [r6, #-2051]!	; 0xfffff7fd
     b64:	0b057508 	bleq	15df8c <shift+0x15df8c>
     b68:	2030053e 	eorscs	r0, r0, lr, lsr r5
     b6c:	04300105 	ldrteq	r0, [r0], #-261	; 0xfffffefb
     b70:	77bb0302 	ldrvc	r0, [fp, r2, lsl #6]!
     b74:	40020566 	andmi	r0, r2, r6, ror #10
     b78:	f51705e5 			; <UNDEFINED> instruction: 0xf51705e5
     b7c:	052f1b05 	streq	r1, [pc, #-2821]!	; 7f <shift+0x7f>
     b80:	02052f19 	andeq	r2, r5, #25, 30	; 0x64
     b84:	0503042f 	streq	r0, [r3, #-1071]	; 0xfffffbd1
     b88:	03fa030a 	mvnseq	r0, #671088640	; 0x28000000
     b8c:	032e05ac 			; <UNDEFINED> instruction: 0x032e05ac
     b90:	055800f8 	ldrbeq	r0, [r8, #-248]	; 0xffffff08
     b94:	4b052e0e 	blmi	14c3d4 <shift+0x14c3d4>
     b98:	20640521 	rsbcs	r0, r4, r1, lsr #10
     b9c:	052e1605 	streq	r1, [lr, #-1541]!	; 0xfffff9fb
     ba0:	4605202f 	strmi	r2, [r5], -pc, lsr #32
     ba4:	2e350520 	cfabs64cs	mvdx0, mvdx5
     ba8:	04590105 	ldrbeq	r0, [r9], #-261	; 0xfffffefb
     bac:	03020502 	movweq	r0, #9474	; 0x2502
     bb0:	75207b8f 	strvc	r7, [r0, #-2959]!	; 0xfffff471
     bb4:	6e750105 	rpwvss	f0, f5, f5
     bb8:	05300205 	ldreq	r0, [r0, #-517]!	; 0xfffffdfb
     bbc:	02027501 	andeq	r7, r2, #4194304	; 0x400000
     bc0:	27010100 	strcs	r0, [r1, -r0, lsl #2]
     bc4:	03000001 	movweq	r0, #1
     bc8:	00008e00 	andeq	r8, r0, r0, lsl #28
     bcc:	fb010200 	blx	413d6 <shift+0x413d6>
     bd0:	01000d0e 	tsteq	r0, lr, lsl #26
     bd4:	00010101 	andeq	r0, r1, r1, lsl #2
     bd8:	00010000 	andeq	r0, r1, r0
     bdc:	73620100 	cmnvc	r2, #0, 2
     be0:	70652f70 	rsbvc	r2, r5, r0, ror pc
     be4:	69747469 	ldmdbvs	r4!, {r0, r3, r5, r6, sl, ip, sp, lr}^
     be8:	0072656d 	rsbseq	r6, r2, sp, ror #10
     bec:	69766564 	ldmdbvs	r6!, {r2, r5, r6, r8, sl, sp, lr}^
     bf0:	00736563 	rsbseq	r6, r3, r3, ror #10
     bf4:	2f707362 	svccs	0x00707362
     bf8:	00746e69 	rsbseq	r6, r4, r9, ror #28
     bfc:	69647473 	stmdbvs	r4!, {r0, r1, r4, r5, r6, sl, ip, sp, lr}^
     c00:	6e692f6f 	cdpvs	15, 6, cr2, cr9, cr15, {3}
     c04:	64756c63 	ldrbtvs	r6, [r5], #-3171	; 0xfffff39d
     c08:	62000065 	andvs	r0, r0, #101	; 0x65
     c0c:	655f7073 	ldrbvs	r7, [pc, #-115]	; ba1 <shift+0xba1>
     c10:	74746970 	ldrbtvc	r6, [r4], #-2416	; 0xfffff690
     c14:	72656d69 	rsbvc	r6, r5, #6720	; 0x1a40
     c18:	0100632e 	tsteq	r0, lr, lsr #6
     c1c:	6f630000 	svcvs	0x00630000
     c20:	635f6572 	cmpvs	pc, #478150656	; 0x1c800000
     c24:	682e3761 	stmdavs	lr!, {r0, r5, r6, r8, r9, sl, ip, sp}
     c28:	00000200 	andeq	r0, r0, r0, lsl #4
     c2c:	682e6363 	stmdavs	lr!, {r0, r1, r5, r6, r8, r9, sp, lr}
     c30:	00000200 	andeq	r0, r0, r0, lsl #4
     c34:	4d49434d 	stclmi	3, cr4, [r9, #-308]	; 0xfffffecc
     c38:	32593658 	subscc	r3, r9, #88, 12	; 0x5800000
     c3c:	0200682e 	andeq	r6, r0, #3014656	; 0x2e0000
     c40:	73620000 	cmnvc	r2, #0
     c44:	6e695f70 	mcrvs	15, 3, r5, cr9, cr0, {3}
     c48:	00682e74 	rsbeq	r2, r8, r4, ror lr
     c4c:	73000003 	movwvc	r0, #3
     c50:	6f696474 	svcvs	0x00696474
     c54:	0400682e 	streq	r6, [r0], #-2094	; 0xfffff7d2
     c58:	05000000 	streq	r0, [r0, #-0]
     c5c:	02050001 	andeq	r0, r5, #1
     c60:	80001194 	mulhi	r0, r4, r1
     c64:	05010c03 	streq	r0, [r1, #-3075]	; 0xfffff3fd
     c68:	08055904 	stmdaeq	r5, {r2, r8, fp, ip, lr}
     c6c:	3e07054b 	cfsh32cc	mvfx0, mvfx7, #43
     c70:	053c0c05 	ldreq	r0, [ip, #-3077]!	; 0xfffff3fb
     c74:	2e0b031c 	mcrcs	3, 0, r0, cr11, cr12, {0}
     c78:	052e0705 	streq	r0, [lr, #-1797]!	; 0xfffff8fb
     c7c:	0c053c2f 	stceq	12, cr3, [r5], {47}	; 0x2f
     c80:	2207054a 	andcs	r0, r7, #310378496	; 0x12800000
     c84:	053c0c05 	ldreq	r0, [ip, #-3077]!	; 0xfffff3fb
     c88:	0e052f07 	cdpeq	15, 0, cr2, cr5, cr7, {0}
     c8c:	0502043c 	streq	r0, [r2, #-1084]	; 0xfffffbc4
     c90:	03f0030a 	mvnseq	r0, #671088640	; 0x28000000
     c94:	032e054a 			; <UNDEFINED> instruction: 0x032e054a
     c98:	055800f8 	ldrbeq	r0, [r8, #-248]	; 0xffffff08
     c9c:	4b052e0e 	blmi	14c4dc <shift+0x14c4dc>
     ca0:	20640521 	rsbcs	r0, r4, r1, lsr #10
     ca4:	052e1605 	streq	r1, [lr, #-1541]!	; 0xfffff9fb
     ca8:	4605202f 	strmi	r2, [r5], -pc, lsr #32
     cac:	2e350520 	cfabs64cs	mvdx0, mvdx5
     cb0:	05590105 	ldrbeq	r0, [r9, #-261]	; 0xfffffefb
     cb4:	7f86030a 	svcvc	0x0086030a
     cb8:	032e0558 			; <UNDEFINED> instruction: 0x032e0558
     cbc:	055801b9 	ldrbeq	r0, [r8, #-441]	; 0xfffffe47
     cc0:	33052e0e 	movwcc	r2, #24078	; 0x5e0e
     cc4:	2e170521 	cfmul64cs	mvdx0, mvdx7, mvdx1
     cc8:	05203305 	streq	r3, [r0, #-773]!	; 0xfffffcfb
     ccc:	01052e31 	tsteq	r5, r1, lsr lr
     cd0:	05010467 	streq	r0, [r1, #-1127]	; 0xfffffb99
     cd4:	7adb0302 	bvc	ff6c18e4 <__bss_end+0x7f6bcaa8>
     cd8:	760c0520 	strvc	r0, [ip], -r0, lsr #10
     cdc:	7c9f0105 	ldfvcs	f0, [pc], {5}
     ce0:	052f0205 	streq	r0, [pc, #-517]!	; ae3 <shift+0xae3>
     ce4:	01053e0c 	tsteq	r5, ip, lsl #28
     ce8:	0002029f 	muleq	r2, pc, r2	; <UNPREDICTABLE>
     cec:	027b0101 	rsbseq	r0, fp, #1073741824	; 0x40000000
     cf0:	00030000 	andeq	r0, r3, r0
     cf4:	00000058 	andeq	r0, r0, r8, asr r0
     cf8:	0efb0102 	cdpeq	1, 15, cr0, cr11, cr2, {0}
     cfc:	0101000d 	tsteq	r1, sp
     d00:	00000101 	andeq	r0, r0, r1, lsl #2
     d04:	00000100 	andeq	r0, r0, r0, lsl #2
     d08:	76656401 	strbtvc	r6, [r5], -r1, lsl #8
     d0c:	73656369 	cmnvc	r5, #-1543503871	; 0xa4000001
     d10:	70736200 	rsbsvc	r6, r3, r0, lsl #4
     d14:	7261752f 	rsbvc	r7, r1, #197132288	; 0xbc00000
     d18:	66000074 			; <UNDEFINED> instruction: 0x66000074
     d1c:	695f6c73 	ldmdbvs	pc, {r0, r1, r4, r5, r6, sl, fp, sp, lr}^	; <UNPREDICTABLE>
     d20:	78756d6f 	ldmdavc	r5!, {r0, r1, r2, r3, r5, r6, r8, sl, fp, sp, lr}^
     d24:	00682e63 	rsbeq	r2, r8, r3, ror #28
     d28:	62000001 	andvs	r0, r0, #1
     d2c:	755f7073 	ldrbvc	r7, [pc, #-115]	; cc1 <shift+0xcc1>
     d30:	2e747261 	cdpcs	2, 7, cr7, cr4, cr1, {3}
     d34:	00020063 	andeq	r0, r2, r3, rrx
     d38:	2e636300 	cdpcs	3, 6, cr6, cr3, cr0, {0}
     d3c:	00010068 	andeq	r0, r1, r8, rrx
     d40:	49434d00 	stmdbmi	r3, {r8, sl, fp, lr}^
     d44:	5936584d 	ldmdbpl	r6!, {r0, r2, r3, r6, fp, ip, lr}
     d48:	00682e32 	rsbeq	r2, r8, r2, lsr lr
     d4c:	00000001 	andeq	r0, r0, r1
     d50:	05000105 	streq	r0, [r0, #-261]	; 0xfffffefb
     d54:	00129002 	andseq	r9, r2, r2
     d58:	08a90380 	stmiaeq	r9!, {r7, r8, r9}
     d5c:	76090501 	strvc	r0, [r9], -r1, lsl #10
     d60:	053c3305 	ldreq	r3, [ip, #-773]!	; 0xfffffcfb
     d64:	31054907 	tstcc	r5, r7, lsl #18
     d68:	1f290521 	svcne	0x00290521
     d6c:	05230805 	streq	r0, [r3, #-2053]!	; 0xfffff7fb
     d70:	31053e0b 	tstcc	r5, fp, lsl #28
     d74:	3c2f0520 	cfstr32cc	mvfx0, [pc], #-128	; cfc <shift+0xcfc>
     d78:	03220105 			; <UNDEFINED> instruction: 0x03220105
     d7c:	08056618 	stmdaeq	r5, {r3, r4, r9, sl, sp, lr}
     d80:	3e0b0575 	cfrshl64cc	mvdx11, mvdx5, r0
     d84:	05203005 	streq	r3, [r0, #-5]!
     d88:	02043001 	andeq	r3, r4, #1
     d8c:	6677ba03 	ldrbtvs	fp, [r7], -r3, lsl #20
     d90:	59330205 	ldmdbpl	r3!, {r0, r2, r9}
     d94:	055a0705 	ldrbeq	r0, [sl, #-1797]	; 0xfffff8fb
     d98:	03423c0e 	movteq	r3, #11278	; 0x2c0e
     d9c:	05dcba0b 	ldrbeq	fp, [ip, #2571]	; 0xa0b
     da0:	ba0b0307 	blt	2c19c4 <shift+0x2c19c4>
     da4:	053c0e05 	ldreq	r0, [ip, #-3589]!	; 0xfffff1fb
     da8:	0e054b07 	vmlaeq.f64	d4, d5, d7
     dac:	3d07053c 	cfstr32cc	mvfx0, [r7, #-240]	; 0xffffff10
     db0:	053c0e05 	ldreq	r0, [ip, #-3589]!	; 0xfffff1fb
     db4:	01055102 	tsteq	r5, r2, lsl #2
     db8:	02053659 	andeq	r3, r5, #93323264	; 0x5900000
     dbc:	0c03e541 	cfstr32eq	mvfx14, [r3], {65}	; 0x41
     dc0:	05f32008 	ldrbeq	r2, [r3, #8]!
     dc4:	032f0801 			; <UNDEFINED> instruction: 0x032f0801
     dc8:	0e053c0c 	cdpeq	12, 0, cr3, cr5, cr12, {0}
     dcc:	3d3d3d75 	ldccc	13, cr3, [sp, #-468]!	; 0xfffffe2c
     dd0:	67672f3d 			; <UNDEFINED> instruction: 0x67672f3d
     dd4:	05310f05 	ldreq	r0, [r1, #-3845]!	; 0xfffff0fb
     dd8:	0d053d11 	stceq	13, cr3, [r5, #-68]	; 0xffffffbc
     ddc:	3e0b054b 	cfsh32cc	mvfx0, mvfx11, #43
     de0:	05221105 	streq	r1, [r2, #-261]!	; 0xfffffefb
     de4:	13054b15 	movwne	r4, #23317	; 0x5b15
     de8:	4618059f 			; <UNDEFINED> instruction: 0x4618059f
     dec:	05510f05 	ldrbeq	r0, [r1, #-3845]	; 0xfffff0fb
     df0:	1105831d 	tstne	r5, sp, lsl r3
     df4:	8608052e 	strhi	r0, [r8], -lr, lsr #10
     df8:	02003005 	andeq	r3, r0, #5
     dfc:	05820104 	streq	r0, [r2, #260]	; 0x104
     e00:	26055a21 	strcs	r5, [r5], -r1, lsr #20
     e04:	9e12053c 	mrcls	5, 0, r0, cr2, cr12, {1}
     e08:	052f2305 	streq	r2, [pc, #-773]!	; b0b <shift+0xb0b>
     e0c:	12053c28 	andne	r3, r5, #40, 24	; 0x2800
     e10:	13052f74 	movwne	r2, #24436	; 0x5f74
     e14:	83150567 	tsthi	r5, #432013312	; 0x19c00000
     e18:	05830c05 	streq	r0, [r3, #3077]	; 0xc05
     e1c:	0c054c17 	stceq	12, cr4, [r5], {23}
     e20:	4c19053e 	cfldr32mi	mvfx0, [r9], {62}	; 0x3e
     e24:	053f1a05 	ldreq	r1, [pc, #-2565]!	; 427 <shift+0x427>
     e28:	0d053c1f 	stceq	12, cr3, [r5, #-124]	; 0xffffff84
     e2c:	30050574 	andcc	r0, r5, r4, ror r5
     e30:	69081805 	stmdbvs	r8, {r0, r2, fp, ip}
     e34:	053d0d05 	ldreq	r0, [sp, #-3333]!	; 0xfffff2fb
     e38:	0d052218 	sfmeq	f2, 4, [r5, #-96]	; 0xffffffa0
     e3c:	2218053d 	andscs	r0, r8, #255852544	; 0xf400000
     e40:	053d0d05 	ldreq	r0, [sp, #-3333]!	; 0xfffff2fb
     e44:	0d052218 	sfmeq	f2, 4, [r5, #-96]	; 0xffffffa0
     e48:	2218053d 	andscs	r0, r8, #255852544	; 0xf400000
     e4c:	053d0d05 	ldreq	r0, [sp, #-3333]!	; 0xfffff2fb
     e50:	0d052218 	sfmeq	f2, 4, [r5, #-96]	; 0xffffffa0
     e54:	2218053d 	andscs	r0, r8, #255852544	; 0xf400000
     e58:	053d0d05 	ldreq	r0, [sp, #-3333]!	; 0xfffff2fb
     e5c:	0d052218 	sfmeq	f2, 4, [r5, #-96]	; 0xffffffa0
     e60:	2613053d 			; <UNDEFINED> instruction: 0x2613053d
     e64:	05831505 	streq	r1, [r3, #1285]	; 0x505
     e68:	0b054b0d 	bleq	153aa4 <shift+0x153aa4>
     e6c:	2211053e 	andscs	r0, r1, #260046848	; 0xf800000
     e70:	053d2905 	ldreq	r2, [sp, #-2309]!	; 0xfffff6fb
     e74:	17059e19 	smladne	r5, r9, lr, r9
     e78:	8c1c052f 	cfldr32hi	mvfx0, [ip], {47}	; 0x2f
     e7c:	05422105 	strbeq	r2, [r2, #-261]	; 0xfffffefb
     e80:	22057413 	andcs	r7, r5, #318767104	; 0x13000000
     e84:	3c150575 	cfldr32cc	mvfx0, [r5], {117}	; 0x75
     e88:	05751f05 	ldrbeq	r1, [r5, #-3845]!	; 0xfffff0fb
     e8c:	0520082e 	streq	r0, [r0, #-2094]!	; 0xfffff7d2
     e90:	1a054a0e 	bne	1536d0 <shift+0x1536d0>
     e94:	4a3f059f 	bmi	fc2518 <shift+0xfc2518>
     e98:	02003305 	andeq	r3, r0, #335544320	; 0x14000000
     e9c:	05900104 	ldreq	r0, [r0, #260]	; 0x104
     ea0:	0402003f 	streq	r0, [r2], #-63	; 0xffffffc1
     ea4:	4b054a01 	blmi	1536b0 <shift+0x1536b0>
     ea8:	02040200 	andeq	r0, r4, #0, 4
     eac:	003f059e 	mlaseq	pc, lr, r5, r0	; <UNPREDICTABLE>
     eb0:	4a020402 	bmi	81ec0 <shift+0x81ec0>
     eb4:	02000e05 	andeq	r0, r0, #5, 28	; 0x50
     eb8:	05900404 	ldreq	r0, [r0, #1028]	; 0x404
     ebc:	0402001e 	streq	r0, [r2], #-30	; 0xffffffe2
     ec0:	25053004 	strcs	r3, [r5, #-4]
     ec4:	04040200 	streq	r0, [r4], #-512	; 0xfffffe00
     ec8:	00080582 	andeq	r0, r8, r2, lsl #11
     ecc:	66040402 	strvs	r0, [r4], -r2, lsl #8
     ed0:	83921405 	orrshi	r1, r2, #83886080	; 0x5000000
     ed4:	053c1705 	ldreq	r1, [ip, #-1797]!	; 0xfffff8fb
     ed8:	16055814 			; <UNDEFINED> instruction: 0x16055814
     edc:	4a14054b 	bmi	502410 <shift+0x502410>
     ee0:	053d1605 	ldreq	r1, [sp, #-1541]!	; 0xfffff9fb
     ee4:	01058214 	tsteq	r5, r4, lsl r2
     ee8:	0d05603e 	stceq	0, cr6, [r5, #-248]	; 0xffffff08
     eec:	8301054b 	movwhi	r0, #5451	; 0x154b
     ef0:	4b0d056e 	blmi	3424b0 <shift+0x3424b0>
     ef4:	6e830105 	rmfvss	f0, f3, f5
     ef8:	054b0d05 	strbeq	r0, [fp, #-3333]	; 0xfffff2fb
     efc:	0d058307 	stceq	3, cr8, [r5, #-28]	; 0xffffffe4
     f00:	01040200 	mrseq	r0, R12_usr
     f04:	00140520 	andseq	r0, r4, r0, lsr #10
     f08:	3c010402 	cfstrscc	mvf0, [r1], {2}
     f0c:	02001b05 	andeq	r1, r0, #5120	; 0x1400
     f10:	052e0104 	streq	r0, [lr, #-260]!	; 0xfffffefc
     f14:	057c2f01 	ldrbeq	r2, [ip, #-3841]!	; 0xfffff0ff
     f18:	0f055907 	svceq	0x00055907
     f1c:	01040200 	mrseq	r0, R12_usr
     f20:	00230520 	eoreq	r0, r3, r0, lsr #10
     f24:	58010402 	stmdapl	r1, {r1, sl}
     f28:	054b0705 	strbeq	r0, [fp, #-1797]	; 0xfffff8fb
     f2c:	0e053c12 	mcreq	12, 0, r3, cr5, cr2, {0}
     f30:	21010520 	tstcs	r1, r0, lsr #10
     f34:	4b08056e 	blmi	2024f4 <shift+0x2024f4>
     f38:	05300705 	ldreq	r0, [r0, #-1797]!	; 0xfffff8fb
     f3c:	0305210a 	movweq	r2, #20746	; 0x510a
     f40:	4908053c 	stmdbmi	r8, {r2, r3, r4, r5, r8, sl}
     f44:	604c0105 	subvs	r0, ip, r5, lsl #2
     f48:	052f0705 	streq	r0, [pc, #-1797]!	; 84b <shift+0x84b>
     f4c:	0402000e 	streq	r0, [r2], #-14
     f50:	15052001 	strne	r2, [r5, #-1]
     f54:	01040200 	mrseq	r0, R12_usr
     f58:	001c0558 	andseq	r0, ip, r8, asr r5
     f5c:	2e010402 	cdpcs	4, 0, cr0, cr1, cr2, {0}
     f60:	052f0e05 	streq	r0, [pc, #-3589]!	; 163 <shift+0x163>
     f64:	4c605901 			; <UNDEFINED> instruction: 0x4c605901
     f68:	01000602 	tsteq	r0, r2, lsl #12
     f6c:	00004701 	andeq	r4, r0, r1, lsl #14
     f70:	41000300 	mrsmi	r0, LR_irq
     f74:	02000000 	andeq	r0, r0, #0
     f78:	0d0efb01 	vstreq	d15, [lr, #-4]
     f7c:	01010100 	mrseq	r0, (UNDEF: 17)
     f80:	00000001 	andeq	r0, r0, r1
     f84:	01000001 	tsteq	r0, r1
     f88:	69647473 	stmdbvs	r4!, {r0, r1, r4, r5, r6, sl, ip, sp, lr}^
     f8c:	6e692f6f 	cdpvs	15, 6, cr2, cr9, cr15, {3}
     f90:	64756c63 	ldrbtvs	r6, [r5], #-3171	; 0xfffff39d
     f94:	74730065 	ldrbtvc	r0, [r3], #-101	; 0xffffff9b
     f98:	2f6f6964 	svccs	0x006f6964
     f9c:	0062696c 	rsbeq	r6, r2, ip, ror #18
     fa0:	79746300 	ldmdbvc	r4!, {r8, r9, sp, lr}^
     fa4:	682e6570 	stmdavs	lr!, {r4, r5, r6, r8, sl, sp, lr}
     fa8:	00000100 	andeq	r0, r0, r0, lsl #2
     fac:	70797463 	rsbsvc	r7, r9, r3, ror #8
     fb0:	00632e65 	rsbeq	r2, r3, r5, ror #28
     fb4:	00000002 	andeq	r0, r0, r2
     fb8:	00000090 	muleq	r0, r0, r0
     fbc:	00280003 	eoreq	r0, r8, r3
     fc0:	01020000 	mrseq	r0, (UNDEF: 2)
     fc4:	000d0efb 	strdeq	r0, [sp], -fp
     fc8:	01010101 	tsteq	r1, r1, lsl #2
     fcc:	01000000 	mrseq	r0, (UNDEF: 0)
     fd0:	73010000 	movwvc	r0, #4096	; 0x1000
     fd4:	6f696474 	svcvs	0x00696474
     fd8:	62696c2f 	rsbvs	r6, r9, #12032	; 0x2f00
     fdc:	69640000 	stmdbvs	r4!, {}^	; <UNPREDICTABLE>
     fe0:	2e343676 	mrccs	6, 1, r3, cr4, cr6, {3}
     fe4:	00010063 	andeq	r0, r1, r3, rrx
     fe8:	01050000 	mrseq	r0, (UNDEF: 5)
     fec:	b8020500 	stmdalt	r2, {r8, sl}
     ff0:	03800018 	orreq	r0, r0, #24
     ff4:	15050115 	strne	r0, [r5, #-277]	; 0xfffffeeb
     ff8:	1a055967 	bne	15759c <shift+0x15759c>
     ffc:	0f056767 	svceq	0x00056767
    1000:	31060582 	smlabbcc	r6, r2, r5, r0
    1004:	05670505 	strbeq	r0, [r7, #-1285]!	; 0xfffffafb
    1008:	09054b08 	stmdbeq	r5, {r3, r8, r9, fp, lr}
    100c:	4a070567 	bmi	1c25b0 <shift+0x1c25b0>
    1010:	05912505 	ldreq	r2, [r1, #1285]	; 0x505
    1014:	2c054a0a 			; <UNDEFINED> instruction: 0x2c054a0a
    1018:	7407053c 	strvc	r0, [r7], #-1340	; 0xfffffac4
    101c:	05af0805 	streq	r0, [pc, #2053]!	; 1829 <shift+0x1829>
    1020:	059f2105 	ldreq	r2, [pc, #261]	; 112d <shift+0x112d>
    1024:	22059c09 	andcs	r9, r5, #2304	; 0x900
    1028:	0402002e 	streq	r0, [r2], #-46	; 0xffffffd2
    102c:	054a0601 	strbeq	r0, [sl, #-1537]	; 0xfffff9ff
    1030:	05880606 	streq	r0, [r8, #1542]	; 0x606
    1034:	059f8308 	ldreq	r8, [pc, #776]	; 1344 <shift+0x1344>
    1038:	05bba005 	ldreq	sl, [fp, #5]!
    103c:	0505bb0b 	streq	fp, [r5, #-2827]	; 0xfffff4f5
    1040:	5909054c 	stmdbpl	r9, {r2, r3, r6, r8, sl}
    1044:	02210105 	eoreq	r0, r1, #1073741825	; 0x40000001
    1048:	01010005 	tsteq	r1, r5
    104c:	00000086 	andeq	r0, r0, r6, lsl #1
    1050:	00430003 	subeq	r0, r3, r3
    1054:	01020000 	mrseq	r0, (UNDEF: 2)
    1058:	000d0efb 	strdeq	r0, [sp], -fp
    105c:	01010101 	tsteq	r1, r1, lsl #2
    1060:	01000000 	mrseq	r0, (UNDEF: 0)
    1064:	73010000 	movwvc	r0, #4096	; 0x1000
    1068:	6f696474 	svcvs	0x00696474
    106c:	62696c2f 	rsbvs	r6, r9, #12032	; 0x2f00
    1070:	64747300 	ldrbtvs	r7, [r4], #-768	; 0xfffffd00
    1074:	692f6f69 	stmdbvs	pc!, {r0, r3, r5, r6, r8, r9, sl, fp, sp, lr}	; <UNPREDICTABLE>
    1078:	756c636e 	strbvc	r6, [ip, #-878]!	; 0xfffffc92
    107c:	00006564 	andeq	r6, r0, r4, ror #10
    1080:	646c756d 	strbtvs	r7, [ip], #-1389	; 0xfffffa93
    1084:	632e3369 			; <UNDEFINED> instruction: 0x632e3369
    1088:	00000100 	andeq	r0, r0, r0, lsl #2
    108c:	6c636367 	stclvs	3, cr6, [r3], #-412	; 0xfffffe64
    1090:	682e6269 	stmdavs	lr!, {r0, r3, r5, r6, r9, sp, lr}
    1094:	00000200 	andeq	r0, r0, r0, lsl #4
    1098:	00010500 	andeq	r0, r1, r0, lsl #10
    109c:	1a320205 	bne	c818b8 <shift+0xc818b8>
    10a0:	3f038000 	svccc	0x00038000
    10a4:	78090501 	stmdavc	r9, {r0, r8, sl}
    10a8:	4c0a054b 	cfstr32mi	mvfx0, [sl], {75}	; 0x4b
    10ac:	d6080805 	strle	r0, [r8], -r5, lsl #16
    10b0:	052f0c05 	streq	r0, [pc, #-3077]!	; 4b3 <shift+0x4b3>
    10b4:	33052e1e 	movwcc	r2, #24094	; 0x5e1e
    10b8:	20230520 	eorcs	r0, r3, r0, lsr #10
    10bc:	052f2005 	streq	r2, [pc, #-5]!	; 10bf <shift+0x10bf>
    10c0:	26052036 			; <UNDEFINED> instruction: 0x26052036
    10c4:	2e100520 	cfmul64cs	mvdx0, mvdx0, mvdx0
    10c8:	051f0c05 	ldreq	r0, [pc, #-3077]	; 4cb <shift+0x4cb>
    10cc:	0105310b 	tsteq	r5, fp, lsl #2
    10d0:	0006022f 	andeq	r0, r6, pc, lsr #4
    10d4:	00fe0101 	rscseq	r0, lr, r1, lsl #2
    10d8:	00030000 	andeq	r0, r3, r0
    10dc:	0000007f 	andeq	r0, r0, pc, ror r0
    10e0:	0efb0102 	cdpeq	1, 15, cr0, cr11, cr2, {0}
    10e4:	0101000d 	tsteq	r1, sp
    10e8:	00000101 	andeq	r0, r0, r1, lsl #2
    10ec:	00000100 	andeq	r0, r0, r0, lsl #2
    10f0:	64747301 	ldrbtvs	r7, [r4], #-769	; 0xfffffcff
    10f4:	6c2f6f69 	stcvs	15, cr6, [pc], #-420	; f58 <shift+0xf58>
    10f8:	73006269 	movwvc	r6, #617	; 0x269
    10fc:	6f696474 	svcvs	0x00696474
    1100:	636e692f 	cmnvs	lr, #770048	; 0xbc000
    1104:	6564756c 	strbvs	r7, [r4, #-1388]!	; 0xfffffa94
    1108:	76656400 	strbtvc	r6, [r5], -r0, lsl #8
    110c:	73656369 	cmnvc	r5, #-1543503871	; 0xa4000001
    1110:	72700000 	rsbsvc	r0, r0, #0
    1114:	66746e69 	ldrbtvs	r6, [r4], -r9, ror #28
    1118:	0100632e 	tsteq	r0, lr, lsr #6
    111c:	79740000 	ldmdbvc	r4!, {}^	; <UNPREDICTABLE>
    1120:	2e736570 	mrccs	5, 3, r6, cr3, cr0, {3}
    1124:	00020068 	andeq	r0, r2, r8, rrx
    1128:	70737600 	rsbsvc	r7, r3, r0, lsl #12
    112c:	746e6972 	strbtvc	r6, [lr], #-2418	; 0xfffff68e
    1130:	00682e66 	rsbeq	r2, r8, r6, ror #28
    1134:	73000002 	movwvc	r0, #2
    1138:	6f696474 	svcvs	0x00696474
    113c:	0200682e 	andeq	r6, r0, #3014656	; 0x2e0000
    1140:	74730000 	ldrbtvc	r0, [r3], #-0
    1144:	676e6972 			; <UNDEFINED> instruction: 0x676e6972
    1148:	0200682e 	andeq	r6, r0, #3014656	; 0x2e0000
    114c:	73660000 	cmnvc	r6, #0
    1150:	6f635f6c 	svcvs	0x00635f6c
    1154:	6e6f6d6d 	cdpvs	13, 6, cr6, cr15, cr13, {3}
    1158:	0300682e 	movweq	r6, #2094	; 0x82e
    115c:	05000000 	streq	r0, [r0, #-0]
    1160:	02050001 	andeq	r0, r5, #1
    1164:	80001abc 			; <UNDEFINED> instruction: 0x80001abc
    1168:	05011103 	streq	r1, [r1, #-259]	; 0xfffffefd
    116c:	08054f02 	stmdaeq	r5, {r1, r8, r9, sl, fp, lr}
    1170:	9209053d 	andls	r0, r9, #255852544	; 0xf400000
    1174:	052e0205 	streq	r0, [lr, #-517]!	; 0xfffffdfb
    1178:	04020012 	streq	r0, [r2], #-18	; 0xffffffee
    117c:	03052203 	movweq	r2, #20995	; 0x5203
    1180:	03040200 	movweq	r0, #16896	; 0x4200
    1184:	00270558 	eoreq	r0, r7, r8, asr r5
    1188:	3a030402 	bcc	c2198 <shift+0xc2198>
    118c:	02001205 	andeq	r1, r0, #1342177280	; 0x50000000
    1190:	053c0104 	ldreq	r0, [ip, #-260]!	; 0xfffffefc
    1194:	04020010 	streq	r0, [r2], #-16
    1198:	09056601 	stmdbeq	r5, {r0, r9, sl, sp, lr}
    119c:	21010540 	tstcs	r1, r0, asr #10
    11a0:	4b0605db 	blmi	182914 <shift+0x182914>
    11a4:	05340705 	ldreq	r0, [r4, #-1797]!	; 0xfffff8fb
    11a8:	05054b03 	streq	r4, [r5, #-2819]	; 0xfffff4fd
    11ac:	0012054b 	andseq	r0, r2, fp, asr #10
    11b0:	3c010402 	cfstrscc	mvf0, [r1], {2}
    11b4:	053e1105 	ldreq	r1, [lr, #-261]!	; 0xfffffefb
    11b8:	0f056704 	svceq	0x00056704
    11bc:	3c130524 	cfldr32cc	mvfx0, [r3], {36}	; 0x24
    11c0:	77030505 	strvc	r0, [r3, -r5, lsl #10]
    11c4:	0302054a 	movweq	r0, #9546	; 0x254a
    11c8:	0605200d 	streq	r2, [r5], -sp
    11cc:	9309053d 	movwls	r0, #38205	; 0x953d
    11d0:	02210105 	eoreq	r0, r1, #1073741825	; 0x40000001
    11d4:	0101000e 	tsteq	r1, lr
    11d8:	0000051d 	andeq	r0, r0, sp, lsl r5
    11dc:	00590003 	subseq	r0, r9, r3
    11e0:	01020000 	mrseq	r0, (UNDEF: 2)
    11e4:	000d0efb 	strdeq	r0, [sp], -fp
    11e8:	01010101 	tsteq	r1, r1, lsl #2
    11ec:	01000000 	mrseq	r0, (UNDEF: 0)
    11f0:	73010000 	movwvc	r0, #4096	; 0x1000
    11f4:	6f696474 	svcvs	0x00696474
    11f8:	636e692f 	cmnvs	lr, #770048	; 0xbc000
    11fc:	6564756c 	strbvs	r7, [r4, #-1388]!	; 0xfffffa94
    1200:	64747300 	ldrbtvs	r7, [r4], #-768	; 0xfffffd00
    1204:	6c2f6f69 	stcvs	15, cr6, [pc], #-420	; 1068 <shift+0x1068>
    1208:	00006269 	andeq	r6, r0, r9, ror #4
    120c:	70797463 	rsbsvc	r7, r9, r3, ror #8
    1210:	00682e65 	rsbeq	r2, r8, r5, ror #28
    1214:	73000001 	movwvc	r0, #1
    1218:	6e697274 	mcrvs	2, 3, r7, cr9, cr4, {3}
    121c:	00632e67 	rsbeq	r2, r3, r7, ror #28
    1220:	73000002 	movwvc	r0, #2
    1224:	6e697274 	mcrvs	2, 3, r7, cr9, cr4, {3}
    1228:	00682e67 	rsbeq	r2, r8, r7, ror #28
    122c:	74000001 	strvc	r0, [r0], #-1
    1230:	73657079 	cmnvc	r5, #121	; 0x79
    1234:	0100682e 	tsteq	r0, lr, lsr #16
    1238:	05000000 	streq	r0, [r0, #-0]
    123c:	02050001 	andeq	r0, r5, #1
    1240:	80001ba4 	andhi	r1, r0, r4, lsr #23
    1244:	05012203 	streq	r2, [r1, #-515]	; 0xfffffdfd
    1248:	05057506 	streq	r7, [r5, #-1286]	; 0xfffffafa
    124c:	09052f66 	stmdbeq	r5, {r1, r2, r5, r6, r8, r9, sl, fp, sp}
    1250:	2101053d 	tstcs	r1, sp, lsr r5
    1254:	78030204 	stmdavc	r3, {r2, r9}
    1258:	6a0505ac 	bvs	142910 <shift+0x142910>
    125c:	052e0d05 	streq	r0, [lr, #-3333]!	; 0xfffff2fb
    1260:	07052f05 	streq	r2, [r5, -r5, lsl #30]
    1264:	3c11053e 	cfldr32cc	mvfx0, [r1], {62}	; 0x3e
    1268:	053d0605 	ldreq	r0, [sp, #-1541]!	; 0xfffff9fb
    126c:	07053c0c 	streq	r3, [r5, -ip, lsl #24]
    1270:	053e3e3d 	ldreq	r3, [lr, #-3645]!	; 0xfffff1c3
    1274:	05674c09 	strbeq	r4, [r7, #-3081]!	; 0xfffff3f7
    1278:	05056707 	streq	r6, [r5, #-1799]	; 0xfffff8f9
    127c:	250c0555 	strcs	r0, [ip, #-1365]	; 0xfffffaab
    1280:	77030505 	strvc	r0, [r3, -r5, lsl #10]
    1284:	05343074 	ldreq	r3, [r4, #-116]!	; 0xffffff8c
    1288:	13052309 	movwne	r2, #21257	; 0x5309
    128c:	20110520 	andscs	r0, r1, r0, lsr #10
    1290:	03210105 			; <UNDEFINED> instruction: 0x03210105
    1294:	08054a0c 	stmdaeq	r5, {r2, r3, r9, fp, lr}
    1298:	18053059 	stmdane	r5, {r0, r3, r4, r6, ip, sp}
    129c:	01040200 	mrseq	r0, R12_usr
    12a0:	000f0520 	andeq	r0, pc, r0, lsr #10
    12a4:	3c010402 	cfstrscc	mvf0, [r1], {2}
    12a8:	02001405 	andeq	r1, r0, #83886080	; 0x5000000
    12ac:	053c0104 	ldreq	r0, [ip, #-260]!	; 0xfffffefc
    12b0:	04020012 	streq	r0, [r2], #-18	; 0xffffffee
    12b4:	0a052001 	beq	1492c0 <shift+0x1492c0>
    12b8:	01040200 	mrseq	r0, R12_usr
    12bc:	001c0520 	andseq	r0, ip, r0, lsr #10
    12c0:	20010402 	andcs	r0, r1, r2, lsl #8
    12c4:	05300905 	ldreq	r0, [r0, #-2309]!	; 0xfffff6fb
    12c8:	0f032101 	svceq	0x00032101
    12cc:	67080566 	strvs	r0, [r8, -r6, ror #10]
    12d0:	000e0530 	andeq	r0, lr, r0, lsr r5
    12d4:	20020402 	andcs	r0, r2, r2, lsl #8
    12d8:	02001105 	andeq	r1, r0, #1073741825	; 0x40000001
    12dc:	053c0204 	ldreq	r0, [ip, #-516]!	; 0xfffffdfc
    12e0:	04020023 	streq	r0, [r2], #-35	; 0xffffffdd
    12e4:	1a052e01 	bne	14caf0 <shift+0x14caf0>
    12e8:	01040200 	mrseq	r0, R12_usr
    12ec:	001f053c 	andseq	r0, pc, ip, lsr r5	; <UNPREDICTABLE>
    12f0:	3c010402 	cfstrscc	mvf0, [r1], {2}
    12f4:	02001d05 	andeq	r1, r0, #320	; 0x140
    12f8:	05200104 	streq	r0, [r0, #-260]!	; 0xfffffefc
    12fc:	04020015 	streq	r0, [r2], #-21	; 0xffffffeb
    1300:	11052001 	tstne	r5, r1
    1304:	01040200 	mrseq	r0, R12_usr
    1308:	31090520 	tstcc	r9, r0, lsr #10
    130c:	03210105 			; <UNDEFINED> instruction: 0x03210105
    1310:	0805660a 	stmdaeq	r5, {r1, r3, r9, sl, sp, lr}
    1314:	07053059 	smlsdeq	r5, r9, r0, r3
    1318:	3b090521 	blcc	2427a4 <shift+0x2427a4>
    131c:	054c0805 	strbeq	r0, [ip, #-2053]	; 0xfffff7fb
    1320:	04020018 	streq	r0, [r2], #-24	; 0xffffffe8
    1324:	0f052001 	svceq	0x00052001
    1328:	01040200 	mrseq	r0, R12_usr
    132c:	0014053c 	andseq	r0, r4, ip, lsr r5
    1330:	3c010402 	cfstrscc	mvf0, [r1], {2}
    1334:	02001205 	andeq	r1, r0, #1342177280	; 0x50000000
    1338:	05200104 	streq	r0, [r0, #-260]!	; 0xfffffefc
    133c:	0402000a 	streq	r0, [r2], #-10
    1340:	1c052001 	stcne	0, cr2, [r5], {1}
    1344:	01040200 	mrseq	r0, R12_usr
    1348:	31090520 	tstcc	r9, r0, lsr #10
    134c:	03210105 			; <UNDEFINED> instruction: 0x03210105
    1350:	0805660e 	stmdaeq	r5, {r1, r2, r3, r9, sl, sp, lr}
    1354:	30050567 	andcc	r0, r5, r7, ror #10
    1358:	053d0905 	ldreq	r0, [sp, #-2309]!	; 0xfffff6fb
    135c:	0a052108 	beq	149784 <shift+0x149784>
    1360:	4c09053b 	cfstr32mi	mvfx0, [r9], {59}	; 0x3b
    1364:	05210705 	streq	r0, [r1, #-1797]!	; 0xfffff8fb
    1368:	0505670b 	streq	r6, [r5, #-1803]	; 0xfffff8f5
    136c:	1d19053d 	cfldr32ne	mvfx0, [r9, #-244]	; 0xffffff0c
    1370:	053c1005 	ldreq	r1, [ip, #-5]!
    1374:	13053c15 	movwne	r3, #23573	; 0x5c15
    1378:	200b0520 	andcs	r0, fp, r0, lsr #10
    137c:	05200a05 	streq	r0, [r0, #-2565]!	; 0xfffff5fb
    1380:	01053609 	tsteq	r5, r9, lsl #12
    1384:	660a0321 	strvs	r0, [sl], -r1, lsr #6
    1388:	055c1005 	ldrbeq	r1, [ip, #-5]
    138c:	16052e19 			; <UNDEFINED> instruction: 0x16052e19
    1390:	2014053c 	andscs	r0, r4, ip, lsr r5
    1394:	052e0e05 	streq	r0, [lr, #-3589]!	; 0xfffff1fb
    1398:	29052006 	stmdbcs	r5, {r1, r2, sp}
    139c:	01040200 	mrseq	r0, R12_usr
    13a0:	0026052e 	eoreq	r0, r6, lr, lsr #10
    13a4:	3c010402 	cfstrscc	mvf0, [r1], {2}
    13a8:	02002205 	andeq	r2, r0, #1342177280	; 0x50000000
    13ac:	05200104 	streq	r0, [r0, #-260]!	; 0xfffffefc
    13b0:	09052e06 	stmdbeq	r5, {r1, r2, r9, sl, fp, sp}
    13b4:	21010524 	tstcs	r1, r4, lsr #10
    13b8:	05580b03 	ldrbeq	r0, [r8, #-2819]	; 0xfffff4fd
    13bc:	08056717 	stmdaeq	r5, {r0, r1, r2, r4, r8, r9, sl, sp, lr}
    13c0:	21100522 	tstcs	r0, r2, lsr #10
    13c4:	052e1905 	streq	r1, [lr, #-2309]!	; 0xfffff6fb
    13c8:	14053c16 	strne	r3, [r5], #-3094	; 0xfffff3ea
    13cc:	2e0e0520 	cfsh32cs	mvfx0, mvfx14, #16
    13d0:	05200605 	streq	r0, [r0, #-1541]!	; 0xfffff9fb
    13d4:	04020029 	streq	r0, [r2], #-41	; 0xffffffd7
    13d8:	26052e01 	strcs	r2, [r5], -r1, lsl #28
    13dc:	01040200 	mrseq	r0, R12_usr
    13e0:	0022053c 	eoreq	r0, r2, ip, lsr r5
    13e4:	20010402 	andcs	r0, r1, r2, lsl #8
    13e8:	05300805 	ldreq	r0, [r0, #-2053]!	; 0xfffff7fb
    13ec:	05423909 	strbeq	r3, [r2, #-2313]	; 0xfffff6f7
    13f0:	0a032101 	beq	c97fc <shift+0xc97fc>
    13f4:	59020558 	stmdbpl	r2, {r3, r4, r6, r8, sl}
    13f8:	05210705 	streq	r0, [r1, #-1797]!	; 0xfffff8fb
    13fc:	0b052e06 	bleq	14cc1c <shift+0x14cc1c>
    1400:	2c18052f 	cfldr32cs	mvfx0, [r8], {47}	; 0x2f
    1404:	02000805 	andeq	r0, r0, #327680	; 0x50000
    1408:	053c0104 	ldreq	r0, [ip, #-260]!	; 0xfffffefc
    140c:	0402000b 	streq	r0, [r2], #-11
    1410:	09052e01 	stmdbeq	r5, {r0, r9, sl, fp, sp}
    1414:	2101054d 	tstcs	r1, sp, asr #10
    1418:	05660a03 	strbeq	r0, [r6, #-2563]!	; 0xfffff5fd
    141c:	1405591c 	strne	r5, [r5], #-2332	; 0xfffff6e4
    1420:	3e10054a 	cfmac32cc	mvfx0, mvfx0, mvfx10
    1424:	052e1305 	streq	r1, [lr, #-773]!	; 0xfffffcfb
    1428:	17052e0f 	strne	r2, [r5, -pc, lsl #28]
    142c:	2f15052f 	svccs	0x0015052f
    1430:	05750f05 	ldrbeq	r0, [r5, #-3845]!	; 0xfffff0fb
    1434:	09032101 	stmdbeq	r3, {r0, r8, sp}
    1438:	4d0a054a 	cfstr32mi	mvfx0, [sl, #-296]	; 0xfffffed8
    143c:	052e0205 	streq	r0, [lr, #-517]!	; 0xfffffdfb
    1440:	0402001c 	streq	r0, [r2], #-28	; 0xffffffe4
    1444:	0f052003 	svceq	0x00052003
    1448:	01040200 	mrseq	r0, R12_usr
    144c:	0013053c 	andseq	r0, r3, ip, lsr r5
    1450:	2e010402 	cdpcs	4, 0, cr0, cr1, cr2, {0}
    1454:	05300c05 	ldreq	r0, [r0, #-3077]!	; 0xfffff3fb
    1458:	0a033d01 	beq	d0864 <shift+0xd0864>
    145c:	5b0a0566 	blpl	2829fc <shift+0x2829fc>
    1460:	052e0205 	streq	r0, [lr, #-517]!	; 0xfffffdfb
    1464:	04020027 	streq	r0, [r2], #-39	; 0xffffffd9
    1468:	14052004 	strne	r2, [r5], #-4
    146c:	01040200 	mrseq	r0, R12_usr
    1470:	0017053c 	andseq	r0, r7, ip, lsr r5
    1474:	3c010402 	cfstrscc	mvf0, [r1], {2}
    1478:	02001a05 	andeq	r1, r0, #20480	; 0x5000
    147c:	052e0304 	streq	r0, [lr, #-772]!	; 0xfffffcfc
    1480:	04020017 	streq	r0, [r2], #-23	; 0xffffffe9
    1484:	0c052e03 	stceq	14, cr2, [r5], {3}
    1488:	3d010530 	cfstr32cc	mvfx0, [r1, #-192]	; 0xffffff40
    148c:	05660b03 	strbeq	r0, [r6, #-2819]!	; 0xfffff4fd
    1490:	05305b09 	ldreq	r5, [r0, #-2825]!	; 0xfffff4f7
    1494:	0a052e02 	beq	14cca4 <shift+0x14cca4>
    1498:	2e030521 	cfsh32cs	mvfx0, mvfx3, #17
    149c:	05210805 	streq	r0, [r1, #-2053]!	; 0xfffff7fb
    14a0:	07052e0e 	streq	r2, [r5, -lr, lsl #28]
    14a4:	0020052e 	eoreq	r0, r0, lr, lsr #10
    14a8:	2d020402 	cfstrscs	mvf0, [r2, #-8]
    14ac:	02001405 	andeq	r1, r0, #83886080	; 0x5000000
    14b0:	053c0104 	ldreq	r0, [ip, #-260]!	; 0xfffffefc
    14b4:	04020017 	streq	r0, [r2], #-23	; 0xffffffe9
    14b8:	05052e01 	streq	r2, [r5, #-3585]	; 0xfffff1ff
    14bc:	2207053e 	andcs	r0, r7, #260046848	; 0xf800000
    14c0:	052e0605 	streq	r0, [lr, #-1541]!	; 0xfffff9fb
    14c4:	03052f0b 	movweq	r2, #24331	; 0x5f0b
    14c8:	02040200 	andeq	r0, r4, #0, 4
    14cc:	001a052f 	andseq	r0, sl, pc, lsr #10
    14d0:	03020402 	movweq	r0, #9218	; 0x2402
    14d4:	0e053c79 	mcreq	12, 0, r3, cr5, cr9, {3}
    14d8:	01040200 	mrseq	r0, R12_usr
    14dc:	0011053c 	andseq	r0, r1, ip, lsr r5
    14e0:	2e010402 	cdpcs	4, 0, cr0, cr1, cr2, {0}
    14e4:	0a030905 	beq	c3900 <shift+0xc3900>
    14e8:	2101052e 	tstcs	r1, lr, lsr #10
    14ec:	05660a03 	strbeq	r0, [r6, #-2563]!	; 0xfffff5fd
    14f0:	02055b0b 	andeq	r5, r5, #11264	; 0x2c00
    14f4:	210c052e 	tstcs	ip, lr, lsr #10
    14f8:	052e0305 	streq	r0, [lr, #-773]!	; 0xfffffcfb
    14fc:	10052108 	andne	r2, r5, r8, lsl #2
    1500:	2e07052e 	cfsh32cs	mvfx0, mvfx7, #30
    1504:	052f0c05 	streq	r0, [pc, #-3077]!	; 907 <shift+0x907>
    1508:	04020020 	streq	r0, [r2], #-32	; 0xffffffe0
    150c:	12052c02 	andne	r2, r5, #512	; 0x200
    1510:	01040200 	mrseq	r0, R12_usr
    1514:	0017053c 	andseq	r0, r7, ip, lsr r5
    1518:	2e010402 	cdpcs	4, 0, cr0, cr1, cr2, {0}
    151c:	02001f05 	andeq	r1, r0, #5, 30
    1520:	052d0204 	streq	r0, [sp, #-516]!	; 0xfffffdfc
    1524:	04020011 	streq	r0, [r2], #-17	; 0xffffffef
    1528:	16053c01 	strne	r3, [r5], -r1, lsl #24
    152c:	01040200 	mrseq	r0, R12_usr
    1530:	3409052e 	strcc	r0, [r9], #-1326	; 0xfffffad2
    1534:	03210105 			; <UNDEFINED> instruction: 0x03210105
    1538:	1205660c 	andne	r6, r5, #12, 12	; 0xc00000
    153c:	0402005b 	streq	r0, [r2], #-91	; 0xffffffa5
    1540:	003c0601 	eorseq	r0, ip, r1, lsl #12
    1544:	2e020402 	cdpcs	4, 0, cr0, cr2, cr2, {0}
    1548:	02000a05 	andeq	r0, r0, #20480	; 0x5000
    154c:	3c060404 	cfstrscc	mvf0, [r6], {4}
    1550:	02000505 	andeq	r0, r0, #20971520	; 0x1400000
    1554:	05210404 	streq	r0, [r1, #-1028]!	; 0xfffffbfc
    1558:	0c053d0a 	stceq	13, cr3, [r5], {10}
    155c:	58090530 	stmdapl	r9, {r4, r5, r8, sl}
    1560:	053d0605 	ldreq	r0, [sp, #-1541]!	; 0xfffff9fb
    1564:	0d052e05 	stceq	14, cr2, [r5, #-20]	; 0xffffffec
    1568:	4b09052f 	blmi	242a2c <shift+0x242a2c>
    156c:	59050530 	stmdbpl	r5, {r4, r5, r8, sl}
    1570:	02000e05 	andeq	r0, r0, #5, 28	; 0x50
    1574:	053c0104 	ldreq	r0, [ip, #-260]!	; 0xfffffefc
    1578:	0402000b 	streq	r0, [r2], #-11
    157c:	08052e01 	stmdaeq	r5, {r0, r9, sl, fp, sp}
    1580:	3c0b052f 	cfstr32cc	mvfx0, [fp], {47}	; 0x2f
    1584:	052f0c05 	streq	r0, [pc, #-3077]!	; 987 <shift+0x987>
    1588:	01054b09 	tsteq	r5, r9, lsl #22
    158c:	9e100321 	cdpls	3, 1, cr0, cr0, cr1, {1}
    1590:	05590805 	ldrbeq	r0, [r9, #-2053]	; 0xfffff7fb
    1594:	0a053e05 	beq	150db0 <shift+0x150db0>
    1598:	3008053d 	andcc	r0, r8, sp, lsr r5
    159c:	05590505 	ldrbeq	r0, [r9, #-1285]	; 0xfffffafb
    15a0:	0a053d07 	beq	1509c4 <shift+0x1509c4>
    15a4:	2f05053c 	svccs	0x0005053c
    15a8:	053e0905 	ldreq	r0, [lr, #-2309]!	; 0xfffff6fb
    15ac:	0d032101 	stfeqs	f2, [r3, #-4]
    15b0:	6708054a 	strvs	r0, [r8, -sl, asr #10]
    15b4:	21060530 	tstcs	r6, r0, lsr r5
    15b8:	053c0905 	ldreq	r0, [ip, #-2309]!	; 0xfffff6fb
    15bc:	09053b0e 	stmdbeq	r5, {r1, r2, r3, r8, r9, fp, ip, sp}
    15c0:	0105313c 	tsteq	r5, ip, lsr r1
    15c4:	66110321 	ldrvs	r0, [r1], -r1, lsr #6
    15c8:	2f670805 	svccs	0x00670805
    15cc:	21170530 	tstcs	r7, r0, lsr r5
    15d0:	053c0b05 	ldreq	r0, [ip, #-2821]!	; 0xfffff4fb
    15d4:	0e053c10 	mcreq	12, 0, r3, cr5, cr0, {0}
    15d8:	09051f20 	stmdbeq	r5, {r5, r8, r9, sl, fp, ip}
    15dc:	3001053c 	andcc	r0, r1, ip, lsr r5
    15e0:	05740e03 	ldrbeq	r0, [r4, #-3587]!	; 0xfffff1fd
    15e4:	1e056708 	cdpne	7, 0, cr6, cr5, cr8, {0}
    15e8:	3008052e 	andcc	r0, r8, lr, lsr #10
    15ec:	05210e05 	streq	r0, [r1, #-3589]!	; 0xfffff1fb
    15f0:	0c053c07 	stceq	12, cr3, [r5], {7}
    15f4:	200a053c 	andcs	r0, sl, ip, lsr r5
    15f8:	051f0e05 	ldreq	r0, [pc, #-3589]	; 7fb <shift+0x7fb>
    15fc:	05313c09 	ldreq	r3, [r1, #-3081]!	; 0xfffff3f7
    1600:	0d032101 	stfeqs	f2, [r3, #-4]
    1604:	69050566 	stmdbvs	r5, {r1, r2, r5, r6, r8, sl}
    1608:	054b0705 	strbeq	r0, [fp, #-1797]	; 0xfffff8fb
    160c:	09052f05 	stmdbeq	r5, {r0, r2, r8, r9, sl, fp, sp}
    1610:	210f052f 	tstcs	pc, pc, lsr #10
    1614:	053c0805 	ldreq	r0, [ip, #-2053]!	; 0xfffff7fb
    1618:	0b053c0d 	bleq	150654 <shift+0x150654>
    161c:	1f0f0520 	svcne	0x000f0520
    1620:	053c0a05 	ldreq	r0, [ip, #-2565]!	; 0xfffff5fb
    1624:	05054007 	streq	r4, [r5, #-7]
    1628:	4b09054b 	blmi	242b5c <shift+0x242b5c>
    162c:	05210b05 	streq	r0, [r1, #-2821]!	; 0xfffff4fb
    1630:	0b05660d 	bleq	15ae6c <shift+0x15ae6c>
    1634:	2d0f052e 	cfstr32cs	mvfx0, [pc, #-184]	; 1584 <shift+0x1584>
    1638:	053c0a05 	ldreq	r0, [ip, #-2565]!	; 0xfffff5fb
    163c:	01053209 	tsteq	r5, r9, lsl #4
    1640:	660b0321 	strvs	r0, [fp], -r1, lsr #6
    1644:	05680605 	strbeq	r0, [r8, #-1541]!	; 0xfffff9fb
    1648:	2c05300b 	stccs	0, cr3, [r5], {11}
    164c:	2e02052e 	cfsh32cs	mvfx0, mvfx2, #30
    1650:	05210e05 	streq	r0, [r1, #-3589]!	; 0xfffff1fb
    1654:	0c053c15 	stceq	12, cr3, [r5], {21}
    1658:	2e06052e 	cfsh32cs	mvfx0, mvfx6, #30
    165c:	02005405 	andeq	r5, r0, #83886080	; 0x5000000
    1660:	053b0204 	ldreq	r0, [fp, #-516]!	; 0xfffffdfc
    1664:	0402005b 	streq	r0, [r2], #-91	; 0xffffffa5
    1668:	67053c02 	strvs	r3, [r5, -r2, lsl #24]
    166c:	02040200 	andeq	r0, r4, #0, 4
    1670:	004b053c 	subeq	r0, fp, ip, lsr r5
    1674:	3c010402 	cfstrscc	mvf0, [r1], {2}
    1678:	054c0405 	strbeq	r0, [ip, #-1029]	; 0xfffffbfb
    167c:	01052109 	tsteq	r5, r9, lsl #2
    1680:	660e0321 	strvs	r0, [lr], -r1, lsr #6
    1684:	05671205 	strbeq	r1, [r7, #-517]!	; 0xfffffdfb
    1688:	07053008 	streq	r3, [r5, -r8]
    168c:	3c060521 	cfstr32cc	mvfx0, [r6], {33}	; 0x21
    1690:	053d0b05 	ldreq	r0, [sp, #-2821]!	; 0xfffff4fb
    1694:	07052f04 	streq	r2, [r5, -r4, lsl #30]
    1698:	3809053d 	stmdacc	r9, {r0, r2, r3, r4, r5, r8, sl}
    169c:	05420b05 	strbeq	r0, [r2, #-2821]	; 0xfffff4fb
    16a0:	0a032101 	beq	c9aac <shift+0xc9aac>
    16a4:	5b070566 	blpl	1c2c44 <shift+0x1c2c44>
    16a8:	214a0505 	cmpcs	sl, r5, lsl #10
    16ac:	053d0a05 	ldreq	r0, [sp, #-2565]!	; 0xfffff5fb
    16b0:	05052f07 	streq	r2, [r5, #-3847]	; 0xfffff0f9
    16b4:	2108054a 	tstcs	r8, sl, asr #10
    16b8:	05210505 	streq	r0, [r1, #-1285]!	; 0xfffffafb
    16bc:	06053d08 	streq	r3, [r5], -r8, lsl #26
    16c0:	2f0b0574 	svccs	0x000b0574
    16c4:	052f0505 	streq	r0, [pc, #-1285]!	; 11c7 <shift+0x11c7>
    16c8:	0905380c 	stmdbeq	r5, {r2, r3, fp, ip, sp}
    16cc:	21010550 	tstcs	r1, r0, asr r5
    16d0:	054a0e03 	strbeq	r0, [sl, #-3587]	; 0xfffff1fd
    16d4:	08056717 	stmdaeq	r5, {r0, r1, r2, r4, r8, r9, sl, sp, lr}
    16d8:	210e052f 	tstcs	lr, pc, lsr #10
    16dc:	052e2405 	streq	r2, [lr, #-1029]!	; 0xfffffbfb
    16e0:	0d053c22 	stceq	12, cr3, [r5, #-136]	; 0xffffff78
    16e4:	2f0b0520 	svccs	0x000b0520
    16e8:	053a0a05 	ldreq	r0, [sl, #-2565]!	; 0xfffff5fb
    16ec:	09053c0d 	stmdbeq	r5, {r0, r2, r3, sl, fp, ip, sp}
    16f0:	21010533 	tstcs	r1, r3, lsr r5
    16f4:	01000602 	tsteq	r0, r2, lsl #12
    16f8:	000c4401 	andeq	r4, ip, r1, lsl #8
    16fc:	84000300 	strhi	r0, [r0], #-768	; 0xfffffd00
    1700:	02000000 	andeq	r0, r0, #0
    1704:	0d0efb01 	vstreq	d15, [lr, #-4]
    1708:	01010100 	mrseq	r0, (UNDEF: 17)
    170c:	00000001 	andeq	r0, r0, r1
    1710:	01000001 	tsteq	r0, r1
    1714:	69647473 	stmdbvs	r4!, {r0, r1, r4, r5, r6, sl, ip, sp, lr}^
    1718:	6e692f6f 	cdpvs	15, 6, cr2, cr9, cr15, {3}
    171c:	64756c63 	ldrbtvs	r6, [r5], #-3171	; 0xfffff39d
    1720:	74730065 	ldrbtvc	r0, [r3], #-101	; 0xffffff9b
    1724:	2f6f6964 	svccs	0x006f6964
    1728:	0062696c 	rsbeq	r6, r2, ip, ror #18
    172c:	69766564 	ldmdbvs	r6!, {r2, r5, r6, r8, sl, sp, lr}^
    1730:	00736563 	rsbseq	r6, r3, r3, ror #10
    1734:	79746300 	ldmdbvc	r4!, {r8, r9, sp, lr}^
    1738:	682e6570 	stmdavs	lr!, {r4, r5, r6, r8, sl, sp, lr}
    173c:	00000100 	andeq	r0, r0, r0, lsl #2
    1740:	72707376 	rsbsvc	r7, r0, #-671088639	; 0xd8000001
    1744:	66746e69 	ldrbtvs	r6, [r4], -r9, ror #28
    1748:	0200632e 	andeq	r6, r0, #-1207959552	; 0xb8000000
    174c:	79740000 	ldmdbvc	r4!, {}^	; <UNPREDICTABLE>
    1750:	2e736570 	mrccs	5, 3, r6, cr3, cr0, {3}
    1754:	00010068 	andeq	r0, r1, r8, rrx
    1758:	70737600 	rsbsvc	r7, r3, r0, lsl #12
    175c:	746e6972 	strbtvc	r6, [lr], #-2418	; 0xfffff68e
    1760:	00682e66 	rsbeq	r2, r8, r6, ror #28
    1764:	63000001 	movwvs	r0, #1
    1768:	00682e63 	rsbeq	r2, r8, r3, ror #28
    176c:	73000003 	movwvc	r0, #3
    1770:	6e697274 	mcrvs	2, 3, r7, cr9, cr4, {3}
    1774:	00682e67 	rsbeq	r2, r8, r7, ror #28
    1778:	64000001 	strvs	r0, [r0], #-1
    177c:	34367669 	ldrtcc	r7, [r6], #-1641	; 0xfffff997
    1780:	0100682e 	tsteq	r0, lr, lsr #16
    1784:	05000000 	streq	r0, [r0, #-0]
    1788:	02050001 	andeq	r0, r5, #1
    178c:	800022d4 	ldrdhi	r2, [r0], -r4
    1790:	05012903 	streq	r2, [r1, #-2307]	; 0xfffff6fd
    1794:	05057506 	streq	r7, [r5, #-1286]	; 0xfffffafa
    1798:	09052f66 	stmdbeq	r5, {r1, r2, r5, r6, r8, r9, sl, fp, sp}
    179c:	2101053d 	tstcs	r1, sp, lsr r5
    17a0:	05ac0204 	streq	r0, [ip, #516]!	; 0x204
    17a4:	05058310 	streq	r8, [r5, #-784]	; 0xfffffcf0
    17a8:	3d080530 	cfstr32cc	mvfx0, [r8, #-192]	; 0xffffff40
    17ac:	052f0705 	streq	r0, [pc, #-1797]!	; 10af <shift+0x10af>
    17b0:	09052e06 	stmdbeq	r5, {r1, r2, r9, sl, fp, sp}
    17b4:	2f06052f 	svccs	0x0006052f
    17b8:	053d0905 	ldreq	r0, [sp, #-2309]!	; 0xfffff6fb
    17bc:	21056607 	tstcs	r5, r7, lsl #12
    17c0:	01040200 	mrseq	r0, R12_usr
    17c4:	001e052e 	andseq	r0, lr, lr, lsr #10
    17c8:	90010402 	andls	r0, r1, r2, lsl #8
    17cc:	052f0705 	streq	r0, [pc, #-1797]!	; 10cf <shift+0x10cf>
    17d0:	0c053d0a 	stceq	13, cr3, [r5], {10}
    17d4:	3d09053f 	cfstr32cc	mvfx0, [r9, #-252]	; 0xffffff04
    17d8:	052e0605 	streq	r0, [lr, #-1541]!	; 0xfffff9fb
    17dc:	04020017 	streq	r0, [r2], #-23	; 0xffffffe9
    17e0:	14052e01 	strne	r2, [r5], #-3585	; 0xfffff1ff
    17e4:	01040200 	mrseq	r0, R12_usr
    17e8:	2f070574 	svccs	0x00070574
    17ec:	053e0805 	ldreq	r0, [lr, #-2053]!	; 0xfffff7fb
    17f0:	0a052212 	beq	14a040 <shift+0x14a040>
    17f4:	3d05054a 	cfstr32cc	mvfx0, [r5, #-296]	; 0xfffffed8
    17f8:	05390905 	ldreq	r0, [r9, #-2309]!	; 0xfffff6fb
    17fc:	12058217 	andne	r8, r5, #1879048193	; 0x70000001
    1800:	8229052f 	eorhi	r0, r9, #197132288	; 0xbc00000
    1804:	02002105 	andeq	r2, r0, #1073741825	; 0x40000001
    1808:	052e0104 	streq	r0, [lr, #-260]!	; 0xfffffefc
    180c:	04020024 	streq	r0, [r2], #-36	; 0xffffffdc
    1810:	2b052e01 	blcs	14d01c <shift+0x14d01c>
    1814:	02040200 	andeq	r0, r4, #0, 4
    1818:	003b052e 	eorseq	r0, fp, lr, lsr #10
    181c:	66020402 	strvs	r0, [r2], -r2, lsl #8
    1820:	02001005 	andeq	r1, r0, #5
    1824:	05200404 	streq	r0, [r0, #-1028]!	; 0xfffffbfc
    1828:	04020017 	streq	r0, [r2], #-23	; 0xffffffe9
    182c:	05051f04 	streq	r1, [r5, #-3844]	; 0xfffff0fc
    1830:	3d09054f 	cfstr32cc	mvfx0, [r9, #-316]	; 0xfffffec4
    1834:	2101053d 	tstcs	r1, sp, lsr r5
    1838:	05820b03 	streq	r0, [r2, #2819]	; 0xb03
    183c:	04056705 	streq	r6, [r5], #-1797	; 0xfffff8fb
    1840:	2f0b052e 	svccs	0x000b052e
    1844:	05820a05 	streq	r0, [r2, #2565]	; 0xa05
    1848:	01052f09 	tsteq	r5, r9, lsl #30
    184c:	4a0b0367 	bmi	2c25f0 <shift+0x2c25f0>
    1850:	05911505 	ldreq	r1, [r1, #1285]	; 0x505
    1854:	08056805 	stmdaeq	r5, {r0, r2, fp, sp, lr}
    1858:	2f07053d 	svccs	0x0007053d
    185c:	052e0605 	streq	r0, [lr, #-1541]!	; 0xfffff9fb
    1860:	06052f09 	streq	r2, [r5], -r9, lsl #30
    1864:	3d09052f 	cfstr32cc	mvfx0, [r9, #-188]	; 0xffffff44
    1868:	05660705 	strbeq	r0, [r6, #-1797]!	; 0xfffff8fb
    186c:	04020021 	streq	r0, [r2], #-33	; 0xffffffdf
    1870:	1e052e01 	cdpne	14, 0, cr2, cr5, cr1, {0}
    1874:	01040200 	mrseq	r0, R12_usr
    1878:	2f070590 	svccs	0x00070590
    187c:	053d0a05 	ldreq	r0, [sp, #-2565]!	; 0xfffff5fb
    1880:	09053f0c 	stmdbeq	r5, {r2, r3, r8, r9, sl, fp, ip, sp}
    1884:	2e06053d 	mcrcs	5, 0, r0, cr6, cr13, {1}
    1888:	02001705 	andeq	r1, r0, #1310720	; 0x140000
    188c:	052e0104 	streq	r0, [lr, #-260]!	; 0xfffffefc
    1890:	04020014 	streq	r0, [r2], #-20	; 0xffffffec
    1894:	07057401 	streq	r7, [r5, -r1, lsl #8]
    1898:	3e08052f 	cfsh32cc	mvfx0, mvfx8, #31
    189c:	05221205 	streq	r1, [r2, #-517]!	; 0xfffffdfb
    18a0:	0505f20a 	streq	pc, [r5, #-522]	; 0xfffffdf6
    18a4:	3909059f 	stmdbcc	r9, {r0, r1, r2, r3, r4, r7, r8, sl}
    18a8:	05821705 	streq	r1, [r2, #1797]	; 0x705
    18ac:	04020023 	streq	r0, [r2], #-35	; 0xffffffdd
    18b0:	3a052e01 	bcc	14d0bc <shift+0x14d0bc>
    18b4:	01040200 	mrseq	r0, R12_usr
    18b8:	00320582 	eorseq	r0, r2, r2, lsl #11
    18bc:	2e020402 	cdpcs	4, 0, cr0, cr2, cr2, {0}
    18c0:	02003a05 	andeq	r3, r0, #20480	; 0x5000
    18c4:	052e0204 	streq	r0, [lr, #-516]!	; 0xfffffdfc
    18c8:	0402003d 	streq	r0, [r2], #-61	; 0xffffffc3
    18cc:	3a052e03 	bcc	14d0e0 <shift+0x14d0e0>
    18d0:	03040200 	movweq	r0, #16896	; 0x4200
    18d4:	00080582 	andeq	r0, r8, r2, lsl #11
    18d8:	2f050402 	svccs	0x00050402
    18dc:	02003a05 	andeq	r3, r0, #20480	; 0x5000
    18e0:	05650504 	strbeq	r0, [r5, #-1284]!	; 0xfffffafc
    18e4:	04020017 	streq	r0, [r2], #-23	; 0xffffffe9
    18e8:	3a052f06 	bcc	14d508 <shift+0x14d508>
    18ec:	06040200 	streq	r0, [r4], -r0, lsl #4
    18f0:	0021052d 	eoreq	r0, r1, sp, lsr #10
    18f4:	20090402 	andcs	r0, r9, r2, lsl #8
    18f8:	02002405 	andeq	r2, r0, #83886080	; 0x5000000
    18fc:	05750904 	ldrbeq	r0, [r5, #-2308]!	; 0xfffff6fc
    1900:	04020017 	streq	r0, [r2], #-23	; 0xffffffe9
    1904:	05054909 	streq	r4, [r5, #-2313]	; 0xfffff6f7
    1908:	3d09056b 	cfstr32cc	mvfx0, [r9, #-428]	; 0xfffffe54
    190c:	2f01053d 	svccs	0x0001053d
    1910:	05ac0b03 	streq	r0, [ip, #2819]!	; 0xb03
    1914:	04056705 	streq	r6, [r5], #-1797	; 0xfffff8fb
    1918:	2f0b052e 	svccs	0x000b052e
    191c:	05900a05 	ldreq	r0, [r0, #2565]	; 0xa05
    1920:	01057509 	tsteq	r5, r9, lsl #10
    1924:	06055b75 			; <UNDEFINED> instruction: 0x06055b75
    1928:	30080567 	andcc	r0, r8, r7, ror #10
    192c:	4a110521 	bmi	442db8 <shift+0x442db8>
    1930:	052e1405 	streq	r1, [lr, #-1029]!	; 0xfffffbfb
    1934:	0c053c0e 	stceq	12, cr3, [r5], {14}
    1938:	20050520 	andcs	r0, r5, r0, lsr #10
    193c:	ae2d0905 	vmulge.f16	s0, s26, s10	; <UNPREDICTABLE>
    1940:	03210105 			; <UNDEFINED> instruction: 0x03210105
    1944:	09059e10 	stmdbeq	r5, {r4, r9, sl, fp, ip, pc}
    1948:	2e05055a 	cfrshl32cs	mvfx5, mvfx10, r0
    194c:	053d0905 	ldreq	r0, [sp, #-2309]!	; 0xfffff6fb
    1950:	053d2e05 	ldreq	r2, [sp, #-3589]!	; 0xfffff1fb
    1954:	12053e0d 	andne	r3, r5, #13, 28	; 0xd0
    1958:	2e08053c 	mcrcs	5, 0, r0, cr8, cr12, {1}
    195c:	053c1d05 	ldreq	r1, [ip, #-3333]!	; 0xfffff2fb
    1960:	0a053c05 	beq	15097c <shift+0x15097c>
    1964:	4a04052f 	bmi	102e28 <shift+0x102e28>
    1968:	052f0e05 	streq	r0, [pc, #-3589]!	; b6b <shift+0xb6b>
    196c:	0e054a05 	vmlaeq.f32	s8, s10, s10
    1970:	2e06053d 	mcrcs	5, 0, r0, cr6, cr13, {1}
    1974:	053c0e05 	ldreq	r0, [ip, #-3589]!	; 0xfffff1fb
    1978:	0c052e09 	stceq	14, cr2, [r5], {9}
    197c:	4a130521 	bmi	4c2e08 <shift+0x4c2e08>
    1980:	054a1005 	strbeq	r1, [sl, #-5]
    1984:	053d3c05 	ldreq	r3, [sp, #-3077]!	; 0xfffff3fb
    1988:	05053d0b 	streq	r3, [r5, #-3339]	; 0xfffff2f5
    198c:	2f0f054a 	svccs	0x000f054a
    1990:	054a0605 	strbeq	r0, [sl, #-1541]	; 0xfffff9fb
    1994:	07053d0f 	streq	r3, [r5, -pc, lsl #26]
    1998:	3c0f052e 	cfstr32cc	mvfx0, [pc], {46}	; 0x2e
    199c:	052e0a05 	streq	r0, [lr, #-2565]!	; 0xfffff5fb
    19a0:	0605220d 	streq	r2, [r5], -sp, lsl #4
    19a4:	11053d2e 	tstne	r5, lr, lsr #26
    19a8:	01040200 	mrseq	r0, R12_usr
    19ac:	3d0c053c 	cfstr32cc	mvfx0, [ip, #-240]	; 0xffffff10
    19b0:	054a0605 	strbeq	r0, [sl, #-1541]	; 0xfffff9fb
    19b4:	07052f10 	smladeq	r5, r0, pc, r2	; <UNPREDICTABLE>
    19b8:	3d10054a 	cfldr32cc	mvfx0, [r0, #-296]	; 0xfffffed8
    19bc:	052e0805 	streq	r0, [lr, #-2053]!	; 0xfffff7fb
    19c0:	0b053c10 	bleq	150a08 <shift+0x150a08>
    19c4:	220e052e 	andcs	r0, lr, #192937984	; 0xb800000
    19c8:	3d2e0705 	stccc	7, cr0, [lr, #-20]!	; 0xffffffec
    19cc:	053d0d05 	ldreq	r0, [sp, #-3333]!	; 0xfffff2fb
    19d0:	11054a07 	tstne	r5, r7, lsl #20
    19d4:	4a08052f 	bmi	202e98 <shift+0x202e98>
    19d8:	053d1105 	ldreq	r1, [sp, #-261]!	; 0xfffffefb
    19dc:	11052e09 	tstne	r5, r9, lsl #28
    19e0:	2e0c053c 	mcrcs	5, 0, r0, cr12, cr12, {1}
    19e4:	05210805 	streq	r0, [r1, #-2053]!	; 0xfffff7fb
    19e8:	0a053d11 	beq	150e34 <shift+0x150e34>
    19ec:	3c11052e 	cfldr32cc	mvfx0, [r1], {46}	; 0x2e
    19f0:	052e0d05 	streq	r0, [lr, #-3333]!	; 0xfffff2fb
    19f4:	01052409 	tsteq	r5, r9, lsl #8
    19f8:	09056a21 	stmdbeq	r5, {r0, r5, r9, fp, sp, lr}
    19fc:	2e05055c 	cfrshl32cs	mvfx5, mvfx12, r0
    1a00:	053d0905 	ldreq	r0, [sp, #-2309]!	; 0xfffff6fb
    1a04:	053d2e05 	ldreq	r2, [sp, #-3589]!	; 0xfffff1fb
    1a08:	3c0c030d 	stccc	3, cr0, [ip], {13}
    1a0c:	053c1205 	ldreq	r1, [ip, #-517]!	; 0xfffffdfb
    1a10:	1d052e08 	stcne	14, cr2, [r5, #-32]	; 0xffffffe0
    1a14:	3c05053c 	cfstr32cc	mvfx0, [r5], {60}	; 0x3c
    1a18:	052f0a05 	streq	r0, [pc, #-2565]!	; 101b <shift+0x101b>
    1a1c:	0e054a04 	vmlaeq.f32	s8, s10, s8
    1a20:	4a05052f 	bmi	142ee4 <shift+0x142ee4>
    1a24:	053d0e05 	ldreq	r0, [sp, #-3589]!	; 0xfffff1fb
    1a28:	0e052e06 	cdpeq	14, 0, cr2, cr5, cr6, {0}
    1a2c:	2e09053c 	mcrcs	5, 0, r0, cr9, cr12, {1}
    1a30:	05210c05 	streq	r0, [r1, #-3077]!	; 0xfffff3fb
    1a34:	10054a13 	andne	r4, r5, r3, lsl sl
    1a38:	3c05054a 	cfstr32cc	mvfx0, [r5], {74}	; 0x4a
    1a3c:	053d0b05 	ldreq	r0, [sp, #-2821]!	; 0xfffff4fb
    1a40:	0f054a05 	svceq	0x00054a05
    1a44:	4a06052f 	bmi	182f08 <shift+0x182f08>
    1a48:	053d0f05 	ldreq	r0, [sp, #-3845]!	; 0xfffff0fb
    1a4c:	0f052e07 	svceq	0x00052e07
    1a50:	2e0a053c 	mcrcs	5, 0, r0, cr10, cr12, {1}
    1a54:	05220d05 	streq	r0, [r2, #-3333]!	; 0xfffff2fb
    1a58:	0c052e06 	stceq	14, cr2, [r5], {6}
    1a5c:	4a06053d 	bmi	182f58 <shift+0x182f58>
    1a60:	052f1005 	streq	r1, [pc, #-5]!	; 1a63 <shift+0x1a63>
    1a64:	10054a07 	andne	r4, r5, r7, lsl #20
    1a68:	2e08053d 	mcrcs	5, 0, r0, cr8, cr13, {1}
    1a6c:	053c1005 	ldreq	r1, [ip, #-5]!
    1a70:	0e052e0b 	cdpeq	14, 0, cr2, cr5, cr11, {0}
    1a74:	2e070522 	cfsh32cs	mvfx0, mvfx7, #18
    1a78:	053d0d05 	ldreq	r0, [sp, #-3333]!	; 0xfffff2fb
    1a7c:	11054a07 	tstne	r5, r7, lsl #20
    1a80:	4a080530 	bmi	202f48 <shift+0x202f48>
    1a84:	053d1105 	ldreq	r1, [sp, #-261]!	; 0xfffffefb
    1a88:	11052e09 	tstne	r5, r9, lsl #28
    1a8c:	2e0c053c 	mcrcs	5, 0, r0, cr12, cr12, {1}
    1a90:	05211105 	streq	r1, [r1, #-261]!	; 0xfffffefb
    1a94:	11052e0a 	tstne	r5, sl, lsl #28
    1a98:	2e0d053c 	mcrcs	5, 0, r0, cr13, cr12, {1}
    1a9c:	05210905 	streq	r0, [r1, #-2309]!	; 0xfffff6fb
    1aa0:	056a2101 	strbeq	r2, [sl, #-257]!	; 0xfffffeff
    1aa4:	0605690b 	streq	r6, [r5], -fp, lsl #18
    1aa8:	830b052e 	movwhi	r0, #46382	; 0xb52e
    1aac:	00910905 	addseq	r0, r1, r5, lsl #18
    1ab0:	06010402 	streq	r0, [r1], -r2, lsl #8
    1ab4:	040200e4 	streq	r0, [r2], #-228	; 0xffffff1c
    1ab8:	00740802 	rsbseq	r0, r4, r2, lsl #16
    1abc:	66040402 	strvs	r0, [r4], -r2, lsl #8
    1ac0:	02000705 	andeq	r0, r0, #1310720	; 0x140000
    1ac4:	20060404 	andcs	r0, r6, r4, lsl #8
    1ac8:	02000905 	andeq	r0, r0, #81920	; 0x14000
    1acc:	05210404 	streq	r0, [r1, #-1028]!	; 0xfffffbfc
    1ad0:	0402000c 	streq	r0, [r2], #-12
    1ad4:	01055304 	tsteq	r5, r4, lsl #6
    1ad8:	01040200 	mrseq	r0, R12_usr
    1adc:	18054d27 	stmdane	r5, {r0, r1, r2, r5, r8, sl, fp, lr}
    1ae0:	4a230589 	bmi	8c310c <shift+0x8c310c>
    1ae4:	01040200 	mrseq	r0, R12_usr
    1ae8:	02002e06 	andeq	r2, r0, #6, 28	; 0x60
    1aec:	004a0304 	subeq	r0, sl, r4, lsl #6
    1af0:	2e040402 	cdpcs	4, 0, cr0, cr4, cr2, {0}
    1af4:	02000605 	andeq	r0, r0, #5242880	; 0x500000
    1af8:	20060604 	andcs	r0, r6, r4, lsl #12
    1afc:	02001105 	andeq	r1, r0, #1073741825	; 0x40000001
    1b00:	05330604 	ldreq	r0, [r3, #-1540]!	; 0xfffff9fc
    1b04:	04020009 	streq	r0, [r2], #-9
    1b08:	0b053c06 	bleq	150b28 <shift+0x150b28>
    1b0c:	06040200 	streq	r0, [r4], -r0, lsl #4
    1b10:	0005054b 	andeq	r0, r5, fp, asr #10
    1b14:	4a060402 	bmi	182b24 <shift+0x182b24>
    1b18:	052f0805 	streq	r0, [pc, #-2053]!	; 131b <shift+0x131b>
    1b1c:	0b056707 	bleq	15b740 <shift+0x15b740>
    1b20:	4a05053e 	bmi	143020 <shift+0x143020>
    1b24:	052f0605 	streq	r0, [pc, #-1541]!	; 1527 <shift+0x1527>
    1b28:	08054b09 	stmdaeq	r5, {r0, r3, r8, r9, fp, lr}
    1b2c:	1305913d 	movwne	r9, #20797	; 0x513d
    1b30:	4a0d0568 	bmi	3430d8 <shift+0x3430d8>
    1b34:	052f0905 	streq	r0, [pc, #-2309]!	; 1237 <shift+0x1237>
    1b38:	13053d08 	movwne	r3, #23816	; 0x5d08
    1b3c:	4a0d0567 	bmi	3430e0 <shift+0x3430e0>
    1b40:	052f0905 	streq	r0, [pc, #-2309]!	; 1243 <shift+0x1243>
    1b44:	05053d08 	streq	r3, [r5, #-3336]	; 0xfffff2f8
    1b48:	4b07055b 	blmi	1c30bc <shift+0x1c30bc>
    1b4c:	05590605 	ldrbeq	r0, [r9, #-1541]	; 0xfffff9fb
    1b50:	04054b08 	streq	r4, [r5], #-2824	; 0xfffff4f8
    1b54:	3d05055d 	cfstr32cc	mvfx0, [r5, #-372]	; 0xfffffe8c
    1b58:	054b0805 	strbeq	r0, [fp, #-2053]	; 0xfffff7fb
    1b5c:	0a05580c 	beq	157b94 <shift+0x157b94>
    1b60:	4b07056c 	blmi	1c3118 <shift+0x1c3118>
    1b64:	3e06054b 	cfsh32cc	mvfx0, mvfx6, #43
    1b68:	054b0a05 	strbeq	r0, [fp, #-2565]	; 0xfffff5fb
    1b6c:	04020018 	streq	r0, [r2], #-24	; 0xffffffe8
    1b70:	2c053f01 	stccs	15, cr3, [r5], {1}
    1b74:	01040200 	mrseq	r0, R12_usr
    1b78:	0016052e 	andseq	r0, r6, lr, lsr #10
    1b7c:	2e010402 	cdpcs	4, 0, cr0, cr1, cr2, {0}
    1b80:	02000905 	andeq	r0, r0, #81920	; 0x14000
    1b84:	053c0104 	ldreq	r0, [ip, #-260]!	; 0xfffffefc
    1b88:	0402000d 	streq	r0, [r2], #-13
    1b8c:	08055801 	stmdaeq	r5, {r0, fp, ip, lr}
    1b90:	01040200 	mrseq	r0, R12_usr
    1b94:	000c0584 	andeq	r0, ip, r4, lsl #11
    1b98:	08010402 	stmdaeq	r1, {r1, sl}
    1b9c:	5a070559 	bpl	1c3108 <shift+0x1c3108>
    1ba0:	5b820505 	blpl	fe082fbc <__bss_end+0x7e07e180>
    1ba4:	05670d05 	strbeq	r0, [r7, #-3333]!	; 0xfffff2fb
    1ba8:	0d054c07 	stceq	12, cr4, [r5, #-28]	; 0xffffffe4
    1bac:	4a050575 	bmi	143188 <shift+0x143188>
    1bb0:	052f0905 	streq	r0, [pc, #-2309]!	; 12b3 <shift+0x12b3>
    1bb4:	02002104 	andeq	r2, r0, #4, 2
    1bb8:	4a060104 	bmi	181fd0 <shift+0x181fd0>
    1bbc:	03040200 	movweq	r0, #16896	; 0x4200
    1bc0:	0611053c 			; <UNDEFINED> instruction: 0x0611053c
    1bc4:	9405053b 	strls	r0, [r5], #-1339	; 0xfffffac5
    1bc8:	004b0305 	subeq	r0, fp, r5, lsl #6
    1bcc:	06010402 	streq	r0, [r1], -r2, lsl #8
    1bd0:	0402004a 	streq	r0, [r2], #-74	; 0xffffffb6
    1bd4:	05054a03 	streq	r4, [r5, #-2563]	; 0xfffff5fd
    1bd8:	03053e06 	movweq	r3, #24070	; 0x5e06
    1bdc:	0402004b 	streq	r0, [r2], #-75	; 0xffffffb5
    1be0:	004a0601 	subeq	r0, sl, r1, lsl #12
    1be4:	3c030402 	cfstrscc	mvf0, [r3], {2}
    1be8:	02000605 	andeq	r0, r0, #5242880	; 0x500000
    1bec:	3d060304 	stccc	3, cr0, [r6, #-16]
    1bf0:	004b0405 	subeq	r0, fp, r5, lsl #8
    1bf4:	06010402 	streq	r0, [r1], -r2, lsl #8
    1bf8:	0402004a 	streq	r0, [r2], #-74	; 0xffffffb6
    1bfc:	0d057403 	cfstrseq	mvf7, [r5, #-12]
    1c00:	05053f06 	streq	r3, [r5, #-3846]	; 0xfffff0fa
    1c04:	2f12054a 	svccs	0x0012054a
    1c08:	004a0805 	subeq	r0, sl, r5, lsl #16
    1c0c:	06010402 	streq	r0, [r1], -r2, lsl #8
    1c10:	0402002e 	streq	r0, [r2], #-46	; 0xffffffd2
    1c14:	02002e02 	andeq	r2, r0, #2, 28
    1c18:	05200404 	streq	r0, [r0, #-1028]!	; 0xfffffbfc
    1c1c:	04020009 	streq	r0, [r2], #-9
    1c20:	05300604 	ldreq	r0, [r0, #-1540]!	; 0xfffff9fc
    1c24:	02002104 	andeq	r2, r0, #4, 2
    1c28:	4a060104 	bmi	182040 <shift+0x182040>
    1c2c:	03040200 	movweq	r0, #16896	; 0x4200
    1c30:	0611054a 	ldreq	r0, [r1], -sl, asr #10
    1c34:	9408053b 	strls	r0, [r8], #-1339	; 0xfffffac5
    1c38:	00210305 	eoreq	r0, r1, r5, lsl #6
    1c3c:	06010402 	streq	r0, [r1], -r2, lsl #8
    1c40:	0402004a 	streq	r0, [r2], #-74	; 0xffffffb6
    1c44:	0b053c03 	bleq	150c58 <shift+0x150c58>
    1c48:	08053b06 	stmdaeq	r5, {r1, r2, r8, r9, fp, ip, sp}
    1c4c:	210305af 	smlatbcs	r3, pc, r5, r0	; <UNPREDICTABLE>
    1c50:	01040200 	mrseq	r0, R12_usr
    1c54:	02004a06 	andeq	r4, r0, #24576	; 0x6000
    1c58:	05820304 	streq	r0, [r2, #772]	; 0x304
    1c5c:	053b060d 	ldreq	r0, [fp, #-1549]!	; 0xfffff9f3
    1c60:	03059308 	movweq	r9, #21256	; 0x5308
    1c64:	04020021 	streq	r0, [r2], #-33	; 0xffffffdf
    1c68:	004a0601 	subeq	r0, sl, r1, lsl #12
    1c6c:	3c030402 	cfstrscc	mvf0, [r3], {2}
    1c70:	3b061005 	blcc	185c8c <shift+0x185c8c>
    1c74:	05920905 	ldreq	r0, [r2, #2309]	; 0x905
    1c78:	f5032101 			; <UNDEFINED> instruction: 0xf5032101
    1c7c:	06057400 	streq	r7, [r5], -r0, lsl #8
    1c80:	05ac1103 	streq	r1, [ip, #259]!	; 0x103
    1c84:	0a053c05 	beq	150ca0 <shift+0x150ca0>
    1c88:	31060533 	tstcc	r6, r3, lsr r5
    1c8c:	052f1305 	streq	r1, [pc, #-773]!	; 198f <shift+0x198f>
    1c90:	10052e06 	andne	r2, r5, r6, lsl #28
    1c94:	2e05053e 	mcrcs	5, 0, r0, cr5, cr14, {1}
    1c98:	054b0705 	strbeq	r0, [fp, #-1797]	; 0xfffff8fb
    1c9c:	14053d0e 	strne	r3, [r5], #-3342	; 0xfffff2f2
    1ca0:	2008053c 	andcs	r0, r8, ip, lsr r5
    1ca4:	05230205 	streq	r0, [r3, #-517]!	; 0xfffffdfb
    1ca8:	06052107 	streq	r2, [r5], -r7, lsl #2
    1cac:	2f07052e 	svccs	0x0007052e
    1cb0:	054b0c05 	strbeq	r0, [fp, #-3077]	; 0xfffff3fb
    1cb4:	04052e0a 	streq	r2, [r5], #-3594	; 0xfffff1f6
    1cb8:	09053d2f 	stmdbeq	r5, {r0, r1, r2, r3, r5, r8, sl, fp, ip, sp}
    1cbc:	30040524 	andcc	r0, r4, r4, lsr #10
    1cc0:	053d0c05 	ldreq	r0, [sp, #-3077]!	; 0xfffff3fb
    1cc4:	15052e04 	strne	r2, [r5, #-3588]	; 0xfffff1fc
    1cc8:	05132b02 	ldreq	r2, [r3, #-2818]	; 0xfffff4fe
    1ccc:	15054a1e 	strne	r4, [r5, #-2590]	; 0xfffff5e2
    1cd0:	4a1e0521 	bmi	78315c <shift+0x78315c>
    1cd4:	05211505 	streq	r1, [r1, #-1285]!	; 0xfffffafb
    1cd8:	15054a1f 	strne	r4, [r5, #-2591]	; 0xfffff5e1
    1cdc:	4a210521 	bmi	843168 <shift+0x843168>
    1ce0:	05211505 	streq	r1, [r1, #-1285]!	; 0xfffffafb
    1ce4:	0f054a21 	svceq	0x00054a21
    1ce8:	3d070523 	cfstr32cc	mvfx0, [r7, #-140]	; 0xffffff74
    1cec:	05900605 	ldreq	r0, [r0, #1541]	; 0x605
    1cf0:	0c052f12 	stceq	15, cr2, [r5], {18}
    1cf4:	2e0b0575 	cfrshl64cs	mvdx11, mvdx5, r0
    1cf8:	052f0405 	streq	r0, [pc, #-1029]!	; 18fb <shift+0x18fb>
    1cfc:	10053e12 	andne	r3, r5, r2, lsl lr
    1d00:	4b07053c 	blmi	1c31f8 <shift+0x1c31f8>
    1d04:	053d1105 	ldreq	r1, [sp, #-261]!	; 0xfffffefb
    1d08:	0d053d0b 	stceq	13, cr3, [r5, #-44]	; 0xffffffd4
    1d0c:	3d07054f 	cfstr32cc	mvfx0, [r7, #-316]	; 0xfffffec4
    1d10:	052e0605 	streq	r0, [lr, #-1541]!	; 0xfffff9fb
    1d14:	08052f04 	stmdaeq	r5, {r2, r8, r9, sl, fp, sp}
    1d18:	9007053d 	andls	r0, r7, sp, lsr r5
    1d1c:	052f1105 	streq	r1, [pc, #-261]!	; 1c1f <shift+0x1c1f>
    1d20:	0c05750d 	cfstr32eq	mvfx7, [r5], {13}
    1d24:	2f05052e 	svccs	0x0005052e
    1d28:	053e1105 	ldreq	r1, [lr, #-261]!	; 0xfffffefb
    1d2c:	07053c0f 	streq	r3, [r5, -pc, lsl #24]
    1d30:	3d0f054c 	cfstr32cc	mvfx0, [pc, #-304]	; 1c08 <shift+0x1c08>
    1d34:	05320d05 	ldreq	r0, [r2, #-3333]!	; 0xfffff2fb
    1d38:	06053d07 	streq	r3, [r5], -r7, lsl #26
    1d3c:	0016052e 	andseq	r0, r6, lr, lsr #10
    1d40:	2e010402 	cdpcs	4, 0, cr0, cr1, cr2, {0}
    1d44:	02001305 	andeq	r1, r0, #335544320	; 0x14000000
    1d48:	052e0104 	streq	r0, [lr, #-260]!	; 0xfffffefc
    1d4c:	04020025 	streq	r0, [r2], #-37	; 0xffffffdb
    1d50:	22052e02 	andcs	r2, r5, #2, 28
    1d54:	02040200 	andeq	r0, r4, #0, 4
    1d58:	0007052e 	andeq	r0, r7, lr, lsr #10
    1d5c:	2f030402 	svccs	0x00030402
    1d60:	02003105 	andeq	r3, r0, #1073741825	; 0x40000001
    1d64:	052d0304 	streq	r0, [sp, #-772]!	; 0xfffffcfc
    1d68:	12052f15 	andne	r2, r5, #21, 30	; 0x54
    1d6c:	2f10052e 	svccs	0x0010052e
    1d70:	052e0e05 	streq	r0, [lr, #-3589]!	; 0xfffff1fb
    1d74:	07052104 	streq	r2, [r5, -r4, lsl #2]
    1d78:	001c053d 	andseq	r0, ip, sp, lsr r5
    1d7c:	3c010402 	cfstrscc	mvf0, [r1], {2}
    1d80:	02001905 	andeq	r1, r0, #81920	; 0x14000
    1d84:	052e0104 	streq	r0, [lr, #-260]!	; 0xfffffefc
    1d88:	05052f0f 	streq	r2, [r5, #-3855]	; 0xfffff0f1
    1d8c:	4108052f 	tstmi	r8, pc, lsr #10
    1d90:	05300b05 	ldreq	r0, [r0, #-2821]!	; 0xfffff4fb
    1d94:	11052e03 	tstne	r5, r3, lsl #28
    1d98:	1501b202 	strne	fp, [r1, #-514]	; 0xfffffdfe
    1d9c:	053c0805 	ldreq	r0, [ip, #-2053]!	; 0xfffff7fb
    1da0:	0a052f0c 	beq	14d9d8 <shift+0x14d9d8>
    1da4:	4b0d0521 	blmi	343230 <shift+0x343230>
    1da8:	053d0705 	ldreq	r0, [sp, #-1797]!	; 0xfffff8fb
    1dac:	1905391b 	stmdbne	r5, {r0, r1, r3, r4, r8, fp, ip, sp}
    1db0:	6607056c 	strvs	r0, [r7], -ip, ror #10
    1db4:	052f0805 	streq	r0, [pc, #-2053]!	; 15b7 <shift+0x15b7>
    1db8:	05054b0b 	streq	r4, [r5, #-2827]	; 0xfffff4f5
    1dbc:	3d0b054b 	cfstr32cc	mvfx0, [fp, #-300]	; 0xfffffed4
    1dc0:	05210905 	streq	r0, [r1, #-2309]!	; 0xfffff6fb
    1dc4:	06054b0c 	streq	r4, [r5], -ip, lsl #22
    1dc8:	391a053d 	ldmdbcc	sl, {r0, r2, r3, r4, r5, r8, sl}
    1dcc:	056b0505 	strbeq	r0, [fp, #-1285]!	; 0xfffffafb
    1dd0:	07052309 	streq	r2, [r5, -r9, lsl #6]
    1dd4:	4b09053c 	blmi	2432cc <shift+0x2432cc>
    1dd8:	3d200805 	stccc	8, cr0, [r0, #-20]!	; 0xffffffec
    1ddc:	053e0b05 	ldreq	r0, [lr, #-2821]!	; 0xfffff4fb
    1de0:	11056609 	tstne	r5, r9, lsl #12
    1de4:	3c080522 	cfstr32cc	mvfx0, [r8], {34}	; 0x22
    1de8:	052f0c05 	streq	r0, [pc, #-3077]!	; 11eb <shift+0x11eb>
    1dec:	0d05210a 	stfeqs	f2, [r5, #-40]	; 0xffffffd8
    1df0:	3d07054b 	cfstr32cc	mvfx0, [r7, #-300]	; 0xfffffed4
    1df4:	05391e05 	ldreq	r1, [r9, #-3589]!	; 0xfffff1fb
    1df8:	0c053c11 	stceq	12, cr3, [r5], {17}
    1dfc:	2e050542 	cfsh32cs	mvfx0, mvfx5, #34
    1e00:	05210905 	streq	r0, [r1, #-2309]!	; 0xfffff6fb
    1e04:	0c054b0e 			; <UNDEFINED> instruction: 0x0c054b0e
    1e08:	0006052e 	andeq	r0, r6, lr, lsr #10
    1e0c:	2f020402 	svccs	0x00020402
    1e10:	02000d05 	andeq	r0, r0, #320	; 0x140
    1e14:	053c0204 	ldreq	r0, [ip, #-516]!	; 0xfffffdfc
    1e18:	0402001a 	streq	r0, [r2], #-26	; 0xffffffe6
    1e1c:	13053902 	movwne	r3, #22786	; 0x5902
    1e20:	01040200 	mrseq	r0, R12_usr
    1e24:	4f0b053c 	svcmi	0x000b053c
    1e28:	05210905 	streq	r0, [r1, #-2309]!	; 0xfffff6fb
    1e2c:	06054b0c 	streq	r4, [r5], -ip, lsl #22
    1e30:	391d053d 	ldmdbcc	sp, {r0, r2, r3, r4, r5, r8, sl}
    1e34:	053c1005 	ldreq	r1, [ip, #-5]!
    1e38:	08054105 	stmdaeq	r5, {r0, r2, r8, lr}
    1e3c:	4b120523 	blmi	4832d0 <shift+0x4832d0>
    1e40:	052f0c05 	streq	r0, [pc, #-3077]!	; 1243 <shift+0x1243>
    1e44:	07054d17 	smladeq	r5, r7, sp, r4
    1e48:	1f0b0566 	svcne	0x000b0566
    1e4c:	23080505 	movwcs	r0, #34053	; 0x8505
    1e50:	05260805 	streq	r0, [r6, #-2053]!	; 0xfffff7fb
    1e54:	0d053d12 	stceq	13, cr3, [r5, #-72]	; 0xffffffb8
    1e58:	4b11053c 	blmi	443350 <shift+0x443350>
    1e5c:	053c0a05 	ldreq	r0, [ip, #-2565]!	; 0xfffff5fb
    1e60:	0f053605 	svceq	0x00053605
    1e64:	05207903 	streq	r7, [r0, #-2307]!	; 0xfffff6fd
    1e68:	04020021 	streq	r0, [r2], #-33	; 0xffffffdf
    1e6c:	14053c01 	strne	r3, [r5], #-3073	; 0xfffff3ff
    1e70:	3c0f053d 	cfstr32cc	mvfx0, [pc], {61}	; 0x3d
    1e74:	054b1105 	strbeq	r1, [fp, #-261]	; 0xfffffefb
    1e78:	36054a0a 	strcc	r4, [r5], -sl, lsl #20
    1e7c:	2705052c 	strcs	r0, [r5, -ip, lsr #10]
    1e80:	051d1105 	ldreq	r1, [sp, #-261]	; 0xfffffefb
    1e84:	11053c0c 	tstne	r5, ip, lsl #24
    1e88:	3c0a054b 	cfstr32cc	mvfx0, [sl], {75}	; 0x4b
    1e8c:	05300505 	ldreq	r0, [r0, #-1285]!	; 0xfffffafb
    1e90:	0b052308 	bleq	14aab8 <shift+0x14aab8>
    1e94:	3d05054b 	cfstr32cc	mvfx0, [r5, #-300]	; 0xfffffed4
    1e98:	240a053d 	strcs	r0, [sl], #-1341	; 0xfffffac3
    1e9c:	052f0505 	streq	r0, [pc, #-1285]!	; 199f <shift+0x199f>
    1ea0:	0a05230b 	beq	14aad4 <shift+0x14aad4>
    1ea4:	2f05054c 	svccs	0x0005054c
    1ea8:	05240b05 	streq	r0, [r4, #-2821]!	; 0xfffff4fb
    1eac:	08054c05 	stmdaeq	r5, {r0, r2, sl, fp, lr}
    1eb0:	4b0b0523 	blmi	2c3344 <shift+0x2c3344>
    1eb4:	053d0505 	ldreq	r0, [sp, #-1285]!	; 0xfffffafb
    1eb8:	08053d09 	stmdaeq	r5, {r0, r3, r8, sl, fp, ip, sp}
    1ebc:	2f09052e 	svccs	0x0009052e
    1ec0:	054b0e05 	strbeq	r0, [fp, #-3589]	; 0xfffff1fb
    1ec4:	06052e0c 	streq	r2, [r5], -ip, lsl #28
    1ec8:	4005052f 	andmi	r0, r5, pc, lsr #10
    1ecc:	051e0605 	ldreq	r0, [lr, #-1541]	; 0xfffff9fb
    1ed0:	73033e05 	movwvc	r3, #15877	; 0x3e05
    1ed4:	03060520 	movweq	r0, #25888	; 0x6520
    1ed8:	0a052010 	beq	149f20 <shift+0x149f20>
    1edc:	3c08053d 	cfstr32cc	mvfx0, [r8], {61}	; 0x3d
    1ee0:	05670b05 	strbeq	r0, [r7, #-2821]!	; 0xfffff4fb
    1ee4:	08053d0a 	stmdaeq	r5, {r1, r3, r8, sl, fp, ip, sp}
    1ee8:	750e0566 	strvc	r0, [lr, #-1382]	; 0xfffffa9a
    1eec:	053c0705 	ldreq	r0, [ip, #-1797]!	; 0xfffff8fb
    1ef0:	09052f0b 	stmdbeq	r5, {r0, r1, r3, r8, r9, sl, fp, sp}
    1ef4:	670d0520 	strvs	r0, [sp, -r0, lsr #10]
    1ef8:	02001f05 	andeq	r1, r0, #5, 30
    1efc:	053c0104 	ldreq	r0, [ip, #-260]!	; 0xfffffefc
    1f00:	08053d0a 	stmdaeq	r5, {r1, r3, r8, sl, fp, ip, sp}
    1f04:	670d0566 	strvs	r0, [sp, -r6, ror #10]
    1f08:	053d1b05 	ldreq	r1, [sp, #-2821]!	; 0xfffff4fb
    1f0c:	0805660a 	stmdaeq	r5, {r1, r3, r9, sl, sp, lr}
    1f10:	830e0520 	movwhi	r0, #58656	; 0xe520
    1f14:	053c0705 	ldreq	r0, [ip, #-1797]!	; 0xfffff8fb
    1f18:	09052f0b 	stmdbeq	r5, {r0, r1, r3, r8, r9, sl, fp, sp}
    1f1c:	920a052e 	andls	r0, sl, #192937984	; 0xb800000
    1f20:	05660805 	strbeq	r0, [r6, #-2053]!	; 0xfffff7fb
    1f24:	0705750e 	streq	r7, [r5, -lr, lsl #10]
    1f28:	2f0b053c 	svccs	0x000b053c
    1f2c:	5a200905 	bpl	804348 <shift+0x804348>
    1f30:	c2031005 	andgt	r1, r3, #5
    1f34:	0512087e 	ldreq	r0, [r2, #-2174]	; 0xfffff782
    1f38:	04020009 	streq	r0, [r2], #-9
    1f3c:	05053c01 	streq	r3, [r5, #-3073]	; 0xfffff3ff
    1f40:	5801c103 	stmdapl	r1, {r0, r1, r8, lr, pc}
    1f44:	054b0805 	strbeq	r0, [fp, #-2053]	; 0xfffff7fb
    1f48:	08054b0a 	stmdaeq	r5, {r1, r3, r8, r9, fp, lr}
    1f4c:	400c053e 	andmi	r0, ip, lr, lsr r5
    1f50:	033d0105 	teqeq	sp, #1073741825	; 0x40000001
    1f54:	0405ac13 	streq	sl, [r5], #-3091	; 0xfffff3ed
    1f58:	750c0577 	strvc	r0, [ip, #-1399]	; 0xfffffa89
    1f5c:	05202205 	streq	r2, [r0, #-517]!	; 0xfffffdfb
    1f60:	0402001d 	streq	r0, [r2], #-29	; 0xffffffe3
    1f64:	22053c01 	andcs	r3, r5, #256	; 0x100
    1f68:	01040200 	mrseq	r0, R12_usr
    1f6c:	0402002e 	streq	r0, [r2], #-46	; 0xffffffd2
    1f70:	05200602 	streq	r0, [r0, #-1538]!	; 0xfffff9fe
    1f74:	04020001 	streq	r0, [r2], #-1
    1f78:	03210605 			; <UNDEFINED> instruction: 0x03210605
    1f7c:	02054a11 	andeq	r4, r5, #69632	; 0x11000
    1f80:	3d04056a 	cfstr32cc	mvfx0, [r4, #-424]	; 0xfffffe58
    1f84:	05760905 	ldrbeq	r0, [r6, #-2309]!	; 0xfffff6fb
    1f88:	11032101 	tstne	r3, r1, lsl #2
    1f8c:	6a020574 	bvs	83564 <shift+0x83564>
    1f90:	053d0605 	ldreq	r0, [sp, #-1541]!	; 0xfffff9fb
    1f94:	2205760c 	andcs	r7, r5, #12, 12	; 0xc00000
    1f98:	001d0520 	andseq	r0, sp, r0, lsr #10
    1f9c:	3c010402 	cfstrscc	mvf0, [r1], {2}
    1fa0:	02002205 	andeq	r2, r0, #1342177280	; 0x50000000
    1fa4:	002e0104 	eoreq	r0, lr, r4, lsl #2
    1fa8:	06020402 	streq	r0, [r2], -r2, lsl #8
    1fac:	00010520 	andeq	r0, r1, r0, lsr #10
    1fb0:	06050402 	streq	r0, [r5], -r2, lsl #8
    1fb4:	74120321 	ldrvc	r0, [r2], #-801	; 0xfffffcdf
    1fb8:	05670905 	strbeq	r0, [r7, #-2309]!	; 0xfffff6fb
    1fbc:	0f038301 	svceq	0x00038301
    1fc0:	5c02054a 	cfstr32pl	mvfx0, [r2], {74}	; 0x4a
    1fc4:	05410405 	strbeq	r0, [r1, #-1029]	; 0xfffffbfb
    1fc8:	01057a09 	tsteq	r5, r9, lsl #20
    1fcc:	740b0321 	strvc	r0, [fp], #-801	; 0xfffffcdf
    1fd0:	05910e05 	ldreq	r0, [r1, #3589]	; 0xe05
    1fd4:	05323106 	ldreq	r3, [r2, #-262]!	; 0xfffffefa
    1fd8:	05253007 	streq	r3, [r5, #-7]!
    1fdc:	0a059006 	beq	165ffc <shift+0x165ffc>
    1fe0:	2105052f 	tstcs	r5, pc, lsr #10
    1fe4:	053b0b05 	ldreq	r0, [fp, #-2821]!	; 0xfffff4fb
    1fe8:	0505ae0a 	streq	sl, [r5, #-3594]	; 0xfffff1f6
    1fec:	3b0b0521 	blcc	2c3478 <shift+0x2c3478>
    1ff0:	05b10705 	ldreq	r0, [r1, #1797]!	; 0x705
    1ff4:	16052e06 	strne	r2, [r5], -r6, lsl #28
    1ff8:	01040200 	mrseq	r0, R12_usr
    1ffc:	0013052e 	andseq	r0, r3, lr, lsr #10
    2000:	2e010402 	cdpcs	4, 0, cr0, cr1, cr2, {0}
    2004:	052f0c05 	streq	r0, [pc, #-3077]!	; 1407 <shift+0x1407>
    2008:	16053c08 	strne	r3, [r5], -r8, lsl #24
    200c:	3c120520 	cfldr32cc	mvfx0, [r2], {32}
    2010:	05200705 	streq	r0, [r0, #-1797]!	; 0xfffff8fb
    2014:	08053e04 	stmdaeq	r5, {r2, r9, sl, fp, ip, sp}
    2018:	2e060523 	cfsh32cs	mvfx0, mvfx6, #19
    201c:	053e0305 	ldreq	r0, [lr, #-773]!	; 0xfffffcfb
    2020:	06054107 	streq	r4, [r5], -r7, lsl #2
    2024:	2f0a052e 	svccs	0x000a052e
    2028:	05210805 	streq	r0, [r1, #-2053]!	; 0xfffff7fb
    202c:	1a053b0c 	bne	150c64 <shift+0x150c64>
    2030:	001d0590 	mulseq	sp, r0, r5
    2034:	2e010402 	cdpcs	4, 0, cr0, cr1, cr2, {0}
    2038:	02001a05 	andeq	r1, r0, #20480	; 0x5000
    203c:	052e0104 	streq	r0, [lr, #-260]!	; 0xfffffefc
    2040:	0805300a 	stmdaeq	r5, {r1, r3, ip, sp}
    2044:	3b0c0521 	blcc	3034d0 <shift+0x3034d0>
    2048:	05901a05 	ldreq	r1, [r0, #2565]	; 0xa05
    204c:	0402001d 	streq	r0, [r2], #-29	; 0xffffffe3
    2050:	1a053c01 	bne	15105c <shift+0x15105c>
    2054:	01040200 	mrseq	r0, R12_usr
    2058:	3004052e 	andcc	r0, r4, lr, lsr #10
    205c:	05240f05 	streq	r0, [r4, #-3845]!	; 0xfffff0fb
    2060:	06053d07 	streq	r3, [r5], -r7, lsl #26
    2064:	2f120590 	svccs	0x00120590
    2068:	05690d05 	strbeq	r0, [r9, #-3333]!	; 0xfffff2fb
    206c:	06053d07 	streq	r3, [r5], -r7, lsl #26
    2070:	0016052e 	andseq	r0, r6, lr, lsr #10
    2074:	2e010402 	cdpcs	4, 0, cr0, cr1, cr2, {0}
    2078:	02001305 	andeq	r1, r0, #335544320	; 0x14000000
    207c:	052e0104 	streq	r0, [lr, #-260]!	; 0xfffffefc
    2080:	04020025 	streq	r0, [r2], #-37	; 0xffffffdb
    2084:	22052e02 	andcs	r2, r5, #2, 28
    2088:	02040200 	andeq	r0, r4, #0, 4
    208c:	0007052e 	andeq	r0, r7, lr, lsr #10
    2090:	2f030402 	svccs	0x00030402
    2094:	02003105 	andeq	r3, r0, #1073741825	; 0x40000001
    2098:	052d0304 	streq	r0, [sp, #-772]!	; 0xfffffcfc
    209c:	13052f16 	movwne	r2, #24342	; 0x5f16
    20a0:	2f14052e 	svccs	0x0014052e
    20a4:	053c1005 	ldreq	r1, [ip, #-5]!
    20a8:	0805200e 	stmdaeq	r5, {r1, r2, r3, sp}
    20ac:	90070521 	andls	r0, r7, r1, lsr #10
    20b0:	052f0805 	streq	r0, [pc, #-2053]!	; 18b3 <shift+0x18b3>
    20b4:	09053d10 	stmdbeq	r5, {r4, r8, sl, fp, ip, sp}
    20b8:	4b0f052f 	blmi	3c357c <shift+0x3c357c>
    20bc:	053d1005 	ldreq	r1, [sp, #-5]!
    20c0:	08052f09 	stmdaeq	r5, {r0, r3, r8, r9, sl, fp, sp}
    20c4:	2f0b0540 	svccs	0x000b0540
    20c8:	05300805 	ldreq	r0, [r0, #-2053]!	; 0xfffff7fb
    20cc:	11052e06 	tstne	r5, r6, lsl #28
    20d0:	01040200 	mrseq	r0, R12_usr
    20d4:	000d053c 	andeq	r0, sp, ip, lsr r5
    20d8:	2e010402 	cdpcs	4, 0, cr0, cr1, cr2, {0}
    20dc:	053f0e05 	ldreq	r0, [pc, #-3589]!	; 12df <shift+0x12df>
    20e0:	03053c0a 	movweq	r3, #23562	; 0x5c0a
    20e4:	02170520 	andseq	r0, r7, #32, 10	; 0x8000000
    20e8:	0a051557 	beq	14764c <shift+0x14764c>
    20ec:	4b07053c 	blmi	1c35e4 <shift+0x1c35e4>
    20f0:	054b1105 	strbeq	r1, [fp, #-261]	; 0xfffffefb
    20f4:	04020010 	streq	r0, [r2], #-16
    20f8:	07053002 	streq	r3, [r5, -r2]
    20fc:	02040200 	andeq	r0, r4, #0, 4
    2100:	000c053c 	andeq	r0, ip, ip, lsr r5
    2104:	3c020402 	cfstrscc	mvf0, [r2], {2}
    2108:	02000a05 	andeq	r0, r0, #20480	; 0x5000
    210c:	05200204 	streq	r0, [r0, #-516]!	; 0xfffffdfc
    2110:	0402001f 	streq	r0, [r2], #-31	; 0xffffffe1
    2114:	22052102 	andcs	r2, r5, #-2147483648	; 0x80000000
    2118:	01040200 	mrseq	r0, R12_usr
    211c:	001f0566 	andseq	r0, pc, r6, ror #10
    2120:	2e010402 	cdpcs	4, 0, cr0, cr1, cr2, {0}
    2124:	052f0705 	streq	r0, [pc, #-1797]!	; 1a27 <shift+0x1a27>
    2128:	17053e03 	strne	r3, [r5, -r3, lsl #28]
    212c:	3c0a0523 	cfstr32cc	mvfx0, [sl], {35}	; 0x23
    2130:	054b0605 	strbeq	r0, [fp, #-1541]	; 0xfffff9fb
    2134:	0a054b11 	beq	154d80 <shift+0x154d80>
    2138:	2108053e 	tstcs	r8, lr, lsr r5
    213c:	053b0b05 	ldreq	r0, [fp, #-2821]!	; 0xfffff4fb
    2140:	1005b00a 	andne	fp, r5, sl
    2144:	3c070521 	cfstr32cc	mvfx0, [r7], {33}	; 0x21
    2148:	053c0c05 	ldreq	r0, [ip, #-3077]!	; 0xfffff3fb
    214c:	0b05200a 	bleq	14a17c <shift+0x14a17c>
    2150:	2e22051f 	mcrcs	5, 1, r0, cr2, cr15, {0}
    2154:	02001405 	andeq	r1, r0, #83886080	; 0x5000000
    2158:	052e0104 	streq	r0, [lr, #-260]!	; 0xfffffefc
    215c:	04020010 	streq	r0, [r2], #-16
    2160:	30058201 	andcc	r8, r5, r1, lsl #4
    2164:	02040200 	andeq	r0, r4, #0, 4
    2168:	0022052e 	eoreq	r0, r2, lr, lsr #10
    216c:	3c020402 	cfstrscc	mvf0, [r2], {2}
    2170:	3d310705 	ldccc	7, cr0, [r1, #-20]!	; 0xffffffec
    2174:	053e0305 	ldreq	r0, [lr, #-773]!	; 0xfffffcfb
    2178:	04020014 	streq	r0, [r2], #-20	; 0xffffffec
    217c:	09052401 	stmdbeq	r5, {r0, sl, sp}
    2180:	01040200 	mrseq	r0, R12_usr
    2184:	000d053c 	andeq	r0, sp, ip, lsr r5
    2188:	4b010402 	blmi	43198 <shift+0x43198>
    218c:	02000705 	andeq	r0, r0, #1310720	; 0x140000
    2190:	053c0104 	ldreq	r0, [ip, #-260]!	; 0xfffffefc
    2194:	04020003 	streq	r0, [r2], #-3
    2198:	09053001 	stmdbeq	r5, {r0, ip, sp}
    219c:	2f040522 	svccs	0x00040522
    21a0:	05230905 	streq	r0, [r3, #-2309]!	; 0xfffff6fb
    21a4:	1e052f04 	cdpne	15, 0, cr2, cr5, cr4, {0}
    21a8:	300c0522 	andcc	r0, ip, r2, lsr #10
    21ac:	05300405 	ldreq	r0, [r0, #-1029]!	; 0xfffffbfb
    21b0:	0805230c 	stmdaeq	r5, {r2, r3, r8, r9, sp}
    21b4:	2007053c 	andcs	r0, r7, ip, lsr r5
    21b8:	053d0c05 	ldreq	r0, [sp, #-3077]!	; 0xfffff3fb
    21bc:	0405320b 	streq	r3, [r5], #-523	; 0xfffffdf5
    21c0:	052e7803 	streq	r7, [lr, #-2051]!	; 0xfffff7fd
    21c4:	200e0309 	andcs	r0, lr, r9, lsl #6
    21c8:	05210705 	streq	r0, [r1, #-1797]!	; 0xfffff8fb
    21cc:	09053b0a 	stmdbeq	r5, {r1, r3, r8, r9, fp, ip, sp}
    21d0:	4b0605a1 	blmi	18385c <shift+0x18385c>
    21d4:	02000f05 	andeq	r0, r0, #5, 30
    21d8:	053c0104 	ldreq	r0, [ip, #-260]!	; 0xfffffefc
    21dc:	0a054b12 	beq	154e2c <shift+0x154e2c>
    21e0:	3e06052e 	cfsh32cc	mvfx0, mvfx6, #30
    21e4:	05591505 	ldrbeq	r1, [r9, #-1285]	; 0xfffffafb
    21e8:	04020028 	streq	r0, [r2], #-40	; 0xffffffd8
    21ec:	24053c01 	strcs	r3, [r5], #-3073	; 0xfffff3ff
    21f0:	01040200 	mrseq	r0, R12_usr
    21f4:	3d150574 	cfldr32cc	mvfx0, [r5, #-464]	; 0xfffffe30
    21f8:	02002805 	andeq	r2, r0, #327680	; 0x50000
    21fc:	053c0104 	ldreq	r0, [ip, #-260]!	; 0xfffffefc
    2200:	04020024 	streq	r0, [r2], #-36	; 0xffffffdc
    2204:	15057401 	strne	r7, [r5, #-1025]	; 0xfffffbff
    2208:	0028053d 	eoreq	r0, r8, sp, lsr r5
    220c:	3c010402 	cfstrscc	mvf0, [r1], {2}
    2210:	02002305 	andeq	r2, r0, #335544320	; 0x14000000
    2214:	05740104 	ldrbeq	r0, [r4, #-260]!	; 0xfffffefc
    2218:	04020037 	streq	r0, [r2], #-55	; 0xffffffc9
    221c:	15053c02 	strne	r3, [r5, #-3074]	; 0xfffff3fe
    2220:	00270559 	eoreq	r0, r7, r9, asr r5
    2224:	3c010402 	cfstrscc	mvf0, [r1], {2}
    2228:	02002305 	andeq	r2, r0, #335544320	; 0x14000000
    222c:	05740104 	ldrbeq	r0, [r4, #-260]!	; 0xfffffefc
    2230:	07053f03 	streq	r3, [r5, -r3, lsl #30]
    2234:	05146002 	ldreq	r6, [r4, #-2]
    2238:	12053d26 	andne	r3, r5, #2432	; 0x980
    223c:	4b18053c 	blmi	603734 <shift+0x603734>
    2240:	05820a05 	streq	r0, [r2, #2565]	; 0xa05
    2244:	04052008 	streq	r2, [r5], #-8
    2248:	1d2a0533 	cfstr32ne	mvfx0, [sl, #-204]!	; 0xffffff34
    224c:	053c1405 	ldreq	r1, [ip, #-1029]!	; 0xfffffbfb
    2250:	0a054b1a 	beq	154ec0 <shift+0x154ec0>
    2254:	20080582 	andcs	r0, r8, r2, lsl #11
    2258:	05300405 	ldreq	r0, [r0, #-1029]!	; 0xfffffbfb
    225c:	1a052207 	bne	14aa80 <shift+0x14aa80>
    2260:	3c0c053d 	cfstr32cc	mvfx0, [ip], {61}	; 0x3d
    2264:	054b1205 	strbeq	r1, [fp, #-517]	; 0xfffffdfb
    2268:	0805820a 	stmdaeq	r5, {r1, r3, r9, pc}
    226c:	33040520 	movwcc	r0, #17696	; 0x4520
    2270:	051d2c05 	ldreq	r2, [sp, #-3077]	; 0xfffff3fb
    2274:	1b053c15 	blne	1512d0 <shift+0x1512d0>
    2278:	820a054b 	andhi	r0, sl, #314572800	; 0x12c00000
    227c:	05200805 	streq	r0, [r0, #-2053]!	; 0xfffff7fb
    2280:	07053004 	streq	r3, [r5, -r4]
    2284:	3d180522 	cfldr32cc	mvfx0, [r8, #-136]	; 0xffffff78
    2288:	053c0b05 	ldreq	r0, [ip, #-2821]!	; 0xfffff4fb
    228c:	08054b0a 	stmdaeq	r5, {r1, r3, r8, r9, fp, lr}
    2290:	33040582 	movwcc	r0, #17794	; 0x4582
    2294:	051d2905 	ldreq	r2, [sp, #-2309]	; 0xfffff6fb
    2298:	0a053c14 	beq	1512f0 <shift+0x1512f0>
    229c:	8208054b 	andhi	r0, r8, #314572800	; 0x12c00000
    22a0:	05300405 	ldreq	r0, [r0, #-1029]!	; 0xfffffbfb
    22a4:	21052207 	tstcs	r5, r7, lsl #4
    22a8:	3c10053d 	cfldr32cc	mvfx0, [r0], {61}	; 0x3d
    22ac:	054b0a05 	strbeq	r0, [fp, #-2565]	; 0xfffff5fb
    22b0:	04059008 	streq	r9, [r5], #-8
    22b4:	1d330541 	cfldr32ne	mvfx0, [r3, #-260]!	; 0xfffffefc
    22b8:	053c1905 	ldreq	r1, [ip, #-2309]!	; 0xfffff6fb
    22bc:	08054b0a 	stmdaeq	r5, {r1, r3, r8, r9, fp, lr}
    22c0:	3e040590 	mcrcc	5, 0, r0, cr4, cr0, {4}
    22c4:	05241a05 	streq	r1, [r4, #-2565]!	; 0xfffff5fb
    22c8:	12053c0c 	andne	r3, r5, #12, 24	; 0xc00
    22cc:	8207054b 	andhi	r0, r7, #314572800	; 0x12c00000
    22d0:	05300305 	ldreq	r0, [r0, #-773]!	; 0xfffffcfb
    22d4:	16052207 	strne	r2, [r5], -r7, lsl #4
    22d8:	3c0a053d 	cfstr32cc	mvfx0, [sl], {61}	; 0x3d
    22dc:	054b1005 	strbeq	r1, [fp, #-5]
    22e0:	04058208 	streq	r8, [r5], #-520	; 0xfffffdf8
    22e4:	1d270533 	cfstr32ne	mvfx0, [r7, #-204]!	; 0xffffff34
    22e8:	053c1305 	ldreq	r1, [ip, #-773]!	; 0xfffffcfb
    22ec:	08054b19 	stmdaeq	r5, {r0, r3, r4, r8, r9, fp, lr}
    22f0:	30040582 	andcc	r0, r4, r2, lsl #11
    22f4:	05220605 	streq	r0, [r2, #-1541]!	; 0xfffff9fb
    22f8:	06053e07 	streq	r3, [r5], -r7, lsl #28
    22fc:	30070520 	andcc	r0, r7, r0, lsr #10
    2300:	be030805 	cdplt	8, 0, cr0, cr3, cr5, {0}
    2304:	0d052e7e 	stceq	14, cr2, [r5, #-504]	; 0xfffffe08
    2308:	0010052e 	andseq	r0, r0, lr, lsr #10
    230c:	2e010402 	cdpcs	4, 0, cr0, cr1, cr2, {0}
    2310:	02000d05 	andeq	r0, r0, #320	; 0x140
    2314:	052e0104 	streq	r0, [lr, #-260]!	; 0xfffffefc
    2318:	4a0f0305 	bmi	3c2f34 <shift+0x3c2f34>
    231c:	03330405 	teqeq	r3, #83886080	; 0x5000000
    2320:	052e01ad 	streq	r0, [lr, #-429]!	; 0xfffffe53
    2324:	01052309 	tsteq	r5, r9, lsl #6
    2328:	01040200 	mrseq	r0, R12_usr
    232c:	820b0321 	andhi	r0, fp, #-2080374784	; 0x84000000
    2330:	055c0205 	ldrbeq	r0, [ip, #-517]	; 0xfffffdfb
    2334:	09053d06 	stmdbeq	r5, {r1, r2, r8, sl, fp, ip, sp}
    2338:	21010576 	tstcs	r1, r6, ror r5
    233c:	01000702 	tsteq	r0, r2, lsl #14
    2340:	00010001 	andeq	r0, r1, r1
    2344:	c7000200 	strgt	r0, [r0, -r0, lsl #4]
    2348:	02000000 	andeq	r0, r0, #0
    234c:	0d0efb01 	vstreq	d15, [lr, #-4]
    2350:	01010100 	mrseq	r0, (UNDEF: 17)
    2354:	00000001 	andeq	r0, r0, r1
    2358:	01000001 	tsteq	r0, r1
    235c:	6d6f682f 	stclvs	8, cr6, [pc, #-188]!	; 22a8 <shift+0x22a8>
    2360:	63742f65 	cmnvs	r4, #404	; 0x194
    2364:	622d6777 	eorvs	r6, sp, #31195136	; 0x1dc0000
    2368:	646c6975 	strbtvs	r6, [ip], #-2421	; 0xfffff68b
    236c:	76616c73 			; <UNDEFINED> instruction: 0x76616c73
    2370:	6f772f65 	svcvs	0x00772f65
    2374:	70736b72 	rsbsvc	r6, r3, r2, ror fp
    2378:	2f656361 	svccs	0x00656361
    237c:	67776374 			; <UNDEFINED> instruction: 0x67776374
    2380:	6b616d2d 	blvs	185d83c <shift+0x185d83c>
    2384:	65722d65 	ldrbvs	r2, [r2, #-3429]!	; 0xfffff29b
    2388:	7361656c 	cmnvc	r1, #108, 10	; 0x1b000000
    238c:	616c2f65 	cmnvs	ip, r5, ror #30
    2390:	2f6c6562 	svccs	0x006c6562
    2394:	6b636f64 	blvs	18de12c <shift+0x18de12c>
    2398:	742d7265 	strtvc	r7, [sp], #-613	; 0xfffffd9b
    239c:	74737572 	ldrbtvc	r7, [r3], #-1394	; 0xfffffa8e
    23a0:	6d612d79 	stclvs	13, cr2, [r1, #-484]!	; 0xfffffe1c
    23a4:	2d343664 	ldccs	6, cr3, [r4, #-400]!	; 0xfffffe70
    23a8:	67776374 			; <UNDEFINED> instruction: 0x67776374
    23ac:	6975622d 	ldmdbvs	r5!, {r0, r2, r3, r5, r9, sp, lr}^
    23b0:	742f646c 	strtvc	r6, [pc], #-1132	; 23b8 <shift+0x23b8>
    23b4:	65677261 	strbvs	r7, [r7, #-609]!	; 0xfffffd9f
    23b8:	72612f74 	rsbvc	r2, r1, #116, 30	; 0x1d0
    23bc:	696c2d6d 	stmdbvs	ip!, {r0, r2, r3, r5, r6, r8, sl, fp, sp}^
    23c0:	2d78756e 	cfldr64cs	mvdx7, [r8, #-440]!	; 0xfffffe48
    23c4:	65756e67 	ldrbvs	r6, [r5, #-3687]!	; 0xfffff199
    23c8:	68696261 	stmdavs	r9!, {r0, r5, r6, r9, sp, lr}^
    23cc:	6e732f66 	cdpvs	15, 7, cr2, cr3, cr6, {3}
    23d0:	68737061 	ldmdavs	r3!, {r0, r5, r6, ip, sp, lr}^
    23d4:	2f73746f 	svccs	0x0073746f
    23d8:	2d636367 	stclcs	3, cr6, [r3, #-412]!	; 0xfffffe64
    23dc:	616e696c 	cmnvs	lr, ip, ror #18
    23e0:	342d6f72 	strtcc	r6, [sp], #-3954	; 0xfffff08e
    23e4:	322d392e 	eorcc	r3, sp, #753664	; 0xb8000
    23e8:	2e373130 	mrccs	1, 1, r3, cr7, cr0, {1}
    23ec:	6c2f3130 	stfvss	f3, [pc], #-192	; 2334 <shift+0x2334>
    23f0:	63676269 	cmnvs	r7, #-1879048186	; 0x90000006
    23f4:	6f632f63 	svcvs	0x00632f63
    23f8:	6769666e 	strbvs	r6, [r9, -lr, ror #12]!
    23fc:	6d72612f 	ldfvse	f6, [r2, #-188]!	; 0xffffff44
    2400:	696c0000 	stmdbvs	ip!, {}^	; <UNPREDICTABLE>
    2404:	75663162 	strbvc	r3, [r6, #-354]!	; 0xfffffe9e
    2408:	2e73636e 	cdpcs	3, 7, cr6, cr3, cr14, {3}
    240c:	00010053 	andeq	r0, r1, r3, asr r0
    2410:	05000000 	streq	r0, [r0, #-0]
    2414:	003bf002 	eorseq	pc, fp, r2
    2418:	07cf0380 	strbeq	r0, [pc, r0, lsl #7]
    241c:	21212101 			; <UNDEFINED> instruction: 0x21212101
    2420:	212f212f 			; <UNDEFINED> instruction: 0x212f212f
    2424:	02910230 	addseq	r0, r1, #48, 4
    2428:	21222114 			; <UNDEFINED> instruction: 0x21222114
    242c:	4c222121 	stfmis	f2, [r2], #-132	; 0xffffff7c
    2430:	7aeb032f 	bvc	ffac30f4 <__bss_end+0x7fabe2b8>
    2434:	05af0320 	streq	r0, [pc, #800]!	; 275c <shift+0x275c>
    2438:	2f212158 	svccs	0x00212158
    243c:	2f2f2f2f 	svccs	0x002f2f2f
    2440:	01000102 	tsteq	r0, r2, lsl #2
    2444:	0000dd01 	andeq	sp, r0, r1, lsl #26
    2448:	c3000200 	movwgt	r0, #512	; 0x200
    244c:	02000000 	andeq	r0, r0, #0
    2450:	0d0efb01 	vstreq	d15, [lr, #-4]
    2454:	01010100 	mrseq	r0, (UNDEF: 17)
    2458:	00000001 	andeq	r0, r0, r1
    245c:	01000001 	tsteq	r0, r1
    2460:	6d6f682f 	stclvs	8, cr6, [pc, #-188]!	; 23ac <shift+0x23ac>
    2464:	63742f65 	cmnvs	r4, #404	; 0x194
    2468:	622d6777 	eorvs	r6, sp, #31195136	; 0x1dc0000
    246c:	646c6975 	strbtvs	r6, [ip], #-2421	; 0xfffff68b
    2470:	76616c73 			; <UNDEFINED> instruction: 0x76616c73
    2474:	6f772f65 	svcvs	0x00772f65
    2478:	70736b72 	rsbsvc	r6, r3, r2, ror fp
    247c:	2f656361 	svccs	0x00656361
    2480:	67776374 			; <UNDEFINED> instruction: 0x67776374
    2484:	6b616d2d 	blvs	185d940 <shift+0x185d940>
    2488:	65722d65 	ldrbvs	r2, [r2, #-3429]!	; 0xfffff29b
    248c:	7361656c 	cmnvc	r1, #108, 10	; 0x1b000000
    2490:	616c2f65 	cmnvs	ip, r5, ror #30
    2494:	2f6c6562 	svccs	0x006c6562
    2498:	6b636f64 	blvs	18de230 <shift+0x18de230>
    249c:	742d7265 	strtvc	r7, [sp], #-613	; 0xfffffd9b
    24a0:	74737572 	ldrbtvc	r7, [r3], #-1394	; 0xfffffa8e
    24a4:	6d612d79 	stclvs	13, cr2, [r1, #-484]!	; 0xfffffe1c
    24a8:	2d343664 	ldccs	6, cr3, [r4, #-400]!	; 0xfffffe70
    24ac:	67776374 			; <UNDEFINED> instruction: 0x67776374
    24b0:	6975622d 	ldmdbvs	r5!, {r0, r2, r3, r5, r9, sp, lr}^
    24b4:	742f646c 	strtvc	r6, [pc], #-1132	; 24bc <shift+0x24bc>
    24b8:	65677261 	strbvs	r7, [r7, #-609]!	; 0xfffffd9f
    24bc:	72612f74 	rsbvc	r2, r1, #116, 30	; 0x1d0
    24c0:	696c2d6d 	stmdbvs	ip!, {r0, r2, r3, r5, r6, r8, sl, fp, sp}^
    24c4:	2d78756e 	cfldr64cs	mvdx7, [r8, #-440]!	; 0xfffffe48
    24c8:	65756e67 	ldrbvs	r6, [r5, #-3687]!	; 0xfffff199
    24cc:	68696261 	stmdavs	r9!, {r0, r5, r6, r9, sp, lr}^
    24d0:	6e732f66 	cdpvs	15, 7, cr2, cr3, cr6, {3}
    24d4:	68737061 	ldmdavs	r3!, {r0, r5, r6, ip, sp, lr}^
    24d8:	2f73746f 	svccs	0x0073746f
    24dc:	2d636367 	stclcs	3, cr6, [r3, #-412]!	; 0xfffffe64
    24e0:	616e696c 	cmnvs	lr, ip, ror #18
    24e4:	342d6f72 	strtcc	r6, [sp], #-3954	; 0xfffff08e
    24e8:	322d392e 	eorcc	r3, sp, #753664	; 0xb8000
    24ec:	2e373130 	mrccs	1, 1, r3, cr7, cr0, {1}
    24f0:	6c2f3130 	stfvss	f3, [pc], #-192	; 2438 <shift+0x2438>
    24f4:	63676269 	cmnvs	r7, #-1879048186	; 0x90000006
    24f8:	6f632f63 	svcvs	0x00632f63
    24fc:	6769666e 	strbvs	r6, [r9, -lr, ror #12]!
    2500:	6d72612f 	ldfvse	f6, [r2, #-188]!	; 0xffffff44
    2504:	70620000 	rsbvc	r0, r2, r0
    2508:	2e696261 	cdpcs	2, 6, cr6, cr9, cr1, {3}
    250c:	00010053 	andeq	r0, r1, r3, asr r0
    2510:	05000000 	streq	r0, [r0, #-0]
    2514:	003e6802 	eorseq	r6, lr, r2, lsl #16
    2518:	01fd0380 	mvnseq	r0, r0, lsl #7
    251c:	2f4cbc01 	svccs	0x004cbc01
    2520:	00010259 	andeq	r0, r1, r9, asr r2
    2524:	00e30101 	rsceq	r0, r3, r1, lsl #2
    2528:	00020000 	andeq	r0, r2, r0
    252c:	000000c7 	andeq	r0, r0, r7, asr #1
    2530:	0efb0102 	cdpeq	1, 15, cr0, cr11, cr2, {0}
    2534:	0101000d 	tsteq	r1, sp
    2538:	00000101 	andeq	r0, r0, r1, lsl #2
    253c:	00000100 	andeq	r0, r0, r0, lsl #2
    2540:	6f682f01 	svcvs	0x00682f01
    2544:	742f656d 	strtvc	r6, [pc], #-1389	; 254c <shift+0x254c>
    2548:	2d677763 	stclcs	7, cr7, [r7, #-396]!	; 0xfffffe74
    254c:	6c697562 	cfstr64vs	mvdx7, [r9], #-392	; 0xfffffe78
    2550:	616c7364 	cmnvs	ip, r4, ror #6
    2554:	772f6576 			; <UNDEFINED> instruction: 0x772f6576
    2558:	736b726f 	cmnvc	fp, #-268435450	; 0xf0000006
    255c:	65636170 	strbvs	r6, [r3, #-368]!	; 0xfffffe90
    2560:	7763742f 	strbvc	r7, [r3, -pc, lsr #8]!
    2564:	616d2d67 	cmnvs	sp, r7, ror #26
    2568:	722d656b 	eorvc	r6, sp, #448790528	; 0x1ac00000
    256c:	61656c65 	cmnvs	r5, r5, ror #24
    2570:	6c2f6573 	cfstr32vs	mvfx6, [pc], #-460	; 23ac <shift+0x23ac>
    2574:	6c656261 	sfmvs	f6, 2, [r5], #-388	; 0xfffffe7c
    2578:	636f642f 	cmnvs	pc, #788529152	; 0x2f000000
    257c:	2d72656b 	cfldr64cs	mvdx6, [r2, #-428]!	; 0xfffffe54
    2580:	73757274 	cmnvc	r5, #116, 4	; 0x40000007
    2584:	612d7974 			; <UNDEFINED> instruction: 0x612d7974
    2588:	3436646d 	ldrtcc	r6, [r6], #-1133	; 0xfffffb93
    258c:	7763742d 	strbvc	r7, [r3, -sp, lsr #8]!
    2590:	75622d67 	strbvc	r2, [r2, #-3431]!	; 0xfffff299
    2594:	2f646c69 	svccs	0x00646c69
    2598:	67726174 			; <UNDEFINED> instruction: 0x67726174
    259c:	612f7465 			; <UNDEFINED> instruction: 0x612f7465
    25a0:	6c2d6d72 	stcvs	13, cr6, [sp], #-456	; 0xfffffe38
    25a4:	78756e69 	ldmdavc	r5!, {r0, r3, r5, r6, r9, sl, fp, sp, lr}^
    25a8:	756e672d 	strbvc	r6, [lr, #-1837]!	; 0xfffff8d3
    25ac:	69626165 	stmdbvs	r2!, {r0, r2, r5, r6, r8, sp, lr}^
    25b0:	732f6668 			; <UNDEFINED> instruction: 0x732f6668
    25b4:	7370616e 	cmnvc	r0, #-2147483621	; 0x8000001b
    25b8:	73746f68 	cmnvc	r4, #104, 30	; 0x1a0
    25bc:	6363672f 	cmnvs	r3, #12320768	; 0xbc0000
    25c0:	6e696c2d 	cdpvs	12, 6, cr6, cr9, cr13, {1}
    25c4:	2d6f7261 	sfmcs	f7, 2, [pc, #-388]!	; 2448 <shift+0x2448>
    25c8:	2d392e34 	ldccs	14, cr2, [r9, #-208]!	; 0xffffff30
    25cc:	37313032 			; <UNDEFINED> instruction: 0x37313032
    25d0:	2f31302e 	svccs	0x0031302e
    25d4:	6762696c 	strbvs	r6, [r2, -ip, ror #18]!
    25d8:	632f6363 			; <UNDEFINED> instruction: 0x632f6363
    25dc:	69666e6f 	stmdbvs	r6!, {r0, r1, r2, r3, r5, r6, r9, sl, fp, sp, lr}^
    25e0:	72612f67 	rsbvc	r2, r1, #412	; 0x19c
    25e4:	6c00006d 	stcvs	0, cr0, [r0], {109}	; 0x6d
    25e8:	66316269 	ldrtvs	r6, [r1], -r9, ror #4
    25ec:	73636e75 	cmnvc	r3, #1872	; 0x750
    25f0:	0100532e 	tsteq	r0, lr, lsr #6
    25f4:	00000000 	andeq	r0, r0, r0
    25f8:	3e980205 	cdpcc	2, 9, cr0, cr8, cr5, {0}
    25fc:	b0038000 	andlt	r8, r3, r0
    2600:	2f21010a 	svccs	0x0021010a
    2604:	2e77bb03 	vaddcs.f64	d27, d7, d3
    2608:	01000102 	tsteq	r0, r2, lsl #2
    260c:	00011301 	andeq	r1, r1, r1, lsl #6
    2610:	c7000200 	strgt	r0, [r0, -r0, lsl #4]
    2614:	02000000 	andeq	r0, r0, #0
    2618:	0d0efb01 	vstreq	d15, [lr, #-4]
    261c:	01010100 	mrseq	r0, (UNDEF: 17)
    2620:	00000001 	andeq	r0, r0, r1
    2624:	01000001 	tsteq	r0, r1
    2628:	6d6f682f 	stclvs	8, cr6, [pc, #-188]!	; 2574 <shift+0x2574>
    262c:	63742f65 	cmnvs	r4, #404	; 0x194
    2630:	622d6777 	eorvs	r6, sp, #31195136	; 0x1dc0000
    2634:	646c6975 	strbtvs	r6, [ip], #-2421	; 0xfffff68b
    2638:	76616c73 			; <UNDEFINED> instruction: 0x76616c73
    263c:	6f772f65 	svcvs	0x00772f65
    2640:	70736b72 	rsbsvc	r6, r3, r2, ror fp
    2644:	2f656361 	svccs	0x00656361
    2648:	67776374 			; <UNDEFINED> instruction: 0x67776374
    264c:	6b616d2d 	blvs	185db08 <shift+0x185db08>
    2650:	65722d65 	ldrbvs	r2, [r2, #-3429]!	; 0xfffff29b
    2654:	7361656c 	cmnvc	r1, #108, 10	; 0x1b000000
    2658:	616c2f65 	cmnvs	ip, r5, ror #30
    265c:	2f6c6562 	svccs	0x006c6562
    2660:	6b636f64 	blvs	18de3f8 <shift+0x18de3f8>
    2664:	742d7265 	strtvc	r7, [sp], #-613	; 0xfffffd9b
    2668:	74737572 	ldrbtvc	r7, [r3], #-1394	; 0xfffffa8e
    266c:	6d612d79 	stclvs	13, cr2, [r1, #-484]!	; 0xfffffe1c
    2670:	2d343664 	ldccs	6, cr3, [r4, #-400]!	; 0xfffffe70
    2674:	67776374 			; <UNDEFINED> instruction: 0x67776374
    2678:	6975622d 	ldmdbvs	r5!, {r0, r2, r3, r5, r9, sp, lr}^
    267c:	742f646c 	strtvc	r6, [pc], #-1132	; 2684 <shift+0x2684>
    2680:	65677261 	strbvs	r7, [r7, #-609]!	; 0xfffffd9f
    2684:	72612f74 	rsbvc	r2, r1, #116, 30	; 0x1d0
    2688:	696c2d6d 	stmdbvs	ip!, {r0, r2, r3, r5, r6, r8, sl, fp, sp}^
    268c:	2d78756e 	cfldr64cs	mvdx7, [r8, #-440]!	; 0xfffffe48
    2690:	65756e67 	ldrbvs	r6, [r5, #-3687]!	; 0xfffff199
    2694:	68696261 	stmdavs	r9!, {r0, r5, r6, r9, sp, lr}^
    2698:	6e732f66 	cdpvs	15, 7, cr2, cr3, cr6, {3}
    269c:	68737061 	ldmdavs	r3!, {r0, r5, r6, ip, sp, lr}^
    26a0:	2f73746f 	svccs	0x0073746f
    26a4:	2d636367 	stclcs	3, cr6, [r3, #-412]!	; 0xfffffe64
    26a8:	616e696c 	cmnvs	lr, ip, ror #18
    26ac:	342d6f72 	strtcc	r6, [sp], #-3954	; 0xfffff08e
    26b0:	322d392e 	eorcc	r3, sp, #753664	; 0xb8000
    26b4:	2e373130 	mrccs	1, 1, r3, cr7, cr0, {1}
    26b8:	6c2f3130 	stfvss	f3, [pc], #-192	; 2600 <shift+0x2600>
    26bc:	63676269 	cmnvs	r7, #-1879048186	; 0x90000006
    26c0:	6c000063 	stcvs	0, cr0, [r0], {99}	; 0x63
    26c4:	63676269 	cmnvs	r7, #-1879048186	; 0x90000006
    26c8:	632e3263 			; <UNDEFINED> instruction: 0x632e3263
    26cc:	00000100 	andeq	r0, r0, r0, lsl #2
    26d0:	6762696c 	strbvs	r6, [r2, -ip, ror #18]!
    26d4:	2e326363 	cdpcs	3, 3, cr6, cr2, cr3, {3}
    26d8:	00010068 	andeq	r0, r1, r8, rrx
    26dc:	05000000 	streq	r0, [r0, #-0]
    26e0:	003ea402 	eorseq	sl, lr, r2, lsl #8
    26e4:	07b00380 	ldreq	r0, [r0, r0, lsl #7]!
    26e8:	0c032e01 	stceq	14, cr2, [r3], {1}
    26ec:	20740320 	rsbscs	r0, r4, r0, lsr #6
    26f0:	033c0c03 	teqeq	ip, #768	; 0x300
    26f4:	03212e74 			; <UNDEFINED> instruction: 0x03212e74
    26f8:	4b223c0b 	blmi	89172c <shift+0x89172c>
    26fc:	03f9214c 	mvnseq	r2, #76, 2
    2700:	18033c68 	stmdane	r3, {r3, r5, r6, sl, fp, ip, sp}
    2704:	212d233c 			; <UNDEFINED> instruction: 0x212d233c
    2708:	52303281 	eorspl	r3, r0, #268435464	; 0x10000008
    270c:	304d2986 	subcc	r2, sp, r6, lsl #19
    2710:	4921b933 	stmdbmi	r1!, {r0, r1, r4, r5, r8, fp, ip, sp, pc}
    2714:	32082121 	andcc	r2, r8, #1073741832	; 0x40000008
    2718:	55033021 	strpl	r3, [r3, #-33]	; 0xffffffdf
    271c:	024b492e 	subeq	r4, fp, #753664	; 0xb8000
    2720:	01010005 	tsteq	r1, r5

Disassembly of section .debug_line_str:

00000000 <.debug_line_str>:
   0:	6d6f682f 	stclvs	8, cr6, [pc, #-188]!	; ffffff4c <__bss_end+0x7fffb110>
   4:	69782f65 	ldmdbvs	r8!, {r0, r2, r5, r6, r8, r9, sl, fp, sp}^
   8:	6f632f75 	svcvs	0x00632f75
   c:	692f6564 	stmdbvs	pc!, {r2, r5, r6, r8, sl, sp, lr}	; <UNPREDICTABLE>
  10:	7536786d 	ldrvc	r7, [r6, #-2157]!	; 0xfffff793
  14:	61622f6c 	cmnvs	r2, ip, ror #30
  18:	70006572 	andvc	r6, r0, r2, ror r5
  1c:	656a6f72 	strbvs	r6, [sl, #-3954]!	; 0xfffff08e
  20:	73007463 	movwvc	r7, #1123	; 0x463
  24:	74726174 	ldrbtvc	r6, [r2], #-372	; 0xfffffe8c
  28:	7300532e 	movwvc	r5, #814	; 0x32e
  2c:	6f696474 	svcvs	0x00696474
  30:	62696c2f 	rsbvs	r6, r9, #12032	; 0x2f00
  34:	62696c00 	rsbvs	r6, r9, #0, 24
  38:	6e756631 	mrcvs	6, 3, r6, cr5, cr1, {1}
  3c:	532e7363 			; <UNDEFINED> instruction: 0x532e7363
	...

Disassembly of section .debug_info:

00000000 <.debug_info>:
       0:	00000021 	andeq	r0, r0, r1, lsr #32
       4:	04010005 	streq	r0, [r1], #-5
       8:	00000000 	andeq	r0, r0, r0
       c:	00000001 	andeq	r0, r0, r1
      10:	00000000 	andeq	r0, r0, r0
      14:	0002f880 	andeq	pc, r2, r0, lsl #17
      18:	10000000 	andne	r0, r0, r0
      1c:	2b000000 	blcs	24 <shift+0x24>
      20:	01000000 	mrseq	r0, (UNDEF: 0)
      24:	00002180 	andeq	r2, r0, r0, lsl #3
      28:	01000500 	tsteq	r0, r0, lsl #10
      2c:	00001404 	andeq	r1, r0, r4, lsl #8
      30:	00ab0100 	adceq	r0, fp, r0, lsl #2
      34:	01800000 	orreq	r0, r0, r0
      38:	03a08000 	moveq	r8, #0
      3c:	00000037 	andeq	r0, r0, r7, lsr r0
      40:	00000010 	andeq	r0, r0, r0, lsl r0
      44:	0000002b 	andeq	r0, r0, fp, lsr #32
      48:	01218001 			; <UNDEFINED> instruction: 0x01218001
      4c:	00050000 	andeq	r0, r5, r0
      50:	00280401 	eoreq	r0, r8, r1, lsl #8
      54:	06070000 	streq	r0, [r7], -r0
      58:	1d000001 	stcne	0, cr0, [r0, #-4]
      5c:	0000005b 	andeq	r0, r0, fp, asr r0
      60:	00000010 	andeq	r0, r0, r0, lsl r0
      64:	80000320 	andhi	r0, r0, r0, lsr #6
      68:	00000080 	andeq	r0, r0, r0, lsl #1
      6c:	00000115 	andeq	r0, r0, r5, lsl r1
      70:	a0060101 	andge	r0, r6, r1, lsl #2
      74:	01000000 	mrseq	r0, (UNDEF: 0)
      78:	01620502 	cmneq	r2, r2, lsl #10
      7c:	04080000 	streq	r0, [r8], #-0
      80:	746e6905 	strbtvc	r6, [lr], #-2309	; 0xfffff6fb
      84:	08010100 	stmdaeq	r1, {r8}
      88:	0000009e 	muleq	r0, lr, r0
      8c:	eb070201 	bl	1c0898 <shift+0x1c0898>
      90:	09000000 	stmdbeq	r0, {}	; <UNPREDICTABLE>
      94:	000000b6 	strheq	r0, [r0], -r6
      98:	5a161006 	bpl	5840b8 <shift+0x5840b8>
      9c:	0a000000 	beq	a4 <shift+0xa4>
      a0:	00000049 	andeq	r0, r0, r9, asr #32
      a4:	d3070401 	movwle	r0, #29697	; 0x7401
      a8:	01000000 	mrseq	r0, (UNDEF: 0)
      ac:	00c90708 	sbceq	r0, r9, r8, lsl #14
      b0:	08010000 	stmdaeq	r1, {}	; <UNPREDICTABLE>
      b4:	00004d05 	andeq	r4, r0, r5, lsl #26
      b8:	07040100 	streq	r0, [r4, -r0, lsl #2]
      bc:	000000ce 	andeq	r0, r0, lr, asr #1
      c0:	52050401 	andpl	r0, r5, #16777216	; 0x1000000
      c4:	01000000 	mrseq	r0, (UNDEF: 0)
      c8:	00a70801 	adceq	r0, r7, r1, lsl #16
      cc:	7d0b0000 	stcvc	0, cr0, [fp, #-0]
      d0:	0c000000 	stceq	0, cr0, [r0], {-0}
      d4:	00001deb 	andeq	r1, r0, fp, ror #27
      d8:	34051607 	strcc	r1, [r5], #-1543	; 0xfffff9f9
      dc:	a0000000 	andge	r0, r0, r0
      e0:	03000000 	movweq	r0, #0
      e4:	000000a0 	andeq	r0, r0, r0, lsr #1
      e8:	8404000d 	strhi	r0, [r4], #-13
      ec:	05000000 	streq	r0, [r0, #-0]
      f0:	000000fe 	strdeq	r0, [r0], -lr
      f4:	0000b50a 	andeq	fp, r0, sl, lsl #10
      f8:	005a0300 	subseq	r0, sl, r0, lsl #6
      fc:	05000000 	streq	r0, [r0, #-0]
     100:	00000083 	andeq	r0, r0, r3, lsl #1
     104:	0000c50d 	andeq	ip, r0, sp, lsl #10
     108:	00490300 	subeq	r0, r9, r0, lsl #6
     10c:	02000000 	andeq	r0, r0, #0
     110:	000000bf 	strheq	r0, [r0], -pc	; <UNPREDICTABLE>
     114:	6f020703 	svcvs	0x00020703
     118:	02000000 	andeq	r0, r0, #0
     11c:	016c0208 	cmneq	ip, r8, lsl #4
     120:	12040000 	andne	r0, r4, #0
     124:	00008d02 	andeq	r8, r0, r2, lsl #26
     128:	02130400 	andseq	r0, r3, #0, 8
     12c:	0000007a 	andeq	r0, r0, sl, ror r0
     130:	6a0e1105 	bvs	38454c <shift+0x38454c>
     134:	01000000 	mrseq	r0, (UNDEF: 0)
     138:	0034050f 	eorseq	r0, r4, pc, lsl #10
     13c:	03200000 	nopeq	{0}	; <UNPREDICTABLE>
     140:	00808000 	addeq	r8, r0, r0
     144:	9c010000 	stcls	0, cr0, [r1], {-0}
     148:	0000011f 	andeq	r0, r0, pc, lsl r1
     14c:	0000ac06 	andeq	sl, r0, r6, lsl #24
     150:	490e2100 	stmdbmi	lr, {r8, sp}
     154:	02000000 	andeq	r0, r0, #0
     158:	e0067491 	mul	r6, r1, r4
     15c:	2e000000 	cdpcs	0, 0, cr0, cr0, cr0, {0}
     160:	00011f18 	andeq	r1, r1, r8, lsl pc
     164:	70910200 	addsvc	r0, r1, r0, lsl #4
     168:	00550400 	subseq	r0, r5, r0, lsl #8
     16c:	2f000000 	svccs	0x00000000
     170:	05000006 	streq	r0, [r0, #-6]
     174:	f6040100 			; <UNDEFINED> instruction: 0xf6040100
     178:	09000000 	stmdbeq	r0, {}	; <UNPREDICTABLE>
     17c:	00000106 	andeq	r0, r0, r6, lsl #2
     180:	00036c1d 	andeq	r6, r3, sp, lsl ip
     184:	00001000 	andeq	r1, r0, r0
     188:	0003a000 	andeq	sl, r3, r0
     18c:	00024280 	andeq	r4, r2, r0, lsl #5
     190:	00021300 	andeq	r1, r2, r0, lsl #6
     194:	06010300 	streq	r0, [r1], -r0, lsl #6
     198:	000000a0 	andeq	r0, r0, r0, lsr #1
     19c:	62050203 	andvs	r0, r5, #805306368	; 0x30000000
     1a0:	0a000001 	beq	1ac <shift+0x1ac>
     1a4:	6e690504 	cdpvs	5, 6, cr0, cr9, cr4, {0}
     1a8:	65060074 	strvs	r0, [r6, #-116]	; 0xffffff8c
     1ac:	0e000002 	cdpeq	0, 0, cr0, cr0, cr2, {0}
     1b0:	00004617 	andeq	r4, r0, r7, lsl r6
     1b4:	08010300 	stmdaeq	r1, {r8, r9}
     1b8:	0000009e 	muleq	r0, lr, r0
     1bc:	eb070203 	bl	1c09d0 <shift+0x1c09d0>
     1c0:	06000000 	streq	r0, [r0], -r0
     1c4:	000000b6 	strheq	r0, [r0], -r6
     1c8:	00641610 	rsbeq	r1, r4, r0, lsl r6
     1cc:	540b0000 	strpl	r0, [fp], #-0
     1d0:	03000000 	movweq	r0, #0
     1d4:	00d30704 	sbcseq	r0, r3, r4, lsl #14
     1d8:	08030000 	stmdaeq	r3, {}	; <UNPREDICTABLE>
     1dc:	0000c907 	andeq	ip, r0, r7, lsl #18
     1e0:	05080300 	streq	r0, [r8, #-768]	; 0xfffffd00
     1e4:	0000004d 	andeq	r0, r0, sp, asr #32
     1e8:	00003b04 	andeq	r3, r0, r4, lsl #22
     1ec:	00008900 	andeq	r8, r0, r0, lsl #18
     1f0:	00640500 	rsbeq	r0, r4, r0, lsl #10
     1f4:	00030000 	andeq	r0, r3, r0
     1f8:	00003b04 	andeq	r3, r0, r4, lsl #22
     1fc:	00009900 	andeq	r9, r0, r0, lsl #18
     200:	00640500 	rsbeq	r0, r4, r0, lsl #10
     204:	000b0000 	andeq	r0, fp, r0
     208:	00003b04 	andeq	r3, r0, r4, lsl #22
     20c:	0000a900 	andeq	sl, r0, r0, lsl #18
     210:	00640500 	rsbeq	r0, r4, r0, lsl #10
     214:	001b0000 	andseq	r0, fp, r0
     218:	00003b04 	andeq	r3, r0, r4, lsl #22
     21c:	0000b900 	andeq	fp, r0, r0, lsl #18
     220:	00640500 	rsbeq	r0, r4, r0, lsl #10
     224:	00070000 	andeq	r0, r7, r0
     228:	2d038c0c 	stccs	12, cr8, [r3, #-48]	; 0xffffffd0
     22c:	026f091b 	rsbeq	r0, pc, #442368	; 0x6c000
     230:	43070000 	movwmi	r0, #28672	; 0x7000
     234:	2e005243 	cdpcs	2, 0, cr5, cr0, cr3, {2}
     238:	00005f1b 	andeq	r5, r0, fp, lsl pc
     23c:	67010000 	strvs	r0, [r1, -r0]
     240:	2f000003 	svccs	0x00000003
     244:	005f111b 	subseq	r1, pc, fp, lsl r1	; <UNPREDICTABLE>
     248:	07040000 	streq	r0, [r4, -r0]
     24c:	00525343 	subseq	r5, r2, r3, asr #6
     250:	005f1b30 	subseq	r1, pc, r0, lsr fp	; <UNPREDICTABLE>
     254:	01080000 	mrseq	r0, (UNDEF: 8)
     258:	000003de 	ldrdeq	r0, [r0], -lr
     25c:	5f111b31 	svcpl	0x00111b31
     260:	0c000000 	stceq	0, cr0, [r0], {-0}
     264:	00046301 	andeq	r6, r4, r1, lsl #6
     268:	111b3200 	tstne	fp, r0, lsl #4
     26c:	0000005f 	andeq	r0, r0, pc, asr r0
     270:	02c80110 	sbceq	r0, r8, #16, 2
     274:	1b330000 	blne	cc027c <shift+0xcc027c>
     278:	00005f11 	andeq	r5, r0, r1, lsl pc
     27c:	d8011400 	stmdale	r1, {sl, ip}
     280:	34000003 	strcc	r0, [r0], #-3
     284:	005f111b 	subseq	r1, pc, fp, lsl r1	; <UNPREDICTABLE>
     288:	01180000 	tsteq	r8, r0
     28c:	000004c6 	andeq	r0, r0, r6, asr #9
     290:	5f111b35 	svcpl	0x00111b35
     294:	1c000000 	stcne	0, cr0, [r0], {-0}
     298:	00018301 	andeq	r8, r1, r1, lsl #6
     29c:	111b3600 	tstne	fp, r0, lsl #12
     2a0:	0000005f 	andeq	r0, r0, pc, asr r0
     2a4:	01a70120 			; <UNDEFINED> instruction: 0x01a70120
     2a8:	1b370000 	blne	dc02b0 <shift+0xdc02b0>
     2ac:	00005f11 	andeq	r5, r0, r1, lsl pc
     2b0:	a0012400 	andge	r2, r1, r0, lsl #8
     2b4:	38000004 	stmdacc	r0, {r2}
     2b8:	005f111b 	subseq	r1, pc, fp, lsl r1	; <UNPREDICTABLE>
     2bc:	01280000 			; <UNDEFINED> instruction: 0x01280000
     2c0:	0000020b 	andeq	r0, r0, fp, lsl #4
     2c4:	5f111b39 	svcpl	0x00111b39
     2c8:	2c000000 	stccs	0, cr0, [r0], {-0}
     2cc:	00049a01 	andeq	r9, r4, r1, lsl #20
     2d0:	111b3a00 	tstne	fp, r0, lsl #20
     2d4:	0000005f 	andeq	r0, r0, pc, asr r0
     2d8:	03640130 	cmneq	r4, #48, 2
     2dc:	1b3b0000 	blne	ec02e4 <shift+0xec02e4>
     2e0:	00005f11 	andeq	r5, r0, r1, lsl pc
     2e4:	32013400 	andcc	r3, r1, #0, 8
     2e8:	3c000003 	stccc	0, cr0, [r0], {3}
     2ec:	005f111b 	subseq	r1, pc, fp, lsl r1	; <UNPREDICTABLE>
     2f0:	01380000 	teqeq	r8, r0
     2f4:	000001ba 			; <UNDEFINED> instruction: 0x000001ba
     2f8:	5f111b3d 	svcpl	0x00111b3d
     2fc:	3c000000 	stccc	0, cr0, [r0], {-0}
     300:	0003e901 	andeq	lr, r3, r1, lsl #18
     304:	101b3e00 	andsne	r3, fp, r0, lsl #28
     308:	000000a9 	andeq	r0, r0, r9, lsr #1
     30c:	01920140 	orrseq	r0, r2, r0, asr #2
     310:	1b3f0000 	blne	fc0318 <shift+0xfc0318>
     314:	00005f11 	andeq	r5, r0, r1, lsl pc
     318:	f4014800 	vst2.8	{d4-d5}, [r1], r0
     31c:	40000003 	andmi	r0, r0, r3
     320:	00a9101b 	adceq	r1, r9, fp, lsl r0
     324:	014c0000 	mrseq	r0, (UNDEF: 76)
     328:	0000022e 	andeq	r0, r0, lr, lsr #4
     32c:	5f111b41 	svcpl	0x00111b41
     330:	54000000 	strpl	r0, [r0], #-0
     334:	0001c101 	andeq	ip, r1, r1, lsl #2
     338:	111b4200 	tstne	fp, r0, lsl #4
     33c:	0000005f 	andeq	r0, r0, pc, asr r0
     340:	03390158 	teqeq	r9, #88, 2
     344:	1b430000 	blne	10c034c <shift+0x10c034c>
     348:	00005f11 	andeq	r5, r0, r1, lsl pc
     34c:	6d015c00 	stcvs	12, cr5, [r1, #-0]
     350:	44000002 	strmi	r0, [r0], #-2
     354:	005f111b 	subseq	r1, pc, fp, lsl r1	; <UNPREDICTABLE>
     358:	01600000 	cmneq	r0, r0
     35c:	0000032d 	andeq	r0, r0, sp, lsr #6
     360:	5f111b45 	svcpl	0x00111b45
     364:	64000000 	strvs	r0, [r0], #-0
     368:	0003e301 	andeq	lr, r3, r1, lsl #6
     36c:	111b4600 	tstne	fp, r0, lsl #12
     370:	0000005f 	andeq	r0, r0, pc, asr r0
     374:	04cd0168 	strbeq	r0, [sp], #360	; 0x168
     378:	1b470000 	blne	11c0380 <shift+0x11c0380>
     37c:	00005f11 	andeq	r5, r0, r1, lsl pc
     380:	dd016c00 	stcle	12, cr6, [r1, #-0]
     384:	48000004 	stmdami	r0, {r2}
     388:	005f111b 	subseq	r1, pc, fp, lsl r1	; <UNPREDICTABLE>
     38c:	01700000 	cmneq	r0, r0
     390:	000004e3 	andeq	r0, r0, r3, ror #9
     394:	5f111b49 	svcpl	0x00111b49
     398:	74000000 	strvc	r0, [r0], #-0
     39c:	0004f501 	andeq	pc, r4, r1, lsl #10
     3a0:	111b4a00 	tstne	fp, r0, lsl #20
     3a4:	0000005f 	andeq	r0, r0, pc, asr r0
     3a8:	04fb0178 	ldrbteq	r0, [fp], #376	; 0x178
     3ac:	1b4b0000 	blne	12c03b4 <shift+0x12c03b4>
     3b0:	00005f11 	andeq	r5, r0, r1, lsl pc
     3b4:	01017c00 	tsteq	r1, r0, lsl #24
     3b8:	4c000005 	stcmi	0, cr0, [r0], {5}
     3bc:	005f111b 	subseq	r1, pc, fp, lsl r1	; <UNPREDICTABLE>
     3c0:	01800000 	orreq	r0, r0, r0
     3c4:	000003ff 	strdeq	r0, [r0], -pc	; <UNPREDICTABLE>
     3c8:	79101b4d 	ldmdbvc	r0, {r0, r2, r3, r6, r8, r9, fp, ip}
     3cc:	84000000 	strhi	r0, [r0], #-0
     3d0:	0004c001 	andeq	ip, r4, r1
     3d4:	111b4e00 	tstne	fp, r0, lsl #28
     3d8:	0000005f 	andeq	r0, r0, pc, asr r0
     3dc:	db080088 	blle	200604 <shift+0x200604>
     3e0:	4f000002 	svcmi	0x00000002
     3e4:	0000b91b 	andeq	fp, r0, fp, lsl r9
     3e8:	01800d00 	orreq	r0, r0, r0, lsl #26
     3ec:	091e9303 	ldmdbeq	lr, {r0, r1, r8, r9, ip, pc}
     3f0:	000005ca 	andeq	r0, r0, sl, asr #11
     3f4:	0002ae01 	andeq	sl, r2, r1, lsl #28
     3f8:	111e9400 	tstne	lr, r0, lsl #8
     3fc:	0000005f 	andeq	r0, r0, pc, asr r0
     400:	04e90100 	strbteq	r0, [r9], #256	; 0x100
     404:	1e950000 	cdpne	0, 9, cr0, cr5, cr0, {0}
     408:	00005f11 	andeq	r5, r0, r1, lsl pc
     40c:	77010400 	strvc	r0, [r1, -r0, lsl #8]
     410:	96000001 	strls	r0, [r0], -r1
     414:	005f111e 	subseq	r1, pc, lr, lsl r1	; <UNPREDICTABLE>
     418:	01080000 	mrseq	r0, (UNDEF: 8)
     41c:	00000436 	andeq	r0, r0, r6, lsr r4
     420:	5f111e97 	svcpl	0x00111e97
     424:	0c000000 	stceq	0, cr0, [r0], {-0}
     428:	0002f101 	andeq	pc, r2, r1, lsl #2
     42c:	111e9800 	tstne	lr, r0, lsl #16
     430:	0000005f 	andeq	r0, r0, pc, asr r0
     434:	02ce0110 	sbceq	r0, lr, #16, 2
     438:	1e990000 	cdpne	0, 9, cr0, cr9, cr0, {0}
     43c:	00005f11 	andeq	r5, r0, r1, lsl pc
     440:	c6011400 	strgt	r1, [r1], -r0, lsl #8
     444:	9a000001 	bls	450 <shift+0x450>
     448:	005f111e 	subseq	r1, pc, lr, lsl r1	; <UNPREDICTABLE>
     44c:	01180000 	tsteq	r8, r0
     450:	00000481 	andeq	r0, r0, r1, lsl #9
     454:	5f111e9b 	svcpl	0x00111e9b
     458:	1c000000 	stcne	0, cr0, [r0], {-0}
     45c:	0002fa01 	andeq	pc, r2, r1, lsl #20
     460:	111e9c00 	tstne	lr, r0, lsl #24
     464:	0000005f 	andeq	r0, r0, pc, asr r0
     468:	03cb0120 	biceq	r0, fp, #32, 2
     46c:	1e9d0000 	cdpne	0, 9, cr0, cr13, cr0, {0}
     470:	00005f11 	andeq	r5, r0, r1, lsl pc
     474:	e4012400 	str	r2, [r1], #-1024	; 0xfffffc00
     478:	9e000002 	cdpls	0, 0, cr0, cr0, cr2, {0}
     47c:	005f111e 	subseq	r1, pc, lr, lsl r1	; <UNPREDICTABLE>
     480:	01280000 			; <UNDEFINED> instruction: 0x01280000
     484:	0000024c 	andeq	r0, r0, ip, asr #4
     488:	5f111e9f 	svcpl	0x00111e9f
     48c:	2c000000 	stccs	0, cr0, [r0], {-0}
     490:	0002c001 	andeq	ip, r2, r1
     494:	111ea000 	tstne	lr, r0
     498:	0000005f 	andeq	r0, r0, pc, asr r0
     49c:	037e0130 	cmneq	lr, #48, 2
     4a0:	1ea10000 	cdpne	0, 10, cr0, cr1, cr0, {0}
     4a4:	00005f11 	andeq	r5, r0, r1, lsl pc
     4a8:	59013400 	stmdbpl	r1, {sl, ip, sp}
     4ac:	a2000002 	andge	r0, r0, #2
     4b0:	005f111e 	subseq	r1, pc, lr, lsl r1	; <UNPREDICTABLE>
     4b4:	01380000 	teqeq	r8, r0
     4b8:	000001eb 	andeq	r0, r0, fp, ror #3
     4bc:	5f111ea3 	svcpl	0x00111ea3
     4c0:	3c000000 	stccc	0, cr0, [r0], {-0}
     4c4:	00027f01 	andeq	r7, r2, r1, lsl #30
     4c8:	111ea400 	tstne	lr, r0, lsl #8
     4cc:	0000005f 	andeq	r0, r0, pc, asr r0
     4d0:	03e90140 	mvneq	r0, #64, 2
     4d4:	1ea50000 	cdpne	0, 10, cr0, cr5, cr0, {0}
     4d8:	00008910 	andeq	r8, r0, r0, lsl r9
     4dc:	8e014400 	cfcpyshi	mvf4, mvf1
     4e0:	a6000004 	strge	r0, [r0], -r4
     4e4:	005f111e 	subseq	r1, pc, lr, lsl r1	; <UNPREDICTABLE>
     4e8:	01500000 	cmpeq	r0, r0
     4ec:	000003f4 	strdeq	r0, [r0], -r4
     4f0:	89101ea7 	ldmdbhi	r0, {r0, r1, r2, r5, r7, r9, sl, fp, ip}
     4f4:	54000000 	strpl	r0, [r0], #-0
     4f8:	00038a01 	andeq	r8, r3, r1, lsl #20
     4fc:	111ea800 	tstne	lr, r0, lsl #16
     500:	0000005f 	andeq	r0, r0, pc, asr r0
     504:	03ff0160 	mvnseq	r0, #96, 2
     508:	1ea90000 	cdpne	0, 10, cr0, cr9, cr0, {0}
     50c:	00008910 	andeq	r8, r0, r0, lsl r9
     510:	d3016400 	movwle	r6, #5120	; 0x1400
     514:	aa000004 	bge	52c <shift+0x52c>
     518:	005f111e 	subseq	r1, pc, lr, lsl r1	; <UNPREDICTABLE>
     51c:	01700000 	cmneq	r0, r0
     520:	00000298 	muleq	r0, r8, r2
     524:	5f111eab 	svcpl	0x00111eab
     528:	74000000 	strvc	r0, [r0], #-0
     52c:	00019901 	andeq	r9, r1, r1, lsl #18
     530:	111eac00 	tstne	lr, r0, lsl #24
     534:	0000005f 	andeq	r0, r0, pc, asr r0
     538:	044b0178 	strbeq	r0, [fp], #-376	; 0xfffffe88
     53c:	1ead0000 	cdpne	0, 10, cr0, cr13, cr0, {0}
     540:	00005f11 	andeq	r5, r0, r1, lsl pc
     544:	73017c00 	movwvc	r7, #7168	; 0x1c00
     548:	ae000004 	cdpge	0, 0, cr0, cr0, cr4, {0}
     54c:	005f111e 	subseq	r1, pc, lr, lsl r1	; <UNPREDICTABLE>
     550:	01800000 	orreq	r0, r0, r0
     554:	0000040a 	andeq	r0, r0, sl, lsl #8
     558:	89101eaf 	ldmdbhi	r0, {r0, r1, r2, r3, r5, r7, r9, sl, fp, ip}
     55c:	84000000 	strhi	r0, [r0], #-0
     560:	0003ae01 	andeq	sl, r3, r1, lsl #28
     564:	111eb000 	tstne	lr, r0
     568:	0000005f 	andeq	r0, r0, pc, asr r0
     56c:	04150190 	ldreq	r0, [r5], #-400	; 0xfffffe70
     570:	1eb10000 	cdpne	0, 11, cr0, cr1, cr0, {0}
     574:	00008910 	andeq	r8, r0, r0, lsl r9
     578:	f7019400 			; <UNDEFINED> instruction: 0xf7019400
     57c:	b2000001 	andlt	r0, r0, #1
     580:	005f111e 	subseq	r1, pc, lr, lsl r1	; <UNPREDICTABLE>
     584:	01a00000 	moveq	r0, r0
     588:	00000315 	andeq	r0, r0, r5, lsl r3
     58c:	5f111eb3 	svcpl	0x00111eb3
     590:	a4000000 	strge	r0, [r0], #-0
     594:	00023401 	andeq	r3, r2, r1, lsl #8
     598:	111eb400 	tstne	lr, r0, lsl #8
     59c:	0000005f 	andeq	r0, r0, pc, asr r0
     5a0:	050701a8 	streq	r0, [r7, #-424]	; 0xfffffe58
     5a4:	1eb50000 	cdpne	0, 11, cr0, cr5, cr0, {0}
     5a8:	00005f11 	andeq	r5, r0, r1, lsl pc
     5ac:	8a01ac00 	bhi	6b5b4 <shift+0x6b5b4>
     5b0:	b6000002 	strlt	r0, [r0], -r2
     5b4:	005f111e 	subseq	r1, pc, lr, lsl r1	; <UNPREDICTABLE>
     5b8:	01b00000 	movseq	r0, r0
     5bc:	00000420 	andeq	r0, r0, r0, lsr #8
     5c0:	89101eb7 	ldmdbhi	r0, {r0, r1, r2, r4, r5, r7, r9, sl, fp, ip}
     5c4:	b4000000 	strlt	r0, [r0], #-0
     5c8:	00033e01 	andeq	r3, r3, r1, lsl #28
     5cc:	111eb800 	tstne	lr, r0, lsl #16
     5d0:	0000005f 	andeq	r0, r0, pc, asr r0
     5d4:	042b01c0 	strteq	r0, [fp], #-448	; 0xfffffe40
     5d8:	1eb90000 	cdpne	0, 11, cr0, cr9, cr0, {0}
     5dc:	00009910 	andeq	r9, r0, r0, lsl r9
     5e0:	4201c400 	andmi	ip, r1, #0, 8
     5e4:	ba000004 	blt	5fc <shift+0x5fc>
     5e8:	005f111e 	subseq	r1, pc, lr, lsl r1	; <UNPREDICTABLE>
     5ec:	01e00000 	mvneq	r0, r0
     5f0:	000003be 			; <UNDEFINED> instruction: 0x000003be
     5f4:	5f111ebb 	svcpl	0x00111ebb
     5f8:	e4000000 	str	r0, [r0], #-0
     5fc:	0001de01 	andeq	sp, r1, r1, lsl #28
     600:	111ebc00 	tstne	lr, r0, lsl #24
     604:	0000005f 	andeq	r0, r0, pc, asr r0
     608:	04b301e8 	ldrteq	r0, [r3], #488	; 0x1e8
     60c:	1ebd0000 	cdpne	0, 11, cr0, cr13, cr0, {0}
     610:	00005f11 	andeq	r5, r0, r1, lsl pc
     614:	8a01ec00 	bhi	7b61c <shift+0x7b61c>
     618:	be000001 	cdplt	0, 0, cr0, cr0, cr1, {0}
     61c:	005f111e 	subseq	r1, pc, lr, lsl r1	; <UNPREDICTABLE>
     620:	01f00000 	mvnseq	r0, r0
     624:	00000358 	andeq	r0, r0, r8, asr r3
     628:	5f111ebf 	svcpl	0x00111ebf
     62c:	f4000000 	vst4.8	{d0-d3}, [r0], r0
     630:	00027301 	andeq	r7, r2, r1, lsl #6
     634:	111ec000 	tstne	lr, r0
     638:	0000005f 	andeq	r0, r0, pc, asr r0
     63c:	01ae01f8 	strdeq	r0, [lr, r8]!
     640:	1ec10000 	cdpne	0, 12, cr0, cr1, cr0, {0}
     644:	00005f11 	andeq	r5, r0, r1, lsl pc
     648:	a602fc00 	strge	pc, [r2], -r0, lsl #24
     64c:	c2000002 	andgt	r0, r0, #2
     650:	005f111e 	subseq	r1, pc, lr, lsl r1	; <UNPREDICTABLE>
     654:	01000000 	mrseq	r0, (UNDEF: 0)
     658:	0004a702 	andeq	sl, r4, r2, lsl #14
     65c:	111ec300 	tstne	lr, r0, lsl #6
     660:	0000005f 	andeq	r0, r0, pc, asr r0
     664:	a2020104 	andge	r0, r2, #4, 2
     668:	c4000003 	strgt	r0, [r0], #-3
     66c:	005f111e 	subseq	r1, pc, lr, lsl r1	; <UNPREDICTABLE>
     670:	01080000 	mrseq	r0, (UNDEF: 8)
     674:	00030902 	andeq	r0, r3, r2, lsl #18
     678:	111ec500 	tstne	lr, r0, lsl #10
     67c:	0000005f 	andeq	r0, r0, pc, asr r0
     680:	d302010c 	movwle	r0, #8460	; 0x210c
     684:	c6000001 	strgt	r0, [r0], -r1
     688:	05ca101e 	strbeq	r1, [sl, #30]
     68c:	01100000 	tsteq	r0, r0
     690:	00022202 	andeq	r2, r2, r2, lsl #4
     694:	111ec700 	tstne	lr, r0, lsl #14
     698:	0000005f 	andeq	r0, r0, pc, asr r0
     69c:	01020150 	tsteq	r2, r0, asr r1
     6a0:	c8000002 	stmdagt	r0, {r1}
     6a4:	005f111e 	subseq	r1, pc, lr, lsl r1	; <UNPREDICTABLE>
     6a8:	01540000 	cmpeq	r4, r0
     6ac:	00046902 	andeq	r6, r4, r2, lsl #18
     6b0:	111ec900 	tstne	lr, r0, lsl #18
     6b4:	0000005f 	andeq	r0, r0, pc, asr r0
     6b8:	98020158 	stmdals	r2, {r3, r4, r6, r8}
     6bc:	ca000003 	bgt	6d0 <shift+0x6d0>
     6c0:	005f111e 	subseq	r1, pc, lr, lsl r1	; <UNPREDICTABLE>
     6c4:	015c0000 	cmpeq	ip, r0
     6c8:	00022802 	andeq	r2, r2, r2, lsl #16
     6cc:	111ecb00 	tstne	lr, r0, lsl #22
     6d0:	0000005f 	andeq	r0, r0, pc, asr r0
     6d4:	23020160 	movwcs	r0, #8544	; 0x2160
     6d8:	cc000003 	stcgt	0, cr0, [r0], {3}
     6dc:	005f111e 	subseq	r1, pc, lr, lsl r1	; <UNPREDICTABLE>
     6e0:	01640000 	cmneq	r4, r0
     6e4:	00024202 	andeq	r4, r2, r2, lsl #4
     6e8:	111ecd00 	tstne	lr, r0, lsl #26
     6ec:	0000005f 	andeq	r0, r0, pc, asr r0
     6f0:	15020168 	strne	r0, [r2, #-360]	; 0xfffffe98
     6f4:	ce000005 	cdpgt	0, 0, cr0, cr0, cr5, {0}
     6f8:	005f111e 	subseq	r1, pc, lr, lsl r1	; <UNPREDICTABLE>
     6fc:	016c0000 	cmneq	ip, r0
     700:	00030302 	andeq	r0, r3, r2, lsl #6
     704:	111ecf00 	tstne	lr, r0, lsl #30
     708:	0000005f 	andeq	r0, r0, pc, asr r0
     70c:	59020170 	stmdbpl	r2, {r4, r5, r6, r8}
     710:	d0000004 	andle	r0, r0, r4
     714:	005f111e 	subseq	r1, pc, lr, lsl r1	; <UNPREDICTABLE>
     718:	01740000 	cmneq	r4, r0
     71c:	00034e02 	andeq	r4, r3, r2, lsl #28
     720:	111ed100 	tstne	lr, r0, lsl #2
     724:	0000005f 	andeq	r0, r0, pc, asr r0
     728:	b6020178 			; <UNDEFINED> instruction: 0xb6020178
     72c:	d2000002 	andle	r0, r0, #2
     730:	005f111e 	subseq	r1, pc, lr, lsl r1	; <UNPREDICTABLE>
     734:	017c0000 	cmneq	ip, r0
     738:	003b0400 	eorseq	r0, fp, r0, lsl #8
     73c:	05da0000 	ldrbeq	r0, [sl]
     740:	64050000 	strvs	r0, [r5], #-0
     744:	3f000000 	svccc	0x00000000
     748:	02120800 	andseq	r0, r2, #0, 16
     74c:	1ed30000 	cdpne	0, 13, cr0, cr3, cr0, {0}
     750:	0000027a 	andeq	r0, r0, sl, ror r2
     754:	ce070403 	cdpgt	4, 0, cr0, cr7, cr3, {0}
     758:	03000000 	movweq	r0, #0
     75c:	00520504 	subseq	r0, r2, r4, lsl #10
     760:	01030000 	mrseq	r0, (UNDEF: 3)
     764:	0000a708 	andeq	sl, r0, r8, lsl #14
     768:	008d0e00 	addeq	r0, sp, r0, lsl #28
     76c:	13010000 	movwne	r0, #4096	; 0x1000
     770:	00041006 	andeq	r1, r4, r6
     774:	0001d280 	andeq	sp, r1, r0, lsl #5
     778:	209c0100 	addscs	r0, ip, r0, lsl #2
     77c:	0f000006 	svceq	0x00000006
     780:	00676572 	rsbeq	r6, r7, r2, ror r5
     784:	64121501 	ldrvs	r1, [r2], #-1281	; 0xfffffaff
     788:	02000000 	andeq	r0, r0, #0
     78c:	10007491 	mulne	r0, r1, r4
     790:	0000016c 	andeq	r0, r0, ip, ror #2
     794:	a0060701 	andge	r0, r6, r1, lsl #14
     798:	70800003 	addvc	r0, r0, r3
     79c:	01000000 	mrseq	r0, (UNDEF: 0)
     7a0:	027c009c 	rsbseq	r0, ip, #156	; 0x9c
     7a4:	00050000 	andeq	r0, r5, r0
     7a8:	01f40401 	mvnseq	r0, r1, lsl #8
     7ac:	06070000 	streq	r0, [r7], -r0
     7b0:	1d000001 	stcne	0, cr0, [r0, #-4]
     7b4:	000005ee 	andeq	r0, r0, lr, ror #11
     7b8:	00000010 	andeq	r0, r0, r0, lsl r0
     7bc:	800005e2 	andhi	r0, r0, r2, ror #11
     7c0:	00000172 	andeq	r0, r0, r2, ror r1
     7c4:	00000312 	andeq	r0, r0, r2, lsl r3
     7c8:	a0060102 	andge	r0, r6, r2, lsl #2
     7cc:	02000000 	andeq	r0, r0, #0
     7d0:	01620502 	cmneq	r2, r2, lsl #10
     7d4:	04080000 	streq	r0, [r8], #-0
     7d8:	746e6905 	strbtvc	r6, [lr], #-2309	; 0xfffff6fb
     7dc:	08010200 	stmdaeq	r1, {r9}
     7e0:	0000009e 	muleq	r0, lr, r0
     7e4:	eb070202 	bl	1c0ff4 <shift+0x1c0ff4>
     7e8:	09000000 	stmdbeq	r0, {}	; <UNPREDICTABLE>
     7ec:	000000b6 	strheq	r0, [r0], -r6
     7f0:	5a161004 	bpl	584808 <shift+0x584808>
     7f4:	0a000000 	beq	7fc <shift+0x7fc>
     7f8:	00000049 	andeq	r0, r0, r9, asr #32
     7fc:	d3070402 	movwle	r0, #29698	; 0x7402
     800:	02000000 	andeq	r0, r0, #0
     804:	00c90708 	sbceq	r0, r9, r8, lsl #14
     808:	08020000 	stmdaeq	r2, {}	; <UNPREDICTABLE>
     80c:	00004d05 	andeq	r4, r0, r5, lsl #26
     810:	03200b00 	nopeq	{0}	; <UNPREDICTABLE>
     814:	d90934a6 	stmdble	r9, {r1, r2, r5, r7, sl, ip, sp}
     818:	04000000 	streq	r0, [r0], #-0
     81c:	a7005244 	strge	r5, [r0, -r4, asr #4]
     820:	00005534 	andeq	r5, r0, r4, lsr r5
     824:	3e050000 	cdpcc	0, 0, cr0, cr5, cr0, {0}
     828:	a8000005 	stmdage	r0, {r0, r2}
     82c:	00005534 	andeq	r5, r0, r4, lsr r5
     830:	50040400 	andpl	r0, r4, r0, lsl #8
     834:	a9005253 	stmdbge	r0, {r0, r1, r4, r6, r9, ip, lr}
     838:	00005534 	andeq	r5, r0, r4, lsr r5
     83c:	e4050800 	str	r0, [r5], #-2048	; 0xfffff800
     840:	aa000005 	bge	85c <shift+0x85c>
     844:	00005534 	andeq	r5, r0, r4, lsr r5
     848:	e9050c00 	stmdb	r5, {sl, fp}
     84c:	ab000005 	blge	868 <shift+0x868>
     850:	00005534 	andeq	r5, r0, r4, lsr r5
     854:	49041000 	stmdbmi	r4, {ip}
     858:	ac00524d 	sfmge	f5, 4, [r0], {77}	; 0x4d
     85c:	00005534 	andeq	r5, r0, r4, lsr r5
     860:	49041400 	stmdbmi	r4, {sl, ip}
     864:	ad005253 	sfmge	f5, 4, [r0, #-332]	; 0xfffffeb4
     868:	00005534 	andeq	r5, r0, r4, lsr r5
     86c:	db051800 	blle	146874 <shift+0x146874>
     870:	ae000005 	cdpge	0, 0, cr0, cr0, cr5, {0}
     874:	00005534 	andeq	r5, r0, r4, lsr r5
     878:	0c001c00 	stceq	12, cr1, [r0], {-0}
     87c:	00000587 	andeq	r0, r0, r7, lsl #11
     880:	0334af03 	teqeq	r4, #3, 30
     884:	0000006f 	andeq	r0, r0, pc, rrx
     888:	ce070402 	cdpgt	4, 0, cr0, cr7, cr2, {0}
     88c:	02000000 	andeq	r0, r0, #0
     890:	00520504 	subseq	r0, r2, r4, lsl #10
     894:	01020000 	mrseq	r0, (UNDEF: 2)
     898:	0000a708 	andeq	sl, r0, r8, lsl #14
     89c:	059e0d00 	ldreq	r0, [lr, #3328]	; 0xd00
     8a0:	25050000 	strcs	r0, [r5, #-0]
     8a4:	00011706 	andeq	r1, r1, r6, lsl #14
     8a8:	01170300 	tsteq	r7, r0, lsl #6
     8ac:	34030000 	strcc	r0, [r3], #-0
     8b0:	03000000 	movweq	r0, #0
     8b4:	00000034 	andeq	r0, r0, r4, lsr r0
     8b8:	d9040e00 	stmdble	r4, {r9, sl, fp}
     8bc:	0f000000 	svceq	0x00000000
     8c0:	00000591 	muleq	r0, r1, r5
     8c4:	34052405 	strcc	r2, [r5], #-1029	; 0xfffffbfb
     8c8:	38000000 	stmdacc	r0, {}	; <UNPREDICTABLE>
     8cc:	03000001 	movweq	r0, #1
     8d0:	00000117 	andeq	r0, r0, r7, lsl r1
     8d4:	00003403 	andeq	r3, r0, r3, lsl #8
     8d8:	00100000 	andseq	r0, r0, r0
     8dc:	02000006 	andeq	r0, r0, #6
     8e0:	070c0637 	smladxeq	ip, r7, r6, r0
     8e4:	00488000 	subeq	r8, r8, r0
     8e8:	9c010000 	stcls	0, cr0, [r1], {-0}
     8ec:	0000016d 	andeq	r0, r0, sp, ror #2
     8f0:	001d8d11 	andseq	r8, sp, r1, lsl sp
     8f4:	1c370200 	lfmne	f0, 4, [r7], #-0
     8f8:	00000117 	andeq	r0, r0, r7, lsl r1
     8fc:	12749102 	rsbsne	r9, r4, #-2147483648	; 0x80000000
     900:	006e6970 	rsbeq	r6, lr, r0, ror r9
     904:	34263702 	strtcc	r3, [r6], #-1794	; 0xfffff8fe
     908:	02000000 	andeq	r0, r0, #0
     90c:	06007091 			; <UNDEFINED> instruction: 0x06007091
     910:	0000054f 	andeq	r0, r0, pc, asr #10
     914:	0006e62f 	andeq	lr, r6, pc, lsr #12
     918:	00002680 	andeq	r2, r0, r0, lsl #13
     91c:	069c0100 	ldreq	r0, [ip], r0, lsl #2
     920:	00000575 	andeq	r0, r0, r5, ror r5
     924:	0006c022 	andeq	ip, r6, r2, lsr #32
     928:	00002680 	andeq	r2, r0, r0, lsl #13
     92c:	139c0100 	orrsne	r0, ip, #0, 2
     930:	00000535 	andeq	r0, r0, r5, lsr r5
     934:	46060702 	strmi	r0, [r6], -r2, lsl #14
     938:	7a800006 	bvc	fe000958 <__bss_end+0x7dffbb1c>
     93c:	01000000 	mrseq	r0, (UNDEF: 0)
     940:	05ac149c 	streq	r1, [ip, #1180]!	; 0x49c
     944:	44010000 	strmi	r0, [r1], #-0
     948:	06201404 	strteq	r1, [r0], -r4, lsl #8
     94c:	00268000 	eoreq	r8, r6, r0
     950:	9c010000 	stcls	0, cr0, [r1], {-0}
     954:	00000211 	andeq	r0, r0, r1, lsl r2
     958:	00054301 	andeq	r4, r5, r1, lsl #6
     95c:	31044400 	tstcc	r4, r0, lsl #8
     960:	00000049 	andeq	r0, r0, r9, asr #32
     964:	01749102 	cmneq	r4, r2, lsl #2
     968:	0000051f 	andeq	r0, r0, pc, lsl r5
     96c:	49310445 	ldmdbmi	r1!, {r0, r2, r6, sl}
     970:	02000000 	andeq	r0, r0, #0
     974:	27017091 			; <UNDEFINED> instruction: 0x27017091
     978:	46000005 	strmi	r0, [r0], -r5
     97c:	00493104 	subeq	r3, r9, r4, lsl #2
     980:	91020000 	mrsls	r0, (UNDEF: 2)
     984:	057c016c 	ldrbeq	r0, [ip, #-364]!	; 0xfffffe94
     988:	04470000 	strbeq	r0, [r7], #-0
     98c:	00004931 	andeq	r4, r0, r1, lsr r9
     990:	68910200 	ldmvs	r1, {r9}
     994:	0005c001 	andeq	ip, r5, r1
     998:	31044800 	tstcc	r4, r0, lsl #16
     99c:	00000049 	andeq	r0, r0, r9, asr #32
     9a0:	01009102 	tsteq	r0, r2, lsl #2
     9a4:	000005cf 	andeq	r0, r0, pc, asr #11
     9a8:	49310449 	ldmdbmi	r1!, {r0, r3, r6, sl}
     9ac:	02000000 	andeq	r0, r0, #0
     9b0:	15000491 	strne	r0, [r0, #-1169]	; 0xfffffb6f
     9b4:	00000564 	andeq	r0, r0, r4, ror #10
     9b8:	14042401 	strne	r2, [r4], #-1025	; 0xfffffbff
     9bc:	800005e2 	andhi	r0, r0, r2, ror #11
     9c0:	0000003e 	andeq	r0, r0, lr, lsr r0
     9c4:	43019c01 	movwmi	r9, #7169	; 0x1c01
     9c8:	24000005 	strcs	r0, [r0], #-5
     9cc:	00492e04 	subeq	r2, r9, r4, lsl #28
     9d0:	91020000 	mrsls	r0, (UNDEF: 2)
     9d4:	051f0174 	ldreq	r0, [pc, #-372]	; 868 <shift+0x868>
     9d8:	04250000 	strteq	r0, [r5], #-0
     9dc:	0000492e 	andeq	r4, r0, lr, lsr #18
     9e0:	70910200 	addsvc	r0, r1, r0, lsl #4
     9e4:	00052701 	andeq	r2, r5, r1, lsl #14
     9e8:	2e042600 	cfmadd32cs	mvax0, mvfx2, mvfx4, mvfx0
     9ec:	00000049 	andeq	r0, r0, r9, asr #32
     9f0:	016c9102 	cmneq	ip, r2, lsl #2
     9f4:	0000057c 	andeq	r0, r0, ip, ror r5
     9f8:	492e0427 	stmdbmi	lr!, {r0, r1, r2, r5, sl}
     9fc:	02000000 	andeq	r0, r0, #0
     a00:	c0016891 	mulgt	r1, r1, r8
     a04:	28000005 	stmdacs	r0, {r0, r2}
     a08:	00492e04 	subeq	r2, r9, r4, lsl #28
     a0c:	91020000 	mrsls	r0, (UNDEF: 2)
     a10:	05570100 	ldrbeq	r0, [r7, #-256]	; 0xffffff00
     a14:	04290000 	strteq	r0, [r9], #-0
     a18:	0000492e 	andeq	r4, r0, lr, lsr #18
     a1c:	04910200 	ldreq	r0, [r1], #512	; 0x200
     a20:	0b390000 	bleq	e40a28 <shift+0xe40a28>
     a24:	00050000 	andeq	r0, r5, r0
     a28:	03670401 	cmneq	r7, #16777216	; 0x1000000
     a2c:	06150000 	ldreq	r0, [r5], -r0
     a30:	1d000001 	stcne	0, cr0, [r0, #-4]
     a34:	000008b4 			; <UNDEFINED> instruction: 0x000008b4
     a38:	00000010 	andeq	r0, r0, r0, lsl r0
     a3c:	80000754 	andhi	r0, r0, r4, asr r7
     a40:	00000264 	andeq	r0, r0, r4, ror #4
     a44:	00000400 	andeq	r0, r0, r0, lsl #8
     a48:	a0060105 	andge	r0, r6, r5, lsl #2
     a4c:	05000000 	streq	r0, [r0, #-0]
     a50:	01620502 	cmneq	r2, r2, lsl #10
     a54:	b7080000 	strlt	r0, [r8, -r0]
     a58:	03000000 	movweq	r0, #0
     a5c:	0040140d 	subeq	r1, r0, sp, lsl #8
     a60:	04160000 	ldreq	r0, [r6], #-0
     a64:	746e6905 	strbtvc	r6, [lr], #-2309	; 0xfffff6fb
     a68:	02650800 	rsbeq	r0, r5, #0, 16
     a6c:	0e030000 	cdpeq	0, 0, cr0, cr3, cr0, {0}
     a70:	00005817 	andeq	r5, r0, r7, lsl r8
     a74:	00470600 	subeq	r0, r7, r0, lsl #12
     a78:	01050000 	mrseq	r0, (UNDEF: 5)
     a7c:	00009e08 	andeq	r9, r0, r8, lsl #28
     a80:	07020500 	streq	r0, [r2, -r0, lsl #10]
     a84:	000000eb 	andeq	r0, r0, fp, ror #1
     a88:	0000b608 	andeq	fp, r0, r8, lsl #12
     a8c:	16100300 	ldrne	r0, [r0], -r0, lsl #6
     a90:	0000007c 	andeq	r0, r0, ip, ror r0
     a94:	00006606 	andeq	r6, r0, r6, lsl #12
     a98:	00720e00 	rsbseq	r0, r2, r0, lsl #28
     a9c:	04050000 	streq	r0, [r5], #-0
     aa0:	0000d307 	andeq	sp, r0, r7, lsl #6
     aa4:	007c0600 	rsbseq	r0, ip, r0, lsl #12
     aa8:	08050000 	stmdaeq	r5, {}	; <UNPREDICTABLE>
     aac:	0000c907 	andeq	ip, r0, r7, lsl #18
     ab0:	05080500 	streq	r0, [r8, #-1280]	; 0xfffffb00
     ab4:	0000004d 	andeq	r0, r0, sp, asr #32
     ab8:	000f9317 	andeq	r9, pc, r7, lsl r3	; <UNPREDICTABLE>
     abc:	40040500 	andmi	r0, r4, r0, lsl #10
     ac0:	04000000 	streq	r0, [r0], #-0
     ac4:	043a0e21 	ldrteq	r0, [sl], #-3617	; 0xfffff1df
     ac8:	81180000 	tsthi	r8, r0
     acc:	8000000e 	andhi	r0, r0, lr
     ad0:	07db017f 			; <UNDEFINED> instruction: 0x07db017f
     ad4:	01000000 	mrseq	r0, (UNDEF: 0)
     ad8:	00000e72 	andeq	r0, r0, r2, ror lr
     adc:	09990101 	ldmibeq	r9, {r0, r8}
     ae0:	01020000 	mrseq	r0, (UNDEF: 2)
     ae4:	00001185 	andeq	r1, r0, r5, lsl #3
     ae8:	0bd90103 	bleq	ff640efc <__bss_end+0x7f63c0c0>
     aec:	01040000 	mrseq	r0, (UNDEF: 4)
     af0:	00000796 	muleq	r0, r6, r7
     af4:	0f600105 	svceq	0x00600105
     af8:	01060000 	mrseq	r0, (UNDEF: 6)
     afc:	00000957 	andeq	r0, r0, r7, asr r9
     b00:	11310107 	teqne	r1, r7, lsl #2
     b04:	01080000 	mrseq	r0, (UNDEF: 8)
     b08:	00000d11 	andeq	r0, r0, r1, lsl sp
     b0c:	0fdd0109 	svceq	0x00dd0109
     b10:	010a0000 	mrseq	r0, (UNDEF: 10)
     b14:	00001088 	andeq	r1, r0, r8, lsl #1
     b18:	0be8010b 	bleq	ffa00f4c <__bss_end+0x7f9fc110>
     b1c:	010c0000 	mrseq	r0, (UNDEF: 12)
     b20:	000007a5 	andeq	r0, r0, r5, lsr #15
     b24:	0e20010d 	sufeqs	f0, f0, #5.0
     b28:	010e0000 	mrseq	r0, (UNDEF: 14)
     b2c:	00000966 	andeq	r0, r0, r6, ror #18
     b30:	0b9a010f 	bleq	fe680f74 <__bss_end+0x7e67c138>
     b34:	01190000 	tsteq	r9, r0
     b38:	00000b6c 	andeq	r0, r0, ip, ror #22
     b3c:	0c6e011a 	stfeqe	f0, [lr], #-104	; 0xffffff98
     b40:	011b0000 	tsteq	fp, r0
     b44:	00000a88 	andeq	r0, r0, r8, lsl #21
     b48:	06ff011c 	usateq	r0, #31, ip, lsl #2
     b4c:	011d0000 	tsteq	sp, r0
     b50:	000006fc 	strdeq	r0, [r0], -ip
     b54:	0b21011e 	bleq	840fd4 <shift+0x840fd4>
     b58:	011f0000 	tsteq	pc, r0
     b5c:	00000b30 	andeq	r0, r0, r0, lsr fp
     b60:	0f3b0120 	svceq	0x003b0120
     b64:	01210000 			; <UNDEFINED> instruction: 0x01210000
     b68:	00000f56 	andeq	r0, r0, r6, asr pc
     b6c:	0c050122 	stfeqs	f0, [r5], {34}	; 0x22
     b70:	01230000 			; <UNDEFINED> instruction: 0x01230000
     b74:	00000a0c 	andeq	r0, r0, ip, lsl #20
     b78:	09190124 	ldmdbeq	r9, {r2, r5, r8}
     b7c:	01250000 			; <UNDEFINED> instruction: 0x01250000
     b80:	00000c0e 	andeq	r0, r0, lr, lsl #24
     b84:	07ff0126 	ldrbeq	r0, [pc, r6, lsr #2]!
     b88:	01270000 			; <UNDEFINED> instruction: 0x01270000
     b8c:	00000aca 	andeq	r0, r0, sl, asr #21
     b90:	0ea60128 	fdveqsp	f0, f6, #0.0
     b94:	01290000 			; <UNDEFINED> instruction: 0x01290000
     b98:	00000a2f 	andeq	r0, r0, pc, lsr #20
     b9c:	0b61012a 	bleq	184104c <shift+0x184104c>
     ba0:	012b0000 			; <UNDEFINED> instruction: 0x012b0000
     ba4:	00000afd 	strdeq	r0, [r0], -sp
     ba8:	069c012c 	ldreq	r0, [ip], ip, lsr #2
     bac:	012d0000 			; <UNDEFINED> instruction: 0x012d0000
     bb0:	00000a63 	andeq	r0, r0, r3, ror #20
     bb4:	07bf012e 	ldreq	r0, [pc, lr, lsr #2]!
     bb8:	012f0000 			; <UNDEFINED> instruction: 0x012f0000
     bbc:	00000f44 	andeq	r0, r0, r4, asr #30
     bc0:	0ae60130 	beq	ff981088 <__bss_end+0x7f97c24c>
     bc4:	01310000 	teqeq	r1, r0
     bc8:	0000068e 	andeq	r0, r0, lr, lsl #13
     bcc:	09d40132 	ldmibeq	r4, {r1, r4, r5, r8}^
     bd0:	01330000 	teqeq	r3, r0
     bd4:	00000e55 	andeq	r0, r0, r5, asr lr
     bd8:	0c650134 	stfeqe	f0, [r5], #-208	; 0xffffff30
     bdc:	01350000 	teqeq	r5, r0
     be0:	00000c23 	andeq	r0, r0, r3, lsr #24
     be4:	066d0136 			; <UNDEFINED> instruction: 0x066d0136
     be8:	01370000 	teqeq	r7, r0
     bec:	00000bf8 	strdeq	r0, [r0], -r8
     bf0:	0d840138 	stfeqs	f0, [r4, #224]	; 0xe0
     bf4:	01390000 	teqeq	r9, r0
     bf8:	000009c9 	andeq	r0, r0, r9, asr #19
     bfc:	1098013a 	addsne	r0, r8, sl, lsr r1
     c00:	013b0000 	teqeq	fp, r0
     c04:	0000060b 	andeq	r0, r0, fp, lsl #12
     c08:	07d0013c 			; <UNDEFINED> instruction: 0x07d0013c
     c0c:	013d0000 	teqeq	sp, r0
     c10:	00000e4a 	andeq	r0, r0, sl, asr #28
     c14:	0b3c013e 	bleq	f01114 <shift+0xf01114>
     c18:	013f0000 	teqeq	pc, r0
     c1c:	00000713 	andeq	r0, r0, r3, lsl r7
     c20:	0d910140 	ldfeqs	f0, [r1, #256]	; 0x100
     c24:	01410000 	mrseq	r0, (UNDEF: 65)
     c28:	000008e1 	andeq	r0, r0, r1, ror #17
     c2c:	07f50142 	ldrbeq	r0, [r5, r2, asr #2]!
     c30:	01430000 	mrseq	r0, (UNDEF: 67)
     c34:	000007b5 			; <UNDEFINED> instruction: 0x000007b5
     c38:	0f6f0144 	svceq	0x006f0144
     c3c:	01450000 	mrseq	r0, (UNDEF: 69)
     c40:	00000976 	andeq	r0, r0, r6, ror r9
     c44:	11730146 	cmnne	r3, r6, asr #2
     c48:	01470000 	mrseq	r0, (UNDEF: 71)
     c4c:	00000d2a 	andeq	r0, r0, sl, lsr #26
     c50:	0bb20148 	bleq	fec81178 <__bss_end+0x7ec7c33c>
     c54:	01490000 	mrseq	r0, (UNDEF: 73)
     c58:	00000d44 	andeq	r0, r0, r4, asr #26
     c5c:	06bd014a 	ldrteq	r0, [sp], sl, asr #2
     c60:	014b0000 	mrseq	r0, (UNDEF: 75)
     c64:	0000083f 	andeq	r0, r0, pc, lsr r8
     c68:	10be014c 	adcsne	r0, lr, ip, asr #2
     c6c:	014d0000 	mrseq	r0, (UNDEF: 77)
     c70:	00000616 	andeq	r0, r0, r6, lsl r6
     c74:	0857014e 	ldmdaeq	r7, {r1, r2, r3, r6, r8}^
     c78:	014f0000 	mrseq	r0, SPSR
     c7c:	00000737 	andeq	r0, r0, r7, lsr r7
     c80:	080f0150 	stmdaeq	pc, {r4, r6, r8}	; <UNPREDICTABLE>
     c84:	01510000 	cmpeq	r1, r0
     c88:	0000062b 	andeq	r0, r0, fp, lsr #12
     c8c:	0ab50152 	beq	fed411dc <__bss_end+0x7ed3c3a0>
     c90:	01530000 	cmpeq	r3, r0
     c94:	000006a6 	andeq	r0, r0, r6, lsr #13
     c98:	09b90154 	ldmibeq	r9!, {r2, r4, r6, r8}
     c9c:	01550000 	cmpeq	r5, r0
     ca0:	00000949 	andeq	r0, r0, r9, asr #18
     ca4:	10a30156 	adcne	r0, r3, r6, asr r1
     ca8:	01570000 	cmpeq	r7, r0
     cac:	00000c5a 	andeq	r0, r0, sl, asr ip
     cb0:	07ea0158 	ubfxeq	r0, r8, #2, #11
     cb4:	01590000 	cmpeq	r9, r0
     cb8:	00000c2f 	andeq	r0, r0, pc, lsr #24
     cbc:	10d2015a 	sbcsne	r0, r2, sl, asr r1
     cc0:	015b0000 	cmpeq	fp, r0
     cc4:	000008f9 	strdeq	r0, [r0], -r9
     cc8:	0ed7015c 	mrceq	1, 6, r0, cr7, cr12, {2}
     ccc:	015d0000 	cmpeq	sp, r0
     cd0:	0000071f 	andeq	r0, r0, pc, lsl r7
     cd4:	0b51015e 	bleq	1441254 <shift+0x1441254>
     cd8:	015f0000 	cmpeq	pc, r0
     cdc:	000010fb 	strdeq	r1, [r0], -fp
     ce0:	09240160 	stmdbeq	r4!, {r5, r6, r8}
     ce4:	01610000 	cmneq	r1, r0
     ce8:	00000752 	andeq	r0, r0, r2, asr r7
     cec:	077c0162 	ldrbeq	r0, [ip, -r2, ror #2]!
     cf0:	01630000 	cmneq	r3, r0
     cf4:	00001010 	andeq	r1, r0, r0, lsl r0
     cf8:	0f210164 	svceq	0x00210164
     cfc:	01650000 	cmneq	r5, r0
     d00:	0000081c 	andeq	r0, r0, ip, lsl r8
     d04:	0a9b0166 	beq	fe6c12a4 <__bss_end+0x7e6bc468>
     d08:	01670000 	cmneq	r7, r0
     d0c:	00000cdc 	ldrdeq	r0, [r0], -ip
     d10:	06490168 	strbeq	r0, [r9], -r8, ror #2
     d14:	01690000 	cmneq	r9, r0
     d18:	000010e2 	andeq	r1, r0, r2, ror #1
     d1c:	0e30016a 	rsfeqsz	f0, f0, #2.0
     d20:	016b0000 	cmneq	fp, r0
     d24:	000006eb 	andeq	r0, r0, fp, ror #13
     d28:	0d52016c 	ldfeqe	f0, [r2, #-432]	; 0xfffffe50
     d2c:	016d0000 	cmneq	sp, r0
     d30:	00000f87 	andeq	r0, r0, r7, lsl #31
     d34:	0a6d016e 	beq	1b412f4 <shift+0x1b412f4>
     d38:	016f0000 	cmneq	pc, r0
     d3c:	00000934 	andeq	r0, r0, r4, lsr r9
     d40:	110b0170 	tstne	fp, r0, ror r1
     d44:	01710000 	cmneq	r1, r0
     d48:	00000ee7 	andeq	r0, r0, r7, ror #29
     d4c:	06840172 			; <UNDEFINED> instruction: 0x06840172
     d50:	01730000 	cmneq	r3, r0
     d54:	00000e68 	andeq	r0, r0, r8, ror #28
     d58:	09800174 	stmibeq	r0, {r2, r4, r5, r6, r8}
     d5c:	01750000 	cmneq	r5, r0
     d60:	00001147 	andeq	r1, r0, r7, asr #2
     d64:	0f790176 	svceq	0x00790176
     d68:	01770000 	cmneq	r7, r0
     d6c:	00000ad8 	ldrdeq	r0, [r0], -r8
     d70:	0a470178 	beq	11c1358 <shift+0x11c1358>
     d74:	01790000 	cmneq	r9, r0
     d78:	00000b89 	andeq	r0, r0, r9, lsl #23
     d7c:	062c017a 			; <UNDEFINED> instruction: 0x062c017a
     d80:	017b0000 	cmneq	fp, r0
     d84:	00000f10 	andeq	r0, r0, r0, lsl pc
     d88:	0ebf017c 	mrceq	1, 5, r0, cr15, cr12, {3}
     d8c:	017d0000 	cmneq	sp, r0
     d90:	00000a16 	andeq	r0, r0, r6, lsl sl
     d94:	0f98017e 	svceq	0x0098017e
     d98:	017f0000 	cmneq	pc, r0
     d9c:	00000cff 	strdeq	r0, [r0], -pc	; <UNPREDICTABLE>
     da0:	0fd30180 	svceq	0x00d30180
     da4:	01810000 	orreq	r0, r1, r0
     da8:	00000b17 	andeq	r0, r0, r7, lsl fp
     dac:	0c3f0182 	ldfeqs	f0, [pc], #-520	; bac <shift+0xbac>
     db0:	01830000 	orreq	r0, r3, r0
     db4:	00000a59 	andeq	r0, r0, r9, asr sl
     db8:	0d9d0184 	ldfeqs	f0, [sp, #528]	; 0x210
     dbc:	01850000 	orreq	r0, r5, r0
     dc0:	000009a8 	andeq	r0, r0, r8, lsr #19
     dc4:	076b0186 	strbeq	r0, [fp, -r6, lsl #3]!
     dc8:	01870000 	orreq	r0, r7, r0
     dcc:	00000a50 	andeq	r0, r0, r0, asr sl
     dd0:	06350188 	ldrteq	r0, [r5], -r8, lsl #3
     dd4:	01890000 	orreq	r0, r9, r0
     dd8:	00000daa 	andeq	r0, r0, sl, lsr #27
     ddc:	0835018a 	ldmdaeq	r5!, {r1, r3, r7, r8}
     de0:	018b0000 	orreq	r0, fp, r0
     de4:	00000abf 			; <UNDEFINED> instruction: 0x00000abf
     de8:	0c50018c 	ldfeqe	f0, [r0], {140}	; 0x8c
     dec:	018d0000 	orreq	r0, sp, r0
     df0:	00000663 	andeq	r0, r0, r3, ror #12
     df4:	0cf5018e 	ldfeqe	f0, [r5], #568	; 0x238
     df8:	018f0000 	orreq	r0, pc, r0
     dfc:	000010ad 	andeq	r1, r0, sp, lsr #1
     e00:	08920190 	ldmeq	r2, {r4, r7, r8}
     e04:	01910000 	orrseq	r0, r1, r0
     e08:	00000d20 	andeq	r0, r0, r0, lsr #26
     e0c:	07480192 			; <UNDEFINED> instruction: 0x07480192
     e10:	01930000 	orrseq	r0, r3, r0
     e14:	00000f06 	andeq	r0, r0, r6, lsl #30
     e18:	0a7e0194 	beq	1f81470 <shift+0x1f81470>
     e1c:	01950000 	orrseq	r0, r5, r0
     e20:	00000fed 	andeq	r0, r0, sp, ror #31
     e24:	0bc90196 	bleq	ff241484 <__bss_end+0x7f23c648>
     e28:	01970000 	orrseq	r0, r7, r0
     e2c:	00000c18 	andeq	r0, r0, r8, lsl ip
     e30:	09fc0198 	ldmibeq	ip!, {r3, r4, r7, r8}^
     e34:	01990000 	orrseq	r0, r9, r0
     e38:	000009eb 	andeq	r0, r0, fp, ror #19
     e3c:	11a1019a 			; <UNDEFINED> instruction: 0x11a1019a
     e40:	019b0000 	orrseq	r0, fp, r0
     e44:	00000d6b 	andeq	r0, r0, fp, ror #26
     e48:	08ca019c 	stmiaeq	sl, {r2, r3, r4, r7, r8}^
     e4c:	019d0000 	orrseq	r0, sp, r0
     e50:	00000fad 	andeq	r0, r0, sp, lsr #31
     e54:	1123019e 			; <UNDEFINED> instruction: 0x1123019e
     e58:	009f0000 	addseq	r0, pc, r0
     e5c:	00093f08 	andeq	r3, r9, r8, lsl #30
     e60:	03bf0400 			; <UNDEFINED> instruction: 0x03bf0400
     e64:	00000096 	muleq	r0, r6, r0
     e68:	00007203 	andeq	r7, r0, r3, lsl #4
     e6c:	00045600 	andeq	r5, r4, r0, lsl #12
     e70:	007c0400 	rsbseq	r0, ip, r0, lsl #8
     e74:	00020000 	andeq	r0, r2, r0
     e78:	00044606 	andeq	r4, r4, r6, lsl #12
     e7c:	04281900 	strteq	r1, [r8], #-2304	; 0xfffff700
     e80:	b6093932 			; <UNDEFINED> instruction: 0xb6093932
     e84:	07000004 	streq	r0, [r0, -r4]
     e88:	33005243 	movwcc	r5, #579	; 0x243
     e8c:	00007239 	andeq	r7, r0, r9, lsr r2
     e90:	50070000 	andpl	r0, r7, r0
     e94:	39340052 	ldmdbcc	r4!, {r1, r4, r6}
     e98:	00000072 	andeq	r0, r0, r2, ror r0
     e9c:	52530704 	subspl	r0, r3, #4, 14	; 0x100000
     ea0:	72393500 	eorsvc	r3, r9, #0, 10
     ea4:	08000000 	stmdaeq	r0, {}	; <UNPREDICTABLE>
     ea8:	00524907 	subseq	r4, r2, r7, lsl #18
     eac:	00723936 	rsbseq	r3, r2, r6, lsr r9
     eb0:	070c0000 	streq	r0, [ip, -r0]
     eb4:	0052434f 	subseq	r4, r2, pc, asr #6
     eb8:	04563937 	ldrbeq	r3, [r6], #-2359	; 0xfffff6c9
     ebc:	07100000 	ldreq	r0, [r0, -r0]
     ec0:	00524349 	subseq	r4, r2, r9, asr #6
     ec4:	04c63938 	strbeq	r3, [r6], #2360	; 0x938
     ec8:	071c0000 	ldreq	r0, [ip, -r0]
     ecc:	00544e43 	subseq	r4, r4, r3, asr #28
     ed0:	00723939 	rsbseq	r3, r2, r9, lsr r9
     ed4:	00240000 	eoreq	r0, r4, r0
     ed8:	00007203 	andeq	r7, r0, r3, lsl #4
     edc:	0004c600 	andeq	ip, r4, r0, lsl #12
     ee0:	007c0400 	rsbseq	r0, ip, r0, lsl #8
     ee4:	00010000 	andeq	r0, r1, r0
     ee8:	0004b606 	andeq	fp, r4, r6, lsl #12
     eec:	0c800f00 	stceq	15, cr0, [r0], {0}
     ef0:	3a040000 	bcc	100ef8 <shift+0x100ef8>
     ef4:	00045b39 	andeq	r5, r4, r9, lsr fp
     ef8:	00720300 	rsbseq	r0, r2, r0, lsl #6
     efc:	04e70000 	strbteq	r0, [r7], #0
     f00:	7c040000 	stcvc	0, cr0, [r4], {-0}
     f04:	1f000000 	svcne	0x00000000
     f08:	04d70600 	ldrbeq	r0, [r7], #1536	; 0x600
     f0c:	72030000 	andvc	r0, r3, #0
     f10:	fc000000 	stc2	0, cr0, [r0], {-0}
     f14:	04000004 	streq	r0, [r0], #-4
     f18:	0000007c 	andeq	r0, r0, ip, ror r0
     f1c:	ec06000f 	stc	0, cr0, [r6], {15}
     f20:	05000004 	streq	r0, [r0, #-4]
     f24:	00ce0704 	sbceq	r0, lr, r4, lsl #14
     f28:	04050000 	streq	r0, [r5], #-0
     f2c:	00005205 	andeq	r5, r0, r5, lsl #4
     f30:	05041a00 	streq	r1, [r4, #-2560]	; 0xfffff600
     f34:	00a70801 	adceq	r0, r7, r1, lsl #16
     f38:	041b0000 	ldreq	r0, [fp], #-0
     f3c:	021d0230 	andseq	r0, sp, #48, 4
     f40:	00086509 	andeq	r6, r8, r9, lsl #10
     f44:	0dbe1c00 	ldceq	12, cr1, [lr]
     f48:	1f020000 	svcne	0x00020000
     f4c:	08651202 	stmdaeq	r5!, {r1, r9, ip}^
     f50:	02000000 	andeq	r0, r0, #0
     f54:	0000117e 	andeq	r1, r0, lr, ror r1
     f58:	00720220 	rsbseq	r0, r2, r0, lsr #4
     f5c:	10000000 	andne	r0, r0, r0
     f60:	00099102 	andeq	r9, r9, r2, lsl #2
     f64:	77022100 	strvc	r2, [r2, -r0, lsl #2]
     f68:	04000000 	streq	r0, [r0], #-0
     f6c:	08080210 	stmdaeq	r8, {r4, r9}
     f70:	02220000 	eoreq	r0, r2, #0
     f74:	00000077 	andeq	r0, r0, r7, ror r0
     f78:	c8021008 	stmdagt	r2, {r3, ip}
     f7c:	2300000d 	movwcs	r0, #13
     f80:	00087602 	andeq	r7, r8, r2, lsl #12
     f84:	02100c00 	andseq	r0, r0, #0, 24
     f88:	00000eb5 			; <UNDEFINED> instruction: 0x00000eb5
     f8c:	04fc0224 	ldrbteq	r0, [ip], #548	; 0x224
     f90:	10800000 	addne	r0, r0, r0
     f94:	000dd202 	andeq	sp, sp, r2, lsl #4
     f98:	86022500 	strhi	r2, [r2], -r0, lsl #10
     f9c:	c0000008 	andgt	r0, r0, r8
     fa0:	0c890210 	sfmeq	f0, 4, [r9], {16}
     fa4:	02260000 	eoreq	r0, r6, #0
     fa8:	000004fc 	strdeq	r0, [r0], -ip
     fac:	dc021100 	stfles	f1, [r2], {-0}
     fb0:	2700000d 	strcs	r0, [r0, -sp]
     fb4:	00088602 	andeq	r8, r8, r2, lsl #12
     fb8:	02114000 	andseq	r4, r1, #0
     fbc:	00000ef0 	strdeq	r0, [r0], -r0	; <UNPREDICTABLE>
     fc0:	04fc0228 	ldrbteq	r0, [ip], #552	; 0x228
     fc4:	11800000 	orrne	r0, r0, r0
     fc8:	000de602 	andeq	lr, sp, r2, lsl #12
     fcc:	86022900 	strhi	r2, [r2], -r0, lsl #18
     fd0:	c0000008 	andgt	r0, r0, r8
     fd4:	0b0d0211 	bleq	341820 <shift+0x341820>
     fd8:	022a0000 	eoreq	r0, sl, #0
     fdc:	000004fc 	strdeq	r0, [r0], -ip
     fe0:	f0021200 			; <UNDEFINED> instruction: 0xf0021200
     fe4:	2b00000d 	blcs	1020 <shift+0x1020>
     fe8:	00088602 	andeq	r8, r8, r2, lsl #12
     fec:	02124000 	andseq	r4, r2, #0
     ff0:	00000efc 	strdeq	r0, [r0], -ip
     ff4:	04fc022c 	ldrbteq	r0, [ip], #556	; 0x22c
     ff8:	12800000 	addne	r0, r0, #0
     ffc:	000dfa02 	andeq	pc, sp, r2, lsl #20
    1000:	86022d00 	strhi	r2, [r2], -r0, lsl #26
    1004:	c0000008 	andgt	r0, r0, r8
    1008:	06b10212 	ssateq	r0, #18, r2, lsl #4
    100c:	022e0000 	eoreq	r0, lr, #0
    1010:	000004fc 	strdeq	r0, [r0], -ip
    1014:	04021300 	streq	r1, [r2], #-768	; 0xfffffd00
    1018:	2f00000e 	svccs	0x0000000e
    101c:	00088602 	andeq	r8, r8, r2, lsl #12
    1020:	02134000 	andseq	r4, r3, #0
    1024:	000008ed 	andeq	r0, r0, sp, ror #17
    1028:	04fc0230 	ldrbteq	r0, [ip], #560	; 0x230
    102c:	13800000 	orrne	r0, r0, #0
    1030:	00087402 	andeq	r7, r8, r2, lsl #8
    1034:	86023100 	strhi	r3, [r2], -r0, lsl #2
    1038:	c0000008 	andgt	r0, r0, r8
    103c:	11160213 	tstne	r6, r3, lsl r2
    1040:	02320000 	eorseq	r0, r2, #0
    1044:	000008a7 	andeq	r0, r0, r7, lsr #17
    1048:	16021400 	strne	r1, [r2], -r0, lsl #8
    104c:	3300000e 	movwcc	r0, #14
    1050:	0008ac02 	andeq	sl, r8, r2, lsl #24
    1054:	02160000 	andseq	r0, r6, #0
    1058:	00000ff8 	strdeq	r0, [r0], -r8
    105c:	08a70234 	stmiaeq	r7!, {r2, r4, r5, r9}
    1060:	18000000 	stmdane	r0, {}	; <UNPREDICTABLE>
    1064:	00102902 	andseq	r2, r0, r2, lsl #18
    1068:	ac023500 	cfstr32ge	mvfx3, [r2], {-0}
    106c:	00000008 	andeq	r0, r0, r8
    1070:	0d7c021a 	lfmeq	f0, 2, [ip, #-104]!	; 0xffffff98
    1074:	02360000 	eorseq	r0, r6, #0
    1078:	000004e7 	andeq	r0, r0, r7, ror #9
    107c:	34021c00 	strcc	r1, [r2], #-3072	; 0xfffff400
    1080:	37000010 	smladcc	r0, r0, r0, r0
    1084:	0008bc02 	andeq	fp, r8, r2, lsl #24
    1088:	021c8000 	andseq	r8, ip, #0
    108c:	00000e0e 	andeq	r0, r0, lr, lsl #28
    1090:	00770238 	rsbseq	r0, r7, r8, lsr r2
    1094:	1d000000 	stcne	0, cr0, [r0, #-0]
    1098:	000d6302 	andeq	r6, sp, r2, lsl #6
    109c:	e1023900 	tst	r2, r0, lsl #18
    10a0:	04000008 	streq	r0, [r0], #-8
    10a4:	103f021d 	eorsne	r0, pc, sp, lsl r2	; <UNPREDICTABLE>
    10a8:	023a0000 	eorseq	r0, sl, #0
    10ac:	000008e6 	andeq	r0, r0, r6, ror #17
    10b0:	c2021d40 	andgt	r1, r2, #64, 26	; 0x1000
    10b4:	3b00000b 	blcc	10e8 <shift+0x10e8>
    10b8:	00007202 	andeq	r7, r0, r2, lsl #4
    10bc:	021f0000 	andseq	r0, pc, #0
    10c0:	000008a3 	andeq	r0, r0, r3, lsr #17
    10c4:	08f6023c 	ldmeq	r6!, {r2, r3, r4, r5, r9}^
    10c8:	1f040000 	svcne	0x00040000
    10cc:	00100402 	andseq	r0, r0, r2, lsl #8
    10d0:	16023d00 	strne	r3, [r2], -r0, lsl #26
    10d4:	10000009 	andne	r0, r0, r9
    10d8:	0af1021f 	beq	ffc4195c <__bss_end+0x7fc3cb20>
    10dc:	023e0000 	eorseq	r0, lr, #0
    10e0:	00000916 	andeq	r0, r0, r6, lsl r9
    10e4:	4a021f20 	bmi	88d6c <shift+0x88d6c>
    10e8:	3f000010 	svccc	0x00000010
    10ec:	00091b02 	andeq	r1, r9, r2, lsl #22
    10f0:	021f3000 	andseq	r3, pc, #0
    10f4:	00000cb5 			; <UNDEFINED> instruction: 0x00000cb5
    10f8:	00770240 	rsbseq	r0, r7, r0, asr #4
    10fc:	1fd00000 	svcne	0x00d00000
    1100:	000cbd02 	andeq	fp, ip, r2, lsl #26
    1104:	77024100 	strvc	r4, [r2, -r0, lsl #2]
    1108:	d4000000 	strle	r0, [r0], #-0
    110c:	0cc5021f 	sfmeq	f0, 2, [r5], {31}
    1110:	02420000 	subeq	r0, r2, #0
    1114:	00000077 	andeq	r0, r0, r7, ror r0
    1118:	cd021fd8 	stcgt	15, cr1, [r2, #-864]	; 0xfffffca0
    111c:	4300000c 	movwmi	r0, #12
    1120:	00007702 	andeq	r7, r0, r2, lsl #14
    1124:	021fdc00 	andseq	sp, pc, #0, 24
    1128:	00000c95 	muleq	r0, r5, ip
    112c:	00770244 	rsbseq	r0, r7, r4, asr #4
    1130:	1fe00000 	svcne	0x00e00000
    1134:	000c9d02 	andeq	r9, ip, r2, lsl #26
    1138:	77024500 	strvc	r4, [r2, -r0, lsl #10]
    113c:	e4000000 	str	r0, [r0], #-0
    1140:	0ca5021f 	sfmeq	f0, 4, [r5], #124	; 0x7c
    1144:	02460000 	subeq	r0, r6, #0
    1148:	00000077 	andeq	r0, r0, r7, ror r0
    114c:	ad021fe8 	stcge	15, cr1, [r2, #-928]	; 0xfffffc60
    1150:	4700000c 	strmi	r0, [r0, -ip]
    1154:	00007702 	andeq	r7, r0, r2, lsl #14
    1158:	021fec00 	andseq	lr, pc, #0, 24
    115c:	000006cb 	andeq	r0, r0, fp, asr #13
    1160:	00770248 	rsbseq	r0, r7, r8, asr #4
    1164:	1ff00000 	svcne	0x00f00000	; IMB
    1168:	0006d302 	andeq	sp, r6, r2, lsl #6
    116c:	77024900 	strvc	r4, [r2, -r0, lsl #18]
    1170:	f4000000 	vst4.8	{d0-d3}, [r0], r0
    1174:	06db021f 			; <UNDEFINED> instruction: 0x06db021f
    1178:	024a0000 	subeq	r0, sl, #0
    117c:	00000077 	andeq	r0, r0, r7, ror r0
    1180:	e3021ff8 	movw	r1, #12280	; 0x2ff8
    1184:	4b000006 	blmi	11a4 <shift+0x11a4>
    1188:	00007702 	andeq	r7, r0, r2, lsl #14
    118c:	021ffc00 	andseq	pc, pc, #0, 24
    1190:	0000119a 	muleq	r0, sl, r1
    1194:	0072024d 	rsbseq	r0, r2, sp, asr #4
    1198:	20000000 	andcs	r0, r0, r0
    119c:	0008db02 	andeq	sp, r8, r2, lsl #22
    11a0:	72024e00 	andvc	r4, r2, #0, 28
    11a4:	04000000 	streq	r0, [r0], #-0
    11a8:	10cc0220 	sbcne	r0, ip, r0, lsr #4
    11ac:	024f0000 	subeq	r0, pc, #0
    11b0:	00000072 	andeq	r0, r0, r2, ror r0
    11b4:	8f022008 	svchi	0x00022008
    11b8:	5000000e 	andpl	r0, r0, lr
    11bc:	00007702 	andeq	r7, r0, r2, lsl #14
    11c0:	02200c00 	eoreq	r0, r0, #0, 24
    11c4:	0000116c 	andeq	r1, r0, ip, ror #2
    11c8:	00720251 	rsbseq	r0, r2, r1, asr r2
    11cc:	20100000 	andscs	r0, r0, r0
    11d0:	0008ae02 	andeq	sl, r8, r2, lsl #28
    11d4:	77025200 	strvc	r5, [r2, -r0, lsl #4]
    11d8:	14000000 	strne	r0, [r0], #-0
    11dc:	06230220 	strteq	r0, [r3], -r0, lsr #4
    11e0:	02530000 	subseq	r0, r3, #0
    11e4:	00000077 	andeq	r0, r0, r7, ror r0
    11e8:	40022018 	andmi	r2, r2, r8, lsl r0
    11ec:	54000011 	strpl	r0, [r0], #-17	; 0xffffffef
    11f0:	00007202 	andeq	r7, r0, r2, lsl #4
    11f4:	02201c00 	eoreq	r1, r0, #0, 24
    11f8:	00000ed0 	ldrdeq	r0, [r0], -r0	; <UNPREDICTABLE>
    11fc:	00770255 	rsbseq	r0, r7, r5, asr r2
    1200:	20200000 	eorcs	r0, r0, r0
    1204:	000e9502 	andeq	r9, lr, r2, lsl #10
    1208:	72025600 	andvc	r5, r2, #0, 12
    120c:	24000000 	strcs	r0, [r0], #-0
    1210:	0b480220 	bleq	1201a98 <shift+0x1201a98>
    1214:	02570000 	subseq	r0, r7, #0
    1218:	00000077 	andeq	r0, r0, r7, ror r0
    121c:	55022028 	strpl	r2, [r2, #-40]	; 0xffffffd8
    1220:	58000010 	stmdapl	r0, {r4}
    1224:	00092b02 	andeq	r2, r9, r2, lsl #22
    1228:	02202c00 	eoreq	r2, r0, #0, 24
    122c:	00000d3d 	andeq	r0, r0, sp, lsr sp
    1230:	00720259 	rsbseq	r0, r2, r9, asr r2
    1234:	20d00000 	sbcscs	r0, r0, r0
    1238:	00106002 	andseq	r6, r0, r2
    123c:	f6025a00 			; <UNDEFINED> instruction: 0xf6025a00
    1240:	d4000008 	strle	r0, [r0], #-8
    1244:	0e9d0220 	cdpeq	2, 9, cr0, cr13, cr0, {1}
    1248:	025b0000 	subseq	r0, fp, #0
    124c:	00000072 	andeq	r0, r0, r2, ror r0
    1250:	6b0220e0 	blvs	895d8 <shift+0x895d8>
    1254:	5c000010 	stcpl	0, cr0, [r0], {16}
    1258:	00093b02 	andeq	r3, r9, r2, lsl #22
    125c:	0220e400 	eoreq	lr, r0, #0, 8
    1260:	00000cd5 	ldrdeq	r0, [r0], -r5
    1264:	0077025d 	rsbseq	r0, r7, sp, asr r2
    1268:	20fc0000 	rscscs	r0, ip, r0
    126c:	00107602 	andseq	r7, r0, r2, lsl #12
    1270:	4b025e00 	blmi	98a78 <shift+0x98a78>
    1274:	00000009 	andeq	r0, r0, r9
    1278:	087e0221 	ldmdaeq	lr!, {r0, r5, r9}^
    127c:	025f0000 	subseq	r0, pc, #0
    1280:	00000072 	andeq	r0, r0, r2, ror r0
    1284:	03003000 	movweq	r3, #0
    1288:	00000066 	andeq	r0, r0, r6, rrx
    128c:	00000876 	andeq	r0, r0, r6, ror r8
    1290:	00007c0a 	andeq	r7, r0, sl, lsl #24
    1294:	0003ff00 	andeq	pc, r3, r0, lsl #30
    1298:	00006603 	andeq	r6, r0, r3, lsl #12
    129c:	00088600 	andeq	r8, r8, r0, lsl #12
    12a0:	007c0400 	rsbseq	r0, ip, r0, lsl #8
    12a4:	001c0000 	andseq	r0, ip, r0
    12a8:	00006603 	andeq	r6, r0, r3, lsl #12
    12ac:	00089600 	andeq	r9, r8, r0, lsl #12
    12b0:	007c0400 	rsbseq	r0, ip, r0, lsl #8
    12b4:	000f0000 	andeq	r0, pc, r0
    12b8:	00005303 	andeq	r5, r0, r3, lsl #6
    12bc:	0008a700 	andeq	sl, r8, r0, lsl #14
    12c0:	007c0a00 	rsbseq	r0, ip, r0, lsl #20
    12c4:	01ff0000 	mvnseq	r0, r0
    12c8:	08960600 	ldmeq	r6, {r9, sl}
    12cc:	66030000 	strvs	r0, [r3], -r0
    12d0:	bc000000 	stclt	0, cr0, [r0], {-0}
    12d4:	04000008 	streq	r0, [r0], #-8
    12d8:	0000007c 	andeq	r0, r0, ip, ror r0
    12dc:	6603007f 			; <UNDEFINED> instruction: 0x6603007f
    12e0:	cc000000 	stcgt	0, cr0, [r0], {-0}
    12e4:	04000008 	streq	r0, [r0], #-8
    12e8:	0000007c 	andeq	r0, r0, ip, ror r0
    12ec:	7703001f 	smladvc	r3, pc, r0, r0	; <UNPREDICTABLE>
    12f0:	dc000000 	stcle	0, cr0, [r0], {-0}
    12f4:	04000008 	streq	r0, [r0], #-8
    12f8:	0000007c 	andeq	r0, r0, ip, ror r0
    12fc:	cc0e000e 	stcgt	0, cr0, [lr], {14}
    1300:	06000008 	streq	r0, [r0], -r8
    1304:	000008dc 	ldrdeq	r0, [r0], -ip
    1308:	00006603 	andeq	r6, r0, r3, lsl #12
    130c:	0008f600 	andeq	pc, r8, r0, lsl #12
    1310:	007c0400 	rsbseq	r0, ip, r0, lsl #8
    1314:	006f0000 	rsbeq	r0, pc, r0
    1318:	00006603 	andeq	r6, r0, r3, lsl #12
    131c:	00090600 	andeq	r0, r9, r0, lsl #12
    1320:	007c0400 	rsbseq	r0, ip, r0, lsl #8
    1324:	00020000 	andeq	r0, r2, r0
    1328:	00005303 	andeq	r5, r0, r3, lsl #6
    132c:	00091600 	andeq	r1, r9, r0, lsl #12
    1330:	007c0400 	rsbseq	r0, ip, r0, lsl #8
    1334:	000f0000 	andeq	r0, pc, r0
    1338:	00090606 	andeq	r0, r9, r6, lsl #12
    133c:	00660300 	rsbeq	r0, r6, r0, lsl #6
    1340:	092b0000 	stmdbeq	fp!, {}	; <UNPREDICTABLE>
    1344:	7c040000 	stcvc	0, cr0, [r4], {-0}
    1348:	27000000 	strcs	r0, [r0, -r0]
    134c:	00660300 	rsbeq	r0, r6, r0, lsl #6
    1350:	093b0000 	ldmdbeq	fp!, {}	; <UNPREDICTABLE>
    1354:	7c040000 	stcvc	0, cr0, [r4], {-0}
    1358:	28000000 	stmdacs	r0, {}	; <UNPREDICTABLE>
    135c:	00660300 	rsbeq	r0, r6, r0, lsl #6
    1360:	094b0000 	stmdbeq	fp, {}^	; <UNPREDICTABLE>
    1364:	7c040000 	stcvc	0, cr0, [r4], {-0}
    1368:	05000000 	streq	r0, [r0, #-0]
    136c:	00660300 	rsbeq	r0, r6, r0, lsl #6
    1370:	095c0000 	ldmdbeq	ip, {}^	; <UNPREDICTABLE>
    1374:	7c0a0000 	stcvc	0, cr0, [sl], {-0}
    1378:	bf000000 	svclt	0x00000000
    137c:	3e0f0003 	cdpcc	0, 0, cr0, cr15, cr3, {0}
    1380:	0200000a 	andeq	r0, r0, #10
    1384:	05180260 	ldreq	r0, [r8, #-608]	; 0xfffffda0
    1388:	be080000 	cdplt	0, 0, cr0, cr8, cr0, {0}
    138c:	0500000f 	streq	r0, [r0, #-15]
    1390:	09741006 	ldmdbeq	r4!, {r1, r2, ip}^
    1394:	79100000 	ldmdbvc	r0, {}	; <UNPREDICTABLE>
    1398:	1d000009 	stcne	0, cr0, [r0, #-36]	; 0xffffffdc
    139c:	00000989 	andeq	r0, r0, r9, lsl #19
    13a0:	00007c09 	andeq	r7, r0, r9, lsl #24
    13a4:	050f0900 	streq	r0, [pc, #-2304]	; aac <shift+0xaac>
    13a8:	1e000000 	cdpne	0, 0, cr0, cr0, cr0, {0}
    13ac:	00001151 	andeq	r1, r0, r1, asr r1
    13b0:	a5061305 	strge	r1, [r6, #-773]	; 0xfffffcfb
    13b4:	09000009 	stmdbeq	r0, {r0, r3}
    13b8:	0000043a 	andeq	r0, r0, sl, lsr r4
    13bc:	00096809 	andeq	r6, r9, r9, lsl #16
    13c0:	050f0900 	streq	r0, [pc, #-2304]	; ac8 <shift+0xac8>
    13c4:	11000000 	mrsne	r0, (UNDEF: 0)
    13c8:	00000909 	andeq	r0, r0, r9, lsl #18
    13cc:	000988d0 	ldrdeq	r8, [r9], -r0
    13d0:	00003080 	andeq	r3, r0, r0, lsl #1
    13d4:	0b9c0100 	bleq	fe7017dc <__bss_end+0x7e6fc9a0>
    13d8:	00000083 	andeq	r0, r0, r3, lsl #1
    13dc:	0008b49d 	muleq	r8, sp, r4
    13e0:	0000d480 	andeq	sp, r0, r0, lsl #9
    13e4:	219c0100 	orrscs	r0, ip, r0, lsl #2
    13e8:	0c00000a 	stceq	0, cr0, [r0], {10}
    13ec:	0000139c 	muleq	r0, ip, r3
    13f0:	0066199d 	mlseq	r6, sp, r9, r1
    13f4:	91020000 	mrsls	r0, (UNDEF: 2)
    13f8:	0af01f64 	beq	ffc09190 <__bss_end+0x7fc04354>
    13fc:	09420000 	stmdbeq	r2, {}^	; <UNPREDICTABLE>
    1400:	002a8000 	eoreq	r8, sl, r0
    1404:	c6010000 	strgt	r0, [r1], -r0
    1408:	0afe2002 	beq	fff89418 <__bss_end+0x7ff845dc>
    140c:	91020000 	mrsls	r0, (UNDEF: 2)
    1410:	0b0b1274 	bleq	2c5de8 <shift+0x2c5de8>
    1414:	91020000 	mrsls	r0, (UNDEF: 2)
    1418:	0b1e216c 	bleq	7899d0 <shift+0x7899d0>
    141c:	09420000 	stmdbeq	r2, {}^	; <UNPREDICTABLE>
    1420:	000a8000 	andeq	r8, sl, r0
    1424:	87020000 	strhi	r0, [r2, -r0]
    1428:	2c222102 	stfcss	f2, [r2], #-8
    142c:	4200000b 	andmi	r0, r0, #11
    1430:	08800009 	stmeq	r0, {r0, r3}
    1434:	12000000 	andne	r0, r0, #0
    1438:	00000b2d 	andeq	r0, r0, sp, lsr #22
    143c:	00709102 	rsbseq	r9, r0, r2, lsl #2
    1440:	0b000000 	bleq	1448 <shift+0x1448>
    1444:	00000d37 	andeq	r0, r0, r7, lsr sp
    1448:	00088e94 	muleq	r8, r4, lr
    144c:	00002680 	andeq	r2, r0, r0, lsl #13
    1450:	429c0100 	addsmi	r0, ip, #0, 2
    1454:	1300000a 	movwne	r0, #10
    1458:	2294006e 	addscs	r0, r4, #110	; 0x6e
    145c:	00000083 	andeq	r0, r0, r3, lsl #1
    1460:	00749102 	rsbseq	r9, r4, r2, lsl #2
    1464:	00086814 	andeq	r6, r8, r4, lsl r8
    1468:	086c8900 	stmdaeq	ip!, {r8, fp, pc}^
    146c:	00228000 	eoreq	r8, r2, r0
    1470:	9c010000 	stcls	0, cr0, [r1], {-0}
    1474:	00000a63 	andeq	r0, r0, r3, ror #20
    1478:	89006e13 	stmdbhi	r0, {r0, r1, r4, r9, sl, fp, sp, lr}
    147c:	00008328 	andeq	r8, r0, r8, lsr #6
    1480:	74910200 	ldrvc	r0, [r1], #512	; 0x200
    1484:	00fe0b00 	rscseq	r0, lr, r0, lsl #22
    1488:	3a7b0000 	bcc	1ec1490 <shift+0x1ec1490>
    148c:	32800008 	addcc	r0, r0, #8
    1490:	01000000 	mrseq	r0, (UNDEF: 0)
    1494:	000a939c 	muleq	sl, ip, r3
    1498:	0d350c00 	ldceq	12, cr0, [r5, #-0]
    149c:	1b7b0000 	blne	1ec14a4 <shift+0x1ec14a4>
    14a0:	0000007c 	andeq	r0, r0, ip, ror r0
    14a4:	236c9102 	cmncs	ip, #-2147483648	; 0x80000000
    14a8:	7d010069 	stcvc	0, cr0, [r1, #-420]	; 0xfffffe5c
    14ac:	00004006 	andeq	r4, r0, r6
    14b0:	74910200 	ldrvc	r0, [r1], #512	; 0x200
    14b4:	0b811400 	bleq	fe0464bc <__bss_end+0x7e041680>
    14b8:	ce600000 	cdpgt	0, 6, cr0, cr0, cr0, {0}
    14bc:	6c800007 	stcvs	0, cr0, [r0], {7}
    14c0:	01000000 	mrseq	r0, (UNDEF: 0)
    14c4:	000ae09c 	muleq	sl, ip, r0
    14c8:	072f0c00 	streq	r0, [pc, -r0, lsl #24]!
    14cc:	1e600000 	cdpne	0, 6, cr0, cr0, cr0, {0}
    14d0:	0000007c 	andeq	r0, r0, ip, ror r0
    14d4:	0d649102 	stfeqp	f1, [r4, #-8]!
    14d8:	0000098a 	andeq	r0, r0, sl, lsl #19
    14dc:	05011062 	streq	r1, [r1, #-98]	; 0xffffff9e
    14e0:	91020000 	mrsls	r0, (UNDEF: 2)
    14e4:	10810d74 	addne	r0, r1, r4, ror sp
    14e8:	17620000 	strbne	r0, [r2, -r0]!
    14ec:	00000501 	andeq	r0, r0, r1, lsl #10
    14f0:	0d6c9102 	stfeqp	f1, [ip, #-8]!
    14f4:	0000084d 	andeq	r0, r0, sp, asr #16
    14f8:	05011063 	streq	r1, [r1, #-99]	; 0xffffff9d
    14fc:	91020000 	mrsls	r0, (UNDEF: 2)
    1500:	6f110070 	svcvs	0x00110070
    1504:	09000000 	stmdbeq	r0, {}	; <UNPREDICTABLE>
    1508:	80000754 	andhi	r0, r0, r4, asr r7
    150c:	0000007a 	andeq	r0, r0, sl, ror r0
    1510:	84249c01 	strthi	r9, [r4], #-3073	; 0xfffff3ff
    1514:	02000008 	andeq	r0, r0, #8
    1518:	03230285 			; <UNDEFINED> instruction: 0x03230285
    151c:	00000b19 	andeq	r0, r0, r9, lsl fp
    1520:	000f9325 	andeq	r9, pc, r5, lsr #6
    1524:	02850200 	addeq	r0, r5, #0, 4
    1528:	00043a3b 	andeq	r3, r4, fp, lsr sl
    152c:	69672600 	stmdbvs	r7!, {r9, sl, sp}^
    1530:	87020063 	strhi	r0, [r2, -r3, rrx]
    1534:	0b190e02 	bleq	644d44 <shift+0x644d44>
    1538:	10000000 	andne	r0, r0, r0
    153c:	0000095c 	andeq	r0, r0, ip, asr r9
    1540:	00067927 	andeq	r7, r6, r7, lsr #18
    1544:	020d0200 	andeq	r0, sp, #0, 4
    1548:	00006627 	andeq	r6, r0, r7, lsr #12
    154c:	29280300 	stmdbcs	r8!, {r8, r9}
    1550:	00001194 	muleq	r0, r4, r1
    1554:	0a020f02 	beq	85164 <shift+0x85164>
    1558:	00000066 	andeq	r0, r0, r6, rrx
    155c:	10000000 	andne	r0, r0, r0
    1560:	05000002 	streq	r0, [r0, #-2]
    1564:	be040100 	adflts	f0, f4, f0
    1568:	05000005 	streq	r0, [r0, #-5]
    156c:	00000106 	andeq	r0, r0, r6, lsl #2
    1570:	0011cf1d 	andseq	ip, r1, sp, lsl pc
    1574:	00001000 	andeq	r1, r0, r0
    1578:	0009b800 	andeq	fp, r9, r0, lsl #16
    157c:	00012c80 	andeq	r2, r1, r0, lsl #25
    1580:	0005b500 	andeq	fp, r5, r0, lsl #10
    1584:	06010200 	streq	r0, [r1], -r0, lsl #4
    1588:	000000a0 	andeq	r0, r0, r0, lsr #1
    158c:	62050202 	andvs	r0, r5, #536870912	; 0x20000000
    1590:	06000001 	streq	r0, [r0], -r1
    1594:	6e690504 	cdpvs	5, 6, cr0, cr9, cr4, {0}
    1598:	01020074 	tsteq	r2, r4, ror r0
    159c:	00009e08 	andeq	r9, r0, r8, lsl #28
    15a0:	07020200 	streq	r0, [r2, -r0, lsl #4]
    15a4:	000000eb 	andeq	r0, r0, fp, ror #1
    15a8:	0000b607 	andeq	fp, r0, r7, lsl #12
    15ac:	16100400 	ldrne	r0, [r0], -r0, lsl #8
    15b0:	0000005a 	andeq	r0, r0, sl, asr r0
    15b4:	00004908 	andeq	r4, r0, r8, lsl #18
    15b8:	07040200 	streq	r0, [r4, -r0, lsl #4]
    15bc:	000000d3 	ldrdeq	r0, [r0], -r3
    15c0:	c9070802 	stmdbgt	r7, {r1, fp}
    15c4:	02000000 	andeq	r0, r0, #0
    15c8:	004d0508 	subeq	r0, sp, r8, lsl #10
    15cc:	20090000 	andcs	r0, r9, r0
    15d0:	0934a603 	ldmdbeq	r4!, {r0, r1, r9, sl, sp, pc}
    15d4:	000000d9 	ldrdeq	r0, [r0], -r9
    15d8:	00524403 	subseq	r4, r2, r3, lsl #8
    15dc:	005534a7 	subseq	r3, r5, r7, lsr #9
    15e0:	04000000 	streq	r0, [r0], #-0
    15e4:	0000053e 	andeq	r0, r0, lr, lsr r5
    15e8:	005534a8 	subseq	r3, r5, r8, lsr #9
    15ec:	03040000 	movweq	r0, #16384	; 0x4000
    15f0:	00525350 	subseq	r5, r2, r0, asr r3
    15f4:	005534a9 	subseq	r3, r5, r9, lsr #9
    15f8:	04080000 	streq	r0, [r8], #-0
    15fc:	000005e4 	andeq	r0, r0, r4, ror #11
    1600:	005534aa 	subseq	r3, r5, sl, lsr #9
    1604:	040c0000 	streq	r0, [ip], #-0
    1608:	000005e9 	andeq	r0, r0, r9, ror #11
    160c:	005534ab 	subseq	r3, r5, fp, lsr #9
    1610:	03100000 	tsteq	r0, #0
    1614:	00524d49 	subseq	r4, r2, r9, asr #26
    1618:	005534ac 	subseq	r3, r5, ip, lsr #9
    161c:	03140000 	tsteq	r4, #0
    1620:	00525349 	subseq	r5, r2, r9, asr #6
    1624:	005534ad 	subseq	r3, r5, sp, lsr #9
    1628:	04180000 	ldreq	r0, [r8], #-0
    162c:	000005db 	ldrdeq	r0, [r0], -fp
    1630:	005534ae 	subseq	r3, r5, lr, lsr #9
    1634:	001c0000 	andseq	r0, ip, r0
    1638:	0005870a 	andeq	r8, r5, sl, lsl #14
    163c:	34af0300 	strtcc	r0, [pc], #768	; 1644 <shift+0x1644>
    1640:	00006f03 	andeq	r6, r0, r3, lsl #30
    1644:	07040200 	streq	r0, [r4, -r0, lsl #4]
    1648:	000000ce 	andeq	r0, r0, lr, asr #1
    164c:	52050402 	andpl	r0, r5, #33554432	; 0x2000000
    1650:	02000000 	andeq	r0, r0, #0
    1654:	00a70801 	adceq	r0, r7, r1, lsl #16
    1658:	b90b0000 	stmdblt	fp, {}	; <UNPREDICTABLE>
    165c:	02000011 	andeq	r0, r0, #17
    1660:	0a92061c 	beq	fe482ed8 <__bss_end+0x7e47e09c>
    1664:	00528000 	subseq	r8, r2, r0
    1668:	9c010000 	stcls	0, cr0, [r1], {-0}
    166c:	00000121 	andeq	r0, r0, r1, lsr #2
    1670:	0011b20c 	andseq	fp, r1, ip, lsl #4
    1674:	161c0200 	ldrne	r0, [ip], -r0, lsl #4
    1678:	00000034 	andeq	r0, r0, r4, lsr r0
    167c:	00749102 	rsbseq	r9, r4, r2, lsl #2
    1680:	0011c50d 	andseq	ip, r1, sp, lsl #10
    1684:	06080200 	streq	r0, [r8], -r0, lsl #4
    1688:	80000a1c 	andhi	r0, r0, ip, lsl sl
    168c:	00000076 	andeq	r0, r0, r6, ror r0
    1690:	ac0e9c01 	stcge	12, cr9, [lr], {1}
    1694:	01000005 	tsteq	r0, r5
    1698:	f6140444 			; <UNDEFINED> instruction: 0xf6140444
    169c:	26800009 	strcs	r0, [r0], r9
    16a0:	01000000 	mrseq	r0, (UNDEF: 0)
    16a4:	0001a59c 	muleq	r1, ip, r5
    16a8:	05430100 	strbeq	r0, [r3, #-256]	; 0xffffff00
    16ac:	04440000 	strbeq	r0, [r4], #-0
    16b0:	00004931 	andeq	r4, r0, r1, lsr r9
    16b4:	74910200 	ldrvc	r0, [r1], #512	; 0x200
    16b8:	00051f01 	andeq	r1, r5, r1, lsl #30
    16bc:	31044500 	tstcc	r4, r0, lsl #10
    16c0:	00000049 	andeq	r0, r0, r9, asr #32
    16c4:	01709102 	cmneq	r0, r2, lsl #2
    16c8:	00000527 	andeq	r0, r0, r7, lsr #10
    16cc:	49310446 	ldmdbmi	r1!, {r1, r2, r6, sl}
    16d0:	02000000 	andeq	r0, r0, #0
    16d4:	7c016c91 	stcvc	12, cr6, [r1], {145}	; 0x91
    16d8:	47000005 	strmi	r0, [r0, -r5]
    16dc:	00493104 	subeq	r3, r9, r4, lsl #2
    16e0:	91020000 	mrsls	r0, (UNDEF: 2)
    16e4:	05c00168 	strbeq	r0, [r0, #360]	; 0x168
    16e8:	04480000 	strbeq	r0, [r8], #-0
    16ec:	00004931 	andeq	r4, r0, r1, lsr r9
    16f0:	00910200 	addseq	r0, r1, r0, lsl #4
    16f4:	0005cf01 	andeq	ip, r5, r1, lsl #30
    16f8:	31044900 	tstcc	r4, r0, lsl #18
    16fc:	00000049 	andeq	r0, r0, r9, asr #32
    1700:	00049102 	andeq	r9, r4, r2, lsl #2
    1704:	0005640f 	andeq	r6, r5, pc, lsl #8
    1708:	04240100 	strteq	r0, [r4], #-256	; 0xffffff00
    170c:	0009b814 	andeq	fp, r9, r4, lsl r8
    1710:	00003e80 	andeq	r3, r0, r0, lsl #29
    1714:	019c0100 	orrseq	r0, ip, r0, lsl #2
    1718:	00000543 	andeq	r0, r0, r3, asr #10
    171c:	492e0424 	stmdbmi	lr!, {r2, r5, sl}
    1720:	02000000 	andeq	r0, r0, #0
    1724:	1f017491 	svcne	0x00017491
    1728:	25000005 	strcs	r0, [r0, #-5]
    172c:	00492e04 	subeq	r2, r9, r4, lsl #28
    1730:	91020000 	mrsls	r0, (UNDEF: 2)
    1734:	05270170 	streq	r0, [r7, #-368]!	; 0xfffffe90
    1738:	04260000 	strteq	r0, [r6], #-0
    173c:	0000492e 	andeq	r4, r0, lr, lsr #18
    1740:	6c910200 	lfmvs	f0, 4, [r1], {0}
    1744:	00057c01 	andeq	r7, r5, r1, lsl #24
    1748:	2e042700 	cdpcs	7, 0, cr2, cr4, cr0, {0}
    174c:	00000049 	andeq	r0, r0, r9, asr #32
    1750:	01689102 	cmneq	r8, r2, lsl #2
    1754:	000005c0 	andeq	r0, r0, r0, asr #11
    1758:	492e0428 	stmdbmi	lr!, {r3, r5, sl}
    175c:	02000000 	andeq	r0, r0, #0
    1760:	57010091 			; <UNDEFINED> instruction: 0x57010091
    1764:	29000005 	stmdbcs	r0, {r0, r2}
    1768:	00492e04 	subeq	r2, r9, r4, lsl #28
    176c:	91020000 	mrsls	r0, (UNDEF: 2)
    1770:	8b000004 	blhi	1788 <shift+0x1788>
    1774:	05000003 	streq	r0, [r0, #-3]
    1778:	c9040100 	stmdbgt	r4, {r8}
    177c:	0c000006 	stceq	0, cr0, [r0], {6}
    1780:	00000106 	andeq	r0, r0, r6, lsl #2
    1784:	0013601d 	andseq	r6, r3, sp, lsl r0
    1788:	00001000 	andeq	r1, r0, r0
    178c:	000ae400 	andeq	lr, sl, r0, lsl #8
    1790:	00027480 	andeq	r7, r2, r0, lsl #9
    1794:	00067c00 	andeq	r7, r6, r0, lsl #24
    1798:	06010200 	streq	r0, [r1], -r0, lsl #4
    179c:	000000a0 	andeq	r0, r0, r0, lsr #1
    17a0:	62050202 	andvs	r0, r5, #536870912	; 0x20000000
    17a4:	0d000001 	stceq	0, cr0, [r0, #-4]
    17a8:	6e690504 	cdpvs	5, 6, cr0, cr9, cr4, {0}
    17ac:	65060074 	strvs	r0, [r6, #-116]	; 0xffffff8c
    17b0:	02000002 	andeq	r0, r0, #2
    17b4:	0047170e 	subeq	r1, r7, lr, lsl #14
    17b8:	01020000 	mrseq	r0, (UNDEF: 2)
    17bc:	00009e08 	andeq	r9, r0, r8, lsl #28
    17c0:	07020200 	streq	r0, [r2, -r0, lsl #4]
    17c4:	000000eb 	andeq	r0, r0, fp, ror #1
    17c8:	0000b606 	andeq	fp, r0, r6, lsl #12
    17cc:	16100200 	ldrne	r0, [r0], -r0, lsl #4
    17d0:	00000066 	andeq	r0, r0, r6, rrx
    17d4:	0000550e 	andeq	r5, r0, lr, lsl #10
    17d8:	07040200 	streq	r0, [r4, -r0, lsl #4]
    17dc:	000000d3 	ldrdeq	r0, [r0], -r3
    17e0:	c9070802 	stmdbgt	r7, {r1, fp}
    17e4:	02000000 	andeq	r0, r0, #0
    17e8:	004d0508 	subeq	r0, sp, r8, lsl #10
    17ec:	200f0000 	andcs	r0, pc, r0
    17f0:	0934a603 	ldmdbeq	r4!, {r0, r1, r9, sl, sp, pc}
    17f4:	000000e5 	andeq	r0, r0, r5, ror #1
    17f8:	00524407 	subseq	r4, r2, r7, lsl #8
    17fc:	006134a7 	rsbeq	r3, r1, r7, lsr #9
    1800:	08000000 	stmdaeq	r0, {}	; <UNPREDICTABLE>
    1804:	0000053e 	andeq	r0, r0, lr, lsr r5
    1808:	006134a8 	rsbeq	r3, r1, r8, lsr #9
    180c:	07040000 	streq	r0, [r4, -r0]
    1810:	00525350 	subseq	r5, r2, r0, asr r3
    1814:	006134a9 	rsbeq	r3, r1, r9, lsr #9
    1818:	08080000 	stmdaeq	r8, {}	; <UNPREDICTABLE>
    181c:	000005e4 	andeq	r0, r0, r4, ror #11
    1820:	006134aa 	rsbeq	r3, r1, sl, lsr #9
    1824:	080c0000 	stmdaeq	ip, {}	; <UNPREDICTABLE>
    1828:	000005e9 	andeq	r0, r0, r9, ror #11
    182c:	006134ab 	rsbeq	r3, r1, fp, lsr #9
    1830:	07100000 	ldreq	r0, [r0, -r0]
    1834:	00524d49 	subseq	r4, r2, r9, asr #26
    1838:	006134ac 	rsbeq	r3, r1, ip, lsr #9
    183c:	07140000 	ldreq	r0, [r4, -r0]
    1840:	00525349 	subseq	r5, r2, r9, asr #6
    1844:	006134ad 	rsbeq	r3, r1, sp, lsr #9
    1848:	08180000 	ldmdaeq	r8, {}	; <UNPREDICTABLE>
    184c:	000005db 	ldrdeq	r0, [r0], -fp
    1850:	006134ae 	rsbeq	r3, r1, lr, lsr #9
    1854:	001c0000 	andseq	r0, ip, r0
    1858:	00058710 	andeq	r8, r5, r0, lsl r7
    185c:	34af0300 	strtcc	r0, [pc], #768	; 1864 <shift+0x1864>
    1860:	00007b03 	andeq	r7, r0, r3, lsl #22
    1864:	07040200 	streq	r0, [r4, -r0, lsl #4]
    1868:	000000ce 	andeq	r0, r0, lr, asr #1
    186c:	52050402 	andpl	r0, r5, #33554432	; 0x2000000
    1870:	02000000 	andeq	r0, r0, #0
    1874:	00a70801 	adceq	r0, r7, r1, lsl #16
    1878:	f50b0000 			; <UNDEFINED> instruction: 0xf50b0000
    187c:	66000011 			; <UNDEFINED> instruction: 0x66000011
    1880:	07000000 	streq	r0, [r0, -r0]
    1884:	00000122 	andeq	r0, r0, r2, lsr #2
    1888:	00125c03 	andseq	r5, r2, r3, lsl #24
    188c:	74030000 	strvc	r0, [r3], #-0
    1890:	01000013 	tsteq	r0, r3, lsl r0
    1894:	12ff0600 	rscsne	r0, pc, #0, 12
    1898:	0b040000 	bleq	1018a0 <shift+0x1018a0>
    189c:	00010703 	andeq	r0, r1, r3, lsl #14
    18a0:	134b0b00 	movtne	r0, #47872	; 0xbb00
    18a4:	00660000 	rsbeq	r0, r6, r0
    18a8:	61100000 	tstvs	r0, r0
    18ac:	03000001 	movweq	r0, #1
    18b0:	00001388 	andeq	r1, r0, r8, lsl #7
    18b4:	11e30300 	mvnne	r0, r0, lsl #6
    18b8:	03010000 	movweq	r0, #4096	; 0x1000
    18bc:	0000123c 	andeq	r1, r0, ip, lsr r2
    18c0:	12a60302 	adcne	r0, r6, #134217728	; 0x8000000
    18c4:	03030000 	movweq	r0, #12288	; 0x3000
    18c8:	0000126f 	andeq	r1, r0, pc, ror #4
    18cc:	12090304 	andne	r0, r9, #4, 6	; 0x10000000
    18d0:	00050000 	andeq	r0, r5, r0
    18d4:	00122606 	andseq	r2, r2, r6, lsl #12
    18d8:	03180400 	tsteq	r8, #0, 8
    18dc:	0000012e 	andeq	r0, r0, lr, lsr #2
    18e0:	00131411 	andseq	r1, r3, r1, lsl r4
    18e4:	1b040c00 	blne	1048ec <shift+0x1048ec>
    18e8:	00019f10 	andeq	r9, r1, r0, lsl pc
    18ec:	11ff0900 	mvnsne	r0, r0, lsl #18
    18f0:	1a1c0000 	bne	7018f8 <shift+0x7018f8>
    18f4:	00000122 	andeq	r0, r0, r2, lsr #2
    18f8:	12cc0900 	sbcne	r0, ip, #0, 18
    18fc:	0d1d0000 	ldceq	0, cr0, [sp, #-0]
    1900:	0000003b 	andeq	r0, r0, fp, lsr r0
    1904:	12e70904 	rscne	r0, r7, #4, 18	; 0x10000
    1908:	1b1e0000 	blne	781910 <shift+0x781910>
    190c:	00000161 	andeq	r0, r0, r1, ror #2
    1910:	ba060008 	blt	181938 <shift+0x181938>
    1914:	04000012 	streq	r0, [r0], #-18	; 0xffffffee
    1918:	016d021f 	cmneq	sp, pc, lsl r2
    191c:	35050000 	strcc	r0, [r5, #-0]
    1920:	6e000013 	mcrvs	0, 0, r0, cr0, cr3, {0}
    1924:	80000d2e 	andhi	r0, r0, lr, lsr #26
    1928:	0000002a 	andeq	r0, r0, sl, lsr #32
    192c:	01dc9c01 	bicseq	r9, ip, r1, lsl #24
    1930:	8d010000 	stchi	0, cr0, [r1, #-0]
    1934:	6e00001d 	mcrvs	0, 0, r0, cr0, cr13, {0}
    1938:	0001dc1e 	andeq	sp, r1, lr, lsl ip
    193c:	74910200 	ldrvc	r0, [r1], #512	; 0x200
    1940:	6e697004 	cdpvs	0, 6, cr7, cr9, cr4, {0}
    1944:	66316e00 	ldrtvs	r6, [r1], -r0, lsl #28
    1948:	02000000 	andeq	r0, r0, #0
    194c:	0a007091 	beq	1db98 <shift+0x1db98>
    1950:	000000e5 	andeq	r0, r0, r5, ror #1
    1954:	00128405 	andseq	r8, r2, r5, lsl #8
    1958:	0d066900 	vstreq.16	s12, [r6, #-0]	; <UNPREDICTABLE>
    195c:	00288000 	eoreq	r8, r8, r0
    1960:	9c010000 	stcls	0, cr0, [r1], {-0}
    1964:	00000212 	andeq	r0, r0, r2, lsl r2
    1968:	001d8d01 	andseq	r8, sp, r1, lsl #26
    196c:	dc246900 			; <UNDEFINED> instruction: 0xdc246900
    1970:	02000001 	andeq	r0, r0, #1
    1974:	70047491 	mulvc	r4, r1, r4
    1978:	69006e69 	stmdbvs	r0, {r0, r3, r5, r6, r9, sl, fp, sp, lr}
    197c:	00006637 	andeq	r6, r0, r7, lsr r6
    1980:	70910200 	addsvc	r0, r1, r0, lsl #4
    1984:	13250500 			; <UNDEFINED> instruction: 0x13250500
    1988:	dc5e0000 	mrale	r0, lr, acc0
    198c:	2a80000c 	bcs	fe0019c4 <__bss_end+0x7dffcb88>
    1990:	01000000 	mrseq	r0, (UNDEF: 0)
    1994:	0002439c 	muleq	r2, ip, r3
    1998:	1d8d0100 	stfnes	f0, [sp]
    199c:	215e0000 	cmpcs	lr, r0
    19a0:	000001dc 	ldrdeq	r0, [r0], -ip
    19a4:	04749102 	ldrbteq	r9, [r4], #-258	; 0xfffffefe
    19a8:	006e6970 	rsbeq	r6, lr, r0, ror r9
    19ac:	0066345e 	rsbeq	r3, r6, lr, asr r4
    19b0:	91020000 	mrsls	r0, (UNDEF: 2)
    19b4:	97050070 	smlsdxls	r5, r0, r0, r0
    19b8:	53000012 	movwpl	r0, #18
    19bc:	80000cb4 			; <UNDEFINED> instruction: 0x80000cb4
    19c0:	00000028 	andeq	r0, r0, r8, lsr #32
    19c4:	02749c01 	rsbseq	r9, r4, #256	; 0x100
    19c8:	8d010000 	stchi	0, cr0, [r1, #-0]
    19cc:	5300001d 	movwpl	r0, #29
    19d0:	0001dc20 	andeq	sp, r1, r0, lsr #24
    19d4:	74910200 	ldrvc	r0, [r1], #512	; 0x200
    19d8:	6e697004 	cdpvs	0, 6, cr7, cr9, cr4, {0}
    19dc:	66335300 	ldrtvs	r5, [r3], -r0, lsl #6
    19e0:	02000000 	andeq	r0, r0, #0
    19e4:	05007091 	streq	r7, [r0, #-145]	; 0xffffff6f
    19e8:	000012d8 	ldrdeq	r1, [r0], -r8
    19ec:	000bb625 	andeq	fp, fp, r5, lsr #12
    19f0:	0000fe80 	andeq	pc, r0, r0, lsl #29
    19f4:	d19c0100 	orrsle	r0, ip, r0, lsl #2
    19f8:	01000002 	tsteq	r0, r2
    19fc:	00001d8d 	andeq	r1, r0, sp, lsl #27
    1a00:	01dc2025 	bicseq	r2, ip, r5, lsr #32
    1a04:	91020000 	mrsls	r0, (UNDEF: 2)
    1a08:	6970046c 	ldmdbvs	r0!, {r2, r3, r5, r6, sl}^
    1a0c:	3325006e 			; <UNDEFINED> instruction: 0x3325006e
    1a10:	00000066 	andeq	r0, r0, r6, rrx
    1a14:	01689102 	cmneq	r8, r2, lsl #2
    1a18:	0000124f 	andeq	r1, r0, pc, asr #4
    1a1c:	01614e25 	cmneq	r1, r5, lsr #28
    1a20:	91020000 	mrsls	r0, (UNDEF: 2)
    1a24:	63691264 	cmnvs	r9, #100, 4	; 0x40000006
    1a28:	27010072 	smlsdxcs	r1, r2, r0, r0
    1a2c:	0002d115 	andeq	sp, r2, r5, lsl r1
    1a30:	74910200 	ldrvc	r0, [r1], #512	; 0x200
    1a34:	00134213 	andseq	r4, r3, r3, lsl r2
    1a38:	0b280100 	bleq	a01e40 <shift+0xa01e40>
    1a3c:	00000055 	andeq	r0, r0, r5, asr r0
    1a40:	00709102 	rsbseq	r9, r0, r2, lsl #2
    1a44:	0000610a 	andeq	r6, r0, sl, lsl #2
    1a48:	12f51400 	rscsne	r1, r5, #0, 8
    1a4c:	0f010000 	svceq	0x00010000
    1a50:	000b4e06 	andeq	r4, fp, r6, lsl #28
    1a54:	00006880 	andeq	r6, r0, r0, lsl #17
    1a58:	179c0100 	ldrne	r0, [ip, r0, lsl #2]
    1a5c:	01000003 	tsteq	r0, r3
    1a60:	00001d8d 	andeq	r1, r0, sp, lsl #27
    1a64:	01dc1b0f 	bicseq	r1, ip, pc, lsl #22
    1a68:	91020000 	mrsls	r0, (UNDEF: 2)
    1a6c:	69700474 	ldmdbvs	r0!, {r2, r4, r5, r6, sl}^
    1a70:	250f006e 	strcs	r0, [pc, #-110]	; 1a0a <shift+0x1a0a>
    1a74:	00000034 	andeq	r0, r0, r4, lsr r0
    1a78:	01709102 	cmneq	r0, r2, lsl #2
    1a7c:	0000131e 	andeq	r1, r0, lr, lsl r3
    1a80:	03173d0f 	tsteq	r7, #960	; 0x3c0
    1a84:	91020000 	mrsls	r0, (UNDEF: 2)
    1a88:	9f0a006c 	svcls	0x000a006c
    1a8c:	05000001 	streq	r0, [r0, #-1]
    1a90:	0000059e 	muleq	r0, lr, r5
    1a94:	000b0807 	andeq	r0, fp, r7, lsl #16
    1a98:	00004680 	andeq	r4, r0, r0, lsl #13
    1a9c:	5b9c0100 	blpl	fe701ea4 <__bss_end+0x7e6fd068>
    1aa0:	01000003 	tsteq	r0, r3
    1aa4:	00001d8d 	andeq	r1, r0, sp, lsl #27
    1aa8:	01dc1f07 	bicseq	r1, ip, r7, lsl #30
    1aac:	91020000 	mrsls	r0, (UNDEF: 2)
    1ab0:	69700474 	ldmdbvs	r0!, {r2, r4, r5, r6, sl}^
    1ab4:	2907006e 	stmdbcs	r7, {r1, r2, r3, r5, r6}
    1ab8:	00000034 	andeq	r0, r0, r4, lsr r0
    1abc:	01709102 	cmneq	r0, r2, lsl #2
    1ac0:	0000139c 	muleq	r0, ip, r3
    1ac4:	00343207 	eorseq	r3, r4, r7, lsl #4
    1ac8:	91020000 	mrsls	r0, (UNDEF: 2)
    1acc:	9115006c 	tstls	r5, ip, rrx
    1ad0:	01000005 	tsteq	r0, r5
    1ad4:	00340503 	eorseq	r0, r4, r3, lsl #10
    1ad8:	0ae40000 	beq	ff901ae0 <__bss_end+0x7f8fcca4>
    1adc:	00248000 	eoreq	r8, r4, r0
    1ae0:	9c010000 	stcls	0, cr0, [r1], {-0}
    1ae4:	001d8d01 	andseq	r8, sp, r1, lsl #26
    1ae8:	dc1d0300 	ldcle	3, cr0, [sp], {-0}
    1aec:	02000001 	andeq	r0, r0, #1
    1af0:	70047491 	mulvc	r4, r1, r4
    1af4:	03006e69 	movweq	r6, #3689	; 0xe69
    1af8:	00003427 	andeq	r3, r0, r7, lsr #8
    1afc:	70910200 	addsvc	r0, r1, r0, lsl #4
    1b00:	03680000 	cmneq	r8, #0
    1b04:	00050000 	andeq	r0, r5, r0
    1b08:	08350401 	ldmdaeq	r5!, {r0, sl}
    1b0c:	060e0000 	streq	r0, [lr], -r0
    1b10:	1d000001 	stcne	0, cr0, [r0, #-4]
    1b14:	000013dd 	ldrdeq	r1, [r0], -sp
    1b18:	00000010 	andeq	r0, r0, r0, lsl r0
    1b1c:	80000d58 	andhi	r0, r0, r8, asr sp
    1b20:	00000150 	andeq	r0, r0, r0, asr r1
    1b24:	00000817 	andeq	r0, r0, r7, lsl r8
    1b28:	a0060102 	andge	r0, r6, r2, lsl #2
    1b2c:	02000000 	andeq	r0, r0, #0
    1b30:	01620502 	cmneq	r2, r2, lsl #10
    1b34:	040f0000 	streq	r0, [pc], #-0	; 1b3c <shift+0x1b3c>
    1b38:	746e6905 	strbtvc	r6, [lr], #-2309	; 0xfffff6fb
    1b3c:	02650400 	rsbeq	r0, r5, #0, 8
    1b40:	0e030000 	cdpeq	0, 0, cr0, cr3, cr0, {0}
    1b44:	00004717 	andeq	r4, r0, r7, lsl r7
    1b48:	08010200 	stmdaeq	r1, {r9}
    1b4c:	0000009e 	muleq	r0, lr, r0
    1b50:	eb070202 	bl	1c2360 <shift+0x1c2360>
    1b54:	04000000 	streq	r0, [r0], #-0
    1b58:	000000b6 	strheq	r0, [r0], -r6
    1b5c:	66161003 	ldrvs	r1, [r6], -r3
    1b60:	0a000000 	beq	1b68 <shift+0x1b68>
    1b64:	00000055 	andeq	r0, r0, r5, asr r0
    1b68:	d3070402 	movwle	r0, #29698	; 0x7402
    1b6c:	0a000000 	beq	1b74 <shift+0x1b74>
    1b70:	00000066 	andeq	r0, r0, r6, rrx
    1b74:	c9070802 	stmdbgt	r7, {r1, fp}
    1b78:	02000000 	andeq	r0, r0, #0
    1b7c:	004d0508 	subeq	r0, sp, r8, lsl #10
    1b80:	20100000 	andscs	r0, r0, r0
    1b84:	0934a604 	ldmdbeq	r4!, {r2, r9, sl, sp, pc}
    1b88:	000000ea 	andeq	r0, r0, sl, ror #1
    1b8c:	00524406 	subseq	r4, r2, r6, lsl #8
    1b90:	006134a7 	rsbeq	r3, r1, r7, lsr #9
    1b94:	07000000 	streq	r0, [r0, -r0]
    1b98:	0000053e 	andeq	r0, r0, lr, lsr r5
    1b9c:	006134a8 	rsbeq	r3, r1, r8, lsr #9
    1ba0:	06040000 	streq	r0, [r4], -r0
    1ba4:	00525350 	subseq	r5, r2, r0, asr r3
    1ba8:	006134a9 	rsbeq	r3, r1, r9, lsr #9
    1bac:	07080000 	streq	r0, [r8, -r0]
    1bb0:	000005e4 	andeq	r0, r0, r4, ror #11
    1bb4:	006134aa 	rsbeq	r3, r1, sl, lsr #9
    1bb8:	070c0000 	streq	r0, [ip, -r0]
    1bbc:	000005e9 	andeq	r0, r0, r9, ror #11
    1bc0:	006134ab 	rsbeq	r3, r1, fp, lsr #9
    1bc4:	06100000 	ldreq	r0, [r0], -r0
    1bc8:	00524d49 	subseq	r4, r2, r9, asr #26
    1bcc:	006134ac 	rsbeq	r3, r1, ip, lsr #9
    1bd0:	06140000 	ldreq	r0, [r4], -r0
    1bd4:	00525349 	subseq	r5, r2, r9, asr #6
    1bd8:	006134ad 	rsbeq	r3, r1, sp, lsr #9
    1bdc:	07180000 	ldreq	r0, [r8, -r0]
    1be0:	000005db 	ldrdeq	r0, [r0], -fp
    1be4:	006134ae 	rsbeq	r3, r1, lr, lsr #9
    1be8:	001c0000 	andseq	r0, ip, r0
    1bec:	00058711 	andeq	r8, r5, r1, lsl r7
    1bf0:	34af0400 	strtcc	r0, [pc], #1024	; 1bf8 <shift+0x1bf8>
    1bf4:	00008003 	andeq	r8, r0, r3
    1bf8:	07040200 	streq	r0, [r4, -r0, lsl #4]
    1bfc:	000000ce 	andeq	r0, r0, lr, asr #1
    1c00:	52050402 	andpl	r0, r5, #33554432	; 0x2000000
    1c04:	02000000 	andeq	r0, r0, #0
    1c08:	00a70801 	adceq	r0, r7, r1, lsl #16
    1c0c:	f5080000 			; <UNDEFINED> instruction: 0xf5080000
    1c10:	66000011 			; <UNDEFINED> instruction: 0x66000011
    1c14:	05000000 	streq	r0, [r0, #-0]
    1c18:	00012807 	andeq	r2, r1, r7, lsl #16
    1c1c:	125c0300 	subsne	r0, ip, #0, 6
    1c20:	03000000 	movweq	r0, #0
    1c24:	00001374 	andeq	r1, r0, r4, ror r3
    1c28:	ff040001 			; <UNDEFINED> instruction: 0xff040001
    1c2c:	05000012 	streq	r0, [r0, #-18]	; 0xffffffee
    1c30:	010c030b 	tsteq	ip, fp, lsl #6
    1c34:	4b080000 	blmi	201c3c <shift+0x201c3c>
    1c38:	66000013 			; <UNDEFINED> instruction: 0x66000013
    1c3c:	05000000 	streq	r0, [r0, #-0]
    1c40:	00016810 	andeq	r6, r1, r0, lsl r8
    1c44:	13880300 	orrne	r0, r8, #0, 6
    1c48:	03000000 	movweq	r0, #0
    1c4c:	000011e3 	andeq	r1, r0, r3, ror #3
    1c50:	123c0301 	eorsne	r0, ip, #67108864	; 0x4000000
    1c54:	03020000 	movweq	r0, #8192	; 0x2000
    1c58:	000012a6 	andeq	r1, r0, r6, lsr #5
    1c5c:	126f0303 	rsbne	r0, pc, #201326592	; 0xc000000
    1c60:	03040000 	movweq	r0, #16384	; 0x4000
    1c64:	00001209 	andeq	r1, r0, r9, lsl #4
    1c68:	26040005 	strcs	r0, [r4], -r5
    1c6c:	05000012 	streq	r0, [r0, #-18]	; 0xffffffee
    1c70:	01340318 	teqeq	r4, r8, lsl r3
    1c74:	14120000 	ldrne	r0, [r2], #-0
    1c78:	0c000013 	stceq	0, cr0, [r0], {19}
    1c7c:	a6101b05 	ldrge	r1, [r0], -r5, lsl #22
    1c80:	09000001 	stmdbeq	r0, {r0}
    1c84:	000011ff 	strdeq	r1, [r0], -pc	; <UNPREDICTABLE>
    1c88:	01281a1c 			; <UNDEFINED> instruction: 0x01281a1c
    1c8c:	09000000 	stmdbeq	r0, {}	; <UNPREDICTABLE>
    1c90:	000012cc 	andeq	r1, r0, ip, asr #5
    1c94:	003b0d1d 	eorseq	r0, fp, sp, lsl sp
    1c98:	09040000 	stmdbeq	r4, {}	; <UNPREDICTABLE>
    1c9c:	000012e7 	andeq	r1, r0, r7, ror #5
    1ca0:	01681b1e 	cmneq	r8, lr, lsl fp
    1ca4:	00080000 	andeq	r0, r8, r0
    1ca8:	0012ba04 	andseq	fp, r2, r4, lsl #20
    1cac:	021f0500 	andseq	r0, pc, #0, 10
    1cb0:	00000174 	andeq	r0, r0, r4, ror r1
    1cb4:	00139808 	andseq	r9, r3, r8, lsl #16
    1cb8:	00006600 	andeq	r6, r0, r0, lsl #12
    1cbc:	ce080600 	cfmadd32gt	mvax0, mvfx0, mvfx8, mvfx0
    1cc0:	03000001 	movweq	r0, #1
    1cc4:	000013b4 			; <UNDEFINED> instruction: 0x000013b4
    1cc8:	13a90300 			; <UNDEFINED> instruction: 0x13a90300
    1ccc:	00010000 	andeq	r0, r1, r0
    1cd0:	0013c604 	andseq	ip, r3, r4, lsl #12
    1cd4:	020b0600 	andeq	r0, fp, #0, 12
    1cd8:	000001b2 			; <UNDEFINED> instruction: 0x000001b2
    1cdc:	000d370b 	andeq	r3, sp, fp, lsl #14
    1ce0:	eb0b0700 	bl	2c38e8 <shift+0x2c38e8>
    1ce4:	05000001 	streq	r0, [r0, #-1]
    1ce8:	0000006d 	andeq	r0, r0, sp, rrx
    1cec:	05911300 	ldreq	r1, [r1, #768]	; 0x300
    1cf0:	24050000 	strcs	r0, [r5], #-0
    1cf4:	00003405 	andeq	r3, r0, r5, lsl #8
    1cf8:	00020600 	andeq	r0, r2, r0, lsl #12
    1cfc:	02060500 	andeq	r0, r6, #0, 10
    1d00:	34050000 	strcc	r0, [r5], #-0
    1d04:	00000000 	andeq	r0, r0, r0
    1d08:	0000ea0c 	andeq	lr, r0, ip, lsl #20
    1d0c:	12f50b00 	rscsne	r0, r5, #0, 22
    1d10:	23050000 	movwcs	r0, #20480	; 0x5000
    1d14:	00000226 	andeq	r0, r0, r6, lsr #4
    1d18:	00020605 	andeq	r0, r2, r5, lsl #12
    1d1c:	00340500 	eorseq	r0, r4, r0, lsl #10
    1d20:	26050000 	strcs	r0, [r5], -r0
    1d24:	00000002 	andeq	r0, r0, r2
    1d28:	0001a60c 	andeq	sl, r1, ip, lsl #12
    1d2c:	13ef1400 	mvnne	r1, #0, 8
    1d30:	0f020000 	svceq	0x00020000
    1d34:	00003405 	andeq	r3, r0, r5, lsl #8
    1d38:	000e2200 	andeq	r2, lr, r0, lsl #4
    1d3c:	00008680 	andeq	r8, r0, r0, lsl #13
    1d40:	669c0100 	ldrvs	r0, [ip], r0, lsl #2
    1d44:	15000002 	strne	r0, [r0, #-2]
    1d48:	00746572 	rsbseq	r6, r4, r2, ror r5
    1d4c:	ce111002 	cdpgt	0, 1, cr1, cr1, cr2, {0}
    1d50:	02000001 	andeq	r0, r0, #1
    1d54:	a20d7491 	andge	r7, sp, #-1862270976	; 0x91000000
    1d58:	11000013 	tstne	r0, r3, lsl r0
    1d5c:	00003b14 	andeq	r3, r0, r4, lsl fp
    1d60:	20030500 	andcs	r0, r3, r0, lsl #10
    1d64:	00800040 	addeq	r0, r0, r0, asr #32
    1d68:	0013bd16 	andseq	fp, r3, r6, lsl sp
    1d6c:	06030200 	streq	r0, [r3], -r0, lsl #4
    1d70:	80000dbc 			; <UNDEFINED> instruction: 0x80000dbc
    1d74:	00000066 	andeq	r0, r0, r6, rrx
    1d78:	028b9c01 	addeq	r9, fp, #256	; 0x100
    1d7c:	d20d0000 	andle	r0, sp, #0
    1d80:	08000013 	stmdaeq	r0, {r0, r1, r4}
    1d84:	0001a617 	andeq	sl, r1, r7, lsl r6
    1d88:	6c910200 	lfmvs	f0, 4, [r1], {0}
    1d8c:	05ac1700 	streq	r1, [ip, #1792]!	; 0x700
    1d90:	44010000 	strmi	r0, [r1], #-0
    1d94:	0d961404 	cfldrseq	mvf1, [r6, #16]
    1d98:	00268000 	eoreq	r8, r6, r0
    1d9c:	9c010000 	stcls	0, cr0, [r1], {-0}
    1da0:	000002fd 	strdeq	r0, [r0], -sp
    1da4:	00054301 	andeq	r4, r5, r1, lsl #6
    1da8:	31044400 	tstcc	r4, r0, lsl #8
    1dac:	00000055 	andeq	r0, r0, r5, asr r0
    1db0:	01749102 	cmneq	r4, r2, lsl #2
    1db4:	0000051f 	andeq	r0, r0, pc, lsl r5
    1db8:	55310445 	ldrpl	r0, [r1, #-1093]!	; 0xfffffbbb
    1dbc:	02000000 	andeq	r0, r0, #0
    1dc0:	27017091 			; <UNDEFINED> instruction: 0x27017091
    1dc4:	46000005 	strmi	r0, [r0], -r5
    1dc8:	00553104 	subseq	r3, r5, r4, lsl #2
    1dcc:	91020000 	mrsls	r0, (UNDEF: 2)
    1dd0:	057c016c 	ldrbeq	r0, [ip, #-364]!	; 0xfffffe94
    1dd4:	04470000 	strbeq	r0, [r7], #-0
    1dd8:	00005531 	andeq	r5, r0, r1, lsr r5
    1ddc:	68910200 	ldmvs	r1, {r9}
    1de0:	0005c001 	andeq	ip, r5, r1
    1de4:	31044800 	tstcc	r4, r0, lsl #16
    1de8:	00000055 	andeq	r0, r0, r5, asr r0
    1dec:	01009102 	tsteq	r0, r2, lsl #2
    1df0:	000005cf 	andeq	r0, r0, pc, asr #11
    1df4:	55310449 	ldrpl	r0, [r1, #-1097]!	; 0xfffffbb7
    1df8:	02000000 	andeq	r0, r0, #0
    1dfc:	18000491 	stmdane	r0, {r0, r4, r7, sl}
    1e00:	00000564 	andeq	r0, r0, r4, ror #10
    1e04:	14042401 	strne	r2, [r4], #-1025	; 0xfffffbff
    1e08:	80000d58 	andhi	r0, r0, r8, asr sp
    1e0c:	0000003e 	andeq	r0, r0, lr, lsr r0
    1e10:	43019c01 	movwmi	r9, #7169	; 0x1c01
    1e14:	24000005 	strcs	r0, [r0], #-5
    1e18:	00552e04 	subseq	r2, r5, r4, lsl #28
    1e1c:	91020000 	mrsls	r0, (UNDEF: 2)
    1e20:	051f0174 	ldreq	r0, [pc, #-372]	; 1cb4 <shift+0x1cb4>
    1e24:	04250000 	strteq	r0, [r5], #-0
    1e28:	0000552e 	andeq	r5, r0, lr, lsr #10
    1e2c:	70910200 	addsvc	r0, r1, r0, lsl #4
    1e30:	00052701 	andeq	r2, r5, r1, lsl #14
    1e34:	2e042600 	cfmadd32cs	mvax0, mvfx2, mvfx4, mvfx0
    1e38:	00000055 	andeq	r0, r0, r5, asr r0
    1e3c:	016c9102 	cmneq	ip, r2, lsl #2
    1e40:	0000057c 	andeq	r0, r0, ip, ror r5
    1e44:	552e0427 	strpl	r0, [lr, #-1063]!	; 0xfffffbd9
    1e48:	02000000 	andeq	r0, r0, #0
    1e4c:	c0016891 	mulgt	r1, r1, r8
    1e50:	28000005 	stmdacs	r0, {r0, r2}
    1e54:	00552e04 	subseq	r2, r5, r4, lsl #28
    1e58:	91020000 	mrsls	r0, (UNDEF: 2)
    1e5c:	05570100 	ldrbeq	r0, [r7, #-256]	; 0xffffff00
    1e60:	04290000 	strteq	r0, [r9], #-0
    1e64:	0000552e 	andeq	r5, r0, lr, lsr #10
    1e68:	04910200 	ldreq	r0, [r1], #512	; 0x200
    1e6c:	0ca10000 	stceq	0, cr0, [r1]
    1e70:	00050000 	andeq	r0, r5, r0
    1e74:	09d80401 	ldmibeq	r8, {r0, sl}^
    1e78:	06140000 	ldreq	r0, [r4], -r0
    1e7c:	1d000001 	stcne	0, cr0, [r0, #-4]
    1e80:	00001671 	andeq	r1, r0, r1, ror r6
    1e84:	00000010 	andeq	r0, r0, r0, lsl r0
    1e88:	80000ea8 	andhi	r0, r0, r8, lsr #29
    1e8c:	000001b8 			; <UNDEFINED> instruction: 0x000001b8
    1e90:	00000949 	andeq	r0, r0, r9, asr #18
    1e94:	a0060105 	andge	r0, r6, r5, lsl #2
    1e98:	05000000 	streq	r0, [r0, #-0]
    1e9c:	01620502 	cmneq	r2, r2, lsl #10
    1ea0:	04150000 	ldreq	r0, [r5], #-0
    1ea4:	746e6905 	strbtvc	r6, [lr], #-2309	; 0xfffff6fb
    1ea8:	02650700 	rsbeq	r0, r5, #0, 14
    1eac:	0e030000 	cdpeq	0, 0, cr0, cr3, cr0, {0}
    1eb0:	00004c17 	andeq	r4, r0, r7, lsl ip
    1eb4:	003b0600 	eorseq	r0, fp, r0, lsl #12
    1eb8:	01050000 	mrseq	r0, (UNDEF: 5)
    1ebc:	00009e08 	andeq	r9, r0, r8, lsl #28
    1ec0:	07020500 	streq	r0, [r2, -r0, lsl #10]
    1ec4:	000000eb 	andeq	r0, r0, fp, ror #1
    1ec8:	0000b607 	andeq	fp, r0, r7, lsl #12
    1ecc:	16100300 	ldrne	r0, [r0], -r0, lsl #6
    1ed0:	00000070 	andeq	r0, r0, r0, ror r0
    1ed4:	00005a06 	andeq	r5, r0, r6, lsl #20
    1ed8:	00660b00 	rsbeq	r0, r6, r0, lsl #22
    1edc:	04050000 	streq	r0, [r5], #-0
    1ee0:	0000d307 	andeq	sp, r0, r7, lsl #6
    1ee4:	07080500 	streq	r0, [r8, -r0, lsl #10]
    1ee8:	000000c9 	andeq	r0, r0, r9, asr #1
    1eec:	4d050805 	stcmi	8, cr0, [r5, #-20]	; 0xffffffec
    1ef0:	10000000 	andne	r0, r0, r0
    1ef4:	00001788 	andeq	r1, r0, r8, lsl #15
    1ef8:	00007007 	andeq	r7, r0, r7
    1efc:	061d0400 	ldreq	r0, [sp], -r0, lsl #8
    1f00:	00000205 	andeq	r0, r0, r5, lsl #4
    1f04:	00145d01 	andseq	r5, r4, r1, lsl #26
    1f08:	aa010000 	bge	41f10 <shift+0x41f10>
    1f0c:	01000016 	tsteq	r0, r6, lsl r0
    1f10:	00184801 	andseq	r4, r8, r1, lsl #16
    1f14:	fa010400 	blx	42f1c <shift+0x42f1c>
    1f18:	05000016 	streq	r0, [r0, #-22]	; 0xffffffea
    1f1c:	00152c01 	andseq	r2, r5, r1, lsl #24
    1f20:	fc010600 	stc2	6, cr0, [r1], {-0}
    1f24:	07000013 	smladeq	r0, r3, r0, r0
    1f28:	0017d001 	andseq	sp, r7, r1
    1f2c:	f0010800 			; <UNDEFINED> instruction: 0xf0010800
    1f30:	09000018 	stmdbeq	r0, {r3, r4}
    1f34:	00149501 	andseq	r9, r4, r1, lsl #10
    1f38:	fb010a00 	blx	44742 <shift+0x44742>
    1f3c:	0b000017 	bleq	1fa0 <shift+0x1fa0>
    1f40:	00194301 	andseq	r4, r9, r1, lsl #6
    1f44:	97010c00 	strls	r0, [r1, -r0, lsl #24]
    1f48:	0d000017 	stceq	0, cr0, [r0, #-92]	; 0xffffffa4
    1f4c:	00174001 	andseq	r4, r7, r1
    1f50:	be010e00 	cdplt	14, 0, cr0, cr1, cr0, {0}
    1f54:	0f000017 	svceq	0x00000017
    1f58:	0014a701 	andseq	sl, r4, r1, lsl #14
    1f5c:	35011000 	strcc	r1, [r1, #-0]
    1f60:	11000016 	tstne	r0, r6, lsl r0
    1f64:	0018dd01 	andseq	sp, r8, r1, lsl #26
    1f68:	15011200 	strne	r1, [r1, #-512]	; 0xfffffe00
    1f6c:	13000014 	movwne	r0, #20
    1f70:	00160801 	andseq	r0, r6, r1, lsl #16
    1f74:	cc011400 	cfstrsgt	mvf1, [r1], {-0}
    1f78:	15000018 	strne	r0, [r0, #-24]	; 0xffffffe8
    1f7c:	00157201 	andseq	r7, r5, r1, lsl #4
    1f80:	bd011600 	stclt	6, cr1, [r1, #-0]
    1f84:	17000016 	smladne	r0, r6, r0, r0
    1f88:	0014e201 	andseq	lr, r4, r1, lsl #4
    1f8c:	1d011800 	stcne	8, cr1, [r1, #-0]
    1f90:	19000018 	stmdbne	r0, {r3, r4}
    1f94:	00185b01 	andseq	r5, r8, r1, lsl #22
    1f98:	0c011a00 			; <UNDEFINED> instruction: 0x0c011a00
    1f9c:	1b000018 	blne	2004 <shift+0x2004>
    1fa0:	0016e701 	andseq	lr, r6, r1, lsl #14
    1fa4:	58011c00 	stmdapl	r1, {sl, fp, ip}
    1fa8:	1d000016 	stcne	0, cr0, [r0, #-88]	; 0xffffffa8
    1fac:	00142601 	andseq	r2, r4, r1, lsl #12
    1fb0:	f5012300 			; <UNDEFINED> instruction: 0xf5012300
    1fb4:	27000015 	smladcs	r0, r5, r0, r0
    1fb8:	00148301 	andseq	r8, r4, r1, lsl #6
    1fbc:	70012800 	andvc	r2, r1, r0, lsl #16
    1fc0:	29000019 	stmdbcs	r0, {r0, r3, r4}
    1fc4:	00175101 	andseq	r5, r7, r1, lsl #2
    1fc8:	15012a00 	strne	r2, [r1, #-2560]	; 0xfffff600
    1fcc:	2b000019 	blcs	2038 <shift+0x2038>
    1fd0:	00192c01 	andseq	r2, r9, r1, lsl #24
    1fd4:	3e012c00 	cdpcc	12, 0, cr2, cr1, cr0, {0}
    1fd8:	2d000015 	stccs	0, cr0, [r0, #-84]	; 0xffffffac
    1fdc:	00164701 	andseq	r4, r6, r1, lsl #14
    1fe0:	a3013200 	movwge	r3, #4608	; 0x1200
    1fe4:	33000018 	movwcc	r0, #24
    1fe8:	0015c601 	andseq	ip, r5, r1, lsl #12
    1fec:	9b013400 	blls	4eff4 <shift+0x4eff4>
    1ff0:	35000015 	strcc	r0, [r0, #-21]	; 0xffffffeb
    1ff4:	00147201 	andseq	r7, r4, r1, lsl #4
    1ff8:	da013600 	ble	4f800 <shift+0x4f800>
    1ffc:	37000015 	smladcc	r0, r5, r0, r0
    2000:	0014cd01 	andseq	ip, r4, r1, lsl #26
    2004:	b5013800 	strlt	r3, [r1, #-2048]	; 0xfffff800
    2008:	39000018 	stmdbcc	r0, {r3, r4}
    200c:	00161901 	andseq	r1, r6, r1, lsl #18
    2010:	83013a00 	movwhi	r3, #6656	; 0x1a00
    2014:	3b000016 	blcc	2074 <shift+0x2074>
    2018:	0017ab01 	andseq	sl, r7, r1, lsl #22
    201c:	1b013c00 	blne	51024 <shift+0x51024>
    2020:	3d000015 	stccc	0, cr0, [r0, #-84]	; 0xffffffac
    2024:	0014bb01 	andseq	fp, r4, r1, lsl #22
    2028:	12013e00 	andne	r3, r1, #0, 28
    202c:	3f000017 	svccc	0x00000017
    2030:	0017e801 	andseq	lr, r7, r1, lsl #16
    2034:	4a014000 	bmi	5203c <shift+0x5203c>
    2038:	41000014 	tstmi	r0, r4, lsl r0
    203c:	00150601 	andseq	r0, r5, r1, lsl #12
    2040:	56014200 	strpl	r4, [r1], -r0, lsl #4
    2044:	45000019 	strmi	r0, [r0, #-25]	; 0xffffffe7
    2048:	00183301 	andseq	r3, r8, r1, lsl #6
    204c:	50014600 	andpl	r4, r1, r0, lsl #12
    2050:	47000015 	smladmi	r0, r5, r0, r0
    2054:	00188f01 	andseq	r8, r8, r1, lsl #30
    2058:	03014800 	movweq	r4, #6144	; 0x1800
    205c:	49000019 	stmdbmi	r0, {r0, r3, r4}
    2060:	0015b001 	andseq	fp, r5, r1
    2064:	75016200 	strvc	r6, [r1, #-512]	; 0xfffffe00
    2068:	63000018 	movwvs	r0, #24
    206c:	00176501 	andseq	r6, r7, r1, lsl #10
    2070:	10006400 	andne	r6, r0, r0, lsl #8
    2074:	00000f93 	muleq	r0, r3, pc	; <UNPREDICTABLE>
    2078:	00003405 	andeq	r3, r0, r5, lsl #8
    207c:	0e210500 	cfsh64eq	mvdx0, mvdx1, #0
    2080:	000005a8 	andeq	r0, r0, r8, lsr #11
    2084:	000e8116 	andeq	r8, lr, r6, lsl r1
    2088:	017f8000 	cmneq	pc, r0
    208c:	000007db 	ldrdeq	r0, [r0], -fp
    2090:	0e720100 	rpweqs	f0, f2, f0
    2094:	01010000 	mrseq	r0, (UNDEF: 1)
    2098:	00000999 	muleq	r0, r9, r9
    209c:	11850102 	orrne	r0, r5, r2, lsl #2
    20a0:	01030000 	mrseq	r0, (UNDEF: 3)
    20a4:	00000bd9 	ldrdeq	r0, [r0], -r9
    20a8:	07960104 	ldreq	r0, [r6, r4, lsl #2]
    20ac:	01050000 	mrseq	r0, (UNDEF: 5)
    20b0:	00000f60 	andeq	r0, r0, r0, ror #30
    20b4:	09570106 	ldmdbeq	r7, {r1, r2, r8}^
    20b8:	01070000 	mrseq	r0, (UNDEF: 7)
    20bc:	00001131 	andeq	r1, r0, r1, lsr r1
    20c0:	0d110108 	ldfeqs	f0, [r1, #-32]	; 0xffffffe0
    20c4:	01090000 	mrseq	r0, (UNDEF: 9)
    20c8:	00000fdd 	ldrdeq	r0, [r0], -sp
    20cc:	1088010a 	addne	r0, r8, sl, lsl #2
    20d0:	010b0000 	mrseq	r0, (UNDEF: 11)
    20d4:	00000be8 	andeq	r0, r0, r8, ror #23
    20d8:	07a5010c 	streq	r0, [r5, ip, lsl #2]!
    20dc:	010d0000 	mrseq	r0, (UNDEF: 13)
    20e0:	00000e20 	andeq	r0, r0, r0, lsr #28
    20e4:	0966010e 	stmdbeq	r6!, {r1, r2, r3, r8}^
    20e8:	010f0000 	mrseq	r0, CPSR
    20ec:	00000b9a 	muleq	r0, sl, fp
    20f0:	0b6c0119 	bleq	1b0255c <shift+0x1b0255c>
    20f4:	011a0000 	tsteq	sl, r0
    20f8:	00000c6e 	andeq	r0, r0, lr, ror #24
    20fc:	0a88011b 	beq	fe202570 <__bss_end+0x7e1fd734>
    2100:	011c0000 	tsteq	ip, r0
    2104:	000006ff 	strdeq	r0, [r0], -pc	; <UNPREDICTABLE>
    2108:	06fc011d 	usateq	r0, #28, sp, lsl #2
    210c:	011e0000 	tsteq	lr, r0
    2110:	00000b21 	andeq	r0, r0, r1, lsr #22
    2114:	0b30011f 	bleq	c02598 <shift+0xc02598>
    2118:	01200000 			; <UNDEFINED> instruction: 0x01200000
    211c:	00000f3b 	andeq	r0, r0, fp, lsr pc
    2120:	0f560121 	svceq	0x00560121
    2124:	01220000 			; <UNDEFINED> instruction: 0x01220000
    2128:	00000c05 	andeq	r0, r0, r5, lsl #24
    212c:	0a0c0123 	beq	3025c0 <shift+0x3025c0>
    2130:	01240000 			; <UNDEFINED> instruction: 0x01240000
    2134:	00000919 	andeq	r0, r0, r9, lsl r9
    2138:	0c0e0125 	stfeqs	f0, [lr], {37}	; 0x25
    213c:	01260000 			; <UNDEFINED> instruction: 0x01260000
    2140:	000007ff 	strdeq	r0, [r0], -pc	; <UNPREDICTABLE>
    2144:	0aca0127 	beq	ff2825e8 <__bss_end+0x7f27d7ac>
    2148:	01280000 			; <UNDEFINED> instruction: 0x01280000
    214c:	00000ea6 	andeq	r0, r0, r6, lsr #29
    2150:	0a2f0129 	beq	bc25fc <shift+0xbc25fc>
    2154:	012a0000 			; <UNDEFINED> instruction: 0x012a0000
    2158:	00000b61 	andeq	r0, r0, r1, ror #22
    215c:	0afd012b 	beq	fff42610 <__bss_end+0x7ff3d7d4>
    2160:	012c0000 			; <UNDEFINED> instruction: 0x012c0000
    2164:	0000069c 	muleq	r0, ip, r6
    2168:	0a63012d 	beq	18c2624 <shift+0x18c2624>
    216c:	012e0000 			; <UNDEFINED> instruction: 0x012e0000
    2170:	000007bf 			; <UNDEFINED> instruction: 0x000007bf
    2174:	0f44012f 	svceq	0x0044012f
    2178:	01300000 	teqeq	r0, r0
    217c:	00000ae6 	andeq	r0, r0, r6, ror #21
    2180:	068e0131 			; <UNDEFINED> instruction: 0x068e0131
    2184:	01320000 	teqeq	r2, r0
    2188:	000009d4 	ldrdeq	r0, [r0], -r4
    218c:	0e550133 	mrceq	1, 2, r0, cr5, cr3, {1}
    2190:	01340000 	teqeq	r4, r0
    2194:	00000c65 	andeq	r0, r0, r5, ror #24
    2198:	0c230135 	stfeqs	f0, [r3], #-212	; 0xffffff2c
    219c:	01360000 	teqeq	r6, r0
    21a0:	0000066d 	andeq	r0, r0, sp, ror #12
    21a4:	0bf80137 	bleq	ffe02688 <__bss_end+0x7fdfd84c>
    21a8:	01380000 	teqeq	r8, r0
    21ac:	00000d84 	andeq	r0, r0, r4, lsl #27
    21b0:	09c90139 	stmibeq	r9, {r0, r3, r4, r5, r8}^
    21b4:	013a0000 	teqeq	sl, r0
    21b8:	00001098 	muleq	r0, r8, r0
    21bc:	060b013b 			; <UNDEFINED> instruction: 0x060b013b
    21c0:	013c0000 	teqeq	ip, r0
    21c4:	000007d0 	ldrdeq	r0, [r0], -r0	; <UNPREDICTABLE>
    21c8:	0e4a013d 	mcreq	1, 2, r0, cr10, cr13, {1}
    21cc:	013e0000 	teqeq	lr, r0
    21d0:	00000b3c 	andeq	r0, r0, ip, lsr fp
    21d4:	0713013f 			; <UNDEFINED> instruction: 0x0713013f
    21d8:	01400000 	mrseq	r0, (UNDEF: 64)
    21dc:	00000d91 	muleq	r0, r1, sp
    21e0:	08e10141 	stmiaeq	r1!, {r0, r6, r8}^
    21e4:	01420000 	mrseq	r0, (UNDEF: 66)
    21e8:	000007f5 	strdeq	r0, [r0], -r5
    21ec:	07b50143 	ldreq	r0, [r5, r3, asr #2]!
    21f0:	01440000 	mrseq	r0, (UNDEF: 68)
    21f4:	00000f6f 	andeq	r0, r0, pc, ror #30
    21f8:	09760145 	ldmdbeq	r6!, {r0, r2, r6, r8}^
    21fc:	01460000 	mrseq	r0, (UNDEF: 70)
    2200:	00001173 	andeq	r1, r0, r3, ror r1
    2204:	0d2a0147 	stfeqs	f0, [sl, #-284]!	; 0xfffffee4
    2208:	01480000 	mrseq	r0, (UNDEF: 72)
    220c:	00000bb2 			; <UNDEFINED> instruction: 0x00000bb2
    2210:	0d440149 	stfeqe	f0, [r4, #-292]	; 0xfffffedc
    2214:	014a0000 	mrseq	r0, (UNDEF: 74)
    2218:	000006bd 			; <UNDEFINED> instruction: 0x000006bd
    221c:	083f014b 	ldmdaeq	pc!, {r0, r1, r3, r6, r8}	; <UNPREDICTABLE>
    2220:	014c0000 	mrseq	r0, (UNDEF: 76)
    2224:	000010be 	strheq	r1, [r0], -lr
    2228:	0616014d 	ldreq	r0, [r6], -sp, asr #2
    222c:	014e0000 	mrseq	r0, (UNDEF: 78)
    2230:	00000857 	andeq	r0, r0, r7, asr r8
    2234:	0737014f 	ldreq	r0, [r7, -pc, asr #2]!
    2238:	01500000 	cmpeq	r0, r0
    223c:	0000080f 	andeq	r0, r0, pc, lsl #16
    2240:	062b0151 			; <UNDEFINED> instruction: 0x062b0151
    2244:	01520000 	cmpeq	r2, r0
    2248:	00000ab5 			; <UNDEFINED> instruction: 0x00000ab5
    224c:	06a60153 	ssateq	r0, #7, r3, asr #2
    2250:	01540000 	cmpeq	r4, r0
    2254:	000009b9 			; <UNDEFINED> instruction: 0x000009b9
    2258:	09490155 	stmdbeq	r9, {r0, r2, r4, r6, r8}^
    225c:	01560000 	cmpeq	r6, r0
    2260:	000010a3 	andeq	r1, r0, r3, lsr #1
    2264:	0c5a0157 	ldfeqe	f0, [sl], {87}	; 0x57
    2268:	01580000 	cmpeq	r8, r0
    226c:	000007ea 	andeq	r0, r0, sl, ror #15
    2270:	0c2f0159 	stfeqs	f0, [pc], #-356	; 2114 <shift+0x2114>
    2274:	015a0000 	cmpeq	sl, r0
    2278:	000010d2 	ldrdeq	r1, [r0], -r2
    227c:	08f9015b 	ldmeq	r9!, {r0, r1, r3, r4, r6, r8}^
    2280:	015c0000 	cmpeq	ip, r0
    2284:	00000ed7 	ldrdeq	r0, [r0], -r7
    2288:	071f015d 			; <UNDEFINED> instruction: 0x071f015d
    228c:	015e0000 	cmpeq	lr, r0
    2290:	00000b51 	andeq	r0, r0, r1, asr fp
    2294:	10fb015f 	rscsne	r0, fp, pc, asr r1
    2298:	01600000 	cmneq	r0, r0
    229c:	00000924 	andeq	r0, r0, r4, lsr #18
    22a0:	07520161 	ldrbeq	r0, [r2, -r1, ror #2]
    22a4:	01620000 	cmneq	r2, r0
    22a8:	0000077c 	andeq	r0, r0, ip, ror r7
    22ac:	10100163 	andsne	r0, r0, r3, ror #2
    22b0:	01640000 	cmneq	r4, r0
    22b4:	00000f21 	andeq	r0, r0, r1, lsr #30
    22b8:	081c0165 	ldmdaeq	ip, {r0, r2, r5, r6, r8}
    22bc:	01660000 	cmneq	r6, r0
    22c0:	00000a9b 	muleq	r0, fp, sl
    22c4:	0cdc0167 	ldfeqe	f0, [ip], {103}	; 0x67
    22c8:	01680000 	cmneq	r8, r0
    22cc:	00000649 	andeq	r0, r0, r9, asr #12
    22d0:	10e20169 	rscne	r0, r2, r9, ror #2
    22d4:	016a0000 	cmneq	sl, r0
    22d8:	00000e30 	andeq	r0, r0, r0, lsr lr
    22dc:	06eb016b 	strbteq	r0, [fp], fp, ror #2
    22e0:	016c0000 	cmneq	ip, r0
    22e4:	00000d52 	andeq	r0, r0, r2, asr sp
    22e8:	0f87016d 	svceq	0x0087016d
    22ec:	016e0000 	cmneq	lr, r0
    22f0:	00000a6d 	andeq	r0, r0, sp, ror #20
    22f4:	0934016f 	ldmdbeq	r4!, {r0, r1, r2, r3, r5, r6, r8}
    22f8:	01700000 	cmneq	r0, r0
    22fc:	0000110b 	andeq	r1, r0, fp, lsl #2
    2300:	0ee70171 	mcreq	1, 7, r0, cr7, cr1, {3}
    2304:	01720000 	cmneq	r2, r0
    2308:	00000684 	andeq	r0, r0, r4, lsl #13
    230c:	0e680173 	mcreq	1, 3, r0, cr8, cr3, {3}
    2310:	01740000 	cmneq	r4, r0
    2314:	00000980 	andeq	r0, r0, r0, lsl #19
    2318:	11470175 	hvcne	28693	; 0x7015
    231c:	01760000 	cmneq	r6, r0
    2320:	00000f79 	andeq	r0, r0, r9, ror pc
    2324:	0ad80177 	beq	ff602908 <__bss_end+0x7f5fdacc>
    2328:	01780000 	cmneq	r8, r0
    232c:	00000a47 	andeq	r0, r0, r7, asr #20
    2330:	0b890179 	bleq	fe24291c <__bss_end+0x7e23dae0>
    2334:	017a0000 	cmneq	sl, r0
    2338:	0000062c 	andeq	r0, r0, ip, lsr #12
    233c:	0f10017b 	svceq	0x0010017b
    2340:	017c0000 	cmneq	ip, r0
    2344:	00000ebf 			; <UNDEFINED> instruction: 0x00000ebf
    2348:	0a16017d 	beq	582944 <shift+0x582944>
    234c:	017e0000 	cmneq	lr, r0
    2350:	00000f98 	muleq	r0, r8, pc	; <UNPREDICTABLE>
    2354:	0cff017f 	ldfeqe	f0, [pc], #508	; 2558 <shift+0x2558>
    2358:	01800000 	orreq	r0, r0, r0
    235c:	00000fd3 	ldrdeq	r0, [r0], -r3
    2360:	0b170181 	bleq	5c296c <shift+0x5c296c>
    2364:	01820000 	orreq	r0, r2, r0
    2368:	00000c3f 	andeq	r0, r0, pc, lsr ip
    236c:	0a590183 	beq	1642980 <shift+0x1642980>
    2370:	01840000 	orreq	r0, r4, r0
    2374:	00000d9d 	muleq	r0, sp, sp
    2378:	09a80185 	stmibeq	r8!, {r0, r2, r7, r8}
    237c:	01860000 	orreq	r0, r6, r0
    2380:	0000076b 	andeq	r0, r0, fp, ror #14
    2384:	0a500187 	beq	14029a8 <shift+0x14029a8>
    2388:	01880000 	orreq	r0, r8, r0
    238c:	00000635 	andeq	r0, r0, r5, lsr r6
    2390:	0daa0189 	stfeqs	f0, [sl, #548]!	; 0x224
    2394:	018a0000 	orreq	r0, sl, r0
    2398:	00000835 	andeq	r0, r0, r5, lsr r8
    239c:	0abf018b 	beq	fefc29d0 <__bss_end+0x7efbdb94>
    23a0:	018c0000 	orreq	r0, ip, r0
    23a4:	00000c50 	andeq	r0, r0, r0, asr ip
    23a8:	0663018d 	strbteq	r0, [r3], -sp, lsl #3
    23ac:	018e0000 	orreq	r0, lr, r0
    23b0:	00000cf5 	strdeq	r0, [r0], -r5
    23b4:	10ad018f 	adcne	r0, sp, pc, lsl #3
    23b8:	01900000 	orrseq	r0, r0, r0
    23bc:	00000892 	muleq	r0, r2, r8
    23c0:	0d200191 	stfeqs	f0, [r0, #-580]!	; 0xfffffdbc
    23c4:	01920000 	orrseq	r0, r2, r0
    23c8:	00000748 	andeq	r0, r0, r8, asr #14
    23cc:	0f060193 	svceq	0x00060193
    23d0:	01940000 	orrseq	r0, r4, r0
    23d4:	00000a7e 	andeq	r0, r0, lr, ror sl
    23d8:	0fed0195 	svceq	0x00ed0195
    23dc:	01960000 	orrseq	r0, r6, r0
    23e0:	00000bc9 	andeq	r0, r0, r9, asr #23
    23e4:	0c180197 	ldfeqs	f0, [r8], {151}	; 0x97
    23e8:	01980000 	orrseq	r0, r8, r0
    23ec:	000009fc 	strdeq	r0, [r0], -ip
    23f0:	09eb0199 	stmibeq	fp!, {r0, r3, r4, r7, r8}^
    23f4:	019a0000 	orrseq	r0, sl, r0
    23f8:	000011a1 	andeq	r1, r0, r1, lsr #3
    23fc:	0d6b019b 	stfeqe	f0, [fp, #-620]!	; 0xfffffd94
    2400:	019c0000 	orrseq	r0, ip, r0
    2404:	000008ca 	andeq	r0, r0, sl, asr #17
    2408:	0fad019d 	svceq	0x00ad019d
    240c:	019e0000 	orrseq	r0, lr, r0
    2410:	00001123 	andeq	r1, r0, r3, lsr #2
    2414:	3f07009f 	svccc	0x0007009f
    2418:	05000009 	streq	r0, [r0, #-9]
    241c:	020503bf 	andeq	r0, r5, #-67108862	; 0xfc000002
    2420:	66030000 	strvs	r0, [r3], -r0
    2424:	c4000000 	strgt	r0, [r0], #-0
    2428:	04000005 	streq	r0, [r0], #-5
    242c:	00000070 	andeq	r0, r0, r0, ror r0
    2430:	b406001f 	strlt	r0, [r6], #-31	; 0xffffffe1
    2434:	03000005 	movweq	r0, #5
    2438:	00000066 	andeq	r0, r0, r6, rrx
    243c:	000005d9 	ldrdeq	r0, [r0], -r9
    2440:	00007004 	andeq	r7, r0, r4
    2444:	06000f00 	streq	r0, [r0], -r0, lsl #30
    2448:	000005c9 	andeq	r0, r0, r9, asr #11
    244c:	ce070405 	cdpgt	4, 0, cr0, cr7, cr5, {0}
    2450:	05000000 	streq	r0, [r0, #-0]
    2454:	00520504 	subseq	r0, r2, r4, lsl #10
    2458:	04170000 	ldreq	r0, [r7], #-0
    245c:	a7080105 	strge	r0, [r8, -r5, lsl #2]
    2460:	0b000000 	bleq	2468 <shift+0x2468>
    2464:	000005ee 	andeq	r0, r0, lr, ror #11
    2468:	02300418 	eorseq	r0, r0, #24, 8	; 0x18000000
    246c:	4709021d 	smladmi	r9, sp, r2, r0
    2470:	19000009 	stmdbne	r0, {r0, r3}
    2474:	00000dbe 			; <UNDEFINED> instruction: 0x00000dbe
    2478:	12021f02 	andne	r1, r2, #2, 30
    247c:	00000947 	andeq	r0, r0, r7, asr #18
    2480:	117e0200 	cmnne	lr, r0, lsl #4
    2484:	02200000 	eoreq	r0, r0, #0
    2488:	00000066 	andeq	r0, r0, r6, rrx
    248c:	91021000 	mrsls	r1, (UNDEF: 2)
    2490:	21000009 	tstcs	r0, r9
    2494:	00006b02 	andeq	r6, r0, r2, lsl #22
    2498:	02100400 	andseq	r0, r0, #0, 8
    249c:	00000808 	andeq	r0, r0, r8, lsl #16
    24a0:	006b0222 	rsbeq	r0, fp, r2, lsr #4
    24a4:	10080000 	andne	r0, r8, r0
    24a8:	000dc802 	andeq	ip, sp, r2, lsl #16
    24ac:	58022300 	stmdapl	r2, {r8, r9, sp}
    24b0:	0c000009 	stceq	0, cr0, [r0], {9}
    24b4:	0eb50210 	mrceq	2, 5, r0, cr5, cr0, {0}
    24b8:	02240000 	eoreq	r0, r4, #0
    24bc:	000005d9 	ldrdeq	r0, [r0], -r9
    24c0:	d2021080 	andle	r1, r2, #128	; 0x80
    24c4:	2500000d 	strcs	r0, [r0, #-13]
    24c8:	00096802 	andeq	r6, r9, r2, lsl #16
    24cc:	0210c000 	andseq	ip, r0, #0
    24d0:	00000c89 	andeq	r0, r0, r9, lsl #25
    24d4:	05d90226 	ldrbeq	r0, [r9, #550]	; 0x226
    24d8:	11000000 	mrsne	r0, (UNDEF: 0)
    24dc:	000ddc02 	andeq	sp, sp, r2, lsl #24
    24e0:	68022700 	stmdavs	r2, {r8, r9, sl, sp}
    24e4:	40000009 	andmi	r0, r0, r9
    24e8:	0ef00211 	mrceq	2, 7, r0, cr0, cr1, {0}
    24ec:	02280000 	eoreq	r0, r8, #0
    24f0:	000005d9 	ldrdeq	r0, [r0], -r9
    24f4:	e6021180 	str	r1, [r2], -r0, lsl #3
    24f8:	2900000d 	stmdbcs	r0, {r0, r2, r3}
    24fc:	00096802 	andeq	r6, r9, r2, lsl #16
    2500:	0211c000 	andseq	ip, r1, #0
    2504:	00000b0d 	andeq	r0, r0, sp, lsl #22
    2508:	05d9022a 	ldrbeq	r0, [r9, #554]	; 0x22a
    250c:	12000000 	andne	r0, r0, #0
    2510:	000df002 	andeq	pc, sp, r2
    2514:	68022b00 	stmdavs	r2, {r8, r9, fp, sp}
    2518:	40000009 	andmi	r0, r0, r9
    251c:	0efc0212 	mrceq	2, 7, r0, cr12, cr2, {0}
    2520:	022c0000 	eoreq	r0, ip, #0
    2524:	000005d9 	ldrdeq	r0, [r0], -r9
    2528:	fa021280 	blx	86f30 <shift+0x86f30>
    252c:	2d00000d 	stccs	0, cr0, [r0, #-52]	; 0xffffffcc
    2530:	00096802 	andeq	r6, r9, r2, lsl #16
    2534:	0212c000 	andseq	ip, r2, #0
    2538:	000006b1 			; <UNDEFINED> instruction: 0x000006b1
    253c:	05d9022e 	ldrbeq	r0, [r9, #558]	; 0x22e
    2540:	13000000 	movwne	r0, #0
    2544:	000e0402 	andeq	r0, lr, r2, lsl #8
    2548:	68022f00 	stmdavs	r2, {r8, r9, sl, fp, sp}
    254c:	40000009 	andmi	r0, r0, r9
    2550:	08ed0213 	stmiaeq	sp!, {r0, r1, r4, r9}^
    2554:	02300000 	eorseq	r0, r0, #0
    2558:	000005d9 	ldrdeq	r0, [r0], -r9
    255c:	74021380 	strvc	r1, [r2], #-896	; 0xfffffc80
    2560:	31000008 	tstcc	r0, r8
    2564:	00096802 	andeq	r6, r9, r2, lsl #16
    2568:	0213c000 	andseq	ip, r3, #0
    256c:	00001116 	andeq	r1, r0, r6, lsl r1
    2570:	09890232 	stmibeq	r9, {r1, r4, r5, r9}
    2574:	14000000 	strne	r0, [r0], #-0
    2578:	000e1602 	andeq	r1, lr, r2, lsl #12
    257c:	8e023300 	cdphi	3, 0, cr3, cr2, cr0, {0}
    2580:	00000009 	andeq	r0, r0, r9
    2584:	0ff80216 	svceq	0x00f80216
    2588:	02340000 	eorseq	r0, r4, #0
    258c:	00000989 	andeq	r0, r0, r9, lsl #19
    2590:	29021800 	stmdbcs	r2, {fp, ip}
    2594:	35000010 	strcc	r0, [r0, #-16]
    2598:	00098e02 	andeq	r8, r9, r2, lsl #28
    259c:	021a0000 	andseq	r0, sl, #0
    25a0:	00000d7c 	andeq	r0, r0, ip, ror sp
    25a4:	05c40236 	strbeq	r0, [r4, #566]	; 0x236
    25a8:	1c000000 	stcne	0, cr0, [r0], {-0}
    25ac:	00103402 	andseq	r3, r0, r2, lsl #8
    25b0:	9e023700 	cdpls	7, 0, cr3, cr2, cr0, {0}
    25b4:	80000009 	andhi	r0, r0, r9
    25b8:	0e0e021c 	mcreq	2, 0, r0, cr14, cr12, {0}
    25bc:	02380000 	eorseq	r0, r8, #0
    25c0:	0000006b 	andeq	r0, r0, fp, rrx
    25c4:	63021d00 	movwvs	r1, #11520	; 0x2d00
    25c8:	3900000d 	stmdbcc	r0, {r0, r2, r3}
    25cc:	0009c302 	andeq	ip, r9, r2, lsl #6
    25d0:	021d0400 	andseq	r0, sp, #0, 8
    25d4:	0000103f 	andeq	r1, r0, pc, lsr r0
    25d8:	09c8023a 	stmibeq	r8, {r1, r3, r4, r5, r9}^
    25dc:	1d400000 	stclne	0, cr0, [r0, #-0]
    25e0:	000bc202 	andeq	ip, fp, r2, lsl #4
    25e4:	66023b00 	strvs	r3, [r2], -r0, lsl #22
    25e8:	00000000 	andeq	r0, r0, r0
    25ec:	08a3021f 	stmiaeq	r3!, {r0, r1, r2, r3, r4, r9}
    25f0:	023c0000 	eorseq	r0, ip, #0
    25f4:	000009d8 	ldrdeq	r0, [r0], -r8
    25f8:	04021f04 	streq	r1, [r2], #-3844	; 0xfffff0fc
    25fc:	3d000010 	stccc	0, cr0, [r0, #-64]	; 0xffffffc0
    2600:	0009f802 	andeq	pc, r9, r2, lsl #16
    2604:	021f1000 	andseq	r1, pc, #0
    2608:	00000af1 	strdeq	r0, [r0], -r1
    260c:	09f8023e 	ldmibeq	r8!, {r1, r2, r3, r4, r5, r9}^
    2610:	1f200000 	svcne	0x00200000
    2614:	00104a02 	andseq	r4, r0, r2, lsl #20
    2618:	fd023f00 	stc2	15, cr3, [r2, #-0]
    261c:	30000009 	andcc	r0, r0, r9
    2620:	0cb5021f 	lfmeq	f0, 4, [r5], #124	; 0x7c
    2624:	02400000 	subeq	r0, r0, #0
    2628:	0000006b 	andeq	r0, r0, fp, rrx
    262c:	bd021fd0 	stclt	15, cr1, [r2, #-832]	; 0xfffffcc0
    2630:	4100000c 	tstmi	r0, ip
    2634:	00006b02 	andeq	r6, r0, r2, lsl #22
    2638:	021fd400 	andseq	sp, pc, #0, 8
    263c:	00000cc5 	andeq	r0, r0, r5, asr #25
    2640:	006b0242 	rsbeq	r0, fp, r2, asr #4
    2644:	1fd80000 	svcne	0x00d80000
    2648:	000ccd02 	andeq	ip, ip, r2, lsl #26
    264c:	6b024300 	blvs	93254 <shift+0x93254>
    2650:	dc000000 	stcle	0, cr0, [r0], {-0}
    2654:	0c95021f 	lfmeq	f0, 4, [r5], {31}
    2658:	02440000 	subeq	r0, r4, #0
    265c:	0000006b 	andeq	r0, r0, fp, rrx
    2660:	9d021fe0 	stcls	15, cr1, [r2, #-896]	; 0xfffffc80
    2664:	4500000c 	strmi	r0, [r0, #-12]
    2668:	00006b02 	andeq	r6, r0, r2, lsl #22
    266c:	021fe400 	andseq	lr, pc, #0, 8
    2670:	00000ca5 	andeq	r0, r0, r5, lsr #25
    2674:	006b0246 	rsbeq	r0, fp, r6, asr #4
    2678:	1fe80000 	svcne	0x00e80000
    267c:	000cad02 	andeq	sl, ip, r2, lsl #26
    2680:	6b024700 	blvs	94288 <shift+0x94288>
    2684:	ec000000 	stc	0, cr0, [r0], {-0}
    2688:	06cb021f 			; <UNDEFINED> instruction: 0x06cb021f
    268c:	02480000 	subeq	r0, r8, #0
    2690:	0000006b 	andeq	r0, r0, fp, rrx
    2694:	d3021ff0 	movwle	r1, #12272	; 0x2ff0
    2698:	49000006 	stmdbmi	r0, {r1, r2}
    269c:	00006b02 	andeq	r6, r0, r2, lsl #22
    26a0:	021ff400 	andseq	pc, pc, #0, 8
    26a4:	000006db 	ldrdeq	r0, [r0], -fp
    26a8:	006b024a 	rsbeq	r0, fp, sl, asr #4
    26ac:	1ff80000 	svcne	0x00f80000
    26b0:	0006e302 	andeq	lr, r6, r2, lsl #6
    26b4:	6b024b00 	blvs	952bc <shift+0x952bc>
    26b8:	fc000000 	stc2	0, cr0, [r0], {-0}
    26bc:	119a021f 	orrsne	r0, sl, pc, lsl r2
    26c0:	024d0000 	subeq	r0, sp, #0
    26c4:	00000066 	andeq	r0, r0, r6, rrx
    26c8:	db022000 	blle	8a6d0 <shift+0x8a6d0>
    26cc:	4e000008 	cdpmi	0, 0, cr0, cr0, cr8, {0}
    26d0:	00006602 	andeq	r6, r0, r2, lsl #12
    26d4:	02200400 	eoreq	r0, r0, #0, 8
    26d8:	000010cc 	andeq	r1, r0, ip, asr #1
    26dc:	0066024f 	rsbeq	r0, r6, pc, asr #4
    26e0:	20080000 	andcs	r0, r8, r0
    26e4:	000e8f02 	andeq	r8, lr, r2, lsl #30
    26e8:	6b025000 	blvs	966f0 <shift+0x966f0>
    26ec:	0c000000 	stceq	0, cr0, [r0], {-0}
    26f0:	116c0220 	cmnne	ip, r0, lsr #4
    26f4:	02510000 	subseq	r0, r1, #0
    26f8:	00000066 	andeq	r0, r0, r6, rrx
    26fc:	ae022010 	mcrge	0, 0, r2, cr2, cr0, {0}
    2700:	52000008 	andpl	r0, r0, #8
    2704:	00006b02 	andeq	r6, r0, r2, lsl #22
    2708:	02201400 	eoreq	r1, r0, #0, 8
    270c:	00000623 	andeq	r0, r0, r3, lsr #12
    2710:	006b0253 	rsbeq	r0, fp, r3, asr r2
    2714:	20180000 	andscs	r0, r8, r0
    2718:	00114002 	andseq	r4, r1, r2
    271c:	66025400 	strvs	r5, [r2], -r0, lsl #8
    2720:	1c000000 	stcne	0, cr0, [r0], {-0}
    2724:	0ed00220 	cdpeq	2, 13, cr0, cr0, cr0, {1}
    2728:	02550000 	subseq	r0, r5, #0
    272c:	0000006b 	andeq	r0, r0, fp, rrx
    2730:	95022020 	strls	r2, [r2, #-32]	; 0xffffffe0
    2734:	5600000e 	strpl	r0, [r0], -lr
    2738:	00006602 	andeq	r6, r0, r2, lsl #12
    273c:	02202400 	eoreq	r2, r0, #0, 8
    2740:	00000b48 	andeq	r0, r0, r8, asr #22
    2744:	006b0257 	rsbeq	r0, fp, r7, asr r2
    2748:	20280000 	eorcs	r0, r8, r0
    274c:	00105502 	andseq	r5, r0, r2, lsl #10
    2750:	0d025800 	stceq	8, cr5, [r2, #-0]
    2754:	2c00000a 	stccs	0, cr0, [r0], {10}
    2758:	0d3d0220 	lfmeq	f0, 4, [sp, #-128]!	; 0xffffff80
    275c:	02590000 	subseq	r0, r9, #0
    2760:	00000066 	andeq	r0, r0, r6, rrx
    2764:	600220d0 	ldrdvs	r2, [r2], -r0
    2768:	5a000010 	bpl	27b0 <shift+0x27b0>
    276c:	0009d802 	andeq	sp, r9, r2, lsl #16
    2770:	0220d400 	eoreq	sp, r0, #0, 8
    2774:	00000e9d 	muleq	r0, sp, lr
    2778:	0066025b 	rsbeq	r0, r6, fp, asr r2
    277c:	20e00000 	rsccs	r0, r0, r0
    2780:	00106b02 	andseq	r6, r0, r2, lsl #22
    2784:	1d025c00 	stcne	12, cr5, [r2, #-0]
    2788:	e400000a 	str	r0, [r0], #-10
    278c:	0cd50220 	lfmeq	f0, 2, [r5], {32}
    2790:	025d0000 	subseq	r0, sp, #0
    2794:	0000006b 	andeq	r0, r0, fp, rrx
    2798:	760220fc 			; <UNDEFINED> instruction: 0x760220fc
    279c:	5e000010 	mcrpl	0, 0, r0, cr0, cr0, {0}
    27a0:	000a2d02 	andeq	r2, sl, r2, lsl #26
    27a4:	02210000 	eoreq	r0, r1, #0
    27a8:	0000087e 	andeq	r0, r0, lr, ror r8
    27ac:	0066025f 	rsbeq	r0, r6, pc, asr r2
    27b0:	30000000 	andcc	r0, r0, r0
    27b4:	005a0300 	subseq	r0, sl, r0, lsl #6
    27b8:	09580000 	ldmdbeq	r8, {}^	; <UNPREDICTABLE>
    27bc:	700c0000 	andvc	r0, ip, r0
    27c0:	ff000000 			; <UNDEFINED> instruction: 0xff000000
    27c4:	5a030003 	bpl	c27d8 <shift+0xc27d8>
    27c8:	68000000 	stmdavs	r0, {}	; <UNPREDICTABLE>
    27cc:	04000009 	streq	r0, [r0], #-9
    27d0:	00000070 	andeq	r0, r0, r0, ror r0
    27d4:	5a03001c 	bpl	c284c <shift+0xc284c>
    27d8:	78000000 	stmdavc	r0, {}	; <UNPREDICTABLE>
    27dc:	04000009 	streq	r0, [r0], #-9
    27e0:	00000070 	andeq	r0, r0, r0, ror r0
    27e4:	4703000f 	strmi	r0, [r3, -pc]
    27e8:	89000000 	stmdbhi	r0, {}	; <UNPREDICTABLE>
    27ec:	0c000009 	stceq	0, cr0, [r0], {9}
    27f0:	00000070 	andeq	r0, r0, r0, ror r0
    27f4:	060001ff 			; <UNDEFINED> instruction: 0x060001ff
    27f8:	00000978 	andeq	r0, r0, r8, ror r9
    27fc:	00005a03 	andeq	r5, r0, r3, lsl #20
    2800:	00099e00 	andeq	r9, r9, r0, lsl #28
    2804:	00700400 	rsbseq	r0, r0, r0, lsl #8
    2808:	007f0000 	rsbseq	r0, pc, r0
    280c:	00005a03 	andeq	r5, r0, r3, lsl #20
    2810:	0009ae00 	andeq	sl, r9, r0, lsl #28
    2814:	00700400 	rsbseq	r0, r0, r0, lsl #8
    2818:	001f0000 	andseq	r0, pc, r0
    281c:	00006b03 	andeq	r6, r0, r3, lsl #22
    2820:	0009be00 	andeq	fp, r9, r0, lsl #28
    2824:	00700400 	rsbseq	r0, r0, r0, lsl #8
    2828:	000e0000 	andeq	r0, lr, r0
    282c:	0009ae0b 	andeq	sl, r9, fp, lsl #28
    2830:	09be0600 	ldmibeq	lr!, {r9, sl}
    2834:	5a030000 	bpl	c283c <shift+0xc283c>
    2838:	d8000000 	stmdale	r0, {}	; <UNPREDICTABLE>
    283c:	04000009 	streq	r0, [r0], #-9
    2840:	00000070 	andeq	r0, r0, r0, ror r0
    2844:	5a03006f 	bpl	c2a08 <shift+0xc2a08>
    2848:	e8000000 	stmda	r0, {}	; <UNPREDICTABLE>
    284c:	04000009 	streq	r0, [r0], #-9
    2850:	00000070 	andeq	r0, r0, r0, ror r0
    2854:	47030002 	strmi	r0, [r3, -r2]
    2858:	f8000000 			; <UNDEFINED> instruction: 0xf8000000
    285c:	04000009 	streq	r0, [r0], #-9
    2860:	00000070 	andeq	r0, r0, r0, ror r0
    2864:	e806000f 	stmda	r6, {r0, r1, r2, r3}
    2868:	03000009 	movweq	r0, #9
    286c:	0000005a 	andeq	r0, r0, sl, asr r0
    2870:	00000a0d 	andeq	r0, r0, sp, lsl #20
    2874:	00007004 	andeq	r7, r0, r4
    2878:	03002700 	movweq	r2, #1792	; 0x700
    287c:	0000005a 	andeq	r0, r0, sl, asr r0
    2880:	00000a1d 	andeq	r0, r0, sp, lsl sl
    2884:	00007004 	andeq	r7, r0, r4
    2888:	03002800 	movweq	r2, #2048	; 0x800
    288c:	0000005a 	andeq	r0, r0, sl, asr r0
    2890:	00000a2d 	andeq	r0, r0, sp, lsr #20
    2894:	00007004 	andeq	r7, r0, r4
    2898:	03000500 	movweq	r0, #1280	; 0x500
    289c:	0000005a 	andeq	r0, r0, sl, asr r0
    28a0:	00000a3e 	andeq	r0, r0, lr, lsr sl
    28a4:	0000700c 	andeq	r7, r0, ip
    28a8:	0003bf00 	andeq	fp, r3, r0, lsl #30
    28ac:	000a3e1a 	andeq	r3, sl, sl, lsl lr
    28b0:	02600200 	rsbeq	r0, r0, #0, 4
    28b4:	0005fa03 	andeq	pc, r5, r3, lsl #20
    28b8:	0fbe0700 	svceq	0x00be0700
    28bc:	06060000 	streq	r0, [r6], -r0
    28c0:	000a5710 	andeq	r5, sl, r0, lsl r7
    28c4:	0a5c0d00 	beq	1705ccc <shift+0x1705ccc>
    28c8:	6c1b0000 	ldcvs	0, cr0, [fp], {-0}
    28cc:	0e00000a 	cdpeq	0, 0, cr0, cr0, cr10, {0}
    28d0:	00000070 	andeq	r0, r0, r0, ror r0
    28d4:	0005ec0e 	andeq	lr, r5, lr, lsl #24
    28d8:	3a1c0000 	bcc	7028e0 <shift+0x7028e0>
    28dc:	08000014 	stmdaeq	r0, {r2, r4}
    28e0:	92100906 	andsls	r0, r0, #98304	; 0x18000
    28e4:	1100000a 	tstne	r0, sl
    28e8:	00001724 	andeq	r1, r0, r4, lsr #14
    28ec:	0a4b1a0b 	beq	12c9120 <shift+0x12c9120>
    28f0:	11000000 	mrsne	r0, (UNDEF: 0)
    28f4:	0000162b 	andeq	r1, r0, fp, lsr #12
    28f8:	05ec0b0c 	strbeq	r0, [ip, #2828]!	; 0xb0c
    28fc:	00040000 	andeq	r0, r4, r0
    2900:	00172f07 	andseq	r2, r7, r7, lsl #30
    2904:	030d0600 	movweq	r0, #54784	; 0xd600
    2908:	00000a6c 	andeq	r0, r0, ip, ror #20
    290c:	0015850f 	andseq	r8, r5, pc, lsl #10
    2910:	70150400 	andsvc	r0, r5, r0, lsl #8
    2914:	05000000 	streq	r0, [r0, #-0]
    2918:	00413403 	subeq	r3, r1, r3, lsl #8
    291c:	0a920380 	beq	fe483724 <__bss_end+0x7e47e8e8>
    2920:	0abf0000 	beq	fefc2928 <__bss_end+0x7efbdaec>
    2924:	70040000 	andvc	r0, r4, r0
    2928:	9f000000 	svcls	0x00000000
    292c:	15690f00 	strbne	r0, [r9, #-3840]!	; 0xfffff100
    2930:	19070000 	stmdbne	r7, {}	; <UNPREDICTABLE>
    2934:	00000aaf 	andeq	r0, r0, pc, lsr #21
    2938:	41380305 	teqmi	r8, r5, lsl #6
    293c:	eb1d8000 	bl	762944 <shift+0x762944>
    2940:	0700001d 	smladeq	r0, sp, r0, r0
    2944:	00340516 	eorseq	r0, r4, r6, lsl r5
    2948:	0ae70000 	beq	ff9c2950 <__bss_end+0x7f9bdb14>
    294c:	e70e0000 	str	r0, [lr, -r0]
    2950:	1e00000a 	cdpne	0, 0, cr0, cr0, cr10, {0}
    2954:	05f50d00 	ldrbeq	r0, [r5, #3328]!	; 0xd00
    2958:	81090000 	mrshi	r0, (UNDEF: 9)
    295c:	54000019 	strpl	r0, [r0], #-25	; 0xffffffe7
    2960:	80001040 	andhi	r1, r0, r0, asr #32
    2964:	00000020 	andeq	r0, r0, r0, lsr #32
    2968:	0b1d9c01 	bleq	769974 <shift+0x769974>
    296c:	69080000 	stmdbvs	r8, {}	; <UNPREDICTABLE>
    2970:	54000016 	strpl	r0, [r0], #-22	; 0xffffffea
    2974:	00007026 	andeq	r7, r0, r6, lsr #32
    2978:	74910200 	ldrvc	r0, [r1], #512	; 0x200
    297c:	00162b08 	andseq	r2, r6, r8, lsl #22
    2980:	ec355400 	cfldrs	mvf5, [r5], #-0
    2984:	02000005 	andeq	r0, r0, #5
    2988:	09007091 	stmdbeq	r0, {r0, r4, r7, ip, sp, lr}
    298c:	000016d5 	ldrdeq	r1, [r0], -r5
    2990:	000fc03a 	andeq	ip, pc, sl, lsr r0	; <UNPREDICTABLE>
    2994:	00008080 	andeq	r8, r0, r0, lsl #1
    2998:	4e9c0100 	fmlmie	f0, f4, f0
    299c:	0800000b 	stmdaeq	r0, {r0, r1, r3}
    29a0:	00001669 	andeq	r1, r0, r9, ror #12
    29a4:	0070253a 	rsbseq	r2, r0, sl, lsr r5
    29a8:	91020000 	mrsls	r0, (UNDEF: 2)
    29ac:	15620f6c 	strbne	r0, [r2, #-3948]!	; 0xfffff094
    29b0:	0d3d0000 	ldceq	0, cr0, [sp, #-0]
    29b4:	0000005a 	andeq	r0, r0, sl, asr r0
    29b8:	00749102 	rsbseq	r9, r4, r2, lsl #2
    29bc:	0011511f 	andseq	r5, r1, pc, lsl r1
    29c0:	062d0100 	strteq	r0, [sp], -r0, lsl #2
    29c4:	80000f84 	andhi	r0, r0, r4, lsl #31
    29c8:	0000003c 	andeq	r0, r0, ip, lsr r0
    29cc:	0b909c01 	bleq	fe4299d8 <__bss_end+0x7e424b9c>
    29d0:	69200000 	stmdbvs	r0!, {}	; <UNPREDICTABLE>
    29d4:	01007172 	tsteq	r0, r2, ror r1
    29d8:	05a82b2d 	streq	r2, [r8, #2861]!	; 0xb2d
    29dc:	91020000 	mrsls	r0, (UNDEF: 2)
    29e0:	1a2c0874 	bne	b04bb8 <shift+0xb04bb8>
    29e4:	452d0000 	strmi	r0, [sp, #-0]!
    29e8:	00000a4b 	andeq	r0, r0, fp, asr #20
    29ec:	08709102 	ldmdaeq	r0!, {r1, r8, ip, pc}^
    29f0:	0000162b 	andeq	r1, r0, fp, lsr #12
    29f4:	05ec542d 	strbeq	r5, [ip, #1069]!	; 0x42d
    29f8:	91020000 	mrsls	r0, (UNDEF: 2)
    29fc:	9509006c 	strls	r0, [r9, #-108]	; 0xffffff94
    2a00:	1a000016 	bne	2a60 <shift+0x2a60>
    2a04:	80000f3e 	andhi	r0, r0, lr, lsr pc
    2a08:	00000046 	andeq	r0, r0, r6, asr #32
    2a0c:	0bb29c01 	bleq	feca9a18 <__bss_end+0x7eca4bdc>
    2a10:	69210000 	stmdbvs	r1!, {}	; <UNPREDICTABLE>
    2a14:	0f1c0100 	svceq	0x001c0100
    2a18:	00000070 	andeq	r0, r0, r0, ror r0
    2a1c:	00749102 	rsbseq	r9, r4, r2, lsl #2
    2a20:	00007a09 	andeq	r7, r0, r9, lsl #20
    2a24:	0ea80e00 	cdpeq	14, 10, cr0, cr8, cr0, {0}
    2a28:	00968000 	addseq	r8, r6, r0
    2a2c:	9c010000 	stcls	0, cr0, [r1], {-0}
    2a30:	00000c35 	andeq	r0, r0, r5, lsr ip
    2a34:	000c3522 	andeq	r3, ip, r2, lsr #10
    2a38:	000eae00 	andeq	sl, lr, r0, lsl #28
    2a3c:	00007680 	andeq	r7, r0, r0, lsl #13
    2a40:	02100100 	andseq	r0, r0, #0, 2
    2a44:	00000c1b 	andeq	r0, r0, fp, lsl ip
    2a48:	000c430a 	andeq	r4, ip, sl, lsl #6
    2a4c:	64910200 	ldrvs	r0, [r1], #512	; 0x200
    2a50:	000c4d0a 	andeq	r4, ip, sl, lsl #26
    2a54:	68910200 	ldmvs	r1, {r9}
    2a58:	000c590a 	andeq	r5, ip, sl, lsl #18
    2a5c:	6c910200 	lfmvs	f0, 4, [r1], {0}
    2a60:	000c6b23 	andeq	r6, ip, r3, lsr #22
    2a64:	000eae00 	andeq	sl, lr, r0, lsl #28
    2a68:	00000a80 	andeq	r0, r0, r0, lsl #21
    2a6c:	026b0200 	rsbeq	r0, fp, #0, 4
    2a70:	0c7d2420 	cfldrdeq	mvd2, [sp], #-128	; 0xffffff80
    2a74:	0eae0000 	cdpeq	0, 10, cr0, cr14, cr0, {0}
    2a78:	00088000 	andeq	r8, r8, r0
    2a7c:	7e0a0000 	cdpvc	0, 0, cr0, cr10, cr0, {0}
    2a80:	0200000c 	andeq	r0, r0, #12
    2a84:	00007091 	muleq	r0, r1, r0
    2a88:	0c8c2500 	cfstr32eq	mvfx2, [ip], {0}
    2a8c:	0f2e0000 	svceq	0x002e0000
    2a90:	00088000 	andeq	r8, r8, r0
    2a94:	12010000 	andne	r0, r1, #0
    2a98:	0c962602 	ldceq	6, cr2, [r6], {2}
    2a9c:	91020000 	mrsls	r0, (UNDEF: 2)
    2aa0:	27000074 	smlsdxcs	r0, r4, r0, r0
    2aa4:	000014fd 	strdeq	r1, [r0], -sp
    2aa8:	23026702 	movwcs	r6, #9986	; 0x2702
    2aac:	000c6603 	andeq	r6, ip, r3, lsl #12
    2ab0:	00691200 	rsbeq	r1, r9, r0, lsl #4
    2ab4:	5a0c0269 	bpl	303460 <shift+0x303460>
    2ab8:	13000000 	movwne	r0, #0
    2abc:	00001968 	andeq	r1, r0, r8, ror #18
    2ac0:	5a0c026a 	bpl	303470 <shift+0x303470>
    2ac4:	12000000 	andne	r0, r0, #0
    2ac8:	00636967 	rsbeq	r6, r3, r7, ror #18
    2acc:	660d026b 	strvs	r0, [sp], -fp, ror #4
    2ad0:	0000000c 	andeq	r0, r0, ip
    2ad4:	000a3e0d 	andeq	r3, sl, sp, lsl #28
    2ad8:	06792800 	ldrbteq	r2, [r9], -r0, lsl #16
    2adc:	0d020000 	stceq	0, cr0, [r2, #-0]
    2ae0:	005a2702 	subseq	r2, sl, r2, lsl #14
    2ae4:	8c030000 	stchi	0, cr0, [r3], {-0}
    2ae8:	2900000c 	stmdbcs	r0, {r2, r3}
    2aec:	00119413 	andseq	r9, r1, r3, lsl r4
    2af0:	0a020f00 	beq	866f8 <shift+0x866f8>
    2af4:	0000005a 	andeq	r0, r0, sl, asr r0
    2af8:	902a0000 	eorls	r0, sl, r0
    2afc:	02000015 	andeq	r0, r0, #21
    2b00:	032301f4 			; <UNDEFINED> instruction: 0x032301f4
    2b04:	00193e2b 	andseq	r3, r9, fp, lsr #28
    2b08:	01f40200 	mvnseq	r0, r0, lsl #4
    2b0c:	00005a37 	andeq	r5, r0, r7, lsr sl
    2b10:	31000000 	mrscc	r0, (UNDEF: 0)
    2b14:	0500000c 	streq	r0, [r0, #-12]
    2b18:	41040100 	mrsmi	r0, (UNDEF: 20)
    2b1c:	1400000c 	strne	r0, [r0], #-12
    2b20:	00000106 	andeq	r0, r0, r6, lsl #2
    2b24:	0019aa1d 	andseq	sl, r9, sp, lsl sl
    2b28:	00001000 	andeq	r1, r0, r0
    2b2c:	00106000 	andseq	r6, r0, r0
    2b30:	00013280 	andeq	r3, r1, r0, lsl #5
    2b34:	000a9900 	andeq	r9, sl, r0, lsl #18
    2b38:	06010700 	streq	r0, [r1], -r0, lsl #14
    2b3c:	000000a0 	andeq	r0, r0, r0, lsr #1
    2b40:	62050207 	andvs	r0, r5, #1879048192	; 0x70000000
    2b44:	08000001 	stmdaeq	r0, {r0}
    2b48:	000000b7 	strheq	r0, [r0], -r7
    2b4c:	40140d04 	andsmi	r0, r4, r4, lsl #26
    2b50:	15000000 	strne	r0, [r0, #-0]
    2b54:	6e690504 	cdpvs	5, 6, cr0, cr9, cr4, {0}
    2b58:	65080074 	strvs	r0, [r8, #-116]	; 0xffffff8c
    2b5c:	04000002 	streq	r0, [r0], #-2
    2b60:	0058170e 	subseq	r1, r8, lr, lsl #14
    2b64:	47090000 	strmi	r0, [r9, -r0]
    2b68:	07000000 	streq	r0, [r0, -r0]
    2b6c:	009e0801 	addseq	r0, lr, r1, lsl #16
    2b70:	02070000 	andeq	r0, r7, #0
    2b74:	0000eb07 	andeq	lr, r0, r7, lsl #22
    2b78:	00b60800 	adcseq	r0, r6, r0, lsl #16
    2b7c:	10040000 	andne	r0, r4, r0
    2b80:	00007c16 	andeq	r7, r0, r6, lsl ip
    2b84:	00660900 	rsbeq	r0, r6, r0, lsl #18
    2b88:	72110000 	andsvc	r0, r1, #0
    2b8c:	07000000 	streq	r0, [r0, -r0]
    2b90:	00d30704 	sbcseq	r0, r3, r4, lsl #14
    2b94:	08070000 	stmdaeq	r7, {}	; <UNPREDICTABLE>
    2b98:	0000c907 	andeq	ip, r0, r7, lsl #18
    2b9c:	05080700 	streq	r0, [r8, #-1792]	; 0xfffff900
    2ba0:	0000004d 	andeq	r0, r0, sp, asr #32
    2ba4:	000f930e 	andeq	r9, pc, lr, lsl #6
    2ba8:	00400500 	subeq	r0, r0, r0, lsl #10
    2bac:	21050000 	mrscs	r0, (UNDEF: 5)
    2bb0:	00000433 	andeq	r0, r0, r3, lsr r4
    2bb4:	000e8116 	andeq	r8, lr, r6, lsl r1
    2bb8:	017f8000 	cmneq	pc, r0
    2bbc:	000007db 	ldrdeq	r0, [r0], -fp
    2bc0:	0e720100 	rpweqs	f0, f2, f0
    2bc4:	01010000 	mrseq	r0, (UNDEF: 1)
    2bc8:	00000999 	muleq	r0, r9, r9
    2bcc:	11850102 	orrne	r0, r5, r2, lsl #2
    2bd0:	01030000 	mrseq	r0, (UNDEF: 3)
    2bd4:	00000bd9 	ldrdeq	r0, [r0], -r9
    2bd8:	07960104 	ldreq	r0, [r6, r4, lsl #2]
    2bdc:	01050000 	mrseq	r0, (UNDEF: 5)
    2be0:	00000f60 	andeq	r0, r0, r0, ror #30
    2be4:	09570106 	ldmdbeq	r7, {r1, r2, r8}^
    2be8:	01070000 	mrseq	r0, (UNDEF: 7)
    2bec:	00001131 	andeq	r1, r0, r1, lsr r1
    2bf0:	0d110108 	ldfeqs	f0, [r1, #-32]	; 0xffffffe0
    2bf4:	01090000 	mrseq	r0, (UNDEF: 9)
    2bf8:	00000fdd 	ldrdeq	r0, [r0], -sp
    2bfc:	1088010a 	addne	r0, r8, sl, lsl #2
    2c00:	010b0000 	mrseq	r0, (UNDEF: 11)
    2c04:	00000be8 	andeq	r0, r0, r8, ror #23
    2c08:	07a5010c 	streq	r0, [r5, ip, lsl #2]!
    2c0c:	010d0000 	mrseq	r0, (UNDEF: 13)
    2c10:	00000e20 	andeq	r0, r0, r0, lsr #28
    2c14:	0966010e 	stmdbeq	r6!, {r1, r2, r3, r8}^
    2c18:	010f0000 	mrseq	r0, CPSR
    2c1c:	00000b9a 	muleq	r0, sl, fp
    2c20:	0b6c0119 	bleq	1b0308c <shift+0x1b0308c>
    2c24:	011a0000 	tsteq	sl, r0
    2c28:	00000c6e 	andeq	r0, r0, lr, ror #24
    2c2c:	0a88011b 	beq	fe2030a0 <__bss_end+0x7e1fe264>
    2c30:	011c0000 	tsteq	ip, r0
    2c34:	000006ff 	strdeq	r0, [r0], -pc	; <UNPREDICTABLE>
    2c38:	06fc011d 	usateq	r0, #28, sp, lsl #2
    2c3c:	011e0000 	tsteq	lr, r0
    2c40:	00000b21 	andeq	r0, r0, r1, lsr #22
    2c44:	0b30011f 	bleq	c030c8 <shift+0xc030c8>
    2c48:	01200000 			; <UNDEFINED> instruction: 0x01200000
    2c4c:	00000f3b 	andeq	r0, r0, fp, lsr pc
    2c50:	0f560121 	svceq	0x00560121
    2c54:	01220000 			; <UNDEFINED> instruction: 0x01220000
    2c58:	00000c05 	andeq	r0, r0, r5, lsl #24
    2c5c:	0a0c0123 	beq	3030f0 <shift+0x3030f0>
    2c60:	01240000 			; <UNDEFINED> instruction: 0x01240000
    2c64:	00000919 	andeq	r0, r0, r9, lsl r9
    2c68:	0c0e0125 	stfeqs	f0, [lr], {37}	; 0x25
    2c6c:	01260000 			; <UNDEFINED> instruction: 0x01260000
    2c70:	000007ff 	strdeq	r0, [r0], -pc	; <UNPREDICTABLE>
    2c74:	0aca0127 	beq	ff283118 <__bss_end+0x7f27e2dc>
    2c78:	01280000 			; <UNDEFINED> instruction: 0x01280000
    2c7c:	00000ea6 	andeq	r0, r0, r6, lsr #29
    2c80:	0a2f0129 	beq	bc312c <shift+0xbc312c>
    2c84:	012a0000 			; <UNDEFINED> instruction: 0x012a0000
    2c88:	00000b61 	andeq	r0, r0, r1, ror #22
    2c8c:	0afd012b 	beq	fff43140 <__bss_end+0x7ff3e304>
    2c90:	012c0000 			; <UNDEFINED> instruction: 0x012c0000
    2c94:	0000069c 	muleq	r0, ip, r6
    2c98:	0a63012d 	beq	18c3154 <shift+0x18c3154>
    2c9c:	012e0000 			; <UNDEFINED> instruction: 0x012e0000
    2ca0:	000007bf 			; <UNDEFINED> instruction: 0x000007bf
    2ca4:	0f44012f 	svceq	0x0044012f
    2ca8:	01300000 	teqeq	r0, r0
    2cac:	00000ae6 	andeq	r0, r0, r6, ror #21
    2cb0:	068e0131 			; <UNDEFINED> instruction: 0x068e0131
    2cb4:	01320000 	teqeq	r2, r0
    2cb8:	000009d4 	ldrdeq	r0, [r0], -r4
    2cbc:	0e550133 	mrceq	1, 2, r0, cr5, cr3, {1}
    2cc0:	01340000 	teqeq	r4, r0
    2cc4:	00000c65 	andeq	r0, r0, r5, ror #24
    2cc8:	0c230135 	stfeqs	f0, [r3], #-212	; 0xffffff2c
    2ccc:	01360000 	teqeq	r6, r0
    2cd0:	0000066d 	andeq	r0, r0, sp, ror #12
    2cd4:	0bf80137 	bleq	ffe031b8 <__bss_end+0x7fdfe37c>
    2cd8:	01380000 	teqeq	r8, r0
    2cdc:	00000d84 	andeq	r0, r0, r4, lsl #27
    2ce0:	09c90139 	stmibeq	r9, {r0, r3, r4, r5, r8}^
    2ce4:	013a0000 	teqeq	sl, r0
    2ce8:	00001098 	muleq	r0, r8, r0
    2cec:	060b013b 			; <UNDEFINED> instruction: 0x060b013b
    2cf0:	013c0000 	teqeq	ip, r0
    2cf4:	000007d0 	ldrdeq	r0, [r0], -r0	; <UNPREDICTABLE>
    2cf8:	0e4a013d 	mcreq	1, 2, r0, cr10, cr13, {1}
    2cfc:	013e0000 	teqeq	lr, r0
    2d00:	00000b3c 	andeq	r0, r0, ip, lsr fp
    2d04:	0713013f 			; <UNDEFINED> instruction: 0x0713013f
    2d08:	01400000 	mrseq	r0, (UNDEF: 64)
    2d0c:	00000d91 	muleq	r0, r1, sp
    2d10:	08e10141 	stmiaeq	r1!, {r0, r6, r8}^
    2d14:	01420000 	mrseq	r0, (UNDEF: 66)
    2d18:	000007f5 	strdeq	r0, [r0], -r5
    2d1c:	07b50143 	ldreq	r0, [r5, r3, asr #2]!
    2d20:	01440000 	mrseq	r0, (UNDEF: 68)
    2d24:	00000f6f 	andeq	r0, r0, pc, ror #30
    2d28:	09760145 	ldmdbeq	r6!, {r0, r2, r6, r8}^
    2d2c:	01460000 	mrseq	r0, (UNDEF: 70)
    2d30:	00001173 	andeq	r1, r0, r3, ror r1
    2d34:	0d2a0147 	stfeqs	f0, [sl, #-284]!	; 0xfffffee4
    2d38:	01480000 	mrseq	r0, (UNDEF: 72)
    2d3c:	00000bb2 			; <UNDEFINED> instruction: 0x00000bb2
    2d40:	0d440149 	stfeqe	f0, [r4, #-292]	; 0xfffffedc
    2d44:	014a0000 	mrseq	r0, (UNDEF: 74)
    2d48:	000006bd 			; <UNDEFINED> instruction: 0x000006bd
    2d4c:	083f014b 	ldmdaeq	pc!, {r0, r1, r3, r6, r8}	; <UNPREDICTABLE>
    2d50:	014c0000 	mrseq	r0, (UNDEF: 76)
    2d54:	000010be 	strheq	r1, [r0], -lr
    2d58:	0616014d 	ldreq	r0, [r6], -sp, asr #2
    2d5c:	014e0000 	mrseq	r0, (UNDEF: 78)
    2d60:	00000857 	andeq	r0, r0, r7, asr r8
    2d64:	0737014f 	ldreq	r0, [r7, -pc, asr #2]!
    2d68:	01500000 	cmpeq	r0, r0
    2d6c:	0000080f 	andeq	r0, r0, pc, lsl #16
    2d70:	062b0151 			; <UNDEFINED> instruction: 0x062b0151
    2d74:	01520000 	cmpeq	r2, r0
    2d78:	00000ab5 			; <UNDEFINED> instruction: 0x00000ab5
    2d7c:	06a60153 	ssateq	r0, #7, r3, asr #2
    2d80:	01540000 	cmpeq	r4, r0
    2d84:	000009b9 			; <UNDEFINED> instruction: 0x000009b9
    2d88:	09490155 	stmdbeq	r9, {r0, r2, r4, r6, r8}^
    2d8c:	01560000 	cmpeq	r6, r0
    2d90:	000010a3 	andeq	r1, r0, r3, lsr #1
    2d94:	0c5a0157 	ldfeqe	f0, [sl], {87}	; 0x57
    2d98:	01580000 	cmpeq	r8, r0
    2d9c:	000007ea 	andeq	r0, r0, sl, ror #15
    2da0:	0c2f0159 	stfeqs	f0, [pc], #-356	; 2c44 <shift+0x2c44>
    2da4:	015a0000 	cmpeq	sl, r0
    2da8:	000010d2 	ldrdeq	r1, [r0], -r2
    2dac:	08f9015b 	ldmeq	r9!, {r0, r1, r3, r4, r6, r8}^
    2db0:	015c0000 	cmpeq	ip, r0
    2db4:	00000ed7 	ldrdeq	r0, [r0], -r7
    2db8:	071f015d 			; <UNDEFINED> instruction: 0x071f015d
    2dbc:	015e0000 	cmpeq	lr, r0
    2dc0:	00000b51 	andeq	r0, r0, r1, asr fp
    2dc4:	10fb015f 	rscsne	r0, fp, pc, asr r1
    2dc8:	01600000 	cmneq	r0, r0
    2dcc:	00000924 	andeq	r0, r0, r4, lsr #18
    2dd0:	07520161 	ldrbeq	r0, [r2, -r1, ror #2]
    2dd4:	01620000 	cmneq	r2, r0
    2dd8:	0000077c 	andeq	r0, r0, ip, ror r7
    2ddc:	10100163 	andsne	r0, r0, r3, ror #2
    2de0:	01640000 	cmneq	r4, r0
    2de4:	00000f21 	andeq	r0, r0, r1, lsr #30
    2de8:	081c0165 	ldmdaeq	ip, {r0, r2, r5, r6, r8}
    2dec:	01660000 	cmneq	r6, r0
    2df0:	00000a9b 	muleq	r0, fp, sl
    2df4:	0cdc0167 	ldfeqe	f0, [ip], {103}	; 0x67
    2df8:	01680000 	cmneq	r8, r0
    2dfc:	00000649 	andeq	r0, r0, r9, asr #12
    2e00:	10e20169 	rscne	r0, r2, r9, ror #2
    2e04:	016a0000 	cmneq	sl, r0
    2e08:	00000e30 	andeq	r0, r0, r0, lsr lr
    2e0c:	06eb016b 	strbteq	r0, [fp], fp, ror #2
    2e10:	016c0000 	cmneq	ip, r0
    2e14:	00000d52 	andeq	r0, r0, r2, asr sp
    2e18:	0f87016d 	svceq	0x0087016d
    2e1c:	016e0000 	cmneq	lr, r0
    2e20:	00000a6d 	andeq	r0, r0, sp, ror #20
    2e24:	0934016f 	ldmdbeq	r4!, {r0, r1, r2, r3, r5, r6, r8}
    2e28:	01700000 	cmneq	r0, r0
    2e2c:	0000110b 	andeq	r1, r0, fp, lsl #2
    2e30:	0ee70171 	mcreq	1, 7, r0, cr7, cr1, {3}
    2e34:	01720000 	cmneq	r2, r0
    2e38:	00000684 	andeq	r0, r0, r4, lsl #13
    2e3c:	0e680173 	mcreq	1, 3, r0, cr8, cr3, {3}
    2e40:	01740000 	cmneq	r4, r0
    2e44:	00000980 	andeq	r0, r0, r0, lsl #19
    2e48:	11470175 	hvcne	28693	; 0x7015
    2e4c:	01760000 	cmneq	r6, r0
    2e50:	00000f79 	andeq	r0, r0, r9, ror pc
    2e54:	0ad80177 	beq	ff603438 <__bss_end+0x7f5fe5fc>
    2e58:	01780000 	cmneq	r8, r0
    2e5c:	00000a47 	andeq	r0, r0, r7, asr #20
    2e60:	0b890179 	bleq	fe24344c <__bss_end+0x7e23e610>
    2e64:	017a0000 	cmneq	sl, r0
    2e68:	0000062c 	andeq	r0, r0, ip, lsr #12
    2e6c:	0f10017b 	svceq	0x0010017b
    2e70:	017c0000 	cmneq	ip, r0
    2e74:	00000ebf 			; <UNDEFINED> instruction: 0x00000ebf
    2e78:	0a16017d 	beq	583474 <shift+0x583474>
    2e7c:	017e0000 	cmneq	lr, r0
    2e80:	00000f98 	muleq	r0, r8, pc	; <UNPREDICTABLE>
    2e84:	0cff017f 	ldfeqe	f0, [pc], #508	; 3088 <shift+0x3088>
    2e88:	01800000 	orreq	r0, r0, r0
    2e8c:	00000fd3 	ldrdeq	r0, [r0], -r3
    2e90:	0b170181 	bleq	5c349c <shift+0x5c349c>
    2e94:	01820000 	orreq	r0, r2, r0
    2e98:	00000c3f 	andeq	r0, r0, pc, lsr ip
    2e9c:	0a590183 	beq	16434b0 <shift+0x16434b0>
    2ea0:	01840000 	orreq	r0, r4, r0
    2ea4:	00000d9d 	muleq	r0, sp, sp
    2ea8:	09a80185 	stmibeq	r8!, {r0, r2, r7, r8}
    2eac:	01860000 	orreq	r0, r6, r0
    2eb0:	0000076b 	andeq	r0, r0, fp, ror #14
    2eb4:	0a500187 	beq	14034d8 <shift+0x14034d8>
    2eb8:	01880000 	orreq	r0, r8, r0
    2ebc:	00000635 	andeq	r0, r0, r5, lsr r6
    2ec0:	0daa0189 	stfeqs	f0, [sl, #548]!	; 0x224
    2ec4:	018a0000 	orreq	r0, sl, r0
    2ec8:	00000835 	andeq	r0, r0, r5, lsr r8
    2ecc:	0abf018b 	beq	fefc3500 <__bss_end+0x7efbe6c4>
    2ed0:	018c0000 	orreq	r0, ip, r0
    2ed4:	00000c50 	andeq	r0, r0, r0, asr ip
    2ed8:	0663018d 	strbteq	r0, [r3], -sp, lsl #3
    2edc:	018e0000 	orreq	r0, lr, r0
    2ee0:	00000cf5 	strdeq	r0, [r0], -r5
    2ee4:	10ad018f 	adcne	r0, sp, pc, lsl #3
    2ee8:	01900000 	orrseq	r0, r0, r0
    2eec:	00000892 	muleq	r0, r2, r8
    2ef0:	0d200191 	stfeqs	f0, [r0, #-580]!	; 0xfffffdbc
    2ef4:	01920000 	orrseq	r0, r2, r0
    2ef8:	00000748 	andeq	r0, r0, r8, asr #14
    2efc:	0f060193 	svceq	0x00060193
    2f00:	01940000 	orrseq	r0, r4, r0
    2f04:	00000a7e 	andeq	r0, r0, lr, ror sl
    2f08:	0fed0195 	svceq	0x00ed0195
    2f0c:	01960000 	orrseq	r0, r6, r0
    2f10:	00000bc9 	andeq	r0, r0, r9, asr #23
    2f14:	0c180197 	ldfeqs	f0, [r8], {151}	; 0x97
    2f18:	01980000 	orrseq	r0, r8, r0
    2f1c:	000009fc 	strdeq	r0, [r0], -ip
    2f20:	09eb0199 	stmibeq	fp!, {r0, r3, r4, r7, r8}^
    2f24:	019a0000 	orrseq	r0, sl, r0
    2f28:	000011a1 	andeq	r1, r0, r1, lsr #3
    2f2c:	0d6b019b 	stfeqe	f0, [fp, #-620]!	; 0xfffffd94
    2f30:	019c0000 	orrseq	r0, ip, r0
    2f34:	000008ca 	andeq	r0, r0, sl, asr #17
    2f38:	0fad019d 	svceq	0x00ad019d
    2f3c:	019e0000 	orrseq	r0, lr, r0
    2f40:	00001123 	andeq	r1, r0, r3, lsr #2
    2f44:	3f08009f 	svccc	0x0008009f
    2f48:	05000009 	streq	r0, [r0, #-9]
    2f4c:	009103bf 			; <UNDEFINED> instruction: 0x009103bf
    2f50:	20170000 	andscs	r0, r7, r0
    2f54:	0934a605 	ldmdbeq	r4!, {r0, r2, r9, sl, sp, pc}
    2f58:	000004b1 			; <UNDEFINED> instruction: 0x000004b1
    2f5c:	0052440b 	subseq	r4, r2, fp, lsl #8
    2f60:	007234a7 	rsbseq	r3, r2, r7, lsr #9
    2f64:	0a000000 	beq	2f6c <shift+0x2f6c>
    2f68:	0000053e 	andeq	r0, r0, lr, lsr r5
    2f6c:	1134a805 	teqne	r4, r5, lsl #16
    2f70:	00000072 	andeq	r0, r0, r2, ror r0
    2f74:	53500b04 	cmppl	r0, #4, 22	; 0x1000
    2f78:	34a90052 	strtcc	r0, [r9], #82	; 0x52
    2f7c:	00000072 	andeq	r0, r0, r2, ror r0
    2f80:	05e40a08 	strbeq	r0, [r4, #2568]!	; 0xa08
    2f84:	aa050000 	bge	142f8c <shift+0x142f8c>
    2f88:	00721134 	rsbseq	r1, r2, r4, lsr r1
    2f8c:	0a0c0000 	beq	302f94 <shift+0x302f94>
    2f90:	000005e9 	andeq	r0, r0, r9, ror #11
    2f94:	1134ab05 	teqne	r4, r5, lsl #22
    2f98:	00000072 	andeq	r0, r0, r2, ror r0
    2f9c:	4d490b10 	vstrmi	d16, [r9, #-64]	; 0xffffffc0
    2fa0:	34ac0052 	strtcc	r0, [ip], #82	; 0x52
    2fa4:	00000072 	andeq	r0, r0, r2, ror r0
    2fa8:	53490b14 	movtpl	r0, #39700	; 0x9b14
    2fac:	34ad0052 	strtcc	r0, [sp], #82	; 0x52
    2fb0:	00000072 	andeq	r0, r0, r2, ror r0
    2fb4:	05db0a18 	ldrbeq	r0, [fp, #2584]	; 0xa18
    2fb8:	ae050000 	cdpge	0, 0, cr0, cr5, cr0, {0}
    2fbc:	00721134 	rsbseq	r1, r2, r4, lsr r1
    2fc0:	001c0000 	andseq	r0, ip, r0
    2fc4:	00058712 	andeq	r8, r5, r2, lsl r7
    2fc8:	34af0500 	strtcc	r0, [pc], #1280	; 2fd0 <shift+0x2fd0>
    2fcc:	0000043f 	andeq	r0, r0, pc, lsr r4
    2fd0:	00007203 	andeq	r7, r0, r3, lsl #4
    2fd4:	0004cd00 	andeq	ip, r4, r0, lsl #26
    2fd8:	007c0400 	rsbseq	r0, ip, r0, lsl #8
    2fdc:	001f0000 	andseq	r0, pc, r0
    2fe0:	0004bd09 	andeq	fp, r4, r9, lsl #26
    2fe4:	00720300 	rsbseq	r0, r2, r0, lsl #6
    2fe8:	04e20000 	strbteq	r0, [r2], #0
    2fec:	7c040000 	stcvc	0, cr0, [r4], {-0}
    2ff0:	0f000000 	svceq	0x00000000
    2ff4:	04d20900 	ldrbeq	r0, [r2], #2304	; 0x900
    2ff8:	04070000 	streq	r0, [r7], #-0
    2ffc:	0000ce07 	andeq	ip, r0, r7, lsl #28
    3000:	05040700 	streq	r0, [r4, #-1792]	; 0xfffff900
    3004:	00000052 	andeq	r0, r0, r2, asr r0
    3008:	01070418 	tsteq	r7, r8, lsl r4
    300c:	0000a708 	andeq	sl, r0, r8, lsl #14
    3010:	30041900 	andcc	r1, r4, r0, lsl #18
    3014:	09021d03 	stmdbeq	r2, {r0, r1, r8, sl, fp, ip}
    3018:	0000084b 	andeq	r0, r0, fp, asr #16
    301c:	000dbe0a 	andeq	fp, sp, sl, lsl #28
    3020:	021f0300 	andseq	r0, pc, #0, 6
    3024:	00084b12 	andeq	r4, r8, r2, lsl fp
    3028:	7e020000 	cdpvc	0, 0, cr0, cr2, cr0, {0}
    302c:	20000011 	andcs	r0, r0, r1, lsl r0
    3030:	00007202 	andeq	r7, r0, r2, lsl #4
    3034:	02100000 	andseq	r0, r0, #0
    3038:	00000991 	muleq	r0, r1, r9
    303c:	00770221 	rsbseq	r0, r7, r1, lsr #4
    3040:	10040000 	andne	r0, r4, r0
    3044:	00080802 	andeq	r0, r8, r2, lsl #16
    3048:	77022200 	strvc	r2, [r2, -r0, lsl #4]
    304c:	08000000 	stmdaeq	r0, {}	; <UNPREDICTABLE>
    3050:	0dc80210 	sfmeq	f0, 2, [r8, #64]	; 0x40
    3054:	02230000 	eoreq	r0, r3, #0
    3058:	0000085c 	andeq	r0, r0, ip, asr r8
    305c:	b502100c 	strlt	r1, [r2, #-12]
    3060:	2400000e 	strcs	r0, [r0], #-14
    3064:	0004e202 	andeq	lr, r4, r2, lsl #4
    3068:	02108000 	andseq	r8, r0, #0
    306c:	00000dd2 	ldrdeq	r0, [r0], -r2
    3070:	086c0225 	stmdaeq	ip!, {r0, r2, r5, r9}^
    3074:	10c00000 	sbcne	r0, r0, r0
    3078:	000c8902 	andeq	r8, ip, r2, lsl #18
    307c:	e2022600 	and	r2, r2, #0, 12
    3080:	00000004 	andeq	r0, r0, r4
    3084:	0ddc0211 	lfmeq	f0, 2, [ip, #68]	; 0x44
    3088:	02270000 	eoreq	r0, r7, #0
    308c:	0000086c 	andeq	r0, r0, ip, ror #16
    3090:	f0021140 			; <UNDEFINED> instruction: 0xf0021140
    3094:	2800000e 	stmdacs	r0, {r1, r2, r3}
    3098:	0004e202 	andeq	lr, r4, r2, lsl #4
    309c:	02118000 	andseq	r8, r1, #0
    30a0:	00000de6 	andeq	r0, r0, r6, ror #27
    30a4:	086c0229 	stmdaeq	ip!, {r0, r3, r5, r9}^
    30a8:	11c00000 	bicne	r0, r0, r0
    30ac:	000b0d02 	andeq	r0, fp, r2, lsl #26
    30b0:	e2022a00 	and	r2, r2, #0, 20
    30b4:	00000004 	andeq	r0, r0, r4
    30b8:	0df00212 	lfmeq	f0, 2, [r0, #72]!	; 0x48
    30bc:	022b0000 	eoreq	r0, fp, #0
    30c0:	0000086c 	andeq	r0, r0, ip, ror #16
    30c4:	fc021240 	stc2	2, cr1, [r2], {64}	; 0x40
    30c8:	2c00000e 	stccs	0, cr0, [r0], {14}
    30cc:	0004e202 	andeq	lr, r4, r2, lsl #4
    30d0:	02128000 	andseq	r8, r2, #0
    30d4:	00000dfa 	strdeq	r0, [r0], -sl
    30d8:	086c022d 	stmdaeq	ip!, {r0, r2, r3, r5, r9}^
    30dc:	12c00000 	sbcne	r0, r0, #0
    30e0:	0006b102 	andeq	fp, r6, r2, lsl #2
    30e4:	e2022e00 	and	r2, r2, #0, 28
    30e8:	00000004 	andeq	r0, r0, r4
    30ec:	0e040213 	mcreq	2, 0, r0, cr4, cr3, {0}
    30f0:	022f0000 	eoreq	r0, pc, #0
    30f4:	0000086c 	andeq	r0, r0, ip, ror #16
    30f8:	ed021340 	stc	3, cr1, [r2, #-256]	; 0xffffff00
    30fc:	30000008 	andcc	r0, r0, r8
    3100:	0004e202 	andeq	lr, r4, r2, lsl #4
    3104:	02138000 	andseq	r8, r3, #0
    3108:	00000874 	andeq	r0, r0, r4, ror r8
    310c:	086c0231 	stmdaeq	ip!, {r0, r4, r5, r9}^
    3110:	13c00000 	bicne	r0, r0, #0
    3114:	00111602 	andseq	r1, r1, r2, lsl #12
    3118:	8d023200 	sfmhi	f3, 4, [r2, #-0]
    311c:	00000008 	andeq	r0, r0, r8
    3120:	0e160214 	mrceq	2, 0, r0, cr6, cr4, {0}
    3124:	02330000 	eorseq	r0, r3, #0
    3128:	00000892 	muleq	r0, r2, r8
    312c:	f8021600 			; <UNDEFINED> instruction: 0xf8021600
    3130:	3400000f 	strcc	r0, [r0], #-15
    3134:	00088d02 	andeq	r8, r8, r2, lsl #26
    3138:	02180000 	andseq	r0, r8, #0
    313c:	00001029 	andeq	r1, r0, r9, lsr #32
    3140:	08920235 	ldmeq	r2, {r0, r2, r4, r5, r9}
    3144:	1a000000 	bne	314c <shift+0x314c>
    3148:	000d7c02 	andeq	r7, sp, r2, lsl #24
    314c:	cd023600 	stcgt	6, cr3, [r2, #-0]
    3150:	00000004 	andeq	r0, r0, r4
    3154:	1034021c 	eorsne	r0, r4, ip, lsl r2
    3158:	02370000 	eorseq	r0, r7, #0
    315c:	000008a2 	andeq	r0, r0, r2, lsr #17
    3160:	0e021c80 	cdpeq	12, 0, cr1, cr2, cr0, {4}
    3164:	3800000e 	stmdacc	r0, {r1, r2, r3}
    3168:	00007702 	andeq	r7, r0, r2, lsl #14
    316c:	021d0000 	andseq	r0, sp, #0
    3170:	00000d63 	andeq	r0, r0, r3, ror #26
    3174:	08c70239 	stmiaeq	r7, {r0, r3, r4, r5, r9}^
    3178:	1d040000 	stcne	0, cr0, [r4, #-0]
    317c:	00103f02 	andseq	r3, r0, r2, lsl #30
    3180:	cc023a00 			; <UNDEFINED> instruction: 0xcc023a00
    3184:	40000008 	andmi	r0, r0, r8
    3188:	0bc2021d 	bleq	ff083a04 <__bss_end+0x7f07ebc8>
    318c:	023b0000 	eorseq	r0, fp, #0
    3190:	00000072 	andeq	r0, r0, r2, ror r0
    3194:	a3021f00 	movwge	r1, #12032	; 0x2f00
    3198:	3c000008 	stccc	0, cr0, [r0], {8}
    319c:	0008dc02 	andeq	sp, r8, r2, lsl #24
    31a0:	021f0400 	andseq	r0, pc, #0, 8
    31a4:	00001004 	andeq	r1, r0, r4
    31a8:	08fc023d 	ldmeq	ip!, {r0, r2, r3, r4, r5, r9}^
    31ac:	1f100000 	svcne	0x00100000
    31b0:	000af102 	andeq	pc, sl, r2, lsl #2
    31b4:	fc023e00 	stc2	14, cr3, [r2], {-0}
    31b8:	20000008 	andcs	r0, r0, r8
    31bc:	104a021f 	subne	r0, sl, pc, lsl r2
    31c0:	023f0000 	eorseq	r0, pc, #0
    31c4:	00000901 	andeq	r0, r0, r1, lsl #18
    31c8:	b5021f30 	strlt	r1, [r2, #-3888]	; 0xfffff0d0
    31cc:	4000000c 	andmi	r0, r0, ip
    31d0:	00007702 	andeq	r7, r0, r2, lsl #14
    31d4:	021fd000 	andseq	sp, pc, #0
    31d8:	00000cbd 			; <UNDEFINED> instruction: 0x00000cbd
    31dc:	00770241 	rsbseq	r0, r7, r1, asr #4
    31e0:	1fd40000 	svcne	0x00d40000
    31e4:	000cc502 	andeq	ip, ip, r2, lsl #10
    31e8:	77024200 	strvc	r4, [r2, -r0, lsl #4]
    31ec:	d8000000 	stmdale	r0, {}	; <UNPREDICTABLE>
    31f0:	0ccd021f 	sfmeq	f0, 2, [sp], {31}
    31f4:	02430000 	subeq	r0, r3, #0
    31f8:	00000077 	andeq	r0, r0, r7, ror r0
    31fc:	95021fdc 	strls	r1, [r2, #-4060]	; 0xfffff024
    3200:	4400000c 	strmi	r0, [r0], #-12
    3204:	00007702 	andeq	r7, r0, r2, lsl #14
    3208:	021fe000 	andseq	lr, pc, #0
    320c:	00000c9d 	muleq	r0, sp, ip
    3210:	00770245 	rsbseq	r0, r7, r5, asr #4
    3214:	1fe40000 	svcne	0x00e40000
    3218:	000ca502 	andeq	sl, ip, r2, lsl #10
    321c:	77024600 	strvc	r4, [r2, -r0, lsl #12]
    3220:	e8000000 	stmda	r0, {}	; <UNPREDICTABLE>
    3224:	0cad021f 	sfmeq	f0, 4, [sp], #124	; 0x7c
    3228:	02470000 	subeq	r0, r7, #0
    322c:	00000077 	andeq	r0, r0, r7, ror r0
    3230:	cb021fec 	blgt	8b1e8 <shift+0x8b1e8>
    3234:	48000006 	stmdami	r0, {r1, r2}
    3238:	00007702 	andeq	r7, r0, r2, lsl #14
    323c:	021ff000 	andseq	pc, pc, #0
    3240:	000006d3 	ldrdeq	r0, [r0], -r3
    3244:	00770249 	rsbseq	r0, r7, r9, asr #4
    3248:	1ff40000 	svcne	0x00f40000
    324c:	0006db02 	andeq	sp, r6, r2, lsl #22
    3250:	77024a00 	strvc	r4, [r2, -r0, lsl #20]
    3254:	f8000000 			; <UNDEFINED> instruction: 0xf8000000
    3258:	06e3021f 	usateq	r0, #3, pc, lsl #4	; <UNPREDICTABLE>
    325c:	024b0000 	subeq	r0, fp, #0
    3260:	00000077 	andeq	r0, r0, r7, ror r0
    3264:	9a021ffc 	bls	8b25c <shift+0x8b25c>
    3268:	4d000011 	stcmi	0, cr0, [r0, #-68]	; 0xffffffbc
    326c:	00007202 	andeq	r7, r0, r2, lsl #4
    3270:	02200000 	eoreq	r0, r0, #0
    3274:	000008db 	ldrdeq	r0, [r0], -fp
    3278:	0072024e 	rsbseq	r0, r2, lr, asr #4
    327c:	20040000 	andcs	r0, r4, r0
    3280:	0010cc02 	andseq	ip, r0, r2, lsl #24
    3284:	72024f00 	andvc	r4, r2, #0, 30
    3288:	08000000 	stmdaeq	r0, {}	; <UNPREDICTABLE>
    328c:	0e8f0220 	cdpeq	2, 8, cr0, cr15, cr0, {1}
    3290:	02500000 	subseq	r0, r0, #0
    3294:	00000077 	andeq	r0, r0, r7, ror r0
    3298:	6c02200c 	stcvs	0, cr2, [r2], {12}
    329c:	51000011 	tstpl	r0, r1, lsl r0
    32a0:	00007202 	andeq	r7, r0, r2, lsl #4
    32a4:	02201000 	eoreq	r1, r0, #0
    32a8:	000008ae 	andeq	r0, r0, lr, lsr #17
    32ac:	00770252 	rsbseq	r0, r7, r2, asr r2
    32b0:	20140000 	andscs	r0, r4, r0
    32b4:	00062302 	andeq	r2, r6, r2, lsl #6
    32b8:	77025300 	strvc	r5, [r2, -r0, lsl #6]
    32bc:	18000000 	stmdane	r0, {}	; <UNPREDICTABLE>
    32c0:	11400220 	cmpne	r0, r0, lsr #4
    32c4:	02540000 	subseq	r0, r4, #0
    32c8:	00000072 	andeq	r0, r0, r2, ror r0
    32cc:	d002201c 	andle	r2, r2, ip, lsl r0
    32d0:	5500000e 	strpl	r0, [r0, #-14]
    32d4:	00007702 	andeq	r7, r0, r2, lsl #14
    32d8:	02202000 	eoreq	r2, r0, #0
    32dc:	00000e95 	muleq	r0, r5, lr
    32e0:	00720256 	rsbseq	r0, r2, r6, asr r2
    32e4:	20240000 	eorcs	r0, r4, r0
    32e8:	000b4802 	andeq	r4, fp, r2, lsl #16
    32ec:	77025700 	strvc	r5, [r2, -r0, lsl #14]
    32f0:	28000000 	stmdacs	r0, {}	; <UNPREDICTABLE>
    32f4:	10550220 	subsne	r0, r5, r0, lsr #4
    32f8:	02580000 	subseq	r0, r8, #0
    32fc:	00000911 	andeq	r0, r0, r1, lsl r9
    3300:	3d02202c 	stccc	0, cr2, [r2, #-176]	; 0xffffff50
    3304:	5900000d 	stmdbpl	r0, {r0, r2, r3}
    3308:	00007202 	andeq	r7, r0, r2, lsl #4
    330c:	0220d000 	eoreq	sp, r0, #0
    3310:	00001060 	andeq	r1, r0, r0, rrx
    3314:	08dc025a 	ldmeq	ip, {r1, r3, r4, r6, r9}^
    3318:	20d40000 	sbcscs	r0, r4, r0
    331c:	000e9d02 	andeq	r9, lr, r2, lsl #26
    3320:	72025b00 	andvc	r5, r2, #0, 22
    3324:	e0000000 	and	r0, r0, r0
    3328:	106b0220 	rsbne	r0, fp, r0, lsr #4
    332c:	025c0000 	subseq	r0, ip, #0
    3330:	00000921 	andeq	r0, r0, r1, lsr #18
    3334:	d50220e4 	strle	r2, [r2, #-228]	; 0xffffff1c
    3338:	5d00000c 	stcpl	0, cr0, [r0, #-48]	; 0xffffffd0
    333c:	00007702 	andeq	r7, r0, r2, lsl #14
    3340:	0220fc00 	eoreq	pc, r0, #0, 24
    3344:	00001076 	andeq	r1, r0, r6, ror r0
    3348:	0931025e 	ldmdbeq	r1!, {r1, r2, r3, r4, r6, r9}
    334c:	21000000 	mrscs	r0, (UNDEF: 0)
    3350:	00087e02 	andeq	r7, r8, r2, lsl #28
    3354:	72025f00 	andvc	r5, r2, #0, 30
    3358:	00000000 	andeq	r0, r0, r0
    335c:	66030030 			; <UNDEFINED> instruction: 0x66030030
    3360:	5c000000 	stcpl	0, cr0, [r0], {-0}
    3364:	0f000008 	svceq	0x00000008
    3368:	0000007c 	andeq	r0, r0, ip, ror r0
    336c:	030003ff 	movweq	r0, #1023	; 0x3ff
    3370:	00000066 	andeq	r0, r0, r6, rrx
    3374:	0000086c 	andeq	r0, r0, ip, ror #16
    3378:	00007c04 	andeq	r7, r0, r4, lsl #24
    337c:	03001c00 	movweq	r1, #3072	; 0xc00
    3380:	00000066 	andeq	r0, r0, r6, rrx
    3384:	0000087c 	andeq	r0, r0, ip, ror r8
    3388:	00007c04 	andeq	r7, r0, r4, lsl #24
    338c:	03000f00 	movweq	r0, #3840	; 0xf00
    3390:	00000053 	andeq	r0, r0, r3, asr r0
    3394:	0000088d 	andeq	r0, r0, sp, lsl #17
    3398:	00007c0f 	andeq	r7, r0, pc, lsl #24
    339c:	0001ff00 	andeq	pc, r1, r0, lsl #30
    33a0:	00087c09 	andeq	r7, r8, r9, lsl #24
    33a4:	00660300 	rsbeq	r0, r6, r0, lsl #6
    33a8:	08a20000 	stmiaeq	r2!, {}	; <UNPREDICTABLE>
    33ac:	7c040000 	stcvc	0, cr0, [r4], {-0}
    33b0:	7f000000 	svcvc	0x00000000
    33b4:	00660300 	rsbeq	r0, r6, r0, lsl #6
    33b8:	08b20000 	ldmeq	r2!, {}	; <UNPREDICTABLE>
    33bc:	7c040000 	stcvc	0, cr0, [r4], {-0}
    33c0:	1f000000 	svcne	0x00000000
    33c4:	00770300 	rsbseq	r0, r7, r0, lsl #6
    33c8:	08c20000 	stmiaeq	r2, {}^	; <UNPREDICTABLE>
    33cc:	7c040000 	stcvc	0, cr0, [r4], {-0}
    33d0:	0e000000 	cdpeq	0, 0, cr0, cr0, cr0, {0}
    33d4:	08b21100 	ldmeq	r2!, {r8, ip}
    33d8:	c2090000 	andgt	r0, r9, #0
    33dc:	03000008 	movweq	r0, #8
    33e0:	00000066 	andeq	r0, r0, r6, rrx
    33e4:	000008dc 	ldrdeq	r0, [r0], -ip
    33e8:	00007c04 	andeq	r7, r0, r4, lsl #24
    33ec:	03006f00 	movweq	r6, #3840	; 0xf00
    33f0:	00000066 	andeq	r0, r0, r6, rrx
    33f4:	000008ec 	andeq	r0, r0, ip, ror #17
    33f8:	00007c04 	andeq	r7, r0, r4, lsl #24
    33fc:	03000200 	movweq	r0, #512	; 0x200
    3400:	00000053 	andeq	r0, r0, r3, asr r0
    3404:	000008fc 	strdeq	r0, [r0], -ip
    3408:	00007c04 	andeq	r7, r0, r4, lsl #24
    340c:	09000f00 	stmdbeq	r0, {r8, r9, sl, fp}
    3410:	000008ec 	andeq	r0, r0, ip, ror #17
    3414:	00006603 	andeq	r6, r0, r3, lsl #12
    3418:	00091100 	andeq	r1, r9, r0, lsl #2
    341c:	007c0400 	rsbseq	r0, ip, r0, lsl #8
    3420:	00270000 	eoreq	r0, r7, r0
    3424:	00006603 	andeq	r6, r0, r3, lsl #12
    3428:	00092100 	andeq	r2, r9, r0, lsl #2
    342c:	007c0400 	rsbseq	r0, ip, r0, lsl #8
    3430:	00280000 	eoreq	r0, r8, r0
    3434:	00006603 	andeq	r6, r0, r3, lsl #12
    3438:	00093100 	andeq	r3, r9, r0, lsl #2
    343c:	007c0400 	rsbseq	r0, ip, r0, lsl #8
    3440:	00050000 	andeq	r0, r5, r0
    3444:	00006603 	andeq	r6, r0, r3, lsl #12
    3448:	00094200 	andeq	r4, r9, r0, lsl #4
    344c:	007c0f00 	rsbseq	r0, ip, r0, lsl #30
    3450:	03bf0000 			; <UNDEFINED> instruction: 0x03bf0000
    3454:	0a3e1200 	beq	f87c5c <shift+0xf87c5c>
    3458:	60030000 	andvs	r0, r3, r0
    345c:	0004fe02 	andeq	pc, r4, r2, lsl #28
    3460:	0fbe0800 	svceq	0x00be0800
    3464:	06060000 	streq	r0, [r6], -r0
    3468:	00095a10 	andeq	r5, r9, r0, lsl sl
    346c:	095f0c00 	ldmdbeq	pc, {sl, fp}^	; <UNPREDICTABLE>
    3470:	6f1a0000 	svcvs	0x001a0000
    3474:	05000009 	streq	r0, [r0, #-9]
    3478:	0000007c 	andeq	r0, r0, ip, ror r0
    347c:	0004f505 	andeq	pc, r4, r5, lsl #10
    3480:	f50e0000 			; <UNDEFINED> instruction: 0xf50e0000
    3484:	07000011 	smladeq	r0, r1, r0, r0
    3488:	0000007c 	andeq	r0, r0, ip, ror r0
    348c:	098c0707 	stmibeq	ip, {r0, r1, r2, r8, r9, sl}
    3490:	5c010000 	stcpl	0, cr0, [r1], {-0}
    3494:	00000012 	andeq	r0, r0, r2, lsl r0
    3498:	00137401 	andseq	r7, r3, r1, lsl #8
    349c:	08000100 	stmdaeq	r0, {r8}
    34a0:	000012ff 	strdeq	r1, [r0], -pc	; <UNPREDICTABLE>
    34a4:	6f030b07 	svcvs	0x00030b07
    34a8:	0e000009 	cdpeq	0, 0, cr0, cr0, cr9, {0}
    34ac:	0000134b 	andeq	r1, r0, fp, asr #6
    34b0:	00007c07 	andeq	r7, r0, r7, lsl #24
    34b4:	cd100700 	ldcgt	7, cr0, [r0, #-0]
    34b8:	01000009 	tsteq	r0, r9
    34bc:	00001388 	andeq	r1, r0, r8, lsl #7
    34c0:	11e30100 	mvnne	r0, r0, lsl #2
    34c4:	01010000 	mrseq	r0, (UNDEF: 1)
    34c8:	0000123c 	andeq	r1, r0, ip, lsr r2
    34cc:	12a60102 	adcne	r0, r6, #-2147483648	; 0x80000000
    34d0:	01030000 	mrseq	r0, (UNDEF: 3)
    34d4:	0000126f 	andeq	r1, r0, pc, ror #4
    34d8:	12090104 	andne	r0, r9, #4, 2
    34dc:	00050000 	andeq	r0, r5, r0
    34e0:	00122608 	andseq	r2, r2, r8, lsl #12
    34e4:	03180700 	tsteq	r8, #0, 14
    34e8:	00000998 	muleq	r0, r8, r9
    34ec:	0013141b 	andseq	r1, r3, fp, lsl r4
    34f0:	1b070c00 	blne	1c64f8 <shift+0x1c64f8>
    34f4:	000a0b10 	andeq	r0, sl, r0, lsl fp
    34f8:	11ff1000 	mvnsne	r1, r0
    34fc:	1a1c0000 	bne	703504 <shift+0x703504>
    3500:	0000098c 	andeq	r0, r0, ip, lsl #19
    3504:	12cc1000 	sbcne	r1, ip, #0
    3508:	0d1d0000 	ldceq	0, cr0, [sp, #-0]
    350c:	00000047 	andeq	r0, r0, r7, asr #32
    3510:	12e71004 	rscne	r1, r7, #4
    3514:	1b1e0000 	blne	78351c <shift+0x78351c>
    3518:	000009cd 	andeq	r0, r0, sp, asr #19
    351c:	ba080008 	blt	203544 <shift+0x203544>
    3520:	07000012 	smladeq	r0, r2, r0, r0
    3524:	09d9021f 	ldmibeq	r9, {r0, r1, r2, r3, r4, r9}^
    3528:	840d0000 	strhi	r0, [sp], #-0
    352c:	07000012 	smladeq	r0, r2, r0, r0
    3530:	000a2d29 	andeq	r2, sl, r9, lsr #26
    3534:	0a2d0500 	beq	b4493c <shift+0xb4493c>
    3538:	7c050000 	stcvc	0, cr0, [r5], {-0}
    353c:	00000000 	andeq	r0, r0, r0
    3540:	0004b10c 	andeq	fp, r4, ip, lsl #2
    3544:	12970d00 	addsne	r0, r7, #0, 26
    3548:	27070000 	strcs	r0, [r7, -r0]
    354c:	00000a48 	andeq	r0, r0, r8, asr #20
    3550:	000a2d05 	andeq	r2, sl, r5, lsl #26
    3554:	007c0500 	rsbseq	r0, ip, r0, lsl #10
    3558:	0d000000 	stceq	0, cr0, [r0, #-0]
    355c:	00001151 	andeq	r1, r0, r1, asr r1
    3560:	0a631306 	beq	18c8180 <shift+0x18c8180>
    3564:	33050000 	movwcc	r0, #20480	; 0x5000
    3568:	05000004 	streq	r0, [r0, #-4]
    356c:	0000094e 	andeq	r0, r0, lr, asr #18
    3570:	0004f505 	andeq	pc, r4, r5, lsl #10
    3574:	f50d0000 			; <UNDEFINED> instruction: 0xf50d0000
    3578:	07000012 	smladeq	r0, r2, r0, r0
    357c:	000a7e23 	andeq	r7, sl, r3, lsr #28
    3580:	0a2d0500 	beq	b44988 <shift+0xb44988>
    3584:	40050000 	andmi	r0, r5, r0
    3588:	05000000 	streq	r0, [r0, #-0]
    358c:	00000a7e 	andeq	r0, r0, lr, ror sl
    3590:	0a0b0c00 	beq	2c6598 <shift+0x2c6598>
    3594:	941c0000 	ldrls	r0, [ip], #-0
    3598:	02000019 	andeq	r0, r0, #25
    359c:	117c0621 	cmnne	ip, r1, lsr #12
    35a0:	00168000 	andseq	r8, r6, r0
    35a4:	9c010000 	stcls	0, cr0, [r1], {-0}
    35a8:	0019be1d 	andseq	fp, r9, sp, lsl lr
    35ac:	06090200 	streq	r0, [r9], -r0, lsl #4
    35b0:	800010c4 	andhi	r1, r0, r4, asr #1
    35b4:	000000b8 	strheq	r0, [r0], -r8
    35b8:	0b049c01 	bleq	12a5c4 <shift+0x12a5c4>
    35bc:	d21e0000 	andsle	r0, lr, #0
    35c0:	02000013 	andeq	r0, r0, #19
    35c4:	0a0b140b 	beq	2c85f8 <shift+0x2c85f8>
    35c8:	91020000 	mrsls	r0, (UNDEF: 2)
    35cc:	0b041f60 	bleq	10b354 <shift+0x10b354>
    35d0:	112a0000 			; <UNDEFINED> instruction: 0x112a0000
    35d4:	002a8000 	eoreq	r8, sl, r0
    35d8:	17020000 	strne	r0, [r2, -r0]
    35dc:	0b122002 	bleq	48b5ec <shift+0x48b5ec>
    35e0:	91020000 	mrsls	r0, (UNDEF: 2)
    35e4:	0b1f1374 	bleq	7c83bc <shift+0x7c83bc>
    35e8:	91020000 	mrsls	r0, (UNDEF: 2)
    35ec:	0b32216c 	bleq	c8bba4 <shift+0xc8bba4>
    35f0:	112a0000 			; <UNDEFINED> instruction: 0x112a0000
    35f4:	000a8000 	andeq	r8, sl, r0
    35f8:	87030000 	strhi	r0, [r3, -r0]
    35fc:	44222102 	strtmi	r2, [r2], #-258	; 0xfffffefe
    3600:	2a00000b 	bcs	3634 <shift+0x3634>
    3604:	08800011 	stmeq	r0, {r0, r4}
    3608:	13000000 	movwne	r0, #0
    360c:	00000b45 	andeq	r0, r0, r5, asr #22
    3610:	00709102 	rsbseq	r9, r0, r2, lsl #2
    3614:	23000000 	movwcs	r0, #0
    3618:	00000884 	andeq	r0, r0, r4, lsl #17
    361c:	23028503 	movwcs	r8, #9475	; 0x2503
    3620:	000b2d03 	andeq	r2, fp, r3, lsl #26
    3624:	0f932400 	svceq	0x00932400
    3628:	85030000 	strhi	r0, [r3, #-0]
    362c:	04333b02 	ldrteq	r3, [r3], #-2818	; 0xfffff4fe
    3630:	67250000 	strvs	r0, [r5, -r0]!
    3634:	03006369 	movweq	r6, #873	; 0x369
    3638:	2d0e0287 	sfmcs	f0, 4, [lr, #-540]	; 0xfffffde4
    363c:	0000000b 	andeq	r0, r0, fp
    3640:	0009420c 	andeq	r4, r9, ip, lsl #4
    3644:	06792600 	ldrbteq	r2, [r9], -r0, lsl #12
    3648:	0d030000 	stceq	0, cr0, [r3, #-0]
    364c:	00662702 	rsbeq	r2, r6, r2, lsl #14
    3650:	54030000 	strpl	r0, [r3], #-0
    3654:	2700000b 	strcs	r0, [r0, -fp]
    3658:	00119428 	andseq	r9, r1, r8, lsr #8
    365c:	020f0300 	andeq	r0, pc, #0, 6
    3660:	0000660a 	andeq	r6, r0, sl, lsl #12
    3664:	29000000 	stmdbcs	r0, {}	; <UNPREDICTABLE>
    3668:	000005ac 	andeq	r0, r0, ip, lsr #11
    366c:	14044401 	strne	r4, [r4], #-1025	; 0xfffffbff
    3670:	8000109e 	mulhi	r0, lr, r0
    3674:	00000026 	andeq	r0, r0, r6, lsr #32
    3678:	0bc69c01 	bleq	ff1aa684 <__bss_end+0x7f1a5848>
    367c:	43060000 	movwmi	r0, #24576	; 0x6000
    3680:	44000005 	strmi	r0, [r0], #-5
    3684:	00663104 	rsbeq	r3, r6, r4, lsl #2
    3688:	91020000 	mrsls	r0, (UNDEF: 2)
    368c:	051f0674 	ldreq	r0, [pc, #-1652]	; 3020 <shift+0x3020>
    3690:	04450000 	strbeq	r0, [r5], #-0
    3694:	00006631 	andeq	r6, r0, r1, lsr r6
    3698:	70910200 	addsvc	r0, r1, r0, lsl #4
    369c:	00052706 	andeq	r2, r5, r6, lsl #14
    36a0:	31044600 	tstcc	r4, r0, lsl #12
    36a4:	00000066 	andeq	r0, r0, r6, rrx
    36a8:	066c9102 	strbteq	r9, [ip], -r2, lsl #2
    36ac:	0000057c 	andeq	r0, r0, ip, ror r5
    36b0:	66310447 	ldrtvs	r0, [r1], -r7, asr #8
    36b4:	02000000 	andeq	r0, r0, #0
    36b8:	c0066891 	mulgt	r6, r1, r8
    36bc:	48000005 	stmdami	r0, {r0, r2}
    36c0:	00663104 	rsbeq	r3, r6, r4, lsl #2
    36c4:	91020000 	mrsls	r0, (UNDEF: 2)
    36c8:	05cf0600 	strbeq	r0, [pc, #1536]	; 3cd0 <shift+0x3cd0>
    36cc:	04490000 	strbeq	r0, [r9], #-0
    36d0:	00006631 	andeq	r6, r0, r1, lsr r6
    36d4:	04910200 	ldreq	r0, [r1], #512	; 0x200
    36d8:	05642a00 	strbeq	r2, [r4, #-2560]!	; 0xfffff600
    36dc:	24010000 	strcs	r0, [r1], #-0
    36e0:	10601404 	rsbne	r1, r0, r4, lsl #8
    36e4:	003e8000 	eorseq	r8, lr, r0
    36e8:	9c010000 	stcls	0, cr0, [r1], {-0}
    36ec:	00054306 	andeq	r4, r5, r6, lsl #6
    36f0:	2e042400 	cfcpyscs	mvf2, mvf4
    36f4:	00000066 	andeq	r0, r0, r6, rrx
    36f8:	06749102 	ldrbteq	r9, [r4], -r2, lsl #2
    36fc:	0000051f 	andeq	r0, r0, pc, lsl r5
    3700:	662e0425 	strtvs	r0, [lr], -r5, lsr #8
    3704:	02000000 	andeq	r0, r0, #0
    3708:	27067091 			; <UNDEFINED> instruction: 0x27067091
    370c:	26000005 	strcs	r0, [r0], -r5
    3710:	00662e04 	rsbeq	r2, r6, r4, lsl #28
    3714:	91020000 	mrsls	r0, (UNDEF: 2)
    3718:	057c066c 	ldrbeq	r0, [ip, #-1644]!	; 0xfffff994
    371c:	04270000 	strteq	r0, [r7], #-0
    3720:	0000662e 	andeq	r6, r0, lr, lsr #12
    3724:	68910200 	ldmvs	r1, {r9}
    3728:	0005c006 	andeq	ip, r5, r6
    372c:	2e042800 	cdpcs	8, 0, cr2, cr4, cr0, {0}
    3730:	00000066 	andeq	r0, r0, r6, rrx
    3734:	06009102 	streq	r9, [r0], -r2, lsl #2
    3738:	00000557 	andeq	r0, r0, r7, asr r5
    373c:	662e0429 	strtvs	r0, [lr], -r9, lsr #8
    3740:	02000000 	andeq	r0, r0, #0
    3744:	00000491 	muleq	r0, r1, r4
    3748:	00000ac0 	andeq	r0, r0, r0, asr #21
    374c:	04010005 	streq	r0, [r1], #-5
    3750:	00000eab 	andeq	r0, r0, fp, lsr #29
    3754:	00010618 	andeq	r0, r1, r8, lsl r6
    3758:	19ec1d00 	stmibne	ip!, {r8, sl, fp, ip}^
    375c:	00100000 	andseq	r0, r0, r0
    3760:	11940000 	orrsne	r0, r4, r0
    3764:	00fa8000 	rscseq	r8, sl, r0
    3768:	0bc30000 	bleq	ff0c3770 <__bss_end+0x7f0be934>
    376c:	01050000 	mrseq	r0, (UNDEF: 5)
    3770:	0000a006 	andeq	sl, r0, r6
    3774:	05020500 	streq	r0, [r2, #-1280]	; 0xfffffb00
    3778:	00000162 	andeq	r0, r0, r2, ror #2
    377c:	0000b708 	andeq	fp, r0, r8, lsl #14
    3780:	140d0300 	strne	r0, [sp], #-768	; 0xfffffd00
    3784:	00000040 	andeq	r0, r0, r0, asr #32
    3788:	69050419 	stmdbvs	r5, {r0, r3, r4, sl}
    378c:	0800746e 	stmdaeq	r0, {r1, r2, r3, r5, r6, sl, ip, sp, lr}
    3790:	00000265 	andeq	r0, r0, r5, ror #4
    3794:	58170e03 	ldmdapl	r7, {r0, r1, r9, sl, fp}
    3798:	06000000 	streq	r0, [r0], -r0
    379c:	00000047 	andeq	r0, r0, r7, asr #32
    37a0:	9e080105 	adflse	f0, f0, f5
    37a4:	05000000 	streq	r0, [r0, #-0]
    37a8:	00eb0702 	rsceq	r0, fp, r2, lsl #14
    37ac:	b6080000 	strlt	r0, [r8], -r0
    37b0:	03000000 	movweq	r0, #0
    37b4:	007c1610 	rsbseq	r1, ip, r0, lsl r6
    37b8:	66060000 	strvs	r0, [r6], -r0
    37bc:	0e000000 	cdpeq	0, 0, cr0, cr0, cr0, {0}
    37c0:	00000072 	andeq	r0, r0, r2, ror r0
    37c4:	d3070405 	movwle	r0, #29701	; 0x7405
    37c8:	05000000 	streq	r0, [r0, #-0]
    37cc:	00c90708 	sbceq	r0, r9, r8, lsl #14
    37d0:	08050000 	stmdaeq	r5, {}	; <UNPREDICTABLE>
    37d4:	00004d05 	andeq	r4, r0, r5, lsl #26
    37d8:	0f931a00 	svceq	0x00931a00
    37dc:	04050000 	streq	r0, [r5], #-0
    37e0:	00000040 	andeq	r0, r0, r0, asr #32
    37e4:	350e2104 	strcc	r2, [lr, #-260]	; 0xfffffefc
    37e8:	1b000004 	blne	3800 <shift+0x3800>
    37ec:	00000e81 	andeq	r0, r0, r1, lsl #29
    37f0:	db017f80 	blle	635f8 <shift+0x635f8>
    37f4:	00000007 	andeq	r0, r0, r7
    37f8:	000e7201 	andeq	r7, lr, r1, lsl #4
    37fc:	99010100 	stmdbls	r1, {r8}
    3800:	02000009 	andeq	r0, r0, #9
    3804:	00118501 	andseq	r8, r1, r1, lsl #10
    3808:	d9010300 	stmdble	r1, {r8, r9}
    380c:	0400000b 	streq	r0, [r0], #-11
    3810:	00079601 	andeq	r9, r7, r1, lsl #12
    3814:	60010500 	andvs	r0, r1, r0, lsl #10
    3818:	0600000f 	streq	r0, [r0], -pc
    381c:	00095701 	andeq	r5, r9, r1, lsl #14
    3820:	31010700 	tstcc	r1, r0, lsl #14
    3824:	08000011 	stmdaeq	r0, {r0, r4}
    3828:	000d1101 	andeq	r1, sp, r1, lsl #2
    382c:	dd010900 	vstrle.16	s0, [r1, #-0]	; <UNPREDICTABLE>
    3830:	0a00000f 	beq	3874 <shift+0x3874>
    3834:	00108801 	andseq	r8, r0, r1, lsl #16
    3838:	e8010b00 	stmda	r1, {r8, r9, fp}
    383c:	0c00000b 	stceq	0, cr0, [r0], {11}
    3840:	0007a501 	andeq	sl, r7, r1, lsl #10
    3844:	20010d00 	andcs	r0, r1, r0, lsl #26
    3848:	0e00000e 	cdpeq	0, 0, cr0, cr0, cr14, {0}
    384c:	00096601 	andeq	r6, r9, r1, lsl #12
    3850:	9a010f00 	bls	47458 <shift+0x47458>
    3854:	1900000b 	stmdbne	r0, {r0, r1, r3}
    3858:	000b6c01 	andeq	r6, fp, r1, lsl #24
    385c:	6e011a00 	vmlavs.f32	s2, s2, s0
    3860:	1b00000c 	blne	3898 <shift+0x3898>
    3864:	000a8801 	andeq	r8, sl, r1, lsl #16
    3868:	ff011c00 			; <UNDEFINED> instruction: 0xff011c00
    386c:	1d000006 	stcne	0, cr0, [r0, #-24]	; 0xffffffe8
    3870:	0006fc01 	andeq	pc, r6, r1, lsl #24
    3874:	21011e00 	tstcs	r1, r0, lsl #28
    3878:	1f00000b 	svcne	0x0000000b
    387c:	000b3001 	andeq	r3, fp, r1
    3880:	3b012000 	blcc	4b888 <shift+0x4b888>
    3884:	2100000f 	tstcs	r0, pc
    3888:	000f5601 	andeq	r5, pc, r1, lsl #12
    388c:	05012200 	streq	r2, [r1, #-512]	; 0xfffffe00
    3890:	2300000c 	movwcs	r0, #12
    3894:	000a0c01 	andeq	r0, sl, r1, lsl #24
    3898:	19012400 	stmdbne	r1, {sl, sp}
    389c:	25000009 	strcs	r0, [r0, #-9]
    38a0:	000c0e01 	andeq	r0, ip, r1, lsl #28
    38a4:	ff012600 			; <UNDEFINED> instruction: 0xff012600
    38a8:	27000007 	strcs	r0, [r0, -r7]
    38ac:	000aca01 	andeq	ip, sl, r1, lsl #20
    38b0:	a6012800 	strge	r2, [r1], -r0, lsl #16
    38b4:	2900000e 	stmdbcs	r0, {r1, r2, r3}
    38b8:	000a2f01 	andeq	r2, sl, r1, lsl #30
    38bc:	61012a00 	tstvs	r1, r0, lsl #20
    38c0:	2b00000b 	blcs	38f4 <shift+0x38f4>
    38c4:	000afd01 	andeq	pc, sl, r1, lsl #26
    38c8:	9c012c00 	stcls	12, cr2, [r1], {-0}
    38cc:	2d000006 	stccs	0, cr0, [r0, #-24]	; 0xffffffe8
    38d0:	000a6301 	andeq	r6, sl, r1, lsl #6
    38d4:	bf012e00 	svclt	0x00012e00
    38d8:	2f000007 	svccs	0x00000007
    38dc:	000f4401 	andeq	r4, pc, r1, lsl #8
    38e0:	e6013000 	str	r3, [r1], -r0
    38e4:	3100000a 	tstcc	r0, sl
    38e8:	00068e01 	andeq	r8, r6, r1, lsl #28
    38ec:	d4013200 	strle	r3, [r1], #-512	; 0xfffffe00
    38f0:	33000009 	movwcc	r0, #9
    38f4:	000e5501 	andeq	r5, lr, r1, lsl #10
    38f8:	65013400 	strvs	r3, [r1, #-1024]	; 0xfffffc00
    38fc:	3500000c 	strcc	r0, [r0, #-12]
    3900:	000c2301 	andeq	r2, ip, r1, lsl #6
    3904:	6d013600 	stcvs	6, cr3, [r1, #-0]
    3908:	37000006 	strcc	r0, [r0, -r6]
    390c:	000bf801 	andeq	pc, fp, r1, lsl #16
    3910:	84013800 	strhi	r3, [r1], #-2048	; 0xfffff800
    3914:	3900000d 	stmdbcc	r0, {r0, r2, r3}
    3918:	0009c901 	andeq	ip, r9, r1, lsl #18
    391c:	98013a00 	stmdals	r1, {r9, fp, ip, sp}
    3920:	3b000010 	blcc	3968 <shift+0x3968>
    3924:	00060b01 	andeq	r0, r6, r1, lsl #22
    3928:	d0013c00 	andle	r3, r1, r0, lsl #24
    392c:	3d000007 	stccc	0, cr0, [r0, #-28]	; 0xffffffe4
    3930:	000e4a01 	andeq	r4, lr, r1, lsl #20
    3934:	3c013e00 	stccc	14, cr3, [r1], {-0}
    3938:	3f00000b 	svccc	0x0000000b
    393c:	00071301 	andeq	r1, r7, r1, lsl #6
    3940:	91014000 	mrsls	r4, (UNDEF: 1)
    3944:	4100000d 	tstmi	r0, sp
    3948:	0008e101 	andeq	lr, r8, r1, lsl #2
    394c:	f5014200 			; <UNDEFINED> instruction: 0xf5014200
    3950:	43000007 	movwmi	r0, #7
    3954:	0007b501 	andeq	fp, r7, r1, lsl #10
    3958:	6f014400 	svcvs	0x00014400
    395c:	4500000f 	strmi	r0, [r0, #-15]
    3960:	00097601 	andeq	r7, r9, r1, lsl #12
    3964:	73014600 	movwvc	r4, #5632	; 0x1600
    3968:	47000011 	smladmi	r0, r1, r0, r0
    396c:	000d2a01 	andeq	r2, sp, r1, lsl #20
    3970:	b2014800 	andlt	r4, r1, #0, 16
    3974:	4900000b 	stmdbmi	r0, {r0, r1, r3}
    3978:	000d4401 	andeq	r4, sp, r1, lsl #8
    397c:	bd014a00 	vstrlt	s8, [r1, #-0]
    3980:	4b000006 	blmi	39a0 <shift+0x39a0>
    3984:	00083f01 	andeq	r3, r8, r1, lsl #30
    3988:	be014c00 	cdplt	12, 0, cr4, cr1, cr0, {0}
    398c:	4d000010 	stcmi	0, cr0, [r0, #-64]	; 0xffffffc0
    3990:	00061601 	andeq	r1, r6, r1, lsl #12
    3994:	57014e00 	strpl	r4, [r1, -r0, lsl #28]
    3998:	4f000008 	svcmi	0x00000008
    399c:	00073701 	andeq	r3, r7, r1, lsl #14
    39a0:	0f015000 	svceq	0x00015000
    39a4:	51000008 	tstpl	r0, r8
    39a8:	00062b01 	andeq	r2, r6, r1, lsl #22
    39ac:	b5015200 	strlt	r5, [r1, #-512]	; 0xfffffe00
    39b0:	5300000a 	movwpl	r0, #10
    39b4:	0006a601 	andeq	sl, r6, r1, lsl #12
    39b8:	b9015400 	stmdblt	r1, {sl, ip, lr}
    39bc:	55000009 	strpl	r0, [r0, #-9]
    39c0:	00094901 	andeq	r4, r9, r1, lsl #18
    39c4:	a3015600 	movwge	r5, #5632	; 0x1600
    39c8:	57000010 	smladpl	r0, r0, r0, r0
    39cc:	000c5a01 	andeq	r5, ip, r1, lsl #20
    39d0:	ea015800 	b	599d8 <shift+0x599d8>
    39d4:	59000007 	stmdbpl	r0, {r0, r1, r2}
    39d8:	000c2f01 	andeq	r2, ip, r1, lsl #30
    39dc:	d2015a00 	andle	r5, r1, #0, 20
    39e0:	5b000010 	blpl	3a28 <shift+0x3a28>
    39e4:	0008f901 	andeq	pc, r8, r1, lsl #18
    39e8:	d7015c00 	strle	r5, [r1, -r0, lsl #24]
    39ec:	5d00000e 	stcpl	0, cr0, [r0, #-56]	; 0xffffffc8
    39f0:	00071f01 	andeq	r1, r7, r1, lsl #30
    39f4:	51015e00 	tstpl	r1, r0, lsl #28
    39f8:	5f00000b 	svcpl	0x0000000b
    39fc:	0010fb01 	andseq	pc, r0, r1, lsl #22
    3a00:	24016000 	strcs	r6, [r1], #-0
    3a04:	61000009 	tstvs	r0, r9
    3a08:	00075201 	andeq	r5, r7, r1, lsl #4
    3a0c:	7c016200 	sfmvc	f6, 4, [r1], {-0}
    3a10:	63000007 	movwvs	r0, #7
    3a14:	00101001 	andseq	r1, r0, r1
    3a18:	21016400 	tstcs	r1, r0, lsl #8
    3a1c:	6500000f 	strvs	r0, [r0, #-15]
    3a20:	00081c01 	andeq	r1, r8, r1, lsl #24
    3a24:	9b016600 	blls	5d22c <shift+0x5d22c>
    3a28:	6700000a 	strvs	r0, [r0, -sl]
    3a2c:	000cdc01 	andeq	sp, ip, r1, lsl #24
    3a30:	49016800 	stmdbmi	r1, {fp, sp, lr}
    3a34:	69000006 	stmdbvs	r0, {r1, r2}
    3a38:	0010e201 	andseq	lr, r0, r1, lsl #4
    3a3c:	30016a00 	andcc	r6, r1, r0, lsl #20
    3a40:	6b00000e 	blvs	3a80 <shift+0x3a80>
    3a44:	0006eb01 	andeq	lr, r6, r1, lsl #22
    3a48:	52016c00 	andpl	r6, r1, #0, 24
    3a4c:	6d00000d 	stcvs	0, cr0, [r0, #-52]	; 0xffffffcc
    3a50:	000f8701 	andeq	r8, pc, r1, lsl #14
    3a54:	6d016e00 	stcvs	14, cr6, [r1, #-0]
    3a58:	6f00000a 	svcvs	0x0000000a
    3a5c:	00093401 	andeq	r3, r9, r1, lsl #8
    3a60:	0b017000 	bleq	5fa68 <shift+0x5fa68>
    3a64:	71000011 	tstvc	r0, r1, lsl r0
    3a68:	000ee701 	andeq	lr, lr, r1, lsl #14
    3a6c:	84017200 	strhi	r7, [r1], #-512	; 0xfffffe00
    3a70:	73000006 	movwvc	r0, #6
    3a74:	000e6801 	andeq	r6, lr, r1, lsl #16
    3a78:	80017400 	andhi	r7, r1, r0, lsl #8
    3a7c:	75000009 	strvc	r0, [r0, #-9]
    3a80:	00114701 	andseq	r4, r1, r1, lsl #14
    3a84:	79017600 	stmdbvc	r1, {r9, sl, ip, sp, lr}
    3a88:	7700000f 	strvc	r0, [r0, -pc]
    3a8c:	000ad801 	andeq	sp, sl, r1, lsl #16
    3a90:	47017800 	strmi	r7, [r1, -r0, lsl #16]
    3a94:	7900000a 	stmdbvc	r0, {r1, r3}
    3a98:	000b8901 	andeq	r8, fp, r1, lsl #18
    3a9c:	2c017a00 			; <UNDEFINED> instruction: 0x2c017a00
    3aa0:	7b000006 	blvc	3ac0 <shift+0x3ac0>
    3aa4:	000f1001 	andeq	r1, pc, r1
    3aa8:	bf017c00 	svclt	0x00017c00
    3aac:	7d00000e 	stcvc	0, cr0, [r0, #-56]	; 0xffffffc8
    3ab0:	000a1601 	andeq	r1, sl, r1, lsl #12
    3ab4:	98017e00 	stmdals	r1, {r9, sl, fp, ip, sp, lr}
    3ab8:	7f00000f 	svcvc	0x0000000f
    3abc:	000cff01 	andeq	pc, ip, r1, lsl #30
    3ac0:	d3018000 	movwle	r8, #4096	; 0x1000
    3ac4:	8100000f 	tsthi	r0, pc
    3ac8:	000b1701 	andeq	r1, fp, r1, lsl #14
    3acc:	3f018200 	svccc	0x00018200
    3ad0:	8300000c 	movwhi	r0, #12
    3ad4:	000a5901 	andeq	r5, sl, r1, lsl #18
    3ad8:	9d018400 	cfstrsls	mvf8, [r1, #-0]
    3adc:	8500000d 	strhi	r0, [r0, #-13]
    3ae0:	0009a801 	andeq	sl, r9, r1, lsl #16
    3ae4:	6b018600 	blvs	652ec <shift+0x652ec>
    3ae8:	87000007 	strhi	r0, [r0, -r7]
    3aec:	000a5001 	andeq	r5, sl, r1
    3af0:	35018800 	strcc	r8, [r1, #-2048]	; 0xfffff800
    3af4:	89000006 	stmdbhi	r0, {r1, r2}
    3af8:	000daa01 	andeq	sl, sp, r1, lsl #20
    3afc:	35018a00 	strcc	r8, [r1, #-2560]	; 0xfffff600
    3b00:	8b000008 	blhi	3b28 <shift+0x3b28>
    3b04:	000abf01 	andeq	fp, sl, r1, lsl #30
    3b08:	50018c00 	andpl	r8, r1, r0, lsl #24
    3b0c:	8d00000c 	stchi	0, cr0, [r0, #-48]	; 0xffffffd0
    3b10:	00066301 	andeq	r6, r6, r1, lsl #6
    3b14:	f5018e00 			; <UNDEFINED> instruction: 0xf5018e00
    3b18:	8f00000c 	svchi	0x0000000c
    3b1c:	0010ad01 	andseq	sl, r0, r1, lsl #26
    3b20:	92019000 	andls	r9, r1, #0
    3b24:	91000008 	tstls	r0, r8
    3b28:	000d2001 	andeq	r2, sp, r1
    3b2c:	48019200 	stmdami	r1, {r9, ip, pc}
    3b30:	93000007 	movwls	r0, #7
    3b34:	000f0601 	andeq	r0, pc, r1, lsl #12
    3b38:	7e019400 	cfcpysvc	mvf9, mvf1
    3b3c:	9500000a 	strls	r0, [r0, #-10]
    3b40:	000fed01 	andeq	lr, pc, r1, lsl #26
    3b44:	c9019600 	stmdbgt	r1, {r9, sl, ip, pc}
    3b48:	9700000b 	strls	r0, [r0, -fp]
    3b4c:	000c1801 	andeq	r1, ip, r1, lsl #16
    3b50:	fc019800 	stc2	8, cr9, [r1], {-0}
    3b54:	99000009 	stmdbls	r0, {r0, r3}
    3b58:	0009eb01 	andeq	lr, r9, r1, lsl #22
    3b5c:	a1019a00 	tstge	r1, r0, lsl #20
    3b60:	9b000011 	blls	3bac <shift+0x3bac>
    3b64:	000d6b01 	andeq	r6, sp, r1, lsl #22
    3b68:	ca019c00 	bgt	6ab70 <shift+0x6ab70>
    3b6c:	9d000008 	stcls	0, cr0, [r0, #-32]	; 0xffffffe0
    3b70:	000fad01 	andeq	sl, pc, r1, lsl #26
    3b74:	23019e00 	movwcs	r9, #7680	; 0x1e00
    3b78:	9f000011 	svcls	0x00000011
    3b7c:	093f0800 	ldmdbeq	pc!, {fp}	; <UNPREDICTABLE>
    3b80:	bf040000 	svclt	0x00040000
    3b84:	00009103 	andeq	r9, r0, r3, lsl #2
    3b88:	04141c00 	ldreq	r1, [r4], #-3072	; 0xfffff400
    3b8c:	870931c2 	strhi	r3, [r9, -r2, asr #3]
    3b90:	09000004 	stmdbeq	r0, {r2}
    3b94:	c3005243 	movwgt	r5, #579	; 0x243
    3b98:	00007231 	andeq	r7, r0, r1, lsr r2
    3b9c:	53090000 	movwpl	r0, #36864	; 0x9000
    3ba0:	31c40052 	biccc	r0, r4, r2, asr r0
    3ba4:	00000072 	andeq	r0, r0, r2, ror r0
    3ba8:	524c0904 	subpl	r0, ip, #4, 18	; 0x10000
    3bac:	7231c500 	eorsvc	ip, r1, #0, 10
    3bb0:	08000000 	stmdaeq	r0, {}	; <UNPREDICTABLE>
    3bb4:	001a0a0f 	andseq	r0, sl, pc, lsl #20
    3bb8:	31c60400 	biccc	r0, r6, r0, lsl #8
    3bbc:	00007211 	andeq	r7, r0, r1, lsl r2
    3bc0:	43090c00 	movwmi	r0, #39936	; 0x9c00
    3bc4:	c700524e 	strgt	r5, [r0, -lr, asr #4]
    3bc8:	00007231 	andeq	r7, r0, r1, lsr r2
    3bcc:	10001000 	andne	r1, r0, r0
    3bd0:	000019cd 	andeq	r1, r0, sp, asr #19
    3bd4:	4131c804 	teqmi	r1, r4, lsl #16
    3bd8:	03000004 	movweq	r0, #4
    3bdc:	00000072 	andeq	r0, r0, r2, ror r0
    3be0:	000004a3 	andeq	r0, r0, r3, lsr #9
    3be4:	00007c04 	andeq	r7, r0, r4, lsl #24
    3be8:	06001f00 	streq	r1, [r0], -r0, lsl #30
    3bec:	00000493 	muleq	r0, r3, r4
    3bf0:	00007203 	andeq	r7, r0, r3, lsl #4
    3bf4:	0004b800 	andeq	fp, r4, r0, lsl #16
    3bf8:	007c0400 	rsbseq	r0, ip, r0, lsl #8
    3bfc:	000f0000 	andeq	r0, pc, r0
    3c00:	0004a806 	andeq	sl, r4, r6, lsl #16
    3c04:	07040500 	streq	r0, [r4, -r0, lsl #10]
    3c08:	000000ce 	andeq	r0, r0, lr, asr #1
    3c0c:	52050405 	andpl	r0, r5, #83886080	; 0x5000000
    3c10:	1d000000 	stcne	0, cr0, [r0, #-0]
    3c14:	08010504 	stmdaeq	r1, {r2, r8, sl}
    3c18:	000000a7 	andeq	r0, r0, r7, lsr #1
    3c1c:	0230041e 	eorseq	r0, r0, #503316480	; 0x1e000000
    3c20:	2109021d 	tstcs	r9, sp, lsl r2
    3c24:	0f000008 	svceq	0x00000008
    3c28:	00000dbe 			; <UNDEFINED> instruction: 0x00000dbe
    3c2c:	12021f02 	andne	r1, r2, #2, 30
    3c30:	00000821 	andeq	r0, r0, r1, lsr #16
    3c34:	117e0200 	cmnne	lr, r0, lsl #4
    3c38:	02200000 	eoreq	r0, r0, #0
    3c3c:	00000072 	andeq	r0, r0, r2, ror r0
    3c40:	91021000 	mrsls	r1, (UNDEF: 2)
    3c44:	21000009 	tstcs	r0, r9
    3c48:	00007702 	andeq	r7, r0, r2, lsl #14
    3c4c:	02100400 	andseq	r0, r0, #0, 8
    3c50:	00000808 	andeq	r0, r0, r8, lsl #16
    3c54:	00770222 	rsbseq	r0, r7, r2, lsr #4
    3c58:	10080000 	andne	r0, r8, r0
    3c5c:	000dc802 	andeq	ip, sp, r2, lsl #16
    3c60:	32022300 	andcc	r2, r2, #0, 6
    3c64:	0c000008 	stceq	0, cr0, [r0], {8}
    3c68:	0eb50210 	mrceq	2, 5, r0, cr5, cr0, {0}
    3c6c:	02240000 	eoreq	r0, r4, #0
    3c70:	000004b8 			; <UNDEFINED> instruction: 0x000004b8
    3c74:	d2021080 	andle	r1, r2, #128	; 0x80
    3c78:	2500000d 	strcs	r0, [r0, #-13]
    3c7c:	00084202 	andeq	r4, r8, r2, lsl #4
    3c80:	0210c000 	andseq	ip, r0, #0
    3c84:	00000c89 	andeq	r0, r0, r9, lsl #25
    3c88:	04b80226 	ldrteq	r0, [r8], #550	; 0x226
    3c8c:	11000000 	mrsne	r0, (UNDEF: 0)
    3c90:	000ddc02 	andeq	sp, sp, r2, lsl #24
    3c94:	42022700 	andmi	r2, r2, #0, 14
    3c98:	40000008 	andmi	r0, r0, r8
    3c9c:	0ef00211 	mrceq	2, 7, r0, cr0, cr1, {0}
    3ca0:	02280000 	eoreq	r0, r8, #0
    3ca4:	000004b8 			; <UNDEFINED> instruction: 0x000004b8
    3ca8:	e6021180 	str	r1, [r2], -r0, lsl #3
    3cac:	2900000d 	stmdbcs	r0, {r0, r2, r3}
    3cb0:	00084202 	andeq	r4, r8, r2, lsl #4
    3cb4:	0211c000 	andseq	ip, r1, #0
    3cb8:	00000b0d 	andeq	r0, r0, sp, lsl #22
    3cbc:	04b8022a 	ldrteq	r0, [r8], #554	; 0x22a
    3cc0:	12000000 	andne	r0, r0, #0
    3cc4:	000df002 	andeq	pc, sp, r2
    3cc8:	42022b00 	andmi	r2, r2, #0, 22
    3ccc:	40000008 	andmi	r0, r0, r8
    3cd0:	0efc0212 	mrceq	2, 7, r0, cr12, cr2, {0}
    3cd4:	022c0000 	eoreq	r0, ip, #0
    3cd8:	000004b8 			; <UNDEFINED> instruction: 0x000004b8
    3cdc:	fa021280 	blx	886e4 <shift+0x886e4>
    3ce0:	2d00000d 	stccs	0, cr0, [r0, #-52]	; 0xffffffcc
    3ce4:	00084202 	andeq	r4, r8, r2, lsl #4
    3ce8:	0212c000 	andseq	ip, r2, #0
    3cec:	000006b1 			; <UNDEFINED> instruction: 0x000006b1
    3cf0:	04b8022e 	ldrteq	r0, [r8], #558	; 0x22e
    3cf4:	13000000 	movwne	r0, #0
    3cf8:	000e0402 	andeq	r0, lr, r2, lsl #8
    3cfc:	42022f00 	andmi	r2, r2, #0, 30
    3d00:	40000008 	andmi	r0, r0, r8
    3d04:	08ed0213 	stmiaeq	sp!, {r0, r1, r4, r9}^
    3d08:	02300000 	eorseq	r0, r0, #0
    3d0c:	000004b8 			; <UNDEFINED> instruction: 0x000004b8
    3d10:	74021380 	strvc	r1, [r2], #-896	; 0xfffffc80
    3d14:	31000008 	tstcc	r0, r8
    3d18:	00084202 	andeq	r4, r8, r2, lsl #4
    3d1c:	0213c000 	andseq	ip, r3, #0
    3d20:	00001116 	andeq	r1, r0, r6, lsl r1
    3d24:	08630232 	stmdaeq	r3!, {r1, r4, r5, r9}^
    3d28:	14000000 	strne	r0, [r0], #-0
    3d2c:	000e1602 	andeq	r1, lr, r2, lsl #12
    3d30:	68023300 	stmdavs	r2, {r8, r9, ip, sp}
    3d34:	00000008 	andeq	r0, r0, r8
    3d38:	0ff80216 	svceq	0x00f80216
    3d3c:	02340000 	eorseq	r0, r4, #0
    3d40:	00000863 	andeq	r0, r0, r3, ror #16
    3d44:	29021800 	stmdbcs	r2, {fp, ip}
    3d48:	35000010 	strcc	r0, [r0, #-16]
    3d4c:	00086802 	andeq	r6, r8, r2, lsl #16
    3d50:	021a0000 	andseq	r0, sl, #0
    3d54:	00000d7c 	andeq	r0, r0, ip, ror sp
    3d58:	04a30236 	strteq	r0, [r3], #566	; 0x236
    3d5c:	1c000000 	stcne	0, cr0, [r0], {-0}
    3d60:	00103402 	andseq	r3, r0, r2, lsl #8
    3d64:	78023700 	stmdavc	r2, {r8, r9, sl, ip, sp}
    3d68:	80000008 	andhi	r0, r0, r8
    3d6c:	0e0e021c 	mcreq	2, 0, r0, cr14, cr12, {0}
    3d70:	02380000 	eorseq	r0, r8, #0
    3d74:	00000077 	andeq	r0, r0, r7, ror r0
    3d78:	63021d00 	movwvs	r1, #11520	; 0x2d00
    3d7c:	3900000d 	stmdbcc	r0, {r0, r2, r3}
    3d80:	00089d02 	andeq	r9, r8, r2, lsl #26
    3d84:	021d0400 	andseq	r0, sp, #0, 8
    3d88:	0000103f 	andeq	r1, r0, pc, lsr r0
    3d8c:	08a2023a 	stmiaeq	r2!, {r1, r3, r4, r5, r9}
    3d90:	1d400000 	stclne	0, cr0, [r0, #-0]
    3d94:	000bc202 	andeq	ip, fp, r2, lsl #4
    3d98:	72023b00 	andvc	r3, r2, #0, 22
    3d9c:	00000000 	andeq	r0, r0, r0
    3da0:	08a3021f 	stmiaeq	r3!, {r0, r1, r2, r3, r4, r9}
    3da4:	023c0000 	eorseq	r0, ip, #0
    3da8:	000008b2 			; <UNDEFINED> instruction: 0x000008b2
    3dac:	04021f04 	streq	r1, [r2], #-3844	; 0xfffff0fc
    3db0:	3d000010 	stccc	0, cr0, [r0, #-64]	; 0xffffffc0
    3db4:	0008d202 	andeq	sp, r8, r2, lsl #4
    3db8:	021f1000 	andseq	r1, pc, #0
    3dbc:	00000af1 	strdeq	r0, [r0], -r1
    3dc0:	08d2023e 	ldmeq	r2, {r1, r2, r3, r4, r5, r9}^
    3dc4:	1f200000 	svcne	0x00200000
    3dc8:	00104a02 	andseq	r4, r0, r2, lsl #20
    3dcc:	d7023f00 	strle	r3, [r2, -r0, lsl #30]
    3dd0:	30000008 	andcc	r0, r0, r8
    3dd4:	0cb5021f 	lfmeq	f0, 4, [r5], #124	; 0x7c
    3dd8:	02400000 	subeq	r0, r0, #0
    3ddc:	00000077 	andeq	r0, r0, r7, ror r0
    3de0:	bd021fd0 	stclt	15, cr1, [r2, #-832]	; 0xfffffcc0
    3de4:	4100000c 	tstmi	r0, ip
    3de8:	00007702 	andeq	r7, r0, r2, lsl #14
    3dec:	021fd400 	andseq	sp, pc, #0, 8
    3df0:	00000cc5 	andeq	r0, r0, r5, asr #25
    3df4:	00770242 	rsbseq	r0, r7, r2, asr #4
    3df8:	1fd80000 	svcne	0x00d80000
    3dfc:	000ccd02 	andeq	ip, ip, r2, lsl #26
    3e00:	77024300 	strvc	r4, [r2, -r0, lsl #6]
    3e04:	dc000000 	stcle	0, cr0, [r0], {-0}
    3e08:	0c95021f 	lfmeq	f0, 4, [r5], {31}
    3e0c:	02440000 	subeq	r0, r4, #0
    3e10:	00000077 	andeq	r0, r0, r7, ror r0
    3e14:	9d021fe0 	stcls	15, cr1, [r2, #-896]	; 0xfffffc80
    3e18:	4500000c 	strmi	r0, [r0, #-12]
    3e1c:	00007702 	andeq	r7, r0, r2, lsl #14
    3e20:	021fe400 	andseq	lr, pc, #0, 8
    3e24:	00000ca5 	andeq	r0, r0, r5, lsr #25
    3e28:	00770246 	rsbseq	r0, r7, r6, asr #4
    3e2c:	1fe80000 	svcne	0x00e80000
    3e30:	000cad02 	andeq	sl, ip, r2, lsl #26
    3e34:	77024700 	strvc	r4, [r2, -r0, lsl #14]
    3e38:	ec000000 	stc	0, cr0, [r0], {-0}
    3e3c:	06cb021f 			; <UNDEFINED> instruction: 0x06cb021f
    3e40:	02480000 	subeq	r0, r8, #0
    3e44:	00000077 	andeq	r0, r0, r7, ror r0
    3e48:	d3021ff0 	movwle	r1, #12272	; 0x2ff0
    3e4c:	49000006 	stmdbmi	r0, {r1, r2}
    3e50:	00007702 	andeq	r7, r0, r2, lsl #14
    3e54:	021ff400 	andseq	pc, pc, #0, 8
    3e58:	000006db 	ldrdeq	r0, [r0], -fp
    3e5c:	0077024a 	rsbseq	r0, r7, sl, asr #4
    3e60:	1ff80000 	svcne	0x00f80000
    3e64:	0006e302 	andeq	lr, r6, r2, lsl #6
    3e68:	77024b00 	strvc	r4, [r2, -r0, lsl #22]
    3e6c:	fc000000 	stc2	0, cr0, [r0], {-0}
    3e70:	119a021f 	orrsne	r0, sl, pc, lsl r2
    3e74:	024d0000 	subeq	r0, sp, #0
    3e78:	00000072 	andeq	r0, r0, r2, ror r0
    3e7c:	db022000 	blle	8be84 <shift+0x8be84>
    3e80:	4e000008 	cdpmi	0, 0, cr0, cr0, cr8, {0}
    3e84:	00007202 	andeq	r7, r0, r2, lsl #4
    3e88:	02200400 	eoreq	r0, r0, #0, 8
    3e8c:	000010cc 	andeq	r1, r0, ip, asr #1
    3e90:	0072024f 	rsbseq	r0, r2, pc, asr #4
    3e94:	20080000 	andcs	r0, r8, r0
    3e98:	000e8f02 	andeq	r8, lr, r2, lsl #30
    3e9c:	77025000 	strvc	r5, [r2, -r0]
    3ea0:	0c000000 	stceq	0, cr0, [r0], {-0}
    3ea4:	116c0220 	cmnne	ip, r0, lsr #4
    3ea8:	02510000 	subseq	r0, r1, #0
    3eac:	00000072 	andeq	r0, r0, r2, ror r0
    3eb0:	ae022010 	mcrge	0, 0, r2, cr2, cr0, {0}
    3eb4:	52000008 	andpl	r0, r0, #8
    3eb8:	00007702 	andeq	r7, r0, r2, lsl #14
    3ebc:	02201400 	eoreq	r1, r0, #0, 8
    3ec0:	00000623 	andeq	r0, r0, r3, lsr #12
    3ec4:	00770253 	rsbseq	r0, r7, r3, asr r2
    3ec8:	20180000 	andscs	r0, r8, r0
    3ecc:	00114002 	andseq	r4, r1, r2
    3ed0:	72025400 	andvc	r5, r2, #0, 8
    3ed4:	1c000000 	stcne	0, cr0, [r0], {-0}
    3ed8:	0ed00220 	cdpeq	2, 13, cr0, cr0, cr0, {1}
    3edc:	02550000 	subseq	r0, r5, #0
    3ee0:	00000077 	andeq	r0, r0, r7, ror r0
    3ee4:	95022020 	strls	r2, [r2, #-32]	; 0xffffffe0
    3ee8:	5600000e 	strpl	r0, [r0], -lr
    3eec:	00007202 	andeq	r7, r0, r2, lsl #4
    3ef0:	02202400 	eoreq	r2, r0, #0, 8
    3ef4:	00000b48 	andeq	r0, r0, r8, asr #22
    3ef8:	00770257 	rsbseq	r0, r7, r7, asr r2
    3efc:	20280000 	eorcs	r0, r8, r0
    3f00:	00105502 	andseq	r5, r0, r2, lsl #10
    3f04:	e7025800 	str	r5, [r2, -r0, lsl #16]
    3f08:	2c000008 	stccs	0, cr0, [r0], {8}
    3f0c:	0d3d0220 	lfmeq	f0, 4, [sp, #-128]!	; 0xffffff80
    3f10:	02590000 	subseq	r0, r9, #0
    3f14:	00000072 	andeq	r0, r0, r2, ror r0
    3f18:	600220d0 	ldrdvs	r2, [r2], -r0
    3f1c:	5a000010 	bpl	3f64 <shift+0x3f64>
    3f20:	0008b202 	andeq	fp, r8, r2, lsl #4
    3f24:	0220d400 	eoreq	sp, r0, #0, 8
    3f28:	00000e9d 	muleq	r0, sp, lr
    3f2c:	0072025b 	rsbseq	r0, r2, fp, asr r2
    3f30:	20e00000 	rsccs	r0, r0, r0
    3f34:	00106b02 	andseq	r6, r0, r2, lsl #22
    3f38:	f7025c00 			; <UNDEFINED> instruction: 0xf7025c00
    3f3c:	e4000008 	str	r0, [r0], #-8
    3f40:	0cd50220 	lfmeq	f0, 2, [r5], {32}
    3f44:	025d0000 	subseq	r0, sp, #0
    3f48:	00000077 	andeq	r0, r0, r7, ror r0
    3f4c:	760220fc 			; <UNDEFINED> instruction: 0x760220fc
    3f50:	5e000010 	mcrpl	0, 0, r0, cr0, cr0, {0}
    3f54:	00090702 	andeq	r0, r9, r2, lsl #14
    3f58:	02210000 	eoreq	r0, r1, #0
    3f5c:	0000087e 	andeq	r0, r0, lr, ror r8
    3f60:	0072025f 	rsbseq	r0, r2, pc, asr r2
    3f64:	30000000 	andcc	r0, r0, r0
    3f68:	00660300 	rsbeq	r0, r6, r0, lsl #6
    3f6c:	08320000 	ldmdaeq	r2!, {}	; <UNPREDICTABLE>
    3f70:	7c0b0000 	stcvc	0, cr0, [fp], {-0}
    3f74:	ff000000 			; <UNDEFINED> instruction: 0xff000000
    3f78:	66030003 	strvs	r0, [r3], -r3
    3f7c:	42000000 	andmi	r0, r0, #0
    3f80:	04000008 	streq	r0, [r0], #-8
    3f84:	0000007c 	andeq	r0, r0, ip, ror r0
    3f88:	6603001c 			; <UNDEFINED> instruction: 0x6603001c
    3f8c:	52000000 	andpl	r0, r0, #0
    3f90:	04000008 	streq	r0, [r0], #-8
    3f94:	0000007c 	andeq	r0, r0, ip, ror r0
    3f98:	5303000f 	movwpl	r0, #12303	; 0x300f
    3f9c:	63000000 	movwvs	r0, #0
    3fa0:	0b000008 	bleq	3fc8 <shift+0x3fc8>
    3fa4:	0000007c 	andeq	r0, r0, ip, ror r0
    3fa8:	060001ff 			; <UNDEFINED> instruction: 0x060001ff
    3fac:	00000852 	andeq	r0, r0, r2, asr r8
    3fb0:	00006603 	andeq	r6, r0, r3, lsl #12
    3fb4:	00087800 	andeq	r7, r8, r0, lsl #16
    3fb8:	007c0400 	rsbseq	r0, ip, r0, lsl #8
    3fbc:	007f0000 	rsbseq	r0, pc, r0
    3fc0:	00006603 	andeq	r6, r0, r3, lsl #12
    3fc4:	00088800 	andeq	r8, r8, r0, lsl #16
    3fc8:	007c0400 	rsbseq	r0, ip, r0, lsl #8
    3fcc:	001f0000 	andseq	r0, pc, r0
    3fd0:	00007703 	andeq	r7, r0, r3, lsl #14
    3fd4:	00089800 	andeq	r9, r8, r0, lsl #16
    3fd8:	007c0400 	rsbseq	r0, ip, r0, lsl #8
    3fdc:	000e0000 	andeq	r0, lr, r0
    3fe0:	0008880e 	andeq	r8, r8, lr, lsl #16
    3fe4:	08980600 	ldmeq	r8, {r9, sl}
    3fe8:	66030000 	strvs	r0, [r3], -r0
    3fec:	b2000000 	andlt	r0, r0, #0
    3ff0:	04000008 	streq	r0, [r0], #-8
    3ff4:	0000007c 	andeq	r0, r0, ip, ror r0
    3ff8:	6603006f 	strvs	r0, [r3], -pc, rrx
    3ffc:	c2000000 	andgt	r0, r0, #0
    4000:	04000008 	streq	r0, [r0], #-8
    4004:	0000007c 	andeq	r0, r0, ip, ror r0
    4008:	53030002 	movwpl	r0, #12290	; 0x3002
    400c:	d2000000 	andle	r0, r0, #0
    4010:	04000008 	streq	r0, [r0], #-8
    4014:	0000007c 	andeq	r0, r0, ip, ror r0
    4018:	c206000f 	andgt	r0, r6, #15
    401c:	03000008 	movweq	r0, #8
    4020:	00000066 	andeq	r0, r0, r6, rrx
    4024:	000008e7 	andeq	r0, r0, r7, ror #17
    4028:	00007c04 	andeq	r7, r0, r4, lsl #24
    402c:	03002700 	movweq	r2, #1792	; 0x700
    4030:	00000066 	andeq	r0, r0, r6, rrx
    4034:	000008f7 	strdeq	r0, [r0], -r7
    4038:	00007c04 	andeq	r7, r0, r4, lsl #24
    403c:	03002800 	movweq	r2, #2048	; 0x800
    4040:	00000066 	andeq	r0, r0, r6, rrx
    4044:	00000907 	andeq	r0, r0, r7, lsl #18
    4048:	00007c04 	andeq	r7, r0, r4, lsl #24
    404c:	03000500 	movweq	r0, #1280	; 0x500
    4050:	00000066 	andeq	r0, r0, r6, rrx
    4054:	00000918 	andeq	r0, r0, r8, lsl r9
    4058:	00007c0b 	andeq	r7, r0, fp, lsl #24
    405c:	0003bf00 	andeq	fp, r3, r0, lsl #30
    4060:	000a3e10 	andeq	r3, sl, r0, lsl lr
    4064:	02600200 	rsbeq	r0, r0, #0, 4
    4068:	000004d4 	ldrdeq	r0, [r0], -r4
    406c:	000fbe08 	andeq	fp, pc, r8, lsl #28
    4070:	10060500 	andne	r0, r6, r0, lsl #10
    4074:	00000930 	andeq	r0, r0, r0, lsr r9
    4078:	00093511 	andeq	r3, r9, r1, lsl r5
    407c:	09451f00 	stmdbeq	r5, {r8, r9, sl, fp, ip}^
    4080:	7c070000 	stcvc	0, cr0, [r7], {-0}
    4084:	07000000 	streq	r0, [r0, -r0]
    4088:	000004cb 	andeq	r0, r0, fp, asr #9
    408c:	19d71200 	ldmibne	r7, {r9, ip}^
    4090:	0d060000 	stceq	0, cr0, [r6, #-0]
    4094:	00000956 	andeq	r0, r0, r6, asr r9
    4098:	00005807 	andeq	r5, r0, r7, lsl #16
    409c:	51120000 	tstpl	r2, r0
    40a0:	05000011 	streq	r0, [r0, #-17]	; 0xffffffef
    40a4:	00097106 	andeq	r7, r9, r6, lsl #2
    40a8:	04350700 	ldrteq	r0, [r5], #-1792	; 0xfffff900
    40ac:	24070000 	strcs	r0, [r7], #-0
    40b0:	07000009 	streq	r0, [r0, -r9]
    40b4:	000004cb 	andeq	r0, r0, fp, asr #9
    40b8:	1a232000 	bne	8cc0c0 <shift+0x8cc0c0>
    40bc:	2f010000 	svccs	0x00010000
    40c0:	00126c06 	andseq	r6, r2, r6, lsl #24
    40c4:	00002280 	andeq	r2, r0, r0, lsl #5
    40c8:	219c0100 	orrscs	r0, ip, r0, lsl #2
    40cc:	00001a18 	andeq	r1, r0, r8, lsl sl
    40d0:	94060c01 	strls	r0, [r6], #-3073	; 0xfffff3ff
    40d4:	d8800011 	stmle	r0, {r0, r4}
    40d8:	01000000 	mrseq	r0, (UNDEF: 0)
    40dc:	000a4e9c 	muleq	sl, ip, lr
    40e0:	19c81300 	stmibne	r8, {r8, r9, ip}^
    40e4:	7c1e0000 	ldcvc	0, cr0, [lr], {-0}
    40e8:	02000000 	andeq	r0, r0, #0
    40ec:	9c135491 	cfldrsls	mvf5, [r3], {145}	; 0x91
    40f0:	31000013 	tstcc	r0, r3, lsl r0
    40f4:	0000007c 	andeq	r0, r0, ip, ror r0
    40f8:	22509102 	subscs	r9, r0, #-2147483648	; 0x80000000
    40fc:	00000a82 	andeq	r0, r0, r2, lsl #21
    4100:	800011e2 	andhi	r1, r0, r2, ror #3
    4104:	00000032 	andeq	r0, r0, r2, lsr r0
    4108:	fe022201 	cdp2	2, 0, cr2, cr2, cr1, {0}
    410c:	0c000009 	stceq	0, cr0, [r0], {9}
    4110:	00000a8d 	andeq	r0, r0, sp, lsl #21
    4114:	0a649102 	beq	1928524 <shift+0x1928524>
    4118:	00000a99 	muleq	r0, r9, sl
    411c:	145c9102 	ldrbne	r9, [ip], #-258	; 0xfffffefe
    4120:	00000aa5 	andeq	r0, r0, r5, lsr #21
    4124:	800011e2 	andhi	r1, r0, r2, ror #3
    4128:	0000000a 	andeq	r0, r0, sl
    412c:	b3150287 	tstlt	r5, #1879048200	; 0x70000008
    4130:	e200000a 	and	r0, r0, #10
    4134:	08800011 	stmeq	r0, {r0, r4}
    4138:	0a000000 	beq	4140 <shift+0x4140>
    413c:	00000ab4 			; <UNDEFINED> instruction: 0x00000ab4
    4140:	00609102 	rsbeq	r9, r0, r2, lsl #2
    4144:	4e230000 	cdpmi	0, 2, cr0, cr3, cr0, {0}
    4148:	1400000a 	strne	r0, [r0], #-10
    414c:	28800012 	stmcs	r0, {r1, r4}
    4150:	01000000 	mrseq	r0, (UNDEF: 0)
    4154:	650c0223 	strvs	r0, [ip, #-547]	; 0xfffffddd
    4158:	0200000a 	andeq	r0, r0, #10
    415c:	590c7091 	stmdbpl	ip, {r0, r4, r7, ip, sp, lr}
    4160:	0200000a 	andeq	r0, r0, #10
    4164:	710a7491 			; <UNDEFINED> instruction: 0x710a7491
    4168:	0200000a 	andeq	r0, r0, #10
    416c:	a5146891 	ldrge	r6, [r4, #-2193]	; 0xfffff76f
    4170:	1400000a 	strne	r0, [r0], #-10
    4174:	0a800012 	beq	fe0041c4 <__bss_end+0x7dfff388>
    4178:	c8000000 	stmdagt	r0, {}	; <UNPREDICTABLE>
    417c:	0ab31502 	beq	fecc958c <__bss_end+0x7ecc4750>
    4180:	12140000 	andsne	r0, r4, #0
    4184:	00088000 	andeq	r8, r8, r0
    4188:	b40a0000 	strlt	r0, [sl], #-0
    418c:	0200000a 	andeq	r0, r0, #10
    4190:	00006c91 	muleq	r0, r1, ip
    4194:	dc160000 	ldcle	0, cr0, [r6], {-0}
    4198:	c6000019 			; <UNDEFINED> instruction: 0xc6000019
    419c:	000a7d02 	andeq	r7, sl, r2, lsl #26
    41a0:	0f930d00 	svceq	0x00930d00
    41a4:	02c60000 	sbceq	r0, r6, #0
    41a8:	0004353d 	andeq	r3, r4, sp, lsr r5
    41ac:	1a0f0d00 	bne	3c75b4 <shift+0x3c75b4>
    41b0:	02c60000 	sbceq	r0, r6, #0
    41b4:	0000664c 	andeq	r6, r0, ip, asr #12
    41b8:	69671700 	stmdbvs	r7!, {r8, r9, sl, ip}^
    41bc:	02c80063 	sbceq	r0, r8, #99	; 0x63
    41c0:	00000a7d 	andeq	r0, r0, sp, ror sl
    41c4:	09181100 	ldmdbeq	r8, {r8, ip}
    41c8:	84160000 	ldrhi	r0, [r6], #-0
    41cc:	85000008 	strhi	r0, [r0, #-8]
    41d0:	000aa502 	andeq	sl, sl, r2, lsl #10
    41d4:	0f930d00 	svceq	0x00930d00
    41d8:	02850000 	addeq	r0, r5, #0
    41dc:	0004353b 	andeq	r3, r4, fp, lsr r5
    41e0:	69671700 	stmdbvs	r7!, {r8, r9, sl, ip}^
    41e4:	02870063 	addeq	r0, r7, #99	; 0x63
    41e8:	00000a7d 	andeq	r0, r0, sp, ror sl
    41ec:	06792400 	ldrbteq	r2, [r9], -r0, lsl #8
    41f0:	0d020000 	stceq	0, cr0, [r2, #-0]
    41f4:	00662702 	rsbeq	r2, r6, r2, lsl #14
    41f8:	25030000 	strcs	r0, [r3, #-0]
    41fc:	00119426 	andseq	r9, r1, r6, lsr #8
    4200:	020f0200 	andeq	r0, pc, #0, 4
    4204:	0000660a 	andeq	r6, r0, sl, lsl #12
    4208:	00000000 	andeq	r0, r0, r0
    420c:	000004a2 	andeq	r0, r0, r2, lsr #9
    4210:	04010005 	streq	r0, [r1], #-5
    4214:	000010c9 	andeq	r1, r0, r9, asr #1
    4218:	0001060d 	andeq	r0, r1, sp, lsl #12
    421c:	1a511d00 	bne	144b624 <shift+0x144b624>
    4220:	00100000 	andseq	r0, r0, r0
    4224:	12900000 	addsne	r0, r0, #0
    4228:	06268000 	strteq	r8, [r6], -r0
    422c:	0cee0000 	stcleq	0, cr0, [lr]
    4230:	01030000 	mrseq	r0, (UNDEF: 3)
    4234:	0000a006 	andeq	sl, r0, r6
    4238:	05020300 	streq	r0, [r2, #-768]	; 0xfffffd00
    423c:	00000162 	andeq	r0, r0, r2, ror #2
    4240:	6905040e 	stmdbvs	r5, {r1, r2, r3, sl}
    4244:	0800746e 	stmdaeq	r0, {r1, r2, r3, r5, r6, sl, ip, sp, lr}
    4248:	00000265 	andeq	r0, r0, r5, ror #4
    424c:	0046170e 	subeq	r1, r6, lr, lsl #14
    4250:	01030000 	mrseq	r0, (UNDEF: 3)
    4254:	00009e08 	andeq	r9, r0, r8, lsl #28
    4258:	07020300 	streq	r0, [r2, -r0, lsl #6]
    425c:	000000eb 	andeq	r0, r0, fp, ror #1
    4260:	0000b608 	andeq	fp, r0, r8, lsl #12
    4264:	64161000 	ldrvs	r1, [r6], #-0
    4268:	0f000000 	svceq	0x00000000
    426c:	00000054 	andeq	r0, r0, r4, asr r0
    4270:	d3070403 	movwle	r0, #29699	; 0x7403
    4274:	08000000 	stmdaeq	r0, {}	; <UNPREDICTABLE>
    4278:	00001a48 	andeq	r1, r0, r8, asr #20
    427c:	00761c11 	rsbseq	r1, r6, r1, lsl ip
    4280:	08030000 	stmdaeq	r3, {}	; <UNPREDICTABLE>
    4284:	0000c907 	andeq	ip, r0, r7, lsl #18
    4288:	05080300 	streq	r0, [r8, #-768]	; 0xfffffd00
    428c:	0000004d 	andeq	r0, r0, sp, asr #32
    4290:	00003b10 	andeq	r3, r0, r0, lsl fp
    4294:	00009400 	andeq	r9, r0, r0, lsl #8
    4298:	00641100 	rsbeq	r1, r4, r0, lsl #2
    429c:	003b0000 	eorseq	r0, fp, r0
    42a0:	c604bc12 			; <UNDEFINED> instruction: 0xc604bc12
    42a4:	01970992 			; <UNDEFINED> instruction: 0x01970992
    42a8:	4e010000 	cdpmi	0, 0, cr0, cr1, cr0, {0}
    42ac:	c700001b 	smladgt	r0, fp, r0, r0
    42b0:	005f1192 			; <UNDEFINED> instruction: 0x005f1192
    42b4:	01000000 	mrseq	r0, (UNDEF: 0)
    42b8:	000003e9 	andeq	r0, r0, r9, ror #7
    42bc:	841092c8 	ldrhi	r9, [r0], #-712	; 0xfffffd38
    42c0:	04000000 	streq	r0, [r0], #-0
    42c4:	001ad501 	andseq	sp, sl, r1, lsl #10
    42c8:	1192c900 	orrsne	ip, r2, r0, lsl #18
    42cc:	0000005f 	andeq	r0, r0, pc, asr r0
    42d0:	03f40140 	mvnseq	r0, #64, 2
    42d4:	92ca0000 	sbcls	r0, sl, #0
    42d8:	00008410 	andeq	r8, r0, r0, lsl r4
    42dc:	34014400 	strcc	r4, [r1], #-1024	; 0xfffffc00
    42e0:	cb00001a 	blgt	4350 <shift+0x4350>
    42e4:	005f1192 			; <UNDEFINED> instruction: 0x005f1192
    42e8:	01800000 	orreq	r0, r0, r0
    42ec:	00001a39 	andeq	r1, r0, r9, lsr sl
    42f0:	5f1192cc 	svcpl	0x001192cc
    42f4:	84000000 	strhi	r0, [r0], #-0
    42f8:	001a3e01 	andseq	r3, sl, r1, lsl #28
    42fc:	1192cd00 	orrsne	ip, r2, r0, lsl #26
    4300:	0000005f 	andeq	r0, r0, pc, asr r0
    4304:	1a430188 	bne	10c492c <shift+0x10c492c>
    4308:	92ce0000 	sbcls	r0, lr, #0
    430c:	00005f11 	andeq	r5, r0, r1, lsl pc
    4310:	e8018c00 	stmda	r1, {sl, fp, pc}
    4314:	cf00001a 	svcgt	0x0000001a
    4318:	005f1192 			; <UNDEFINED> instruction: 0x005f1192
    431c:	01900000 	orrseq	r0, r0, r0
    4320:	00001ab1 			; <UNDEFINED> instruction: 0x00001ab1
    4324:	5f1192d0 	svcpl	0x001192d0
    4328:	94000000 	strls	r0, [r0], #-0
    432c:	001a6a01 	andseq	r6, sl, r1, lsl #20
    4330:	1192d100 	orrsne	sp, r2, r0, lsl #2
    4334:	0000005f 	andeq	r0, r0, pc, asr r0
    4338:	1a650198 	bne	19449a0 <shift+0x19449a0>
    433c:	92d20000 	sbcsls	r0, r2, #0
    4340:	00005f11 	andeq	r5, r0, r1, lsl pc
    4344:	e3019c00 	movw	r9, #7168	; 0x1c00
    4348:	d300001a 	movwle	r0, #26
    434c:	005f1192 			; <UNDEFINED> instruction: 0x005f1192
    4350:	01a00000 	moveq	r0, r0
    4354:	00001afd 	strdeq	r1, [r0], -sp
    4358:	5f1192d4 	svcpl	0x001192d4
    435c:	a4000000 	strge	r0, [r0], #-0
    4360:	001ab601 	andseq	fp, sl, r1, lsl #12
    4364:	1192d500 	orrsne	sp, r2, r0, lsl #10
    4368:	0000005f 	andeq	r0, r0, pc, asr r0
    436c:	1a6f01a8 	bne	1bc4a14 <shift+0x1bc4a14>
    4370:	92d60000 	sbcsls	r0, r6, #0
    4374:	00005f11 	andeq	r5, r0, r1, lsl pc
    4378:	f701ac00 			; <UNDEFINED> instruction: 0xf701ac00
    437c:	d700001a 	smladle	r0, sl, r0, r0
    4380:	005f1192 			; <UNDEFINED> instruction: 0x005f1192
    4384:	13b00000 	movsne	r0, #0
    4388:	00535455 	subseq	r5, r3, r5, asr r4
    438c:	1192d804 	orrsne	sp, r2, r4, lsl #16
    4390:	0000005f 	andeq	r0, r0, pc, asr r0
    4394:	1b6801b4 	blne	1a04a6c <shift+0x1a04a6c>
    4398:	92d90000 	sbcsls	r0, r9, #0
    439c:	00005f11 	andeq	r5, r0, r1, lsl pc
    43a0:	1400b800 	strne	fp, [r0], #-2048	; 0xfffff800
    43a4:	00001aed 	andeq	r1, r0, sp, ror #21
    43a8:	0392da04 	orrseq	sp, r2, #4, 20	; 0x4000
    43ac:	00000094 	muleq	r0, r4, r0
    43b0:	ce070403 	cdpgt	4, 0, cr0, cr7, cr3, {0}
    43b4:	03000000 	movweq	r0, #0
    43b8:	00520504 	subseq	r0, r2, r4, lsl #10
    43bc:	b7090000 	strlt	r0, [r9, -r0]
    43c0:	03000001 	movweq	r0, #1
    43c4:	00a70801 	adceq	r0, r7, r1, lsl #16
    43c8:	ab150000 	blge	5443d0 <shift+0x5443d0>
    43cc:	0200001a 	andeq	r0, r0, #26
    43d0:	a2060110 	andge	r0, r6, #16, 2
    43d4:	14800018 	strne	r0, [r0], #24
    43d8:	01000000 	mrseq	r0, (UNDEF: 0)
    43dc:	0001e69c 	muleq	r1, ip, r6
    43e0:	1a9f0200 	bne	fe7c4be8 <__bss_end+0x7e7bfdac>
    43e4:	10020000 	andne	r0, r2, r0
    43e8:	00341001 	eorseq	r1, r4, r1
    43ec:	91020000 	mrsls	r0, (UNDEF: 2)
    43f0:	7f160074 	svcvc	0x00160074
    43f4:	0200001a 	andeq	r0, r0, #26
    43f8:	460f0105 	strmi	r0, [pc], -r5, lsl #2
    43fc:	76000000 	strvc	r0, [r0], -r0
    4400:	2c800018 	stccs	0, cr0, [r0], {24}
    4404:	01000000 	mrseq	r0, (UNDEF: 0)
    4408:	1aa60a9c 	bne	fe986e80 <__bss_end+0x7e982044>
    440c:	48f80000 	ldmmi	r8!, {}^	; <UNPREDICTABLE>
    4410:	2e800018 	mcrcs	0, 4, r0, cr0, cr8, {0}
    4414:	01000000 	mrseq	r0, (UNDEF: 0)
    4418:	00022c9c 	muleq	r2, ip, ip
    441c:	74730b00 	ldrbtvc	r0, [r3], #-2816	; 0xfffff500
    4420:	11f80072 	mvnsne	r0, r2, ror r0
    4424:	000001b2 			; <UNDEFINED> instruction: 0x000001b2
    4428:	066c9102 	strbteq	r9, [ip], -r2, lsl #2
    442c:	08fa0070 	ldmeq	sl!, {r4, r5, r6}^
    4430:	000001b2 			; <UNDEFINED> instruction: 0x000001b2
    4434:	00749102 	rsbseq	r9, r4, r2, lsl #2
    4438:	0019d707 	andseq	sp, r9, r7, lsl #14
    443c:	1814ed00 	ldmdane	r4, {r8, sl, fp, sp, lr, pc}
    4440:	00348000 	eorseq	r8, r4, r0
    4444:	9c010000 	stcls	0, cr0, [r1], {-0}
    4448:	0000024d 	andeq	r0, r0, sp, asr #4
    444c:	ed00630b 	stc	3, cr6, [r0, #-44]	; 0xffffffd4
    4450:	00004619 	andeq	r4, r0, r9, lsl r6
    4454:	77910200 	ldrvc	r0, [r1, r0, lsl #4]
    4458:	1b020700 	blne	86060 <shift+0x86060>
    445c:	dee20000 	cdple	0, 14, cr0, cr2, cr0, {0}
    4460:	36800017 	pkhbtcc	r0, r0, r7
    4464:	01000000 	mrseq	r0, (UNDEF: 0)
    4468:	0002709c 	muleq	r2, ip, r0
    446c:	1d8d0500 	cfstr32ne	mvfx0, [sp]
    4470:	20e20000 	rsccs	r0, r2, r0
    4474:	00000270 	andeq	r0, r0, r0, ror r2
    4478:	00749102 	rsbseq	r9, r4, r2, lsl #2
    447c:	00019709 	andeq	r9, r1, r9, lsl #14
    4480:	1abb0700 	bne	feec6088 <__bss_end+0x7eec124c>
    4484:	bad80000 	blt	ff60448c <__bss_end+0x7f5ff650>
    4488:	24800017 	strcs	r0, [r0], #23
    448c:	01000000 	mrseq	r0, (UNDEF: 0)
    4490:	0002989c 	muleq	r2, ip, r8
    4494:	1d8d0500 	cfstr32ne	mvfx0, [sp]
    4498:	1dd80000 	ldclne	0, cr0, [r8]
    449c:	00000270 	andeq	r0, r0, r0, ror r2
    44a0:	00749102 	rsbseq	r9, r4, r2, lsl #2
    44a4:	001b1107 	andseq	r1, fp, r7, lsl #2
    44a8:	1796ce00 	ldrne	ip, [r6, r0, lsl #28]
    44ac:	00248000 	eoreq	r8, r4, r0
    44b0:	9c010000 	stcls	0, cr0, [r1], {-0}
    44b4:	000002bb 			; <UNDEFINED> instruction: 0x000002bb
    44b8:	001d8d05 	andseq	r8, sp, r5, lsl #26
    44bc:	701ece00 	andsvc	ip, lr, r0, lsl #28
    44c0:	02000002 	andeq	r0, r0, #2
    44c4:	0a007491 	beq	21710 <shift+0x21710>
    44c8:	00001a84 	andeq	r1, r0, r4, lsl #21
    44cc:	00142e64 	andseq	r2, r4, r4, ror #28
    44d0:	00036880 	andeq	r6, r3, r0, lsl #17
    44d4:	999c0100 	ldmibls	ip, {r8}
    44d8:	05000003 	streq	r0, [r0, #-3]
    44dc:	00001d8d 	andeq	r1, r0, sp, lsl #27
    44e0:	02702264 	rsbseq	r2, r0, #100, 4	; 0x40000006
    44e4:	91030000 	mrsls	r0, (UNDEF: 3)
    44e8:	8c057fa4 	stchi	15, cr7, [r5], {164}	; 0xa4
    44ec:	6400001a 	strvs	r0, [r0], #-26	; 0xffffffe6
    44f0:	00006435 	andeq	r6, r0, r5, lsr r4
    44f4:	a0910300 	addsge	r0, r1, r0, lsl #6
    44f8:	1b26057f 	blne	985afc <shift+0x985afc>
    44fc:	4c640000 	stclmi	0, cr0, [r4], #-0
    4500:	00000064 	andeq	r0, r0, r4, rrx
    4504:	7f9c9103 	svcvc	0x009c9103
    4508:	001a9504 	andseq	r9, sl, r4, lsl #10
    450c:	00546600 	subseq	r6, r4, r0, lsl #12
    4510:	91020000 	mrsls	r0, (UNDEF: 2)
    4514:	1b32045c 	blne	c8568c <shift+0xc8568c>
    4518:	54670000 	strbtpl	r0, [r7], #-0
    451c:	02000000 	andeq	r0, r0, #0
    4520:	1e045891 	mcrne	8, 0, r5, cr4, cr1, {4}
    4524:	6800001b 	stmdavs	r0, {r0, r1, r3, r4}
    4528:	00000054 	andeq	r0, r0, r4, asr r0
    452c:	04549102 	ldrbeq	r9, [r4], #-258	; 0xfffffefe
    4530:	00001a74 	andeq	r1, r0, r4, ror sl
    4534:	00005469 	andeq	r5, r0, r9, ror #8
    4538:	50910200 	addspl	r0, r1, r0, lsl #4
    453c:	001b5304 	andseq	r5, fp, r4, lsl #6
    4540:	00546a00 	subseq	r6, r4, r0, lsl #20
    4544:	91020000 	mrsls	r0, (UNDEF: 2)
    4548:	1ada0440 	bne	ff685650 <__bss_end+0x7f680814>
    454c:	6b6b0000 	blvs	1ac4554 <shift+0x1ac4554>
    4550:	03000000 	movweq	r0, #0
    4554:	047fb891 	ldrbteq	fp, [pc], #-2193	; 455c <shift+0x455c>
    4558:	00001ac7 	andeq	r1, r0, r7, asr #21
    455c:	00006b6c 	andeq	r6, r0, ip, ror #22
    4560:	48910200 	ldmmi	r1, {r9}
    4564:	001b3e04 	andseq	r3, fp, r4, lsl #28
    4568:	00546d00 	subseq	r6, r4, r0, lsl #26
    456c:	91020000 	mrsls	r0, (UNDEF: 2)
    4570:	14f41744 	ldrbtne	r1, [r4], #1860	; 0x744
    4574:	007e8000 	rsbseq	r8, lr, r0
    4578:	6d060000 	stcvs	0, cr0, [r6, #-0]
    457c:	54128200 	ldrpl	r8, [r2], #-512	; 0xfffffe00
    4580:	03000000 	movweq	r0, #0
    4584:	067fb491 			; <UNDEFINED> instruction: 0x067fb491
    4588:	1283006e 	addne	r0, r3, #110	; 0x6e
    458c:	00000054 	andeq	r0, r0, r4, asr r0
    4590:	7fb09103 	svcvc	0x00b09103
    4594:	78616d06 	stmdavc	r1!, {r1, r2, r8, sl, fp, sp, lr}^
    4598:	54128400 	ldrpl	r8, [r2], #-1024	; 0xfffffc00
    459c:	03000000 	movweq	r0, #0
    45a0:	007fac91 			; <UNDEFINED> instruction: 0x007fac91
    45a4:	1b5b0c00 	blne	16c75ac <shift+0x16c75ac>
    45a8:	9a440000 	bls	11045b0 <shift+0x11045b0>
    45ac:	94800013 	strls	r0, [r0], #19
    45b0:	01000000 	mrseq	r0, (UNDEF: 0)
    45b4:	00bf0c9c 	umlalseq	r0, pc, ip, ip	; <UNPREDICTABLE>
    45b8:	f4080000 	vst4.8	{d0-d3}, [r8], r0
    45bc:	a6800012 	pkhbtge	r0, r0, r2
    45c0:	01000000 	mrseq	r0, (UNDEF: 0)
    45c4:	05ac189c 	streq	r1, [ip, #2204]!	; 0x89c
    45c8:	44010000 	strmi	r0, [r1], #-0
    45cc:	12ce1404 	sbcne	r1, lr, #4, 8	; 0x4000000
    45d0:	00268000 	eoreq	r8, r6, r0
    45d4:	9c010000 	stcls	0, cr0, [r1], {-0}
    45d8:	00000431 	andeq	r0, r0, r1, lsr r4
    45dc:	00054302 	andeq	r4, r5, r2, lsl #6
    45e0:	04440100 	strbeq	r0, [r4], #-256	; 0xffffff00
    45e4:	00005431 	andeq	r5, r0, r1, lsr r4
    45e8:	74910200 	ldrvc	r0, [r1], #512	; 0x200
    45ec:	00051f02 	andeq	r1, r5, r2, lsl #30
    45f0:	04450100 	strbeq	r0, [r5], #-256	; 0xffffff00
    45f4:	00005431 	andeq	r5, r0, r1, lsr r4
    45f8:	70910200 	addsvc	r0, r1, r0, lsl #4
    45fc:	00052702 	andeq	r2, r5, r2, lsl #14
    4600:	04460100 	strbeq	r0, [r6], #-256	; 0xffffff00
    4604:	00005431 	andeq	r5, r0, r1, lsr r4
    4608:	6c910200 	lfmvs	f0, 4, [r1], {0}
    460c:	00057c02 	andeq	r7, r5, r2, lsl #24
    4610:	04470100 	strbeq	r0, [r7], #-256	; 0xffffff00
    4614:	00005431 	andeq	r5, r0, r1, lsr r4
    4618:	68910200 	ldmvs	r1, {r9}
    461c:	0005c002 	andeq	ip, r5, r2
    4620:	04480100 	strbeq	r0, [r8], #-256	; 0xffffff00
    4624:	00005431 	andeq	r5, r0, r1, lsr r4
    4628:	00910200 	addseq	r0, r1, r0, lsl #4
    462c:	0005cf02 	andeq	ip, r5, r2, lsl #30
    4630:	04490100 	strbeq	r0, [r9], #-256	; 0xffffff00
    4634:	00005431 	andeq	r5, r0, r1, lsr r4
    4638:	04910200 	ldreq	r0, [r1], #512	; 0x200
    463c:	05641900 	strbeq	r1, [r4, #-2304]!	; 0xfffff700
    4640:	24010000 	strcs	r0, [r1], #-0
    4644:	12901404 	addsne	r1, r0, #4, 8	; 0x4000000
    4648:	003e8000 	eorseq	r8, lr, r0
    464c:	9c010000 	stcls	0, cr0, [r1], {-0}
    4650:	00054302 	andeq	r4, r5, r2, lsl #6
    4654:	04240100 	strteq	r0, [r4], #-256	; 0xffffff00
    4658:	0000542e 	andeq	r5, r0, lr, lsr #8
    465c:	74910200 	ldrvc	r0, [r1], #512	; 0x200
    4660:	00051f02 	andeq	r1, r5, r2, lsl #30
    4664:	04250100 	strteq	r0, [r5], #-256	; 0xffffff00
    4668:	0000542e 	andeq	r5, r0, lr, lsr #8
    466c:	70910200 	addsvc	r0, r1, r0, lsl #4
    4670:	00052702 	andeq	r2, r5, r2, lsl #14
    4674:	04260100 	strteq	r0, [r6], #-256	; 0xffffff00
    4678:	0000542e 	andeq	r5, r0, lr, lsr #8
    467c:	6c910200 	lfmvs	f0, 4, [r1], {0}
    4680:	00057c02 	andeq	r7, r5, r2, lsl #24
    4684:	04270100 	strteq	r0, [r7], #-256	; 0xffffff00
    4688:	0000542e 	andeq	r5, r0, lr, lsr #8
    468c:	68910200 	ldmvs	r1, {r9}
    4690:	0005c002 	andeq	ip, r5, r2
    4694:	04280100 	strteq	r0, [r8], #-256	; 0xffffff00
    4698:	0000542e 	andeq	r5, r0, lr, lsr #8
    469c:	00910200 	addseq	r0, r1, r0, lsl #4
    46a0:	00055702 	andeq	r5, r5, r2, lsl #14
    46a4:	04290100 	strteq	r0, [r9], #-256	; 0xffffff00
    46a8:	0000542e 	andeq	r5, r0, lr, lsr #8
    46ac:	04910200 	ldreq	r0, [r1], #512	; 0x200
    46b0:	00620000 	rsbeq	r0, r2, r0
    46b4:	00050000 	andeq	r0, r5, r0
    46b8:	12850401 	addne	r0, r5, #16777216	; 0x1000000
    46bc:	06030000 	streq	r0, [r3], -r0
    46c0:	1d000001 	stcne	0, cr0, [r0, #-4]
    46c4:	00001b6d 	andeq	r1, r0, sp, ror #22
    46c8:	00000010 	andeq	r0, r0, r0, lsl r0
    46cc:	00000f6d 	andeq	r0, r0, sp, ror #30
    46d0:	00002901 	andeq	r2, r0, r1, lsl #18
    46d4:	00002900 	andeq	r2, r0, r0, lsl #18
    46d8:	02000400 	andeq	r0, r0, #0, 8
    46dc:	009e0801 	addseq	r0, lr, r1, lsl #16
    46e0:	7f050000 	svcvc	0x00050000
    46e4:	0100001b 	tsteq	r0, fp, lsl r0
    46e8:	001e160f 	andseq	r1, lr, pc, lsl #12
    46ec:	29010000 	stmdbcs	r1, {}	; <UNPREDICTABLE>
    46f0:	4c000000 	stcmi	0, cr0, [r0], {-0}
    46f4:	06000000 	streq	r0, [r0], -r0
    46f8:	0000004c 	andeq	r0, r0, ip, asr #32
    46fc:	040200ff 	streq	r0, [r2], #-255	; 0xffffff01
    4700:	0000d307 	andeq	sp, r0, r7, lsl #6
    4704:	00300700 	eorseq	r0, r0, r0, lsl #14
    4708:	09020000 	stmdbeq	r2, {}	; <UNPREDICTABLE>
    470c:	00003c0f 	andeq	r3, r0, pc, lsl #24
    4710:	24030500 	strcs	r0, [r3], #-1280	; 0xfffffb00
    4714:	00800040 	addeq	r0, r0, r0, asr #32
    4718:	000000b2 	strheq	r0, [r0], -r2
    471c:	04010005 	streq	r0, [r1], #-5
    4720:	000012db 	ldrdeq	r1, [r0], -fp
    4724:	00010603 	andeq	r0, r1, r3, lsl #12
    4728:	1b861d00 	blne	fe18bb30 <__bss_end+0x7e186cf4>
    472c:	00100000 	andseq	r0, r0, r0
    4730:	18b80000 	ldmne	r8!, {}	; <UNPREDICTABLE>
    4734:	017a8000 	cmneq	sl, r0
    4738:	0fb80000 	svceq	0x00b80000
    473c:	98040000 	stmdals	r4, {}	; <UNPREDICTABLE>
    4740:	0100001b 	tsteq	r0, fp, lsl r0
    4744:	00a30f15 	adceq	r0, r3, r5, lsl pc
    4748:	18b80000 	ldmne	r8!, {}	; <UNPREDICTABLE>
    474c:	017a8000 	cmneq	sl, r0
    4750:	9c010000 	stcls	0, cr0, [r1], {-0}
    4754:	000000a3 	andeq	r0, r0, r3, lsr #1
    4758:	01006e05 	tsteq	r0, r5, lsl #28
    475c:	00a92e15 	adceq	r2, r9, r5, lsl lr
    4760:	91030000 	mrsls	r0, (UNDEF: 3)
    4764:	8d067fb4 	stchi	15, cr7, [r6, #-720]	; 0xfffffd30
    4768:	0100001d 	tsteq	r0, sp, lsl r0
    476c:	00a33e15 	adceq	r3, r3, r5, lsl lr
    4770:	91030000 	mrsls	r0, (UNDEF: 3)
    4774:	72017fb0 	andvc	r7, r1, #176, 30	; 0x2c0
    4778:	17006d65 	strne	r6, [r0, -r5, ror #26]
    477c:	0000af15 	andeq	sl, r0, r5, lsl pc
    4780:	58910200 	ldmpl	r1, {r9}
    4784:	18006201 	stmdane	r0, {r0, r9, sp, lr}
    4788:	0000af15 	andeq	sl, r0, r5, lsl pc
    478c:	50910200 	addspl	r0, r1, r0, lsl #4
    4790:	73657201 	cmnvc	r5, #268435456	; 0x10000000
    4794:	af151900 	svcge	0x00151900
    4798:	02000000 	andeq	r0, r0, #0
    479c:	64014891 	strvs	r4, [r1], #-2193	; 0xfffff76f
    47a0:	af1a1900 	svcge	0x001a1900
    47a4:	02000000 	andeq	r0, r0, #0
    47a8:	a3074091 	movwge	r4, #28817	; 0x7091
    47ac:	0100001b 	tsteq	r0, fp, lsl r0
    47b0:	00a30f1a 	adceq	r0, r3, sl, lsl pc
    47b4:	91030000 	mrsls	r0, (UNDEF: 3)
    47b8:	02007fbc 	andeq	r7, r0, #188, 30	; 0x2f0
    47bc:	0000d304 	andeq	sp, r0, r4, lsl #6
    47c0:	af040800 	svcge	0x00040800
    47c4:	02000000 	andeq	r0, r0, #0
    47c8:	0000c908 	andeq	ip, r0, r8, lsl #18
    47cc:	01470000 	mrseq	r0, (UNDEF: 71)
    47d0:	00050000 	andeq	r0, r5, r0
    47d4:	13660401 	cmnne	r6, #16777216	; 0x1000000
    47d8:	06080000 	streq	r0, [r8], -r0
    47dc:	1d000001 	stcne	0, cr0, [r0, #-4]
    47e0:	00001ba8 	andeq	r1, r0, r8, lsr #23
    47e4:	00000010 	andeq	r0, r0, r0, lsl r0
    47e8:	80001a32 	andhi	r1, r0, r2, lsr sl
    47ec:	0000008a 	andeq	r0, r0, sl, lsl #1
    47f0:	0000104c 	andeq	r1, r0, ip, asr #32
    47f4:	9e080101 	adflse	f0, f0, f1
    47f8:	02000000 	andeq	r0, r0, #0
    47fc:	00001bc6 	andeq	r1, r0, r6, asr #23
    4800:	00381608 	eorseq	r1, r8, r8, lsl #12
    4804:	04090000 	streq	r0, [r9], #-0
    4808:	746e6905 	strbtvc	r6, [lr], #-2309	; 0xfffff6fb
    480c:	1bc50200 	blne	ff145014 <__bss_end+0x7f1401d8>
    4810:	16090000 	strne	r0, [r9], -r0
    4814:	0000004a 	andeq	r0, r0, sl, asr #32
    4818:	d3070401 	movwle	r0, #29697	; 0x7401
    481c:	02000000 	andeq	r0, r0, #0
    4820:	00002023 	andeq	r2, r0, r3, lsr #32
    4824:	005c160a 	subseq	r1, ip, sl, lsl #12
    4828:	08010000 	stmdaeq	r1, {}	; <UNPREDICTABLE>
    482c:	00004d05 	andeq	r4, r0, r5, lsl #26
    4830:	07080100 	streq	r0, [r8, -r0, lsl #2]
    4834:	000000c9 	andeq	r0, r0, r9, asr #1
    4838:	001bcd0a 	andseq	ip, fp, sl, lsl #26
    483c:	11020800 	tstne	r2, r0, lsl #16
    4840:	0000920a 	andeq	r9, r0, sl, lsl #4
    4844:	6f6c0b00 	svcvs	0x006c0b00
    4848:	11020077 	tstne	r2, r7, ror r0
    484c:	00002d1b 	andeq	r2, r0, fp, lsl sp
    4850:	a30c0000 	movwge	r0, #49152	; 0xc000
    4854:	0200001b 	andeq	r0, r0, #27
    4858:	002d2011 	eoreq	r2, sp, r1, lsl r0
    485c:	00040000 	andeq	r0, r4, r0
    4860:	1402080d 	strne	r0, [r2], #-2061	; 0xfffff7f3
    4864:	0000af09 	andeq	sl, r0, r9, lsl #30
    4868:	00730500 	rsbseq	r0, r3, r0, lsl #10
    486c:	006a1316 	rsbeq	r1, sl, r6, lsl r3
    4870:	6c050000 	stcvs	0, cr0, [r5], {-0}
    4874:	0a17006c 	beq	5c4a2c <shift+0x5c4a2c>
    4878:	00000051 	andeq	r0, r0, r1, asr r0
    487c:	1bdb0200 	blne	ff6c5084 <__bss_end+0x7f6c0248>
    4880:	03180000 	tsteq	r8, #0
    4884:	00000092 	muleq	r0, r2, r0
    4888:	001be30e 	andseq	lr, fp, lr, lsl #6
    488c:	013f0100 	teqeq	pc, r0, lsl #2
    4890:	00000051 	andeq	r0, r0, r1, asr r0
    4894:	80001a32 	andhi	r1, r0, r2, lsr sl
    4898:	0000008a 	andeq	r0, r0, sl, lsl #1
    489c:	75069c01 	strvc	r9, [r6, #-3073]	; 0xfffff3ff
    48a0:	00511200 	subseq	r1, r1, r0, lsl #4
    48a4:	91020000 	mrsls	r0, (UNDEF: 2)
    48a8:	00760650 	rsbseq	r0, r6, r0, asr r6
    48ac:	0000511c 	andeq	r5, r0, ip, lsl r1
    48b0:	48910200 	ldmmi	r1, {r9}
    48b4:	41007703 	tstmi	r0, r3, lsl #14
    48b8:	0000af0b 	andeq	sl, r0, fp, lsl #30
    48bc:	70910200 	addsvc	r0, r1, r0, lsl #4
    48c0:	00757503 	rsbseq	r7, r5, r3, lsl #10
    48c4:	00af0b42 	adceq	r0, pc, r2, asr #22
    48c8:	91020000 	mrsls	r0, (UNDEF: 2)
    48cc:	76760368 	ldrbtvc	r0, [r6], -r8, ror #6
    48d0:	af0f4200 	svcge	0x000f4200
    48d4:	02000000 	andeq	r0, r0, #0
    48d8:	50076091 	mulpl	r7, r1, r0
    48dc:	3e80001a 	mcrcc	0, 4, r0, cr0, cr10, {0}
    48e0:	03000000 	movweq	r0, #0
    48e4:	00775f5f 	rsbseq	r5, r7, pc, asr pc
    48e8:	00af0a47 	adceq	r0, pc, r7, asr #20
    48ec:	91020000 	mrsls	r0, (UNDEF: 2)
    48f0:	1a500758 	bne	1406658 <shift+0x1406658>
    48f4:	003a8000 	eorseq	r8, sl, r0
    48f8:	d6040000 	strle	r0, [r4], -r0
    48fc:	3f00001b 	svccc	0x0000001b
    4900:	04000000 	streq	r0, [r0], #-0
    4904:	00001bbb 			; <UNDEFINED> instruction: 0x00001bbb
    4908:	0000003f 	andeq	r0, r0, pc, lsr r0
    490c:	001bc004 	andseq	ip, fp, r4
    4910:	00003f00 	andeq	r3, r0, r0, lsl #30
    4914:	00000000 	andeq	r0, r0, r0
    4918:	00035b00 	andeq	r5, r3, r0, lsl #22
    491c:	01000500 	tsteq	r0, r0, lsl #10
    4920:	00144e04 	andseq	r4, r4, r4, lsl #28
    4924:	01060b00 	tsteq	r6, r0, lsl #22
    4928:	051d0000 	ldreq	r0, [sp, #-0]
    492c:	1000001c 	andne	r0, r0, ip, lsl r0
    4930:	bc000000 	stclt	0, cr0, [r0], {-0}
    4934:	e880001a 	stm	r0, {r1, r3, r4}
    4938:	d6000000 	strle	r0, [r0], -r0
    493c:	07000010 	smladeq	r0, r0, r0, r0
    4940:	00001bec 	andeq	r1, r0, ip, ror #23
    4944:	32160b02 	andscc	r0, r6, #2048	; 0x800
    4948:	02000000 	andeq	r0, r0, #0
    494c:	00d30704 	sbcseq	r0, r3, r4, lsl #14
    4950:	fd070000 	stc2	0, cr0, [r7, #-0]
    4954:	0300001b 	movweq	r0, #27
    4958:	00450f0e 	subeq	r0, r5, lr, lsl #30
    495c:	4a080000 	bmi	204964 <shift+0x204964>
    4960:	02000000 	andeq	r0, r0, #0
    4964:	00a70801 	adceq	r0, r7, r1, lsl #16
    4968:	4a0c0000 	bmi	304970 <shift+0x304970>
    496c:	02000000 	andeq	r0, r0, #0
    4970:	00a00601 	adceq	r0, r0, r1, lsl #12
    4974:	02020000 	andeq	r0, r2, #0
    4978:	00016205 	andeq	r6, r1, r5, lsl #4
    497c:	05040d00 	streq	r0, [r4, #-3328]	; 0xfffff300
    4980:	00746e69 	rsbseq	r6, r4, r9, ror #28
    4984:	9e080102 	adflse	f0, f0, f2
    4988:	02000000 	andeq	r0, r0, #0
    498c:	00eb0702 	rsceq	r0, fp, r2, lsl #14
    4990:	08020000 	stmdaeq	r2, {}	; <UNPREDICTABLE>
    4994:	0000c907 	andeq	ip, r0, r7, lsl #18
    4998:	05080200 	streq	r0, [r8, #-512]	; 0xfffffe00
    499c:	0000004d 	andeq	r0, r0, sp, asr #32
    49a0:	0017880e 	andseq	r8, r7, lr, lsl #16
    49a4:	32040700 	andcc	r0, r4, #0, 14
    49a8:	06000000 	streq	r0, [r0], -r0
    49ac:	0208061d 	andeq	r0, r8, #30408704	; 0x1d00000
    49b0:	5d010000 	stcpl	0, cr0, [r1, #-0]
    49b4:	00000014 	andeq	r0, r0, r4, lsl r0
    49b8:	0016aa01 	andseq	sl, r6, r1, lsl #20
    49bc:	48010100 	stmdami	r1, {r8}
    49c0:	04000018 	streq	r0, [r0], #-24	; 0xffffffe8
    49c4:	0016fa01 	andseq	pc, r6, r1, lsl #20
    49c8:	2c010500 	cfstr32cs	mvfx0, [r1], {-0}
    49cc:	06000015 			; <UNDEFINED> instruction: 0x06000015
    49d0:	0013fc01 	andseq	pc, r3, r1, lsl #24
    49d4:	d0010700 	andle	r0, r1, r0, lsl #14
    49d8:	08000017 	stmdaeq	r0, {r0, r1, r2, r4}
    49dc:	0018f001 	andseq	pc, r8, r1
    49e0:	95010900 	strls	r0, [r1, #-2304]	; 0xfffff700
    49e4:	0a000014 	beq	4a3c <shift+0x4a3c>
    49e8:	0017fb01 	andseq	pc, r7, r1, lsl #22
    49ec:	43010b00 	movwmi	r0, #6912	; 0x1b00
    49f0:	0c000019 	stceq	0, cr0, [r0], {25}
    49f4:	00179701 	andseq	r9, r7, r1, lsl #14
    49f8:	40010d00 	andmi	r0, r1, r0, lsl #26
    49fc:	0e000017 	mcreq	0, 0, r0, cr0, cr7, {0}
    4a00:	0017be01 	andseq	fp, r7, r1, lsl #28
    4a04:	a7010f00 	strge	r0, [r1, -r0, lsl #30]
    4a08:	10000014 	andne	r0, r0, r4, lsl r0
    4a0c:	00163501 	andseq	r3, r6, r1, lsl #10
    4a10:	dd011100 	stfles	f1, [r1, #-0]
    4a14:	12000018 	andne	r0, r0, #24
    4a18:	00141501 	andseq	r1, r4, r1, lsl #10
    4a1c:	08011300 	stmdaeq	r1, {r8, r9, ip}
    4a20:	14000016 	strne	r0, [r0], #-22	; 0xffffffea
    4a24:	0018cc01 	andseq	ip, r8, r1, lsl #24
    4a28:	72011500 	andvc	r1, r1, #0, 10
    4a2c:	16000015 			; <UNDEFINED> instruction: 0x16000015
    4a30:	0016bd01 	andseq	fp, r6, r1, lsl #26
    4a34:	e2011700 	and	r1, r1, #0, 14
    4a38:	18000014 	stmdane	r0, {r2, r4}
    4a3c:	00181d01 	andseq	r1, r8, r1, lsl #26
    4a40:	5b011900 	blpl	4ae48 <shift+0x4ae48>
    4a44:	1a000018 	bne	4aac <shift+0x4aac>
    4a48:	00180c01 	andseq	r0, r8, r1, lsl #24
    4a4c:	e7011b00 	str	r1, [r1, -r0, lsl #22]
    4a50:	1c000016 	stcne	0, cr0, [r0], {22}
    4a54:	00165801 	andseq	r5, r6, r1, lsl #16
    4a58:	26011d00 	strcs	r1, [r1], -r0, lsl #26
    4a5c:	23000014 	movwcs	r0, #20
    4a60:	0015f501 	andseq	pc, r5, r1, lsl #10
    4a64:	83012700 	movwhi	r2, #5888	; 0x1700
    4a68:	28000014 	stmdacs	r0, {r2, r4}
    4a6c:	00197001 	andseq	r7, r9, r1
    4a70:	51012900 	tstpl	r1, r0, lsl #18
    4a74:	2a000017 	bcs	4ad8 <shift+0x4ad8>
    4a78:	00191501 	andseq	r1, r9, r1, lsl #10
    4a7c:	2c012b00 			; <UNDEFINED> instruction: 0x2c012b00
    4a80:	2c000019 	stccs	0, cr0, [r0], {25}
    4a84:	00153e01 	andseq	r3, r5, r1, lsl #28
    4a88:	47012d00 	strmi	r2, [r1, -r0, lsl #26]
    4a8c:	32000016 	andcc	r0, r0, #22
    4a90:	0018a301 	andseq	sl, r8, r1, lsl #6
    4a94:	c6013300 	strgt	r3, [r1], -r0, lsl #6
    4a98:	34000015 	strcc	r0, [r0], #-21	; 0xffffffeb
    4a9c:	00159b01 	andseq	r9, r5, r1, lsl #22
    4aa0:	72013500 	andvc	r3, r1, #0, 10
    4aa4:	36000014 			; <UNDEFINED> instruction: 0x36000014
    4aa8:	0015da01 	andseq	sp, r5, r1, lsl #20
    4aac:	cd013700 	stcgt	7, cr3, [r1, #-0]
    4ab0:	38000014 	stmdacc	r0, {r2, r4}
    4ab4:	0018b501 	andseq	fp, r8, r1, lsl #10
    4ab8:	19013900 	stmdbne	r1, {r8, fp, ip, sp}
    4abc:	3a000016 	bcc	4b1c <shift+0x4b1c>
    4ac0:	00168301 	andseq	r8, r6, r1, lsl #6
    4ac4:	ab013b00 	blge	536cc <shift+0x536cc>
    4ac8:	3c000017 	stccc	0, cr0, [r0], {23}
    4acc:	00151b01 	andseq	r1, r5, r1, lsl #22
    4ad0:	bb013d00 	bllt	53ed8 <shift+0x53ed8>
    4ad4:	3e000014 	mcrcc	0, 0, r0, cr0, cr4, {0}
    4ad8:	00171201 	andseq	r1, r7, r1, lsl #4
    4adc:	e8013f00 	stmda	r1, {r8, r9, sl, fp, ip, sp}
    4ae0:	40000017 	andmi	r0, r0, r7, lsl r0
    4ae4:	00144a01 	andseq	r4, r4, r1, lsl #20
    4ae8:	06014100 	streq	r4, [r1], -r0, lsl #2
    4aec:	42000015 	andmi	r0, r0, #21
    4af0:	00195601 	andseq	r5, r9, r1, lsl #12
    4af4:	33014500 	movwcc	r4, #5376	; 0x1500
    4af8:	46000018 			; <UNDEFINED> instruction: 0x46000018
    4afc:	00155001 	andseq	r5, r5, r1
    4b00:	8f014700 	svchi	0x00014700
    4b04:	48000018 	stmdami	r0, {r3, r4}
    4b08:	00190301 	andseq	r0, r9, r1, lsl #6
    4b0c:	b0014900 	andlt	r4, r1, r0, lsl #18
    4b10:	62000015 	andvs	r0, r0, #21
    4b14:	00187501 	andseq	r7, r8, r1, lsl #10
    4b18:	65016300 	strvs	r6, [r1, #-768]	; 0xfffffd00
    4b1c:	64000017 	strvs	r0, [r0], #-23	; 0xffffffe9
    4b20:	07040200 	streq	r0, [r4, -r0, lsl #4]
    4b24:	000000ce 	andeq	r0, r0, lr, asr #1
    4b28:	52050402 	andpl	r0, r5, #33554432	; 0x2000000
    4b2c:	0f000000 	svceq	0x00000000
    4b30:	0000004a 	andeq	r0, r0, sl, asr #32
    4b34:	00000227 	andeq	r0, r0, r7, lsr #4
    4b38:	00003210 	andeq	r3, r0, r0, lsl r2
    4b3c:	0003ff00 	andeq	pc, r3, r0, lsl #30
    4b40:	001c2d04 	andseq	r2, ip, r4, lsl #26
    4b44:	160d0d00 	strne	r0, [sp], -r0, lsl #26
    4b48:	05000002 	streq	r0, [r0, #-2]
    4b4c:	00463803 	subeq	r3, r6, r3, lsl #16
    4b50:	1bf30480 	blne	ffcc5d58 <__bss_end+0x7fcc0f1c>
    4b54:	0d0e0000 	stceq	0, cr0, [lr, #-0]
    4b58:	00000216 	andeq	r0, r0, r6, lsl r2
    4b5c:	4a380305 	bmi	e05778 <shift+0xe05778>
    4b60:	38068000 	stmdacc	r6, {pc}
    4b64:	0400001c 	streq	r0, [r0], #-28	; 0xffffffe4
    4b68:	00640c10 	rsbeq	r0, r4, r0, lsl ip
    4b6c:	02690000 	rsbeq	r0, r9, #0
    4b70:	69030000 	stmdbvs	r3, {}	; <UNPREDICTABLE>
    4b74:	03000002 	movweq	r0, #2
    4b78:	00000269 	andeq	r0, r0, r9, ror #4
    4b7c:	00003903 	andeq	r3, r0, r3, lsl #18
    4b80:	51080000 	mrspl	r0, (UNDEF: 8)
    4b84:	11000000 	mrsne	r0, (UNDEF: 0)
    4b88:	00001a7f 	andeq	r1, r0, pc, ror sl
    4b8c:	6b160701 	blvs	586798 <shift+0x586798>
    4b90:	06000000 	streq	r0, [r0], -r0
    4b94:	00001c1d 	andeq	r1, r0, sp, lsl ip
    4b98:	260f3505 	strcs	r3, [pc], -r5, lsl #10
    4b9c:	90000000 	andls	r0, r0, r0
    4ba0:	03000002 	movweq	r0, #2
    4ba4:	00000269 	andeq	r0, r0, r9, ror #4
    4ba8:	19d71200 	ldmibne	r7, {r9, ip}^
    4bac:	06010000 	streq	r0, [r1], -r0
    4bb0:	0002a20d 	andeq	sl, r2, sp, lsl #4
    4bb4:	006b0300 	rsbeq	r0, fp, r0, lsl #6
    4bb8:	06000000 	streq	r0, [r0], -r0
    4bbc:	00001c24 	andeq	r1, r0, r4, lsr #24
    4bc0:	640c0e04 	strvs	r0, [ip], #-3588	; 0xfffff1fc
    4bc4:	c2000000 	andgt	r0, r0, #0
    4bc8:	03000002 	movweq	r0, #2
    4bcc:	00000045 	andeq	r0, r0, r5, asr #32
    4bd0:	00026903 	andeq	r6, r2, r3, lsl #18
    4bd4:	00390300 	eorseq	r0, r9, r0, lsl #6
    4bd8:	13000000 	movwne	r0, #0
    4bdc:	00001c3a 	andeq	r1, r0, sl, lsr ip
    4be0:	64052301 	strvs	r2, [r5], #-769	; 0xfffffcff
    4be4:	28000000 	stmdacs	r0, {}	; <UNPREDICTABLE>
    4be8:	7c80001b 	stcvc	0, cr0, [r0], {27}
    4bec:	01000000 	mrseq	r0, (UNDEF: 0)
    4bf0:	0003119c 	muleq	r3, ip, r1
    4bf4:	6d660900 			; <UNDEFINED> instruction: 0x6d660900
    4bf8:	69230074 	stmdbvs	r3!, {r2, r4, r5, r6}
    4bfc:	02000002 	andeq	r0, r0, #2
    4c00:	050a7091 	streq	r7, [sl, #-145]	; 0xffffff6f
    4c04:	06250069 	strteq	r0, [r5], -r9, rrx
    4c08:	00000064 	andeq	r0, r0, r4, rrx
    4c0c:	05649102 	strbeq	r9, [r4, #-258]!	; 0xfffffefe
    4c10:	10260063 	eorne	r0, r6, r3, rrx
    4c14:	0000006b 	andeq	r0, r0, fp, rrx
    4c18:	04639102 	strbteq	r9, [r3], #-258	; 0xfffffefe
    4c1c:	00001c18 	andeq	r1, r0, r8, lsl ip
    4c20:	00390a27 	eorseq	r0, r9, r7, lsr #20
    4c24:	91020000 	mrsls	r0, (UNDEF: 2)
    4c28:	eb14005c 	bl	504da0 <shift+0x504da0>
    4c2c:	0100001d 	tsteq	r0, sp, lsl r0
    4c30:	00640511 	rsbeq	r0, r4, r1, lsl r5
    4c34:	1abc0000 	bne	fef04c3c <__bss_end+0x7eeffe00>
    4c38:	006c8000 	rsbeq	r8, ip, r0
    4c3c:	9c010000 	stcls	0, cr0, [r1], {-0}
    4c40:	746d6609 	strbtvc	r6, [sp], #-1545	; 0xfffff9f7
    4c44:	02691100 	rsbeq	r1, r9, #0, 2
    4c48:	91020000 	mrsls	r0, (UNDEF: 2)
    4c4c:	69050a70 	stmdbvs	r5, {r4, r5, r6, r9, fp}
    4c50:	64061300 	strvs	r1, [r6], #-768	; 0xfffffd00
    4c54:	02000000 	andeq	r0, r0, #0
    4c58:	6c056491 	cfstrsvs	mvf6, [r5], {145}	; 0x91
    4c5c:	14006e65 	strne	r6, [r0], #-3685	; 0xfffff19b
    4c60:	00006406 	andeq	r6, r0, r6, lsl #8
    4c64:	5c910200 	lfmpl	f0, 4, [r1], {0}
    4c68:	001c1804 	andseq	r1, ip, r4, lsl #16
    4c6c:	390a1500 	stmdbcc	sl, {r8, sl, ip}
    4c70:	02000000 	andeq	r0, r0, #0
    4c74:	00006091 	muleq	r0, r1, r0
    4c78:	0000081a 	andeq	r0, r0, sl, lsl r8
    4c7c:	04010005 	streq	r0, [r1], #-5
    4c80:	00001584 	andeq	r1, r0, r4, lsl #11
    4c84:	00010611 	andeq	r0, r1, r1, lsl r6
    4c88:	1c8c1d00 	stcne	13, cr1, [ip], {0}
    4c8c:	00100000 	andseq	r0, r0, r0
    4c90:	1ba40000 	blne	fe904c98 <__bss_end+0x7e8ffe5c>
    4c94:	072e8000 	streq	r8, [lr, -r0]!
    4c98:	11d80000 	bicsne	r0, r8, r0
    4c9c:	31120000 	tstcc	r2, r0
    4ca0:	31000000 	mrscc	r0, (UNDEF: 0)
    4ca4:	13000000 	movwne	r0, #0
    4ca8:	08010b00 	stmdaeq	r1, {r8, r9, fp}
    4cac:	0000009e 	muleq	r0, lr, r0
    4cb0:	0000310d 	andeq	r3, r0, sp, lsl #2
    4cb4:	1b7f0e00 	blne	1fc84bc <shift+0x1fc84bc>
    4cb8:	0f010000 	svceq	0x00010000
    4cbc:	00002616 	andeq	r2, r0, r6, lsl r6
    4cc0:	1bec1400 	blne	ffb09cc8 <__bss_end+0x7fb04e8c>
    4cc4:	0b040000 	bleq	104ccc <shift+0x104ccc>
    4cc8:	00005516 	andeq	r5, r0, r6, lsl r5
    4ccc:	07040b00 	streq	r0, [r4, -r0, lsl #22]
    4cd0:	000000d3 	ldrdeq	r0, [r0], -r3
    4cd4:	001cc50e 	andseq	ip, ip, lr, lsl #10
    4cd8:	0f0a0300 	svceq	0x000a0300
    4cdc:	00000068 	andeq	r0, r0, r8, rrx
    4ce0:	00006d09 	andeq	r6, r0, r9, lsl #26
    4ce4:	08010b00 	stmdaeq	r1, {r8, r9, fp}
    4ce8:	000000a7 	andeq	r0, r0, r7, lsr #1
    4cec:	00006d0d 	andeq	r6, r0, sp, lsl #26
    4cf0:	005c1500 	subseq	r1, ip, r0, lsl #10
    4cf4:	38020000 	stmdacc	r2, {}	; <UNPREDICTABLE>
    4cf8:	38030508 	stmdacc	r3, {r3, r8, sl}
    4cfc:	0880004e 	stmeq	r0, {r1, r2, r3, r6}
    4d00:	00001ccf 	andeq	r1, r0, pc, asr #25
    4d04:	d607020a 	strle	r0, [r7], -sl, lsl #4
    4d08:	92000000 	andls	r0, r0, #0
    4d0c:	40800022 	addmi	r0, r0, r2, lsr #32
    4d10:	01000000 	mrseq	r0, (UNDEF: 0)
    4d14:	0000d69c 	muleq	r0, ip, r6
    4d18:	00730100 	rsbseq	r0, r3, r0, lsl #2
    4d1c:	d81a020a 	ldmdale	sl, {r1, r3, r9}
    4d20:	02000000 	andeq	r0, r0, #0
    4d24:	63016c91 	movwvs	r6, #7313	; 0x1c91
    4d28:	21020a00 	tstcs	r2, r0, lsl #20
    4d2c:	000000de 	ldrdeq	r0, [r0], -lr
    4d30:	01689102 	cmneq	r8, r2, lsl #2
    4d34:	020a006e 	andeq	r0, sl, #110	; 0x6e
    4d38:	0000492b 	andeq	r4, r0, fp, lsr #18
    4d3c:	64910200 	ldrvs	r0, [r1], #512	; 0x200
    4d40:	0c007003 	stceq	0, cr7, [r0], {3}
    4d44:	00e51702 	rsceq	r1, r5, r2, lsl #14
    4d48:	91020000 	mrsls	r0, (UNDEF: 2)
    4d4c:	04160074 	ldreq	r0, [r6], #-116	; 0xffffff8c
    4d50:	0000dd09 	andeq	sp, r0, r9, lsl #26
    4d54:	04181700 	ldreq	r1, [r8], #-1792	; 0xfffff900
    4d58:	746e6905 	strbtvc	r6, [lr], #-2309	; 0xfffff6fb
    4d5c:	00380900 	eorseq	r0, r8, r0, lsl #18
    4d60:	2c0c0000 	stccs	0, cr0, [ip], {-0}
    4d64:	ee00001d 	mcr	0, 0, r0, cr0, cr13, {0}
    4d68:	00006801 	andeq	r6, r0, r1, lsl #16
    4d6c:	00223400 	eoreq	r3, r2, r0, lsl #8
    4d70:	00005e80 	andeq	r5, r0, r0, lsl #29
    4d74:	3c9c0100 	ldfccs	f0, [ip], {0}
    4d78:	01000001 	tsteq	r0, r1
    4d7c:	ee003173 	mcr	1, 0, r3, cr0, cr3, {3}
    4d80:	013c1c01 	teqeq	ip, r1, lsl #24
    4d84:	91020000 	mrsls	r0, (UNDEF: 2)
    4d88:	3273016c 	rsbscc	r0, r3, #108, 2
    4d8c:	2c01ee00 	stccs	14, cr14, [r1], {-0}
    4d90:	0000013c 	andeq	r0, r0, ip, lsr r1
    4d94:	03689102 	cmneq	r8, #-2147483648	; 0x80000000
    4d98:	f000316c 			; <UNDEFINED> instruction: 0xf000316c
    4d9c:	00de0601 	sbcseq	r0, lr, r1, lsl #12
    4da0:	91020000 	mrsls	r0, (UNDEF: 2)
    4da4:	326c0374 	rsbcc	r0, ip, #116, 6	; 0xd0000001
    4da8:	0a01f000 	beq	80db0 <shift+0x80db0>
    4dac:	000000de 	ldrdeq	r0, [r0], -lr
    4db0:	00709102 	rsbseq	r9, r0, r2, lsl #2
    4db4:	00007409 	andeq	r7, r0, r9, lsl #8
    4db8:	1c5c0800 	mrrcne	8, 0, r0, ip, cr0
    4dbc:	01da0000 	bicseq	r0, sl, r0
    4dc0:	0000d608 	andeq	sp, r0, r8, lsl #12
    4dc4:	0021f200 	eoreq	pc, r1, r0, lsl #4
    4dc8:	00004280 	andeq	r4, r0, r0, lsl #5
    4dcc:	949c0100 	ldrls	r0, [ip], #256	; 0x100
    4dd0:	04000001 	streq	r0, [r0], #-1
    4dd4:	00001cb1 			; <UNDEFINED> instruction: 0x00001cb1
    4dd8:	d61701da 			; <UNDEFINED> instruction: 0xd61701da
    4ddc:	02000000 	andeq	r0, r0, #0
    4de0:	63016c91 	movwvs	r6, #7313	; 0x1c91
    4de4:	2101da00 	tstcs	r1, r0, lsl #20
    4de8:	000000de 	ldrdeq	r0, [r0], -lr
    4dec:	04689102 	strbteq	r9, [r8], #-258	; 0xfffffefe
    4df0:	00001d33 	andeq	r1, r0, r3, lsr sp
    4df4:	492b01da 	stmdbmi	fp!, {r1, r3, r4, r6, r7, r8}
    4df8:	02000000 	andeq	r0, r0, #0
    4dfc:	70036491 	mulvc	r3, r1, r4
    4e00:	1201dc00 	andne	sp, r1, #0, 24
    4e04:	00000194 	muleq	r0, r4, r1
    4e08:	00749102 	rsbseq	r9, r4, r2, lsl #2
    4e0c:	00003109 	andeq	r3, r0, r9, lsl #2
    4e10:	1c4f0800 	mcrrne	8, 0, r0, pc, cr0
    4e14:	01c40000 	biceq	r0, r4, r0
    4e18:	0000de05 	andeq	sp, r0, r5, lsl #28
    4e1c:	00219a00 	eoreq	r9, r1, r0, lsl #20
    4e20:	00005880 	andeq	r5, r0, r0, lsl #17
    4e24:	0c9c0100 	ldfeqs	f0, [ip], {0}
    4e28:	01000002 	tsteq	r0, r2
    4e2c:	c4007363 	strgt	r7, [r0], #-867	; 0xfffffc9d
    4e30:	00d81901 	sbcseq	r1, r8, r1, lsl #18
    4e34:	91020000 	mrsls	r0, (UNDEF: 2)
    4e38:	74630164 	strbtvc	r0, [r3], #-356	; 0xfffffe9c
    4e3c:	2901c400 	stmdbcs	r1, {sl, lr, pc}
    4e40:	000000d8 	ldrdeq	r0, [r0], -r8
    4e44:	04609102 	strbteq	r9, [r0], #-258	; 0xfffffefe
    4e48:	00001c56 	andeq	r1, r0, r6, asr ip
    4e4c:	493301c4 	ldmdbmi	r3!, {r2, r6, r7, r8}
    4e50:	02000000 	andeq	r0, r0, #0
    4e54:	73035c91 	movwvc	r5, #15505	; 0x3c91
    4e58:	c6003175 			; <UNDEFINED> instruction: 0xc6003175
    4e5c:	00e51701 	rsceq	r1, r5, r1, lsl #14
    4e60:	91020000 	mrsls	r0, (UNDEF: 2)
    4e64:	75730374 	ldrbvc	r0, [r3, #-884]!	; 0xfffffc8c
    4e68:	01c60032 	biceq	r0, r6, r2, lsr r0
    4e6c:	0000e51d 	andeq	lr, r0, sp, lsl r5
    4e70:	70910200 	addsvc	r0, r1, r0, lsl #4
    4e74:	73657203 	cmnvc	r5, #805306368	; 0x30000000
    4e78:	0601c700 	streq	ip, [r1], -r0, lsl #14
    4e7c:	000000de 	ldrdeq	r0, [r0], -lr
    4e80:	006c9102 	rsbeq	r9, ip, r2, lsl #2
    4e84:	001c4708 	andseq	r4, ip, r8, lsl #14
    4e88:	0801a800 	stmdaeq	r1, {fp, sp, pc}
    4e8c:	000000d6 	ldrdeq	r0, [r0], -r6
    4e90:	80002122 	andhi	r2, r0, r2, lsr #2
    4e94:	00000078 	andeq	r0, r0, r8, ror r0
    4e98:	02709c01 	rsbseq	r9, r0, #256	; 0x100
    4e9c:	9f040000 	svcls	0x00040000
    4ea0:	a800001c 	stmdage	r0, {r2, r3, r4}
    4ea4:	00d61701 	sbcseq	r1, r6, r1, lsl #14
    4ea8:	91020000 	mrsls	r0, (UNDEF: 2)
    4eac:	7273016c 	rsbsvc	r0, r3, #108, 2
    4eb0:	01a80063 			; <UNDEFINED> instruction: 0x01a80063
    4eb4:	0000d828 	andeq	sp, r0, r8, lsr #16
    4eb8:	68910200 	ldmvs	r1, {r9}
    4ebc:	001c5604 	andseq	r5, ip, r4, lsl #12
    4ec0:	3301a800 	movwcc	sl, #6144	; 0x1800
    4ec4:	00000049 	andeq	r0, r0, r9, asr #32
    4ec8:	03649102 	cmneq	r4, #-2147483648	; 0x80000000
    4ecc:	00706d74 	rsbseq	r6, r0, r4, ror sp
    4ed0:	680801aa 	stmdavs	r8, {r1, r3, r5, r7, r8}
    4ed4:	02000000 	andeq	r0, r0, #0
    4ed8:	73037491 	movwvc	r7, #13457	; 0x3491
    4edc:	0e01aa00 	vmlaeq.f32	s20, s2, s0
    4ee0:	00000068 	andeq	r0, r0, r8, rrx
    4ee4:	00709102 	rsbseq	r9, r0, r2, lsl #2
    4ee8:	001cff08 	andseq	pc, ip, r8, lsl #30
    4eec:	08019400 	stmdaeq	r1, {sl, ip, pc}
    4ef0:	000000d6 	ldrdeq	r0, [r0], -r6
    4ef4:	800020e4 	andhi	r2, r0, r4, ror #1
    4ef8:	0000003e 	andeq	r0, r0, lr, lsr r0
    4efc:	02d49c01 	sbcseq	r9, r4, #256	; 0x100
    4f00:	9f040000 	svcls	0x00040000
    4f04:	9400001c 	strls	r0, [r0], #-28	; 0xffffffe4
    4f08:	00d61601 	sbcseq	r1, r6, r1, lsl #12
    4f0c:	91020000 	mrsls	r0, (UNDEF: 2)
    4f10:	7273016c 	rsbsvc	r0, r3, #108, 2
    4f14:	01940063 	orrseq	r0, r4, r3, rrx
    4f18:	0000d827 	andeq	sp, r0, r7, lsr #16
    4f1c:	68910200 	ldmvs	r1, {r9}
    4f20:	001c5604 	andseq	r5, ip, r4, lsl #12
    4f24:	32019400 	andcc	r9, r1, #0, 8
    4f28:	00000049 	andeq	r0, r0, r9, asr #32
    4f2c:	03649102 	cmneq	r4, #-2147483648	; 0x80000000
    4f30:	00706d74 	rsbseq	r6, r0, r4, ror sp
    4f34:	68080196 	stmdavs	r8, {r1, r2, r4, r7, r8}
    4f38:	02000000 	andeq	r0, r0, #0
    4f3c:	73037491 	movwvc	r7, #13457	; 0x3491
    4f40:	1e019600 	cfmadd32ne	mvax0, mvfx9, mvfx1, mvfx0
    4f44:	00000068 	andeq	r0, r0, r8, rrx
    4f48:	00709102 	rsbseq	r9, r0, r2, lsl #2
    4f4c:	001ca419 	andseq	sl, ip, r9, lsl r4
    4f50:	01800200 	orreq	r0, r0, r0, lsl #4
    4f54:	0020a606 	eoreq	sl, r0, r6, lsl #12
    4f58:	00003e80 	andeq	r3, r0, r0, lsl #29
    4f5c:	379c0100 	ldrcc	r0, [ip, r0, lsl #2]
    4f60:	01000003 	tsteq	r0, r3
    4f64:	00637273 	rsbeq	r7, r3, r3, ror r2
    4f68:	d8180180 	ldmdale	r8, {r7, r8}
    4f6c:	02000000 	andeq	r0, r0, #0
    4f70:	9f046c91 	svcls	0x00046c91
    4f74:	8000001c 	andhi	r0, r0, ip, lsl r0
    4f78:	00d62301 	sbcseq	r2, r6, r1, lsl #6
    4f7c:	91020000 	mrsls	r0, (UNDEF: 2)
    4f80:	1c560468 	cfldrdne	mvd0, [r6], {104}	; 0x68
    4f84:	01800000 	orreq	r0, r0, r0
    4f88:	00004930 	andeq	r4, r0, r0, lsr r9
    4f8c:	64910200 	ldrvs	r0, [r1], #512	; 0x200
    4f90:	001c7c0a 	andseq	r7, ip, sl, lsl #24
    4f94:	08018200 	stmdaeq	r1, {r9, pc}
    4f98:	00000068 	andeq	r0, r0, r8, rrx
    4f9c:	0a749102 	beq	1d293ac <shift+0x1d293ac>
    4fa0:	00001d0d 	andeq	r1, r0, sp, lsl #26
    4fa4:	68080183 	stmdavs	r8, {r0, r1, r7, r8}
    4fa8:	02000000 	andeq	r0, r0, #0
    4fac:	08007091 	stmdaeq	r0, {r0, r4, r7, ip, sp, lr}
    4fb0:	00001d14 	andeq	r1, r0, r4, lsl sp
    4fb4:	d6080168 	strle	r0, [r8], -r8, ror #2
    4fb8:	70000000 	andvc	r0, r0, r0
    4fbc:	36800020 	strcc	r0, [r0], r0, lsr #32
    4fc0:	01000000 	mrseq	r0, (UNDEF: 0)
    4fc4:	0003899c 	muleq	r3, ip, r9
    4fc8:	00730100 	rsbseq	r0, r3, r0, lsl #2
    4fcc:	d6160168 	ldrle	r0, [r6], -r8, ror #2
    4fd0:	02000000 	andeq	r0, r0, #0
    4fd4:	63016c91 	movwvs	r6, #7313	; 0x1c91
    4fd8:	1c016800 	stcne	8, cr6, [r1], {-0}
    4fdc:	000000de 	ldrdeq	r0, [r0], -lr
    4fe0:	04689102 	strbteq	r9, [r8], #-258	; 0xfffffefe
    4fe4:	00001c56 	andeq	r1, r0, r6, asr ip
    4fe8:	49250168 	stmdbmi	r5!, {r3, r5, r6, r8}
    4fec:	02000000 	andeq	r0, r0, #0
    4ff0:	78036491 	stmdavc	r3, {r0, r4, r7, sl, sp, lr}
    4ff4:	016a0073 	smceq	40963	; 0xa003
    4ff8:	00006808 	andeq	r6, r0, r8, lsl #16
    4ffc:	74910200 	ldrvc	r0, [r1], #512	; 0x200
    5000:	1c400c00 	mcrrne	12, 0, r0, r0, cr0
    5004:	014f0000 	mrseq	r0, SPSR
    5008:	00000068 	andeq	r0, r0, r8, rrx
    500c:	8000202c 	andhi	r2, r0, ip, lsr #32
    5010:	00000044 	andeq	r0, r0, r4, asr #32
    5014:	03dc9c01 	bicseq	r9, ip, #256	; 0x100
    5018:	73010000 	movwvc	r0, #4096	; 0x1000
    501c:	16014f00 	strne	r4, [r1], -r0, lsl #30
    5020:	000003dc 	ldrdeq	r0, [r0], -ip
    5024:	016c9102 	cmneq	ip, r2, lsl #2
    5028:	4f007463 	svcmi	0x00007463
    502c:	013c2501 	teqeq	ip, r1, lsl #10
    5030:	91020000 	mrsls	r0, (UNDEF: 2)
    5034:	1d060a68 	vstrne	s0, [r6, #-416]	; 0xfffffe60
    5038:	01510000 	cmpeq	r1, r0
    503c:	00006808 	andeq	r6, r0, r8, lsl #16
    5040:	70910200 	addsvc	r0, r1, r0, lsl #4
    5044:	646e6503 	strbtvs	r6, [lr], #-1283	; 0xfffffafd
    5048:	16015100 	strne	r5, [r1], -r0, lsl #2
    504c:	00000068 	andeq	r0, r0, r8, rrx
    5050:	00749102 	rsbseq	r9, r4, r2, lsl #2
    5054:	00006809 	andeq	r6, r0, r9, lsl #16
    5058:	1cc80c00 	stclne	12, cr0, [r8], {0}
    505c:	012e0000 			; <UNDEFINED> instruction: 0x012e0000
    5060:	00000068 	andeq	r0, r0, r8, rrx
    5064:	80001fa2 	andhi	r1, r0, r2, lsr #31
    5068:	0000008a 	andeq	r0, r0, sl, lsl #1
    506c:	04349c01 	ldrteq	r9, [r4], #-3073	; 0xfffff3ff
    5070:	73010000 	movwvc	r0, #4096	; 0x1000
    5074:	16012e00 	strne	r2, [r1], -r0, lsl #28
    5078:	00000068 	andeq	r0, r0, r8, rrx
    507c:	016c9102 	cmneq	ip, r2, lsl #2
    5080:	2e007463 	cdpcs	4, 0, cr7, cr0, cr3, {3}
    5084:	013c2501 	teqeq	ip, r1, lsl #10
    5088:	91020000 	mrsls	r0, (UNDEF: 2)
    508c:	1d060a68 	vstrne	s0, [r6, #-416]	; 0xfffffe60
    5090:	01300000 	teqeq	r0, r0
    5094:	00006808 	andeq	r6, r0, r8, lsl #16
    5098:	70910200 	addsvc	r0, r1, r0, lsl #4
    509c:	001cdc0a 	andseq	sp, ip, sl, lsl #24
    50a0:	11013000 	mrsne	r3, (UNDEF: 1)
    50a4:	00000068 	andeq	r0, r0, r8, rrx
    50a8:	00749102 	rsbseq	r9, r4, r2, lsl #2
    50ac:	001cf008 	andseq	pc, ip, r8
    50b0:	08011800 	stmdaeq	r1, {fp, ip}
    50b4:	00000068 	andeq	r0, r0, r8, rrx
    50b8:	80001f52 	andhi	r1, r0, r2, asr pc
    50bc:	00000050 	andeq	r0, r0, r0, asr r0
    50c0:	04899c01 	streq	r9, [r9], #3073	; 0xc01
    50c4:	63010000 	movwvs	r0, #4096	; 0x1000
    50c8:	01180073 	tsteq	r8, r3, ror r0
    50cc:	00013c1d 	andeq	r3, r1, sp, lsl ip
    50d0:	6c910200 	lfmvs	f0, 4, [r1], {0}
    50d4:	00746301 	rsbseq	r6, r4, r1, lsl #6
    50d8:	3c2d0118 	stfccs	f0, [sp], #-96	; 0xffffffa0
    50dc:	02000001 	andeq	r0, r0, #1
    50e0:	73036891 	movwvc	r6, #14481	; 0x3891
    50e4:	1a003163 	bne	11678 <shift+0x11678>
    50e8:	013c0e01 	teqeq	ip, r1, lsl #28
    50ec:	91020000 	mrsls	r0, (UNDEF: 2)
    50f0:	63730374 	cmnvs	r3, #116, 6	; 0xd0000001
    50f4:	011a0032 	tsteq	sl, r2, lsr r0
    50f8:	00013c13 	andeq	r3, r1, r3, lsl ip
    50fc:	70910200 	addsvc	r0, r1, r0, lsl #4
    5100:	1cf80500 	cfldr64ne	mvdx0, [r8]
    5104:	08fe0000 	ldmeq	lr!, {}^	; <UNPREDICTABLE>
    5108:	00000049 	andeq	r0, r0, r9, asr #32
    510c:	80001eec 	andhi	r1, r0, ip, ror #29
    5110:	00000066 	andeq	r0, r0, r6, rrx
    5114:	04e79c01 	strbteq	r9, [r7], #3073	; 0xc01
    5118:	73020000 	movwvc	r0, #8192	; 0x2000
    511c:	1bfe0200 	blne	fff85924 <__bss_end+0x7ff80ae8>
    5120:	0000013c 	andeq	r0, r0, ip, lsr r1
    5124:	06649102 	strbteq	r9, [r4], -r2, lsl #2
    5128:	00001c64 	andeq	r1, r0, r4, ror #24
    512c:	013c2afe 	teqeq	ip, lr	; <illegal shifter operand>
    5130:	91020000 	mrsls	r0, (UNDEF: 2)
    5134:	00700360 	rsbseq	r0, r0, r0, ror #6
    5138:	3c0e0100 	stfccs	f0, [lr], {-0}
    513c:	02000001 	andeq	r0, r0, #1
    5140:	61037491 			; <UNDEFINED> instruction: 0x61037491
    5144:	0e010100 	adfeqs	f0, f1, f0
    5148:	0000013c 	andeq	r0, r0, ip, lsr r1
    514c:	0a709102 	beq	1c2955c <shift+0x1c2955c>
    5150:	00001c56 	andeq	r1, r0, r6, asr ip
    5154:	49090102 	stmdbmi	r9, {r1, r8}
    5158:	02000000 	andeq	r0, r0, #0
    515c:	05006c91 	streq	r6, [r0, #-3217]	; 0xfffff36f
    5160:	00001ce1 	andeq	r1, r0, r1, ror #25
    5164:	004908ed 	subeq	r0, r9, sp, ror #17
    5168:	1eb20000 	cdpne	0, 11, cr0, cr2, cr0, {0}
    516c:	003a8000 	eorseq	r8, sl, r0
    5170:	9c010000 	stcls	0, cr0, [r1], {-0}
    5174:	00000529 	andeq	r0, r0, r9, lsr #10
    5178:	02007302 	andeq	r7, r0, #134217728	; 0x8000000
    517c:	013c1ded 	teqeq	ip, sp, ror #27
    5180:	91020000 	mrsls	r0, (UNDEF: 2)
    5184:	1c56066c 	mrrcne	6, 6, r0, r6, cr12
    5188:	27ed0000 	strbcs	r0, [sp, r0]!
    518c:	00000049 	andeq	r0, r0, r9, asr #32
    5190:	07689102 	strbeq	r9, [r8, -r2, lsl #2]!
    5194:	ef006373 	svc	0x00006373
    5198:	00013c0e 	andeq	r3, r1, lr, lsl #24
    519c:	74910200 	ldrvc	r0, [r1], #512	; 0x200
    51a0:	1c1d0500 	cfldr32ne	mvfx0, [sp], {-0}
    51a4:	08dd0000 	ldmeq	sp, {}^	; <UNPREDICTABLE>
    51a8:	00000049 	andeq	r0, r0, r9, asr #32
    51ac:	80001e84 	andhi	r1, r0, r4, lsl #29
    51b0:	0000002e 	andeq	r0, r0, lr, lsr #32
    51b4:	055d9c01 	ldrbeq	r9, [sp, #-3073]	; 0xfffff3ff
    51b8:	73020000 	movwvc	r0, #8192	; 0x2000
    51bc:	1cdd0200 	lfmne	f0, 2, [sp], {0}
    51c0:	0000013c 	andeq	r0, r0, ip, lsr r1
    51c4:	076c9102 	strbeq	r9, [ip, -r2, lsl #2]!
    51c8:	df006373 	svcle	0x00006373
    51cc:	00013c0e 	andeq	r3, r1, lr, lsl #24
    51d0:	74910200 	ldrvc	r0, [r1], #512	; 0x200
    51d4:	1d1b0f00 	ldcne	15, cr0, [fp, #-0]
    51d8:	08cd0000 	stmiaeq	sp, {}^	; <UNPREDICTABLE>
    51dc:	00000068 	andeq	r0, r0, r8, rrx
    51e0:	80001e44 	andhi	r1, r0, r4, asr #28
    51e4:	00000040 	andeq	r0, r0, r0, asr #32
    51e8:	059d9c01 	ldreq	r9, [sp, #3073]	; 0xc01
    51ec:	73020000 	movwvc	r0, #8192	; 0x2000
    51f0:	1dcd0200 	sfmne	f0, 2, [sp]
    51f4:	0000013c 	andeq	r0, r0, ip, lsr r1
    51f8:	026c9102 	rsbeq	r9, ip, #-2147483648	; 0x80000000
    51fc:	cd020063 	stcgt	0, cr0, [r2, #-396]	; 0xfffffe74
    5200:	0000de24 	andeq	sp, r0, r4, lsr #28
    5204:	68910200 	ldmvs	r1, {r9}
    5208:	cf007007 	svcgt	0x00007007
    520c:	00013c14 	andeq	r3, r1, r4, lsl ip
    5210:	74910200 	ldrvc	r0, [r1], #512	; 0x200
    5214:	1c750500 	cfldr64ne	mvdx0, [r5], #-0
    5218:	08be0000 	ldmeq	lr!, {}	; <UNPREDICTABLE>
    521c:	00000068 	andeq	r0, r0, r8, rrx
    5220:	80001e0c 	andhi	r1, r0, ip, lsl #28
    5224:	00000038 	andeq	r0, r0, r8, lsr r0
    5228:	05d19c01 	ldrbeq	r9, [r1, #3073]	; 0xc01
    522c:	73020000 	movwvc	r0, #8192	; 0x2000
    5230:	1cbe0200 	lfmne	f0, 4, [lr]
    5234:	0000013c 	andeq	r0, r0, ip, lsr r1
    5238:	02749102 	rsbseq	r9, r4, #-2147483648	; 0x80000000
    523c:	be020063 	cdplt	0, 0, cr0, cr2, cr3, {3}
    5240:	0000de23 	andeq	sp, r0, r3, lsr #28
    5244:	70910200 	addsvc	r0, r1, r0, lsl #4
    5248:	1d380500 	cfldr32ne	mvfx0, [r8, #-0]
    524c:	05aa0000 	streq	r0, [sl, #0]!
    5250:	000000de 	ldrdeq	r0, [r0], -lr
    5254:	80001dc2 	andhi	r1, r0, r2, asr #27
    5258:	0000004a 	andeq	r0, r0, sl, asr #32
    525c:	06219c01 	strteq	r9, [r1], -r1, lsl #24
    5260:	63020000 	movwvs	r0, #8192	; 0x2000
    5264:	aa020073 	bge	85438 <shift+0x85438>
    5268:	00013c1a 	andeq	r3, r1, sl, lsl ip
    526c:	74910200 	ldrvc	r0, [r1], #512	; 0x200
    5270:	00746302 	rsbseq	r6, r4, r2, lsl #6
    5274:	3c2aaa02 			; <UNDEFINED> instruction: 0x3c2aaa02
    5278:	02000001 	andeq	r0, r0, #1
    527c:	56067091 			; <UNDEFINED> instruction: 0x56067091
    5280:	aa00001c 	bge	52f8 <shift+0x52f8>
    5284:	00004934 	andeq	r4, r0, r4, lsr r9
    5288:	6c910200 	lfmvs	f0, 4, [r1], {0}
    528c:	001cd610 	andseq	sp, ip, r0, lsl r6
    5290:	0621ac00 	strteq	sl, [r1], -r0, lsl #24
    5294:	54010000 	strpl	r0, [r1], #-0
    5298:	06010b00 	streq	r0, [r1], -r0, lsl #22
    529c:	000000a0 	andeq	r0, r0, r0, lsr #1
    52a0:	001ce905 	andseq	lr, ip, r5, lsl #18
    52a4:	de059600 	cfmadd32le	mvax0, mvfx9, mvfx5, mvfx0
    52a8:	88000000 	stmdahi	r0, {}	; <UNPREDICTABLE>
    52ac:	3a80001d 	bcc	fe005328 <__bss_end+0x7e0004ec>
    52b0:	01000000 	mrseq	r0, (UNDEF: 0)
    52b4:	00066a9c 	muleq	r6, ip, sl
    52b8:	73630200 	cmnvc	r3, #0, 4
    52bc:	19960200 	ldmibne	r6, {r9}
    52c0:	0000013c 	andeq	r0, r0, ip, lsr r1
    52c4:	02749102 	rsbseq	r9, r4, #-2147483648	; 0x80000000
    52c8:	02007463 	andeq	r7, r0, #1660944384	; 0x63000000
    52cc:	013c2996 	teqeq	ip, r6	; <illegal shifter operand>
    52d0:	91020000 	mrsls	r0, (UNDEF: 2)
    52d4:	1cd61070 	ldclne	0, cr1, [r6], {112}	; 0x70
    52d8:	21980000 	orrscs	r0, r8, r0
    52dc:	01000006 	tsteq	r0, r6
    52e0:	84050054 	strhi	r0, [r5], #-84	; 0xffffffac
    52e4:	7d00001c 	stcvc	0, cr0, [r0, #-112]	; 0xffffff90
    52e8:	00006808 	andeq	r6, r0, r8, lsl #16
    52ec:	001d2800 	andseq	r2, sp, r0, lsl #16
    52f0:	00006080 	andeq	r6, r0, r0, lsl #1
    52f4:	bd9c0100 	ldflts	f0, [ip]
    52f8:	06000006 	streq	r0, [r0], -r6
    52fc:	00001c9f 	muleq	r0, pc, ip	; <UNPREDICTABLE>
    5300:	0068167d 	rsbeq	r1, r8, sp, ror r6
    5304:	91020000 	mrsls	r0, (UNDEF: 2)
    5308:	7273026c 	rsbsvc	r0, r3, #108, 4	; 0xc0000006
    530c:	7d020063 	stcvc	0, cr0, [r2, #-396]	; 0xfffffe74
    5310:	00013c28 	andeq	r3, r1, r8, lsr #24
    5314:	68910200 	ldmvs	r1, {r9}
    5318:	001c5606 	andseq	r5, ip, r6, lsl #12
    531c:	49347d00 	ldmdbmi	r4!, {r8, sl, fp, ip, sp, lr}
    5320:	02000000 	andeq	r0, r0, #0
    5324:	74076491 	strvc	r6, [r7], #-1169	; 0xfffffb6f
    5328:	7f00706d 	svcvc	0x0000706d
    532c:	00006808 	andeq	r6, r0, r8, lsl #16
    5330:	74910200 	ldrvc	r0, [r1], #512	; 0x200
    5334:	1cb60500 	cfldr32ne	mvfx0, [r6]
    5338:	08660000 	stmdaeq	r6!, {}^	; <UNPREDICTABLE>
    533c:	00000068 	andeq	r0, r0, r8, rrx
    5340:	80001ce4 	andhi	r1, r0, r4, ror #25
    5344:	00000044 	andeq	r0, r0, r4, asr #32
    5348:	07029c01 	streq	r9, [r2, -r1, lsl #24]
    534c:	9f060000 	svcls	0x00060000
    5350:	6600001c 			; <UNDEFINED> instruction: 0x6600001c
    5354:	00006816 	andeq	r6, r0, r6, lsl r8
    5358:	6c910200 	lfmvs	f0, 4, [r1], {0}
    535c:	63727302 	cmnvs	r2, #134217728	; 0x8000000
    5360:	29660200 	stmdbcs	r6!, {r9}^
    5364:	0000013c 	andeq	r0, r0, ip, lsr r1
    5368:	07689102 	strbeq	r9, [r8, -r2, lsl #2]!
    536c:	00706d74 	rsbseq	r6, r0, r4, ror sp
    5370:	00680868 	rsbeq	r0, r8, r8, ror #16
    5374:	91020000 	mrsls	r0, (UNDEF: 2)
    5378:	bd050074 	stclt	0, cr0, [r5, #-464]	; 0xfffffe30
    537c:	5500001c 	strpl	r0, [r0, #-28]	; 0xffffffe4
    5380:	00006808 	andeq	r6, r0, r8, lsl #16
    5384:	001ca400 	andseq	sl, ip, r0, lsl #8
    5388:	00004080 	andeq	r4, r0, r0, lsl #1
    538c:	559c0100 	ldrpl	r0, [ip, #256]	; 0x100
    5390:	06000007 	streq	r0, [r0], -r7
    5394:	00001c9f 	muleq	r0, pc, ip	; <UNPREDICTABLE>
    5398:	00681755 	rsbeq	r1, r8, r5, asr r7
    539c:	91020000 	mrsls	r0, (UNDEF: 2)
    53a0:	7273026c 	rsbsvc	r0, r3, #108, 4	; 0xc0000006
    53a4:	55020063 	strpl	r0, [r2, #-99]	; 0xffffff9d
    53a8:	00013c28 	andeq	r3, r1, r8, lsr #24
    53ac:	68910200 	ldmvs	r1, {r9}
    53b0:	001c5606 	andseq	r5, ip, r6, lsl #12
    53b4:	49335500 	ldmdbmi	r3!, {r8, sl, ip, lr}
    53b8:	02000000 	andeq	r0, r0, #0
    53bc:	74076491 	strvc	r6, [r7], #-1169	; 0xfffffb6f
    53c0:	5700706d 	strpl	r7, [r0, -sp, rrx]
    53c4:	00006808 	andeq	r6, r0, r8, lsl #16
    53c8:	74910200 	ldrvc	r0, [r1], #512	; 0x200
    53cc:	1caa0500 	cfstr32ne	mvfx0, [sl]
    53d0:	08400000 	stmdaeq	r0, {}^	; <UNPREDICTABLE>
    53d4:	00000068 	andeq	r0, r0, r8, rrx
    53d8:	80001c70 	andhi	r1, r0, r0, ror ip
    53dc:	00000034 	andeq	r0, r0, r4, lsr r0
    53e0:	079a9c01 	ldreq	r9, [sl, r1, lsl #24]
    53e4:	9f060000 	svcls	0x00060000
    53e8:	4000001c 	andmi	r0, r0, ip, lsl r0
    53ec:	00006816 	andeq	r6, r0, r6, lsl r8
    53f0:	6c910200 	lfmvs	f0, 4, [r1], {0}
    53f4:	63727302 	cmnvs	r2, #134217728	; 0x8000000
    53f8:	27400200 	strbcs	r0, [r0, -r0, lsl #4]
    53fc:	0000013c 	andeq	r0, r0, ip, lsr r1
    5400:	07689102 	strbeq	r9, [r8, -r2, lsl #2]!
    5404:	00706d74 	rsbseq	r6, r0, r4, ror sp
    5408:	00680842 	rsbeq	r0, r8, r2, asr #16
    540c:	91020000 	mrsls	r0, (UNDEF: 2)
    5410:	230f0074 	movwcs	r0, #61556	; 0xf074
    5414:	1e00001d 	mcrne	0, 0, r0, cr0, cr13, {0}
    5418:	0000de05 	andeq	sp, r0, r5, lsl #28
    541c:	001be000 	andseq	lr, fp, r0
    5420:	00009080 	andeq	r9, r0, r0, lsl #1
    5424:	f99c0100 			; <UNDEFINED> instruction: 0xf99c0100
    5428:	02000007 	andeq	r0, r0, #7
    542c:	02003173 	andeq	r3, r0, #-1073741796	; 0xc000001c
    5430:	013c1a1e 	teqeq	ip, lr, lsl sl
    5434:	91020000 	mrsls	r0, (UNDEF: 2)
    5438:	3273026c 	rsbscc	r0, r3, #108, 4	; 0xc0000006
    543c:	2a1e0200 	bcs	785c44 <shift+0x785c44>
    5440:	0000013c 	andeq	r0, r0, ip, lsr r1
    5444:	02689102 	rsbeq	r9, r8, #-2147483648	; 0x80000000
    5448:	006e656c 	rsbeq	r6, lr, ip, ror #10
    544c:	49351e02 	ldmdbmi	r5!, {r1, r9, sl, fp, ip}
    5450:	02000000 	andeq	r0, r0, #0
    5454:	63076491 	movwvs	r6, #29841	; 0x7491
    5458:	10210031 	eorne	r0, r1, r1, lsr r0
    545c:	00000031 	andeq	r0, r0, r1, lsr r0
    5460:	07779102 	ldrbeq	r9, [r7, -r2, lsl #2]!
    5464:	21003263 	tstcs	r0, r3, ror #4
    5468:	00003114 	andeq	r3, r0, r4, lsl r1
    546c:	76910200 	ldrvc	r0, [r1], r0, lsl #4
    5470:	1c6b1a00 			; <UNDEFINED> instruction: 0x1c6b1a00
    5474:	22010000 	andcs	r0, r1, #0
    5478:	0000311d 	andeq	r3, r0, sp, lsl r1
    547c:	001ba400 	andseq	sl, fp, r0, lsl #8
    5480:	00003c80 	andeq	r3, r0, r0, lsl #25
    5484:	029c0100 	addseq	r0, ip, #0, 2
    5488:	22010063 	andcs	r0, r1, #99	; 0x63
    548c:	00003135 	andeq	r3, r0, r5, lsr r1
    5490:	77910200 	ldrvc	r0, [r1, r0, lsl #4]
    5494:	0b2b0000 	bleq	ac549c <shift+0xac549c>
    5498:	00050000 	andeq	r0, r5, r0
    549c:	17470401 	strbne	r0, [r7, -r1, lsl #8]
    54a0:	06180000 	ldreq	r0, [r8], -r0
    54a4:	1d000001 	stcne	0, cr0, [r0, #-4]
    54a8:	00001e14 	andeq	r1, r0, r4, lsl lr
    54ac:	00000010 	andeq	r0, r0, r0, lsl r0
    54b0:	800022d4 	ldrdhi	r2, [r0], -r4
    54b4:	0000191a 	andeq	r1, r0, sl, lsl r9
    54b8:	000016f9 	strdeq	r1, [r0], -r9
    54bc:	001bec11 	andseq	lr, fp, r1, lsl ip
    54c0:	160b0300 	strne	r0, [fp], -r0, lsl #6
    54c4:	00000032 	andeq	r0, r0, r2, lsr r0
    54c8:	d3070408 	movwle	r0, #29704	; 0x7408
    54cc:	12000000 	andne	r0, r0, #0
    54d0:	00000044 	andeq	r0, r0, r4, asr #32
    54d4:	00000044 	andeq	r0, r0, r4, asr #32
    54d8:	01080019 	tsteq	r8, r9, lsl r0
    54dc:	00009e08 	andeq	r9, r0, r8, lsl #28
    54e0:	1b7f1a00 	blne	1fcbce8 <shift+0x1fcbce8>
    54e4:	0f010000 	svceq	0x00010000
    54e8:	00003916 	andeq	r3, r0, r6, lsl r9
    54ec:	005c0500 	subseq	r0, ip, r0, lsl #10
    54f0:	01080000 	mrseq	r0, (UNDEF: 8)
    54f4:	0000a708 	andeq	sl, r0, r8, lsl #14
    54f8:	005c1400 	subseq	r1, ip, r0, lsl #8
    54fc:	fd110000 	ldc2	0, cr0, [r1, #-0]
    5500:	0400001b 	streq	r0, [r0], #-27	; 0xffffffe5
    5504:	00570f0e 	subseq	r0, r7, lr, lsl #30
    5508:	01080000 	mrseq	r0, (UNDEF: 8)
    550c:	0000a006 	andeq	sl, r0, r6
    5510:	05020800 	streq	r0, [r2, #-2048]	; 0xfffff800
    5514:	00000162 	andeq	r0, r0, r2, ror #2
    5518:	6905041b 	stmdbvs	r5, {r0, r1, r3, r4, sl}
    551c:	0800746e 	stmdaeq	r0, {r1, r2, r3, r5, r6, sl, ip, sp, lr}
    5520:	00eb0702 	rsceq	r0, fp, r2, lsl #14
    5524:	48110000 	ldmdami	r1, {}	; <UNPREDICTABLE>
    5528:	0500001a 	streq	r0, [r0, #-26]	; 0xffffffe6
    552c:	009c1c11 	addseq	r1, ip, r1, lsl ip
    5530:	08080000 	stmdaeq	r8, {}	; <UNPREDICTABLE>
    5534:	0000c907 	andeq	ip, r0, r7, lsl #18
    5538:	05080800 	streq	r0, [r8, #-2048]	; 0xfffff800
    553c:	0000004d 	andeq	r0, r0, sp, asr #32
    5540:	ce070408 	cdpgt	4, 0, cr0, cr7, cr8, {0}
    5544:	08000000 	stmdaeq	r0, {}	; <UNPREDICTABLE>
    5548:	00520504 	subseq	r0, r2, r4, lsl #10
    554c:	e1150000 	tst	r5, r0
    5550:	0600001c 			; <UNDEFINED> instruction: 0x0600001c
    5554:	00260f38 	eoreq	r0, r6, r8, lsr pc
    5558:	00d30000 	sbcseq	r0, r3, r0
    555c:	d30e0000 	movwle	r0, #57344	; 0xe000
    5560:	0e000000 	cdpeq	0, 0, cr0, cr0, cr0, {0}
    5564:	00000026 	andeq	r0, r0, r6, lsr #32
    5568:	00630500 	rsbeq	r0, r3, r0, lsl #10
    556c:	98150000 	ldmdals	r5, {}	; <UNPREDICTABLE>
    5570:	0700001b 	smladeq	r0, fp, r0, r0
    5574:	00321514 	eorseq	r1, r2, r4, lsl r5
    5578:	00f30000 	rscseq	r0, r3, r0
    557c:	f30e0000 	vhadd.u8	d0, d14, d0
    5580:	0e000000 	cdpeq	0, 0, cr0, cr0, cr0, {0}
    5584:	00000032 	andeq	r0, r0, r2, lsr r0
    5588:	009c0500 	addseq	r0, ip, r0, lsl #10
    558c:	390a0000 	stmdbcc	sl, {}	; <UNPREDICTABLE>
    5590:	1f00001c 	svcne	0x0000001c
    5594:	00008204 	andeq	r8, r0, r4, lsl #4
    5598:	003bc000 	eorseq	ip, fp, r0
    559c:	00002e80 	andeq	r2, r0, r0, lsl #29
    55a0:	4d9c0100 	ldfmis	f0, [ip]
    55a4:	03000001 	movweq	r0, #1
    55a8:	00667562 	rsbeq	r7, r6, r2, ror #10
    55ac:	d319041f 	tstle	r9, #520093696	; 0x1f000000
    55b0:	02000000 	andeq	r0, r0, #0
    55b4:	66035c91 			; <UNDEFINED> instruction: 0x66035c91
    55b8:	1f00746d 	svcne	0x0000746d
    55bc:	00d32b04 	sbcseq	r2, r3, r4, lsl #22
    55c0:	91020000 	mrsls	r0, (UNDEF: 2)
    55c4:	18020f74 	stmdane	r2, {r2, r4, r5, r6, r8, r9, sl, fp}
    55c8:	2100001c 	tstcs	r0, ip, lsl r0
    55cc:	00680a04 	rsbeq	r0, r8, r4, lsl #20
    55d0:	91020000 	mrsls	r0, (UNDEF: 2)
    55d4:	00690164 	rsbeq	r0, r9, r4, ror #2
    55d8:	82060422 	andhi	r0, r6, #570425344	; 0x22000000
    55dc:	02000000 	andeq	r0, r0, #0
    55e0:	0a006091 	beq	1d82c <shift+0x1d82c>
    55e4:	00001c38 	andeq	r1, r0, r8, lsr ip
    55e8:	00820345 	addeq	r0, r2, r5, asr #6
    55ec:	34d40000 	ldrbcc	r0, [r4], #0
    55f0:	06ec8000 	strbteq	r8, [ip], r0
    55f4:	9c010000 	stcls	0, cr0, [r1], {-0}
    55f8:	0000038f 	andeq	r0, r0, pc, lsl #7
    55fc:	66756203 	ldrbtvs	r6, [r5], -r3, lsl #4
    5600:	1a034500 	bne	d6a08 <shift+0xd6a08>
    5604:	000000d3 	ldrdeq	r0, [r0], -r3
    5608:	7f949103 	svcvc	0x00949103
    560c:	746d6603 	strbtvc	r6, [sp], #-1539	; 0xfffff9fd
    5610:	2c034500 	cfstr32cs	mvfx4, [r3], {-0}
    5614:	000000d3 	ldrdeq	r0, [r0], -r3
    5618:	7f909103 	svcvc	0x00909103
    561c:	001c180b 	andseq	r1, ip, fp, lsl #16
    5620:	39034500 	stmdbcc	r3, {r8, sl, lr}
    5624:	00000068 	andeq	r0, r0, r8, rrx
    5628:	7f8c9103 	svcvc	0x008c9103
    562c:	72747301 	rsbsvc	r7, r4, #67108864	; 0x4000000
    5630:	0e034700 	cdpeq	7, 0, cr4, cr3, cr0, {0}
    5634:	000000d3 	ldrdeq	r0, [r0], -r3
    5638:	026c9102 	rsbeq	r9, ip, #-2147483648	; 0x80000000
    563c:	00001e54 	andeq	r1, r0, r4, asr lr
    5640:	57080348 	strpl	r0, [r8, -r8, asr #6]
    5644:	03000000 	movweq	r0, #0
    5648:	027f9891 	rsbseq	r9, pc, #9502720	; 0x910000
    564c:	00001e3d 	andeq	r1, r0, sp, lsr lr
    5650:	5c070349 	stcpl	3, cr0, [r7], {73}	; 0x49
    5654:	02000000 	andeq	r0, r0, #0
    5658:	6e016b91 	vmovvs.32	d17[0], r6
    565c:	4a006d75 	bmi	20c38 <shift+0x20c38>
    5660:	00820603 	addeq	r0, r2, r3, lsl #12
    5664:	91020000 	mrsls	r0, (UNDEF: 2)
    5668:	1e000264 	cdpne	2, 0, cr0, cr0, cr4, {3}
    566c:	034b0000 	movteq	r0, #45056	; 0xb000
    5670:	00008206 	andeq	r8, r0, r6, lsl #4
    5674:	60910200 	addsvs	r0, r1, r0, lsl #4
    5678:	001d8d02 	andseq	r8, sp, r2, lsl #26
    567c:	06034c00 	streq	r4, [r3], -r0, lsl #24
    5680:	00000082 	andeq	r0, r0, r2, lsl #1
    5684:	025c9102 	subseq	r9, ip, #-2147483648	; 0x80000000
    5688:	00001d50 	andeq	r1, r0, r0, asr sp
    568c:	8206034d 	andhi	r0, r6, #872415233	; 0x34000001
    5690:	02000000 	andeq	r0, r0, #0
    5694:	6a025891 	bvs	9b8e0 <shift+0x9b8e0>
    5698:	4e00001d 	mcrmi	0, 0, r0, cr0, cr13, {0}
    569c:	00820603 	addeq	r0, r2, r3, lsl #12
    56a0:	91020000 	mrsls	r0, (UNDEF: 2)
    56a4:	37400454 	smlsldcc	r0, r0, r4, r4	; <UNPREDICTABLE>
    56a8:	00448000 	subeq	r8, r4, r0
    56ac:	022a0000 	eoreq	r0, sl, #0
    56b0:	73010000 	movwvc	r0, #4096	; 0x1000
    56b4:	0a038f00 	beq	e92bc <shift+0xe92bc>
    56b8:	00000057 	andeq	r0, r0, r7, asr r0
    56bc:	00509102 	subseq	r9, r0, r2, lsl #2
    56c0:	00378604 	eorseq	r8, r7, r4, lsl #12
    56c4:	00007e80 	andeq	r7, r0, r0, lsl #29
    56c8:	00024500 	andeq	r4, r2, r0, lsl #10
    56cc:	00730100 	rsbseq	r0, r3, r0, lsl #2
    56d0:	570a039a 			; <UNDEFINED> instruction: 0x570a039a
    56d4:	02000000 	andeq	r0, r0, #0
    56d8:	04004c91 	streq	r4, [r0], #-3217	; 0xfffff36f
    56dc:	80003806 	andhi	r3, r0, r6, lsl #16
    56e0:	00000018 	andeq	r0, r0, r8, lsl r0
    56e4:	00000260 	andeq	r0, r0, r0, ror #4
    56e8:	ac006901 			; <UNDEFINED> instruction: 0xac006901
    56ec:	038f0903 	orreq	r0, pc, #49152	; 0xc000
    56f0:	91020000 	mrsls	r0, (UNDEF: 2)
    56f4:	cc040048 	stcgt	0, cr0, [r4], {72}	; 0x48
    56f8:	24800039 	strcs	r0, [r0], #57	; 0x39
    56fc:	7c000000 	stcvc	0, cr0, [r0], {-0}
    5700:	01000002 	tsteq	r0, r2
    5704:	03db0073 	bicseq	r0, fp, #115	; 0x73
    5708:	00039412 	andeq	r9, r3, r2, lsl r4
    570c:	a4910300 	ldrge	r0, [r1], #768	; 0x300
    5710:	f204007f 	vqadd.s8	q0, q2, <illegal reg q15.5>
    5714:	24800039 	strcs	r0, [r0], #57	; 0x39
    5718:	98000000 	stmdals	r0, {}	; <UNPREDICTABLE>
    571c:	01000002 	tsteq	r0, r2
    5720:	03de0073 	bicseq	r0, lr, #115	; 0x73
    5724:	00039914 	andeq	r9, r3, r4, lsl r9
    5728:	a8910300 	ldmge	r1, {r8, r9}
    572c:	1e04007f 	mcrne	0, 0, r0, cr4, cr15, {3}
    5730:	2480003a 	strcs	r0, [r0], #58	; 0x3a
    5734:	b4000000 	strlt	r0, [r0], #-0
    5738:	01000002 	tsteq	r0, r2
    573c:	03e40073 	mvneq	r0, #115	; 0x73
    5740:	00039e0c 	andeq	r9, r3, ip, lsl #28
    5744:	b8910300 	ldmlt	r1, {r8, r9}
    5748:	4404007f 	strmi	r0, [r4], #-127	; 0xffffff81
    574c:	2480003a 	strcs	r0, [r0], #58	; 0x3a
    5750:	d0000000 	andle	r0, r0, r0
    5754:	01000002 	tsteq	r0, r2
    5758:	03e70073 	mvneq	r0, #115	; 0x73
    575c:	0003a315 	andeq	sl, r3, r5, lsl r3
    5760:	bc910300 	ldclt	3, cr0, [r1], {0}
    5764:	7004007f 	andvc	r0, r4, pc, ror r0
    5768:	2280003a 	addcs	r0, r0, #58	; 0x3a
    576c:	eb000000 	bl	5774 <shift+0x5774>
    5770:	01000002 	tsteq	r0, r2
    5774:	03ed006c 	mvneq	r0, #108	; 0x6c
    5778:	0003a80b 	andeq	sl, r3, fp, lsl #16
    577c:	40910200 	addsmi	r0, r1, r0, lsl #4
    5780:	3a940400 	bcc	fe506788 <__bss_end+0x7e50194c>
    5784:	00228000 	eoreq	r8, r2, r0
    5788:	03060000 	movweq	r0, #24576	; 0x6000
    578c:	6c010000 	stcvs	0, cr0, [r1], {-0}
    5790:	1403f000 	strne	pc, [r3], #-0
    5794:	000003ad 	andeq	r0, r0, sp, lsr #7
    5798:	00449102 	subeq	r9, r4, r2, lsl #2
    579c:	003abe04 	eorseq	fp, sl, r4, lsl #28
    57a0:	00002680 	andeq	r2, r0, r0, lsl #13
    57a4:	00032200 	andeq	r2, r3, r0, lsl #4
    57a8:	006c0100 	rsbeq	r0, ip, r0, lsl #2
    57ac:	b21003f6 	andslt	r0, r0, #-671088637	; 0xd8000003
    57b0:	03000003 	movweq	r0, #3
    57b4:	007fac91 			; <UNDEFINED> instruction: 0x007fac91
    57b8:	003ae604 	eorseq	lr, sl, r4, lsl #12
    57bc:	00002680 	andeq	r2, r0, r0, lsl #13
    57c0:	00033e00 	andeq	r3, r3, r0, lsl #28
    57c4:	006c0100 	rsbeq	r0, ip, r0, lsl #2
    57c8:	f31903f9 	vcge.u16	q0, <illegal reg q12.5>, <illegal reg q12.5>
    57cc:	03000000 	movweq	r0, #0
    57d0:	007fb091 			; <UNDEFINED> instruction: 0x007fb091
    57d4:	003b0e04 	eorseq	r0, fp, r4, lsl #28
    57d8:	00002280 	andeq	r2, r0, r0, lsl #5
    57dc:	00035a00 	andeq	r5, r3, r0, lsl #20
    57e0:	00730100 	rsbseq	r0, r3, r0, lsl #2
    57e4:	b70c0400 	strlt	r0, [ip, -r0, lsl #8]
    57e8:	03000003 	movweq	r0, #3
    57ec:	007fb491 			; <UNDEFINED> instruction: 0x007fb491
    57f0:	003b3804 	eorseq	r3, fp, r4, lsl #16
    57f4:	00002280 	andeq	r2, r0, r0, lsl #5
    57f8:	00037600 	andeq	r7, r3, r0, lsl #12
    57fc:	00690100 	rsbeq	r0, r9, r0, lsl #2
    5800:	8f0a0406 	svchi	0x000a0406
    5804:	03000003 	movweq	r0, #3
    5808:	007f9c91 			; <UNDEFINED> instruction: 0x007f9c91
    580c:	003b5c0d 	eorseq	r5, fp, sp, lsl #24
    5810:	00002280 	andeq	r2, r0, r0, lsl #5
    5814:	00690100 	rsbeq	r0, r9, r0, lsl #2
    5818:	bc130409 	cfldrslt	mvf0, [r3], {9}
    581c:	03000003 	movweq	r0, #3
    5820:	007fa091 			; <UNDEFINED> instruction: 0x007fa091
    5824:	00820500 	addeq	r0, r2, r0, lsl #10
    5828:	74050000 	strvc	r0, [r5], #-0
    582c:	05000000 	streq	r0, [r0, #-0]
    5830:	00000044 	andeq	r0, r0, r4, asr #32
    5834:	00007b05 	andeq	r7, r0, r5, lsl #22
    5838:	00890500 	addeq	r0, r9, r0, lsl #10
    583c:	b1050000 	mrslt	r0, (UNDEF: 5)
    5840:	05000000 	streq	r0, [r0, #-0]
    5844:	000000aa 	andeq	r0, r0, sl, lsr #1
    5848:	0000a305 	andeq	sl, r0, r5, lsl #6
    584c:	00260500 	eoreq	r0, r6, r0, lsl #10
    5850:	32050000 	andcc	r0, r5, #0
    5854:	0a000000 	beq	585c <shift+0x585c>
    5858:	00001c25 	andeq	r1, r0, r5, lsr #24
    585c:	0082032a 	addeq	r0, r2, sl, lsr #6
    5860:	34a60000 	strtcc	r0, [r6], #0
    5864:	002e8000 	eoreq	r8, lr, r0
    5868:	9c010000 	stcls	0, cr0, [r1], {-0}
    586c:	00000416 	andeq	r0, r0, r6, lsl r4
    5870:	66756203 	ldrbtvs	r6, [r5], -r3, lsl #4
    5874:	14032a00 	strne	r2, [r3], #-2560	; 0xfffff600
    5878:	00000057 	andeq	r0, r0, r7, asr r0
    587c:	035c9102 	cmpeq	ip, #-2147483648	; 0x80000000
    5880:	00746d66 	rsbseq	r6, r4, r6, ror #26
    5884:	d325032a 			; <UNDEFINED> instruction: 0xd325032a
    5888:	02000000 	andeq	r0, r0, #0
    588c:	020f7491 	andeq	r7, pc, #-1862270976	; 0x91000000
    5890:	00001c18 	andeq	r1, r0, r8, lsl ip
    5894:	680a032c 	stmdavs	sl, {r2, r3, r5, r8, r9}
    5898:	02000000 	andeq	r0, r0, #0
    589c:	69016491 	stmdbvs	r1, {r0, r4, r7, sl, sp, lr}
    58a0:	06032d00 	streq	r2, [r3], -r0, lsl #26
    58a4:	00000082 	andeq	r0, r0, r2, lsl #1
    58a8:	00609102 	rsbeq	r9, r0, r2, lsl #2
    58ac:	001c240a 	andseq	r2, ip, sl, lsl #8
    58b0:	82031900 	andhi	r1, r3, #0, 18
    58b4:	82000000 	andhi	r0, r0, #0
    58b8:	24800034 	strcs	r0, [r0], #52	; 0x34
    58bc:	01000000 	mrseq	r0, (UNDEF: 0)
    58c0:	00045d9c 	muleq	r4, ip, sp
    58c4:	75620300 	strbvc	r0, [r2, #-768]!	; 0xfffffd00
    58c8:	03190066 	tsteq	r9, #102	; 0x66
    58cc:	00005714 	andeq	r5, r0, r4, lsl r7
    58d0:	74910200 	ldrvc	r0, [r1], #512	; 0x200
    58d4:	746d6603 	strbtvc	r6, [sp], #-1539	; 0xfffff9fd
    58d8:	25031900 	strcs	r1, [r3, #-2304]	; 0xfffff700
    58dc:	000000d3 	ldrdeq	r0, [r0], -r3
    58e0:	0b709102 	bleq	1c29cf0 <shift+0x1c29cf0>
    58e4:	00001c18 	andeq	r1, r0, r8, lsl ip
    58e8:	68320319 	ldmdavs	r2!, {r0, r3, r4, r8, r9}
    58ec:	02000000 	andeq	r0, r0, #0
    58f0:	0a006c91 	beq	20b3c <shift+0x20b3c>
    58f4:	00001de8 	andeq	r1, r0, r8, ror #27
    58f8:	008202ff 	strdeq	r0, [r2], pc	; <UNPREDICTABLE>
    58fc:	34440000 	strbcc	r0, [r4], #-0
    5900:	003e8000 	eorseq	r8, lr, r0
    5904:	9c010000 	stcls	0, cr0, [r1], {-0}
    5908:	000004c1 	andeq	r0, r0, r1, asr #9
    590c:	66756203 	ldrbtvs	r6, [r5], -r3, lsl #4
    5910:	1602ff00 	strne	pc, [r2], -r0, lsl #30
    5914:	00000057 	andeq	r0, r0, r7, asr r0
    5918:	0b649102 	bleq	1929d28 <shift+0x1929d28>
    591c:	00001d33 	andeq	r1, r0, r3, lsr sp
    5920:	262202ff 			; <UNDEFINED> instruction: 0x262202ff
    5924:	02000000 	andeq	r0, r0, #0
    5928:	66036091 			; <UNDEFINED> instruction: 0x66036091
    592c:	ff00746d 			; <UNDEFINED> instruction: 0xff00746d
    5930:	00d33402 	sbcseq	r3, r3, r2, lsl #8
    5934:	91020000 	mrsls	r0, (UNDEF: 2)
    5938:	18020f78 	stmdane	r2, {r3, r4, r5, r6, r8, r9, sl, fp}
    593c:	0100001c 	tsteq	r0, ip, lsl r0
    5940:	00680a03 	rsbeq	r0, r8, r3, lsl #20
    5944:	91020000 	mrsls	r0, (UNDEF: 2)
    5948:	0069016c 	rsbeq	r0, r9, ip, ror #2
    594c:	82060302 	andhi	r0, r6, #134217728	; 0x8000000
    5950:	02000000 	andeq	r0, r0, #0
    5954:	0a006891 	beq	1fba0 <shift+0x1fba0>
    5958:	00001dde 	ldrdeq	r1, [r0], -lr
    595c:	008202e6 	addeq	r0, r2, r6, ror #5
    5960:	34140000 	ldrcc	r0, [r4], #-0
    5964:	00308000 	eorseq	r8, r0, r0
    5968:	9c010000 	stcls	0, cr0, [r1], {-0}
    596c:	00000525 	andeq	r0, r0, r5, lsr #10
    5970:	66756203 	ldrbtvs	r6, [r5], -r3, lsl #4
    5974:	1502e600 	strne	lr, [r2, #-1536]	; 0xfffffa00
    5978:	00000057 	andeq	r0, r0, r7, asr r0
    597c:	0b649102 	bleq	1929d8c <shift+0x1929d8c>
    5980:	00001d33 	andeq	r1, r0, r3, lsr sp
    5984:	262102e6 	strtcs	r0, [r1], -r6, ror #5
    5988:	02000000 	andeq	r0, r0, #0
    598c:	66036091 			; <UNDEFINED> instruction: 0x66036091
    5990:	e600746d 	str	r7, [r0], -sp, ror #8
    5994:	00d33302 	sbcseq	r3, r3, r2, lsl #6
    5998:	91020000 	mrsls	r0, (UNDEF: 2)
    599c:	18020f78 	stmdane	r2, {r3, r4, r5, r6, r8, r9, sl, fp}
    59a0:	e800001c 	stmda	r0, {r2, r3, r4}
    59a4:	00680a02 	rsbeq	r0, r8, r2, lsl #20
    59a8:	91020000 	mrsls	r0, (UNDEF: 2)
    59ac:	0069016c 	rsbeq	r0, r9, ip, ror #2
    59b0:	820602e9 	andhi	r0, r6, #-1879048178	; 0x9000000e
    59b4:	02000000 	andeq	r0, r0, #0
    59b8:	0a006891 	beq	1fc04 <shift+0x1fc04>
    59bc:	00001de7 	andeq	r1, r0, r7, ror #27
    59c0:	008202d0 	ldrdeq	r0, [r2], r0	; <UNPREDICTABLE>
    59c4:	33e00000 	mvncc	r0, #0
    59c8:	00348000 	eorseq	r8, r4, r0
    59cc:	9c010000 	stcls	0, cr0, [r1], {-0}
    59d0:	00000588 	andeq	r0, r0, r8, lsl #11
    59d4:	66756203 	ldrbtvs	r6, [r5], -r3, lsl #4
    59d8:	1602d000 	strne	sp, [r2], -r0
    59dc:	00000057 	andeq	r0, r0, r7, asr r0
    59e0:	0b6c9102 	bleq	1b29df0 <shift+0x1b29df0>
    59e4:	00001d33 	andeq	r1, r0, r3, lsr sp
    59e8:	262202d0 			; <UNDEFINED> instruction: 0x262202d0
    59ec:	02000000 	andeq	r0, r0, #0
    59f0:	66036891 			; <UNDEFINED> instruction: 0x66036891
    59f4:	d000746d 	andle	r7, r0, sp, ror #8
    59f8:	00d33402 	sbcseq	r3, r3, r2, lsl #8
    59fc:	91020000 	mrsls	r0, (UNDEF: 2)
    5a00:	1c180b64 			; <UNDEFINED> instruction: 0x1c180b64
    5a04:	02d00000 	sbcseq	r0, r0, #0
    5a08:	00006841 	andeq	r6, r0, r1, asr #16
    5a0c:	60910200 	addsvs	r0, r1, r0, lsl #4
    5a10:	d2006901 	andle	r6, r0, #16384	; 0x4000
    5a14:	00820602 	addeq	r0, r2, r2, lsl #12
    5a18:	91020000 	mrsls	r0, (UNDEF: 2)
    5a1c:	dd0a0074 	stcle	0, cr0, [sl, #-464]	; 0xfffffe30
    5a20:	d200001d 	andle	r0, r0, #29
    5a24:	00008201 	andeq	r8, r0, r1, lsl #4
    5a28:	002cd400 	eoreq	sp, ip, r0, lsl #8
    5a2c:	00070c80 	andeq	r0, r7, r0, lsl #25
    5a30:	f79c0100 			; <UNDEFINED> instruction: 0xf79c0100
    5a34:	03000006 	movweq	r0, #6
    5a38:	00667562 	rsbeq	r7, r6, r2, ror #10
    5a3c:	571501d2 			; <UNDEFINED> instruction: 0x571501d2
    5a40:	03000000 	movweq	r0, #0
    5a44:	0b7f9491 	bleq	1feac90 <shift+0x1feac90>
    5a48:	00001d33 	andeq	r1, r0, r3, lsr sp
    5a4c:	262101d2 			; <UNDEFINED> instruction: 0x262101d2
    5a50:	03000000 	movweq	r0, #0
    5a54:	037f9091 	cmneq	pc, #145	; 0x91
    5a58:	00746d66 	rsbseq	r6, r4, r6, ror #26
    5a5c:	d33301d2 	teqle	r3, #-2147483596	; 0x80000034
    5a60:	03000000 	movweq	r0, #0
    5a64:	0b7f8c91 	bleq	1fe8cb0 <shift+0x1fe8cb0>
    5a68:	00001c18 	andeq	r1, r0, r8, lsl ip
    5a6c:	684001d2 	stmdavs	r0, {r1, r4, r6, r7, r8}^
    5a70:	03000000 	movweq	r0, #0
    5a74:	017f8891 			; <UNDEFINED> instruction: 0x017f8891
    5a78:	006e656c 	rsbeq	r6, lr, ip, ror #10
    5a7c:	820601d4 	andhi	r0, r6, #212, 2	; 0x35
    5a80:	03000000 	movweq	r0, #0
    5a84:	017fa891 			; <UNDEFINED> instruction: 0x017fa891
    5a88:	006d756e 	rsbeq	r7, sp, lr, ror #10
    5a8c:	9c1501d5 	ldflss	f0, [r5], {213}	; 0xd5
    5a90:	02000000 	andeq	r0, r0, #0
    5a94:	69015091 	stmdbvs	r1, {r0, r4, r7, ip, lr}
    5a98:	0601d600 	streq	sp, [r1], -r0, lsl #12
    5a9c:	00000082 	andeq	r0, r0, r2, lsl #1
    5aa0:	024c9102 	subeq	r9, ip, #-2147483648	; 0x80000000
    5aa4:	00001d8d 	andeq	r1, r0, sp, lsl #27
    5aa8:	820901d6 	andhi	r0, r9, #-2147483595	; 0x80000035
    5aac:	02000000 	andeq	r0, r0, #0
    5ab0:	73014891 	movwvc	r4, #6289	; 0x1891
    5ab4:	d7007274 	smlsdxle	r0, r4, r2, r7
    5ab8:	00570801 	subseq	r0, r7, r1, lsl #16
    5abc:	91020000 	mrsls	r0, (UNDEF: 2)
    5ac0:	6e650144 	powvssm	f0, f5, f4
    5ac4:	01d70064 	bicseq	r0, r7, r4, rrx
    5ac8:	0000570e 	andeq	r5, r0, lr, lsl #14
    5acc:	40910200 	addsmi	r0, r1, r0, lsl #4
    5ad0:	d7006301 	strle	r6, [r0, -r1, lsl #6]
    5ad4:	005c1301 	subseq	r1, ip, r1, lsl #6
    5ad8:	91030000 	mrsls	r0, (UNDEF: 3)
    5adc:	73017f9b 	movwvc	r7, #8091	; 0x1f9b
    5ae0:	0e01d800 	cdpeq	8, 0, cr13, cr1, cr0, {0}
    5ae4:	000000d3 	ldrdeq	r0, [r0], -r3
    5ae8:	7fbc9103 	svcvc	0x00bc9103
    5aec:	00129102 	andseq	r9, r2, r2, lsl #2
    5af0:	0601da00 	streq	sp, [r1], -r0, lsl #20
    5af4:	00000082 	andeq	r0, r0, r2, lsl #1
    5af8:	7fb89103 	svcvc	0x00b89103
    5afc:	001d5002 	andseq	r5, sp, r2
    5b00:	0601dc00 	streq	sp, [r1], -r0, lsl #24
    5b04:	00000082 	andeq	r0, r0, r2, lsl #1
    5b08:	7fb49103 	svcvc	0x00b49103
    5b0c:	001e4a02 	andseq	r4, lr, r2, lsl #20
    5b10:	0601dd00 	streq	sp, [r1], -r0, lsl #26
    5b14:	00000082 	andeq	r0, r0, r2, lsl #1
    5b18:	7fb09103 	svcvc	0x00b09103
    5b1c:	001e0002 	andseq	r0, lr, r2
    5b20:	0601df00 	streq	sp, [r1], -r0, lsl #30
    5b24:	00000082 	andeq	r0, r0, r2, lsl #1
    5b28:	7fac9103 	svcvc	0x00ac9103
    5b2c:	001d721c 	andseq	r7, sp, ip, lsl r2
    5b30:	01fe0200 	mvnseq	r0, r0, lsl #4
    5b34:	002d4803 	eoreq	r4, sp, r3, lsl #16
    5b38:	31be0480 			; <UNDEFINED> instruction: 0x31be0480
    5b3c:	00188000 	andseq	r8, r8, r0
    5b40:	06c00000 	strbeq	r0, [r0], r0
    5b44:	69010000 	stmdbvs	r1, {}	; <UNPREDICTABLE>
    5b48:	02710070 	rsbseq	r0, r1, #112	; 0x70
    5b4c:	0003a80d 	andeq	sl, r3, sp, lsl #16
    5b50:	9c910300 	ldcls	3, cr0, [r1], {0}
    5b54:	e404007f 	str	r0, [r4], #-127	; 0xffffff81
    5b58:	1a800031 	bne	fe005c24 <__bss_end+0x7e000de8>
    5b5c:	dd000000 	stcle	0, cr0, [r0, #-0]
    5b60:	01000006 	tsteq	r0, r6
    5b64:	74007069 	strvc	r7, [r0], #-105	; 0xffffff97
    5b68:	03b70f02 			; <UNDEFINED> instruction: 0x03b70f02
    5b6c:	91030000 	mrsls	r0, (UNDEF: 3)
    5b70:	0d007fa0 	stceq	15, cr7, [r0, #-640]	; 0xfffffd80
    5b74:	80003202 	andhi	r3, r0, r2, lsl #4
    5b78:	00000018 	andeq	r0, r0, r8, lsl r0
    5b7c:	00706901 	rsbseq	r6, r0, r1, lsl #18
    5b80:	8f0c0277 	svchi	0x000c0277
    5b84:	03000003 	movweq	r0, #3
    5b88:	007fa491 			; <UNDEFINED> instruction: 0x007fa491
    5b8c:	1e431600 	cdpne	6, 4, cr1, cr3, cr0, {0}
    5b90:	57fc0000 	ldrbpl	r0, [ip, r0]!
    5b94:	8e000000 	cdphi	0, 0, cr0, cr0, cr0, {0}
    5b98:	46800029 	strmi	r0, [r0], r9, lsr #32
    5b9c:	01000003 	tsteq	r0, r3
    5ba0:	0008169c 	muleq	r8, ip, r6
    5ba4:	75620600 	strbvc	r0, [r2, #-1536]!	; 0xfffffa00
    5ba8:	fc020066 	stc2	0, cr0, [r2], {102}	; 0x66
    5bac:	0000571b 	andeq	r5, r0, fp, lsl r7
    5bb0:	dc910300 	ldcle	3, cr0, [r1], {0}
    5bb4:	6e65067e 	mcrvs	6, 3, r0, cr5, cr14, {3}
    5bb8:	fc020064 	stc2	0, cr0, [r2], {100}	; 0x64
    5bbc:	00005726 	andeq	r5, r0, r6, lsr #14
    5bc0:	d8910300 	ldmle	r1, {r8, r9}
    5bc4:	756e067e 	strbvc	r0, [lr, #-1662]!	; 0xfffff982
    5bc8:	fc02006d 	stc2	0, cr0, [r2], {109}	; 0x6d
    5bcc:	0000a33c 	andeq	sl, r0, ip, lsr r3
    5bd0:	d0910300 	addsle	r0, r1, r0, lsl #6
    5bd4:	1d8d077e 	stcne	7, cr0, [sp, #504]	; 0x1f8
    5bd8:	45fc0000 	ldrbmi	r0, [ip, #0]!
    5bdc:	00000082 	andeq	r0, r0, r2, lsl #1
    5be0:	07009102 	streq	r9, [r0, -r2, lsl #2]
    5be4:	00001d33 	andeq	r1, r0, r3, lsr sp
    5be8:	00824ffc 	strdeq	r4, [r2], ip
    5bec:	91020000 	mrsls	r0, (UNDEF: 2)
    5bf0:	1e4a0704 	cdpne	7, 4, cr0, cr10, cr4, {0}
    5bf4:	59fc0000 	ldmibpl	ip!, {}^	; <UNPREDICTABLE>
    5bf8:	00000082 	andeq	r0, r0, r2, lsl #1
    5bfc:	07089102 	streq	r9, [r8, -r2, lsl #2]
    5c00:	00002025 	andeq	r2, r0, r5, lsr #32
    5c04:	008268fc 	strdeq	r6, [r2], ip
    5c08:	91020000 	mrsls	r0, (UNDEF: 2)
    5c0c:	1daf0c0c 	stcne	12, cr0, [pc, #48]!	; 5c44 <shift+0x5c44>
    5c10:	14ff0000 	ldrbtne	r0, [pc], #0	; 5c18 <shift+0x5c18>
    5c14:	00000826 	andeq	r0, r0, r6, lsr #16
    5c18:	40080305 	andmi	r0, r8, r5, lsl #6
    5c1c:	74018000 	strvc	r8, [r1], #-0
    5c20:	0100706d 	tsteq	r0, sp, rrx
    5c24:	082b0701 	stmdaeq	fp!, {r0, r8, r9, sl}
    5c28:	91030000 	mrsls	r0, (UNDEF: 3)
    5c2c:	6d027ee0 	stcvs	14, cr7, [r2, #-896]	; 0xfffffc80
    5c30:	0200001d 	andeq	r0, r0, #29
    5c34:	005c0701 	subseq	r0, ip, r1, lsl #14
    5c38:	91020000 	mrsls	r0, (UNDEF: 2)
    5c3c:	1d79025f 	lfmne	f0, 2, [r9, #-380]!	; 0xfffffe84
    5c40:	01030000 	mrseq	r0, (UNDEF: 3)
    5c44:	00005c07 	andeq	r5, r0, r7, lsl #24
    5c48:	4f910200 	svcmi	0x00910200
    5c4c:	001d4702 	andseq	r4, sp, r2, lsl #14
    5c50:	06010400 	streq	r0, [r1], -r0, lsl #8
    5c54:	00000082 	andeq	r0, r0, r2, lsl #1
    5c58:	01509102 	cmpeq	r0, r2, lsl #2
    5c5c:	01050069 	tsteq	r5, r9, rrx
    5c60:	00008206 	andeq	r8, r0, r6, lsl #4
    5c64:	58910200 	ldmpl	r1, {r9}
    5c68:	002aaa04 	eoreq	sl, sl, r4, lsl #20
    5c6c:	00007a80 	andeq	r7, r0, r0, lsl #21
    5c70:	0007fe00 	andeq	pc, r7, r0, lsl #28
    5c74:	1e290200 	cdpne	2, 2, cr0, cr9, cr0, {0}
    5c78:	012d0000 			; <UNDEFINED> instruction: 0x012d0000
    5c7c:	00008207 	andeq	r8, r0, r7, lsl #4
    5c80:	48910200 	ldmmi	r1, {r9}
    5c84:	001da902 	andseq	sl, sp, r2, lsl #18
    5c88:	07012e00 	streq	r2, [r1, -r0, lsl #28]
    5c8c:	00000082 	andeq	r0, r0, r2, lsl #1
    5c90:	00549102 	subseq	r9, r4, r2, lsl #2
    5c94:	002bfe0d 	eoreq	pc, fp, sp, lsl #28
    5c98:	00004080 	andeq	r4, r0, r0, lsl #1
    5c9c:	00630100 	rsbeq	r0, r3, r0, lsl #2
    5ca0:	5c08014f 	stfpls	f0, [r8], {79}	; 0x4f
    5ca4:	02000000 	andeq	r0, r0, #0
    5ca8:	00004791 	muleq	r0, r1, r7
    5cac:	00006312 	andeq	r6, r0, r2, lsl r3
    5cb0:	00082600 	andeq	r2, r8, r0, lsl #12
    5cb4:	00321700 	eorseq	r1, r2, r0, lsl #14
    5cb8:	000f0000 	andeq	r0, pc, r0
    5cbc:	00081614 	andeq	r1, r8, r4, lsl r6
    5cc0:	005c1200 	subseq	r1, ip, r0, lsl #4
    5cc4:	083b0000 	ldmdaeq	fp!, {}	; <UNPREDICTABLE>
    5cc8:	32170000 	andscc	r0, r7, #0
    5ccc:	63000000 	movwvs	r0, #0
    5cd0:	1dc51600 	stclne	6, cr1, [r5]
    5cd4:	57f10000 	ldrbpl	r0, [r1, r0]!
    5cd8:	ea000000 	b	5ce0 <shift+0x5ce0>
    5cdc:	a4800028 	strge	r0, [r0], #40	; 0x28
    5ce0:	01000000 	mrseq	r0, (UNDEF: 0)
    5ce4:	0008b09c 	muleq	r8, ip, r0
    5ce8:	75620600 	strbvc	r0, [r2, #-1536]!	; 0xfffffa00
    5cec:	f1020066 			; <UNDEFINED> instruction: 0xf1020066
    5cf0:	0000571c 	andeq	r5, r0, ip, lsl r7
    5cf4:	5c910200 	lfmpl	f0, 4, [r1], {0}
    5cf8:	6d756e06 	ldclvs	14, cr6, [r5, #-24]!	; 0xffffffe8
    5cfc:	2af10200 	bcs	ffc46504 <__bss_end+0x7fc416c8>
    5d00:	00000090 	muleq	r0, r0, r0
    5d04:	0d509102 	ldfeqp	f1, [r0, #-8]
    5d08:	800028f6 	strdhi	r2, [r0], -r6
    5d0c:	0000008e 	andeq	r0, r0, lr, lsl #1
    5d10:	6d657209 	sfmvs	f7, 2, [r5, #-36]!	; 0xffffffdc
    5d14:	320cf400 	andcc	pc, ip, #0, 8
    5d18:	02000000 	andeq	r0, r0, #0
    5d1c:	1c0d6491 	cfstrsne	mvf6, [sp], {145}	; 0x91
    5d20:	5c800029 	stcpl	0, cr0, [r0], {41}	; 0x29
    5d24:	0c000000 	stceq	0, cr0, [r0], {-0}
    5d28:	00001d8b 	andeq	r1, r0, fp, lsl #27
    5d2c:	003209f7 	ldrshteq	r0, [r2], -r7
    5d30:	91020000 	mrsls	r0, (UNDEF: 2)
    5d34:	1d800c68 	stcne	12, cr0, [r0, #416]	; 0x1a0
    5d38:	09f70000 	ldmibeq	r7!, {}^	; <UNPREDICTABLE>
    5d3c:	00000032 	andeq	r0, r0, r2, lsr r0
    5d40:	006c9102 	rsbeq	r9, ip, r2, lsl #2
    5d44:	92130000 	andsls	r0, r3, #0
    5d48:	c600001d 			; <UNDEFINED> instruction: 0xc600001d
    5d4c:	0000570e 	andeq	r5, r0, lr, lsl #14
    5d50:	0027b600 	eoreq	fp, r7, r0, lsl #12
    5d54:	00013480 	andeq	r3, r1, r0, lsl #9
    5d58:	1a9c0100 	bne	fe706160 <__bss_end+0x7e701324>
    5d5c:	06000009 	streq	r0, [r0], -r9
    5d60:	00667562 	rsbeq	r7, r6, r2, ror #10
    5d64:	5721c602 	strpl	ip, [r1, -r2, lsl #12]!
    5d68:	02000000 	andeq	r0, r0, #0
    5d6c:	71066491 			; <UNDEFINED> instruction: 0x71066491
    5d70:	2fc60200 	svccs	0x00c60200
    5d74:	00000032 	andeq	r0, r0, r2, lsr r0
    5d78:	09609102 	stmdbeq	r0!, {r1, r8, ip, pc}^
    5d7c:	ca003364 	bgt	12b14 <shift+0x12b14>
    5d80:	0000320b 	andeq	r3, r0, fp, lsl #4
    5d84:	6c910200 	lfmvs	f0, 4, [r1], {0}
    5d88:	00326409 	eorseq	r6, r2, r9, lsl #8
    5d8c:	00320fca 	eorseq	r0, r2, sl, asr #31
    5d90:	91020000 	mrsls	r0, (UNDEF: 2)
    5d94:	31640970 	smccc	16528	; 0x4090
    5d98:	3213ca00 	andscc	ip, r3, #0, 20
    5d9c:	02000000 	andeq	r0, r0, #0
    5da0:	64097491 	strvs	r7, [r9], #-1169	; 0xfffffb6f
    5da4:	17ca0030 			; <UNDEFINED> instruction: 0x17ca0030
    5da8:	00000032 	andeq	r0, r0, r2, lsr r0
    5dac:	00689102 	rsbeq	r9, r8, r2, lsl #2
    5db0:	001df213 	andseq	pc, sp, r3, lsl r2	; <UNPREDICTABLE>
    5db4:	570ea100 	strpl	sl, [lr, -r0, lsl #2]
    5db8:	64000000 	strvs	r0, [r0], #-0
    5dbc:	52800026 	addpl	r0, r0, #38	; 0x26
    5dc0:	01000001 	tsteq	r0, r1
    5dc4:	0009849c 	muleq	r9, ip, r4
    5dc8:	75620600 	strbvc	r0, [r2, #-1536]!	; 0xfffffa00
    5dcc:	a1020066 	tstge	r2, r6, rrx
    5dd0:	00005722 	andeq	r5, r0, r2, lsr #14
    5dd4:	64910200 	ldrvs	r0, [r1], #512	; 0x200
    5dd8:	02007106 	andeq	r7, r0, #-2147483647	; 0x80000001
    5ddc:	003230a1 	eorseq	r3, r2, r1, lsr #1
    5de0:	91020000 	mrsls	r0, (UNDEF: 2)
    5de4:	33640960 	cmncc	r4, #96, 18	; 0x180000
    5de8:	320ba300 	andcc	sl, fp, #0, 6
    5dec:	02000000 	andeq	r0, r0, #0
    5df0:	64096c91 	strvs	r6, [r9], #-3217	; 0xfffff36f
    5df4:	0fa30032 	svceq	0x00a30032
    5df8:	00000032 	andeq	r0, r0, r2, lsr r0
    5dfc:	09709102 	ldmdbeq	r0!, {r1, r8, ip, pc}^
    5e00:	a3003164 	movwge	r3, #356	; 0x164
    5e04:	00003213 	andeq	r3, r0, r3, lsl r2
    5e08:	74910200 	ldrvc	r0, [r1], #512	; 0x200
    5e0c:	00306409 	eorseq	r6, r0, r9, lsl #8
    5e10:	003217a3 	eorseq	r1, r2, r3, lsr #15
    5e14:	91020000 	mrsls	r0, (UNDEF: 2)
    5e18:	0a130068 	beq	4c5fc0 <shift+0x4c5fc0>
    5e1c:	8b00001e 	blhi	5e9c <shift+0x5e9c>
    5e20:	0000820c 	andeq	r8, r0, ip, lsl #4
    5e24:	00260c00 	eoreq	r0, r6, r0, lsl #24
    5e28:	00005880 	andeq	r5, r0, r0, lsl #17
    5e2c:	b79c0100 	ldrlt	r0, [ip, r0, lsl #2]
    5e30:	06000009 	streq	r0, [r0], -r9
    5e34:	8b020073 	blhi	86008 <shift+0x86008>
    5e38:	0009b723 	andeq	fp, r9, r3, lsr #14
    5e3c:	6c910200 	lfmvs	f0, 4, [r1], {0}
    5e40:	8d006909 	vstrhi.16	s12, [r0, #-18]	; 0xffffffee	; <UNPREDICTABLE>
    5e44:	00008206 	andeq	r8, r0, r6, lsl #4
    5e48:	74910200 	ldrvc	r0, [r1], #512	; 0x200
    5e4c:	00d30500 	sbcseq	r0, r3, r0, lsl #10
    5e50:	b6100000 	ldrlt	r0, [r0], -r0
    5e54:	8400001d 	strhi	r0, [r0], #-29	; 0xffffffe3
    5e58:	0000a30b 	andeq	sl, r0, fp, lsl #6
    5e5c:	0025c000 	eoreq	ip, r5, r0
    5e60:	00004c80 	andeq	r4, r0, r0, lsl #25
    5e64:	009c0100 	addseq	r0, ip, r0, lsl #2
    5e68:	0600000a 	streq	r0, [r0], -sl
    5e6c:	02007063 	andeq	r7, r0, #99	; 0x63
    5e70:	00d32684 	sbcseq	r2, r3, r4, lsl #13
    5e74:	91020000 	mrsls	r0, (UNDEF: 2)
    5e78:	1d86076c 	stcne	7, cr0, [r6, #432]	; 0x1b0
    5e7c:	30840000 	addcc	r0, r4, r0
    5e80:	00000a00 	andeq	r0, r0, r0, lsl #20
    5e84:	07689102 	strbeq	r9, [r8, -r2, lsl #2]!
    5e88:	00001d8d 	andeq	r1, r0, sp, lsl #27
    5e8c:	00324284 	eorseq	r4, r2, r4, lsl #5
    5e90:	91020000 	mrsls	r0, (UNDEF: 2)
    5e94:	57050064 	strpl	r0, [r5, -r4, rrx]
    5e98:	10000000 	andne	r0, r0, r0
    5e9c:	00001dcd 	andeq	r1, r0, sp, asr #27
    5ea0:	009c1460 	addseq	r1, ip, r0, ror #8
    5ea4:	24500000 	ldrbcs	r0, [r0], #-0
    5ea8:	01708000 	cmneq	r0, r0
    5eac:	9c010000 	stcls	0, cr0, [r1], {-0}
    5eb0:	00000a66 	andeq	r0, r0, r6, ror #20
    5eb4:	00706306 	rsbseq	r6, r0, r6, lsl #6
    5eb8:	d3306002 	teqle	r0, #2
    5ebc:	02000000 	andeq	r0, r0, #0
    5ec0:	86074491 			; <UNDEFINED> instruction: 0x86074491
    5ec4:	6000001d 	andvs	r0, r0, sp, lsl r0
    5ec8:	000a003a 	andeq	r0, sl, sl, lsr r0
    5ecc:	40910200 	addsmi	r0, r1, r0, lsl #4
    5ed0:	001d8d07 	andseq	r8, sp, r7, lsl #26
    5ed4:	324c6000 	subcc	r6, ip, #0
    5ed8:	03000000 	movweq	r0, #0
    5edc:	0c7fbc91 	ldcleq	12, cr11, [pc], #-580	; 5ca0 <shift+0x5ca0>
    5ee0:	00001d40 	andeq	r1, r0, r0, asr #26
    5ee4:	009c1562 	addseq	r1, ip, r2, ror #10
    5ee8:	91020000 	mrsls	r0, (UNDEF: 2)
    5eec:	139c0c50 	orrsne	r0, ip, #80, 24	; 0x5000
    5ef0:	20620000 	rsbcs	r0, r2, r0
    5ef4:	0000009c 	muleq	r0, ip, r0
    5ef8:	00489102 	subeq	r9, r8, r2, lsl #2
    5efc:	001d5c10 	andseq	r5, sp, r0, lsl ip
    5f00:	b1065100 	mrslt	r5, (UNDEF: 22)
    5f04:	14000000 	strne	r0, [r0], #-0
    5f08:	3c800024 	stccc	0, cr0, [r0], {36}	; 0x24
    5f0c:	01000000 	mrseq	r0, (UNDEF: 0)
    5f10:	000aaa9c 	muleq	sl, ip, sl
    5f14:	70630600 	rsbvc	r0, r3, r0, lsl #12
    5f18:	20510200 	subscs	r0, r1, r0, lsl #4
    5f1c:	000000d3 	ldrdeq	r0, [r0], -r3
    5f20:	07749102 	ldrbeq	r9, [r4, -r2, lsl #2]!
    5f24:	00001d86 	andeq	r1, r0, r6, lsl #27
    5f28:	0a002a51 	beq	10874 <shift+0x10874>
    5f2c:	91020000 	mrsls	r0, (UNDEF: 2)
    5f30:	1d8d0770 	stcne	7, cr0, [sp, #448]	; 0x1c0
    5f34:	3c510000 	mracc	r0, r1, acc0
    5f38:	00000032 	andeq	r0, r0, r2, lsr r0
    5f3c:	006c9102 	rsbeq	r9, ip, r2, lsl #2
    5f40:	001e2e10 	andseq	r2, lr, r0, lsl lr
    5f44:	aa0f2d00 	bge	3d134c <shift+0x3d134c>
    5f48:	10000000 	andne	r0, r0, r0
    5f4c:	04800023 	streq	r0, [r0], #35	; 0x23
    5f50:	01000001 	tsteq	r0, r1
    5f54:	000b0a9c 	muleq	fp, ip, sl
    5f58:	70630600 	rsbvc	r0, r3, r0, lsl #12
    5f5c:	2a2d0200 	bcs	b46764 <shift+0xb46764>
    5f60:	000000d3 	ldrdeq	r0, [r0], -r3
    5f64:	07649102 	strbeq	r9, [r4, -r2, lsl #2]!
    5f68:	00001d86 	andeq	r1, r0, r6, lsl #27
    5f6c:	0a00342d 	beq	13028 <shift+0x13028>
    5f70:	91020000 	mrsls	r0, (UNDEF: 2)
    5f74:	1d8d0760 	stcne	7, cr0, [sp, #384]	; 0x180
    5f78:	462d0000 	strtmi	r0, [sp], -r0
    5f7c:	00000032 	andeq	r0, r0, r2, lsr r0
    5f80:	0c5c9102 	ldfeqp	f1, [ip], {2}
    5f84:	00001d40 	andeq	r1, r0, r0, asr #26
    5f88:	00aa102f 	adceq	r1, sl, pc, lsr #32
    5f8c:	91020000 	mrsls	r0, (UNDEF: 2)
    5f90:	139c0c6c 	orrsne	r0, ip, #108, 24	; 0x6c00
    5f94:	1b2f0000 	blne	bc5f9c <shift+0xbc5f9c>
    5f98:	000000aa 	andeq	r0, r0, sl, lsr #1
    5f9c:	00689102 	rsbeq	r9, r8, r2, lsl #2
    5fa0:	001d9f1d 	andseq	r9, sp, sp, lsl pc
    5fa4:	1d290100 	stfnes	f0, [r9, #-0]
    5fa8:	00000044 	andeq	r0, r0, r4, asr #32
    5fac:	800022d4 	ldrdhi	r2, [r0], -r4
    5fb0:	0000003c 	andeq	r0, r0, ip, lsr r0
    5fb4:	63069c01 	movwvs	r9, #27649	; 0x6c01
    5fb8:	35290100 	strcc	r0, [r9, #-256]!	; 0xffffff00
    5fbc:	00000044 	andeq	r0, r0, r4, asr #32
    5fc0:	00779102 	rsbseq	r9, r7, r2, lsl #2
    5fc4:	0001bb00 	andeq	fp, r1, r0, lsl #22
    5fc8:	1f000200 	svcne	0x00000200
    5fcc:	04000019 	streq	r0, [r0], #-25	; 0xffffffe7
    5fd0:	00234101 	eoreq	r4, r3, r1, lsl #2
    5fd4:	003bf000 	eorseq	pc, fp, r0
    5fd8:	003e6680 	eorseq	r6, lr, r0, lsl #13
    5fdc:	6f682f80 	svcvs	0x00682f80
    5fe0:	742f656d 	strtvc	r6, [pc], #-1389	; 5fe8 <shift+0x5fe8>
    5fe4:	2d677763 	stclcs	7, cr7, [r7, #-396]!	; 0xfffffe74
    5fe8:	6c697562 	cfstr64vs	mvdx7, [r9], #-392	; 0xfffffe78
    5fec:	616c7364 	cmnvs	ip, r4, ror #6
    5ff0:	772f6576 			; <UNDEFINED> instruction: 0x772f6576
    5ff4:	736b726f 	cmnvc	fp, #-268435450	; 0xf0000006
    5ff8:	65636170 	strbvs	r6, [r3, #-368]!	; 0xfffffe90
    5ffc:	7763742f 	strbvc	r7, [r3, -pc, lsr #8]!
    6000:	616d2d67 	cmnvs	sp, r7, ror #26
    6004:	722d656b 	eorvc	r6, sp, #448790528	; 0x1ac00000
    6008:	61656c65 	cmnvs	r5, r5, ror #24
    600c:	6c2f6573 	cfstr32vs	mvfx6, [pc], #-460	; 5e48 <shift+0x5e48>
    6010:	6c656261 	sfmvs	f6, 2, [r5], #-388	; 0xfffffe7c
    6014:	636f642f 	cmnvs	pc, #788529152	; 0x2f000000
    6018:	2d72656b 	cfldr64cs	mvdx6, [r2, #-428]!	; 0xfffffe54
    601c:	73757274 	cmnvc	r5, #116, 4	; 0x40000007
    6020:	612d7974 			; <UNDEFINED> instruction: 0x612d7974
    6024:	3436646d 	ldrtcc	r6, [r6], #-1133	; 0xfffffb93
    6028:	7763742d 	strbvc	r7, [r3, -sp, lsr #8]!
    602c:	75622d67 	strbvc	r2, [r2, #-3431]!	; 0xfffff299
    6030:	2f646c69 	svccs	0x00646c69
    6034:	67726174 			; <UNDEFINED> instruction: 0x67726174
    6038:	612f7465 			; <UNDEFINED> instruction: 0x612f7465
    603c:	6c2d6d72 	stcvs	13, cr6, [sp], #-456	; 0xfffffe38
    6040:	78756e69 	ldmdavc	r5!, {r0, r3, r5, r6, r9, sl, fp, sp, lr}^
    6044:	756e672d 	strbvc	r6, [lr, #-1837]!	; 0xfffff8d3
    6048:	69626165 	stmdbvs	r2!, {r0, r2, r5, r6, r8, sp, lr}^
    604c:	732f6668 			; <UNDEFINED> instruction: 0x732f6668
    6050:	7370616e 	cmnvc	r0, #-2147483621	; 0x8000001b
    6054:	73746f68 	cmnvc	r4, #104, 30	; 0x1a0
    6058:	6363672f 	cmnvs	r3, #12320768	; 0xbc0000
    605c:	6e696c2d 	cdpvs	12, 6, cr6, cr9, cr13, {1}
    6060:	2d6f7261 	sfmcs	f7, 2, [pc, #-388]!	; 5ee4 <shift+0x5ee4>
    6064:	2d392e34 	ldccs	14, cr2, [r9, #-208]!	; 0xffffff30
    6068:	37313032 			; <UNDEFINED> instruction: 0x37313032
    606c:	2f31302e 	svccs	0x0031302e
    6070:	6762696c 	strbvs	r6, [r2, -ip, ror #18]!
    6074:	632f6363 			; <UNDEFINED> instruction: 0x632f6363
    6078:	69666e6f 	stmdbvs	r6!, {r0, r1, r2, r3, r5, r6, r9, sl, fp, sp, lr}^
    607c:	72612f67 	rsbvc	r2, r1, #412	; 0x19c
    6080:	696c2f6d 	stmdbvs	ip!, {r0, r2, r3, r5, r6, r8, r9, sl, fp, sp}^
    6084:	75663162 	strbvc	r3, [r6, #-354]!	; 0xfffffe9e
    6088:	2e73636e 	cdpcs	3, 7, cr6, cr3, cr14, {3}
    608c:	682f0053 	stmdavs	pc!, {r0, r1, r4, r6}	; <UNPREDICTABLE>
    6090:	2f656d6f 	svccs	0x00656d6f
    6094:	67776374 			; <UNDEFINED> instruction: 0x67776374
    6098:	6975622d 	ldmdbvs	r5!, {r0, r2, r3, r5, r9, sp, lr}^
    609c:	6c73646c 	cfldrdvs	mvd6, [r3], #-432	; 0xfffffe50
    60a0:	2f657661 	svccs	0x00657661
    60a4:	6b726f77 	blvs	1ca1e88 <shift+0x1ca1e88>
    60a8:	63617073 	cmnvs	r1, #115	; 0x73
    60ac:	63742f65 	cmnvs	r4, #404	; 0x194
    60b0:	6d2d6777 	stcvs	7, cr6, [sp, #-476]!	; 0xfffffe24
    60b4:	2d656b61 	fstmdbxcs	r5!, {d22-d69}	;@ Deprecated
    60b8:	656c6572 	strbvs	r6, [ip, #-1394]!	; 0xfffffa8e
    60bc:	2f657361 	svccs	0x00657361
    60c0:	6562616c 	strbvs	r6, [r2, #-364]!	; 0xfffffe94
    60c4:	6f642f6c 	svcvs	0x00642f6c
    60c8:	72656b63 	rsbvc	r6, r5, #101376	; 0x18c00
    60cc:	7572742d 	ldrbvc	r7, [r2, #-1069]!	; 0xfffffbd3
    60d0:	2d797473 	cfldrdcs	mvd7, [r9, #-460]!	; 0xfffffe34
    60d4:	36646d61 	strbtcc	r6, [r4], -r1, ror #26
    60d8:	63742d34 	cmnvs	r4, #52, 26	; 0xd00
    60dc:	622d6777 	eorvs	r6, sp, #31195136	; 0x1dc0000
    60e0:	646c6975 	strbtvs	r6, [ip], #-2421	; 0xfffff68b
    60e4:	7261742f 	rsbvc	r7, r1, #788529152	; 0x2f000000
    60e8:	2f746567 	svccs	0x00746567
    60ec:	2d6d7261 	sfmcs	f7, 2, [sp, #-388]!	; 0xfffffe7c
    60f0:	756e696c 	strbvc	r6, [lr, #-2412]!	; 0xfffff694
    60f4:	6e672d78 	mcrvs	13, 3, r2, cr7, cr8, {3}
    60f8:	62616575 	rsbvs	r6, r1, #490733568	; 0x1d400000
    60fc:	2f666869 	svccs	0x00666869
    6100:	6975625f 	ldmdbvs	r5!, {r0, r1, r2, r3, r4, r6, r9, sp, lr}^
    6104:	622f646c 	eorvs	r6, pc, #108, 8	; 0x6c000000
    6108:	646c6975 	strbtvs	r6, [ip], #-2421	; 0xfffff68b
    610c:	38782f73 	ldmdacc	r8!, {r0, r1, r4, r5, r6, r8, r9, sl, fp, sp}^
    6110:	34365f36 	ldrtcc	r5, [r6], #-3894	; 0xfffff0ca
    6114:	6b6e752d 	blvs	1ba35d0 <shift+0x1ba35d0>
    6118:	6e776f6e 	cdpvs	15, 7, cr6, cr7, cr14, {3}
    611c:	6e696c2d 	cdpvs	12, 6, cr6, cr9, cr13, {1}
    6120:	672d7875 			; <UNDEFINED> instruction: 0x672d7875
    6124:	612f756e 			; <UNDEFINED> instruction: 0x612f756e
    6128:	6c2d6d72 	stcvs	13, cr6, [sp], #-456	; 0xfffffe38
    612c:	78756e69 	ldmdavc	r5!, {r0, r3, r5, r6, r9, sl, fp, sp, lr}^
    6130:	756e672d 	strbvc	r6, [lr, #-1837]!	; 0xfffff8d3
    6134:	69626165 	stmdbvs	r2!, {r0, r2, r5, r6, r8, sp, lr}^
    6138:	672f6668 	strvs	r6, [pc, -r8, ror #12]!
    613c:	6c2d6363 	stcvs	3, cr6, [sp], #-396	; 0xfffffe74
    6140:	72616e69 	rsbvc	r6, r1, #1680	; 0x690
    6144:	2e342d6f 	cdpcs	13, 3, cr2, cr4, cr15, {3}
    6148:	30322d39 	eorscc	r2, r2, r9, lsr sp
    614c:	302e3731 	eorcc	r3, lr, r1, lsr r7
    6150:	74732d31 	ldrbtvc	r2, [r3], #-3377	; 0xfffff2cf
    6154:	32656761 	rsbcc	r6, r5, #25427968	; 0x1840000
    6158:	6d72612f 	ldfvse	f6, [r2, #-188]!	; 0xffffff44
    615c:	6e696c2d 	cdpvs	12, 6, cr6, cr9, cr13, {1}
    6160:	672d7875 			; <UNDEFINED> instruction: 0x672d7875
    6164:	6165756e 	cmnvs	r5, lr, ror #10
    6168:	66686962 	strbtvs	r6, [r8], -r2, ror #18
    616c:	62696c2f 	rsbvs	r6, r9, #12032	; 0x2f00
    6170:	00636367 	rsbeq	r6, r3, r7, ror #6
    6174:	20554e47 	subscs	r4, r5, r7, asr #28
    6178:	32205341 	eorcc	r5, r0, #67108865	; 0x4000001
    617c:	2e34322e 	cdpcs	2, 3, cr3, cr4, cr14, {1}
    6180:	80010030 	andhi	r0, r1, r0, lsr r0
    6184:	000001b7 			; <UNDEFINED> instruction: 0x000001b7
    6188:	19330002 	ldmdbne	r3!, {r1}
    618c:	01040000 	mrseq	r0, (UNDEF: 4)
    6190:	00002445 	andeq	r2, r0, r5, asr #8
    6194:	80003e68 	andhi	r3, r0, r8, ror #28
    6198:	80003e98 	mulhi	r0, r8, lr
    619c:	6d6f682f 	stclvs	8, cr6, [pc, #-188]!	; 60e8 <shift+0x60e8>
    61a0:	63742f65 	cmnvs	r4, #404	; 0x194
    61a4:	622d6777 	eorvs	r6, sp, #31195136	; 0x1dc0000
    61a8:	646c6975 	strbtvs	r6, [ip], #-2421	; 0xfffff68b
    61ac:	76616c73 			; <UNDEFINED> instruction: 0x76616c73
    61b0:	6f772f65 	svcvs	0x00772f65
    61b4:	70736b72 	rsbsvc	r6, r3, r2, ror fp
    61b8:	2f656361 	svccs	0x00656361
    61bc:	67776374 			; <UNDEFINED> instruction: 0x67776374
    61c0:	6b616d2d 	blvs	186167c <shift+0x186167c>
    61c4:	65722d65 	ldrbvs	r2, [r2, #-3429]!	; 0xfffff29b
    61c8:	7361656c 	cmnvc	r1, #108, 10	; 0x1b000000
    61cc:	616c2f65 	cmnvs	ip, r5, ror #30
    61d0:	2f6c6562 	svccs	0x006c6562
    61d4:	6b636f64 	blvs	18e1f6c <shift+0x18e1f6c>
    61d8:	742d7265 	strtvc	r7, [sp], #-613	; 0xfffffd9b
    61dc:	74737572 	ldrbtvc	r7, [r3], #-1394	; 0xfffffa8e
    61e0:	6d612d79 	stclvs	13, cr2, [r1, #-484]!	; 0xfffffe1c
    61e4:	2d343664 	ldccs	6, cr3, [r4, #-400]!	; 0xfffffe70
    61e8:	67776374 			; <UNDEFINED> instruction: 0x67776374
    61ec:	6975622d 	ldmdbvs	r5!, {r0, r2, r3, r5, r9, sp, lr}^
    61f0:	742f646c 	strtvc	r6, [pc], #-1132	; 61f8 <shift+0x61f8>
    61f4:	65677261 	strbvs	r7, [r7, #-609]!	; 0xfffffd9f
    61f8:	72612f74 	rsbvc	r2, r1, #116, 30	; 0x1d0
    61fc:	696c2d6d 	stmdbvs	ip!, {r0, r2, r3, r5, r6, r8, sl, fp, sp}^
    6200:	2d78756e 	cfldr64cs	mvdx7, [r8, #-440]!	; 0xfffffe48
    6204:	65756e67 	ldrbvs	r6, [r5, #-3687]!	; 0xfffff199
    6208:	68696261 	stmdavs	r9!, {r0, r5, r6, r9, sp, lr}^
    620c:	6e732f66 	cdpvs	15, 7, cr2, cr3, cr6, {3}
    6210:	68737061 	ldmdavs	r3!, {r0, r5, r6, ip, sp, lr}^
    6214:	2f73746f 	svccs	0x0073746f
    6218:	2d636367 	stclcs	3, cr6, [r3, #-412]!	; 0xfffffe64
    621c:	616e696c 	cmnvs	lr, ip, ror #18
    6220:	342d6f72 	strtcc	r6, [sp], #-3954	; 0xfffff08e
    6224:	322d392e 	eorcc	r3, sp, #753664	; 0xb8000
    6228:	2e373130 	mrccs	1, 1, r3, cr7, cr0, {1}
    622c:	6c2f3130 	stfvss	f3, [pc], #-192	; 6174 <shift+0x6174>
    6230:	63676269 	cmnvs	r7, #-1879048186	; 0x90000006
    6234:	6f632f63 	svcvs	0x00632f63
    6238:	6769666e 	strbvs	r6, [r9, -lr, ror #12]!
    623c:	6d72612f 	ldfvse	f6, [r2, #-188]!	; 0xffffff44
    6240:	6170622f 	cmnvs	r0, pc, lsr #4
    6244:	532e6962 			; <UNDEFINED> instruction: 0x532e6962
    6248:	6f682f00 	svcvs	0x00682f00
    624c:	742f656d 	strtvc	r6, [pc], #-1389	; 6254 <shift+0x6254>
    6250:	2d677763 	stclcs	7, cr7, [r7, #-396]!	; 0xfffffe74
    6254:	6c697562 	cfstr64vs	mvdx7, [r9], #-392	; 0xfffffe78
    6258:	616c7364 	cmnvs	ip, r4, ror #6
    625c:	772f6576 			; <UNDEFINED> instruction: 0x772f6576
    6260:	736b726f 	cmnvc	fp, #-268435450	; 0xf0000006
    6264:	65636170 	strbvs	r6, [r3, #-368]!	; 0xfffffe90
    6268:	7763742f 	strbvc	r7, [r3, -pc, lsr #8]!
    626c:	616d2d67 	cmnvs	sp, r7, ror #26
    6270:	722d656b 	eorvc	r6, sp, #448790528	; 0x1ac00000
    6274:	61656c65 	cmnvs	r5, r5, ror #24
    6278:	6c2f6573 	cfstr32vs	mvfx6, [pc], #-460	; 60b4 <shift+0x60b4>
    627c:	6c656261 	sfmvs	f6, 2, [r5], #-388	; 0xfffffe7c
    6280:	636f642f 	cmnvs	pc, #788529152	; 0x2f000000
    6284:	2d72656b 	cfldr64cs	mvdx6, [r2, #-428]!	; 0xfffffe54
    6288:	73757274 	cmnvc	r5, #116, 4	; 0x40000007
    628c:	612d7974 			; <UNDEFINED> instruction: 0x612d7974
    6290:	3436646d 	ldrtcc	r6, [r6], #-1133	; 0xfffffb93
    6294:	7763742d 	strbvc	r7, [r3, -sp, lsr #8]!
    6298:	75622d67 	strbvc	r2, [r2, #-3431]!	; 0xfffff299
    629c:	2f646c69 	svccs	0x00646c69
    62a0:	67726174 			; <UNDEFINED> instruction: 0x67726174
    62a4:	612f7465 			; <UNDEFINED> instruction: 0x612f7465
    62a8:	6c2d6d72 	stcvs	13, cr6, [sp], #-456	; 0xfffffe38
    62ac:	78756e69 	ldmdavc	r5!, {r0, r3, r5, r6, r9, sl, fp, sp, lr}^
    62b0:	756e672d 	strbvc	r6, [lr, #-1837]!	; 0xfffff8d3
    62b4:	69626165 	stmdbvs	r2!, {r0, r2, r5, r6, r8, sp, lr}^
    62b8:	5f2f6668 	svcpl	0x002f6668
    62bc:	6c697562 	cfstr64vs	mvdx7, [r9], #-392	; 0xfffffe78
    62c0:	75622f64 	strbvc	r2, [r2, #-3940]!	; 0xfffff09c
    62c4:	73646c69 	cmnvc	r4, #26880	; 0x6900
    62c8:	3638782f 	ldrtcc	r7, [r8], -pc, lsr #16
    62cc:	2d34365f 	ldccs	6, cr3, [r4, #-380]!	; 0xfffffe84
    62d0:	6e6b6e75 	mcrvs	14, 3, r6, cr11, cr5, {3}
    62d4:	2d6e776f 	stclcs	7, cr7, [lr, #-444]!	; 0xfffffe44
    62d8:	756e696c 	strbvc	r6, [lr, #-2412]!	; 0xfffff694
    62dc:	6e672d78 	mcrvs	13, 3, r2, cr7, cr8, {3}
    62e0:	72612f75 	rsbvc	r2, r1, #468	; 0x1d4
    62e4:	696c2d6d 	stmdbvs	ip!, {r0, r2, r3, r5, r6, r8, sl, fp, sp}^
    62e8:	2d78756e 	cfldr64cs	mvdx7, [r8, #-440]!	; 0xfffffe48
    62ec:	65756e67 	ldrbvs	r6, [r5, #-3687]!	; 0xfffff199
    62f0:	68696261 	stmdavs	r9!, {r0, r5, r6, r9, sp, lr}^
    62f4:	63672f66 	cmnvs	r7, #408	; 0x198
    62f8:	696c2d63 	stmdbvs	ip!, {r0, r1, r5, r6, r8, sl, fp, sp}^
    62fc:	6f72616e 	svcvs	0x0072616e
    6300:	392e342d 	stmdbcc	lr!, {r0, r2, r3, r5, sl, ip, sp}
    6304:	3130322d 	teqcc	r0, sp, lsr #4
    6308:	31302e37 	teqcc	r0, r7, lsr lr
    630c:	6174732d 	cmnvs	r4, sp, lsr #6
    6310:	2f326567 	svccs	0x00326567
    6314:	2d6d7261 	sfmcs	f7, 2, [sp, #-388]!	; 0xfffffe7c
    6318:	756e696c 	strbvc	r6, [lr, #-2412]!	; 0xfffff694
    631c:	6e672d78 	mcrvs	13, 3, r2, cr7, cr8, {3}
    6320:	62616575 	rsbvs	r6, r1, #490733568	; 0x1d400000
    6324:	2f666869 	svccs	0x00666869
    6328:	6762696c 	strbvs	r6, [r2, -ip, ror #18]!
    632c:	47006363 	strmi	r6, [r0, -r3, ror #6]
    6330:	4120554e 			; <UNDEFINED> instruction: 0x4120554e
    6334:	2e322053 	mrccs	0, 1, r2, cr2, cr3, {2}
    6338:	302e3432 	eorcc	r3, lr, r2, lsr r4
    633c:	bb800100 	bllt	fe006744 <__bss_end+0x7e001908>
    6340:	02000001 	andeq	r0, r0, #1
    6344:	00194700 	andseq	r4, r9, r0, lsl #14
    6348:	26010400 	strcs	r0, [r1], -r0, lsl #8
    634c:	98000025 	stmdals	r0, {r0, r2, r5}
    6350:	a480003e 	strge	r0, [r0], #62	; 0x3e
    6354:	2f80003e 	svccs	0x0080003e
    6358:	656d6f68 	strbvs	r6, [sp, #-3944]!	; 0xfffff098
    635c:	7763742f 	strbvc	r7, [r3, -pc, lsr #8]!
    6360:	75622d67 	strbvc	r2, [r2, #-3431]!	; 0xfffff299
    6364:	73646c69 	cmnvc	r4, #26880	; 0x6900
    6368:	6576616c 	ldrbvs	r6, [r6, #-364]!	; 0xfffffe94
    636c:	726f772f 	rsbvc	r7, pc, #12320768	; 0xbc0000
    6370:	6170736b 	cmnvs	r0, fp, ror #6
    6374:	742f6563 	strtvc	r6, [pc], #-1379	; 637c <shift+0x637c>
    6378:	2d677763 	stclcs	7, cr7, [r7, #-396]!	; 0xfffffe74
    637c:	656b616d 	strbvs	r6, [fp, #-365]!	; 0xfffffe93
    6380:	6c65722d 	sfmvs	f7, 2, [r5], #-180	; 0xffffff4c
    6384:	65736165 	ldrbvs	r6, [r3, #-357]!	; 0xfffffe9b
    6388:	62616c2f 	rsbvs	r6, r1, #12032	; 0x2f00
    638c:	642f6c65 	strtvs	r6, [pc], #-3173	; 6394 <shift+0x6394>
    6390:	656b636f 	strbvs	r6, [fp, #-879]!	; 0xfffffc91
    6394:	72742d72 	rsbsvc	r2, r4, #7296	; 0x1c80
    6398:	79747375 	ldmdbvc	r4!, {r0, r2, r4, r5, r6, r8, r9, ip, sp, lr}^
    639c:	646d612d 	strbtvs	r6, [sp], #-301	; 0xfffffed3
    63a0:	742d3436 	strtvc	r3, [sp], #-1078	; 0xfffffbca
    63a4:	2d677763 	stclcs	7, cr7, [r7, #-396]!	; 0xfffffe74
    63a8:	6c697562 	cfstr64vs	mvdx7, [r9], #-392	; 0xfffffe78
    63ac:	61742f64 	cmnvs	r4, r4, ror #30
    63b0:	74656772 	strbtvc	r6, [r5], #-1906	; 0xfffff88e
    63b4:	6d72612f 	ldfvse	f6, [r2, #-188]!	; 0xffffff44
    63b8:	6e696c2d 	cdpvs	12, 6, cr6, cr9, cr13, {1}
    63bc:	672d7875 			; <UNDEFINED> instruction: 0x672d7875
    63c0:	6165756e 	cmnvs	r5, lr, ror #10
    63c4:	66686962 	strbtvs	r6, [r8], -r2, ror #18
    63c8:	616e732f 	cmnvs	lr, pc, lsr #6
    63cc:	6f687370 	svcvs	0x00687370
    63d0:	672f7374 			; <UNDEFINED> instruction: 0x672f7374
    63d4:	6c2d6363 	stcvs	3, cr6, [sp], #-396	; 0xfffffe74
    63d8:	72616e69 	rsbvc	r6, r1, #1680	; 0x690
    63dc:	2e342d6f 	cdpcs	13, 3, cr2, cr4, cr15, {3}
    63e0:	30322d39 	eorscc	r2, r2, r9, lsr sp
    63e4:	302e3731 	eorcc	r3, lr, r1, lsr r7
    63e8:	696c2f31 	stmdbvs	ip!, {r0, r4, r5, r8, r9, sl, fp, sp}^
    63ec:	63636762 	cmnvs	r3, #25690112	; 0x1880000
    63f0:	6e6f632f 	cdpvs	3, 6, cr6, cr15, cr15, {1}
    63f4:	2f676966 	svccs	0x00676966
    63f8:	2f6d7261 	svccs	0x006d7261
    63fc:	3162696c 	cmncc	r2, ip, ror #18
    6400:	636e7566 	cmnvs	lr, #427819008	; 0x19800000
    6404:	00532e73 	subseq	r2, r3, r3, ror lr
    6408:	6d6f682f 	stclvs	8, cr6, [pc, #-188]!	; 6354 <shift+0x6354>
    640c:	63742f65 	cmnvs	r4, #404	; 0x194
    6410:	622d6777 	eorvs	r6, sp, #31195136	; 0x1dc0000
    6414:	646c6975 	strbtvs	r6, [ip], #-2421	; 0xfffff68b
    6418:	76616c73 			; <UNDEFINED> instruction: 0x76616c73
    641c:	6f772f65 	svcvs	0x00772f65
    6420:	70736b72 	rsbsvc	r6, r3, r2, ror fp
    6424:	2f656361 	svccs	0x00656361
    6428:	67776374 			; <UNDEFINED> instruction: 0x67776374
    642c:	6b616d2d 	blvs	18618e8 <shift+0x18618e8>
    6430:	65722d65 	ldrbvs	r2, [r2, #-3429]!	; 0xfffff29b
    6434:	7361656c 	cmnvc	r1, #108, 10	; 0x1b000000
    6438:	616c2f65 	cmnvs	ip, r5, ror #30
    643c:	2f6c6562 	svccs	0x006c6562
    6440:	6b636f64 	blvs	18e21d8 <shift+0x18e21d8>
    6444:	742d7265 	strtvc	r7, [sp], #-613	; 0xfffffd9b
    6448:	74737572 	ldrbtvc	r7, [r3], #-1394	; 0xfffffa8e
    644c:	6d612d79 	stclvs	13, cr2, [r1, #-484]!	; 0xfffffe1c
    6450:	2d343664 	ldccs	6, cr3, [r4, #-400]!	; 0xfffffe70
    6454:	67776374 			; <UNDEFINED> instruction: 0x67776374
    6458:	6975622d 	ldmdbvs	r5!, {r0, r2, r3, r5, r9, sp, lr}^
    645c:	742f646c 	strtvc	r6, [pc], #-1132	; 6464 <shift+0x6464>
    6460:	65677261 	strbvs	r7, [r7, #-609]!	; 0xfffffd9f
    6464:	72612f74 	rsbvc	r2, r1, #116, 30	; 0x1d0
    6468:	696c2d6d 	stmdbvs	ip!, {r0, r2, r3, r5, r6, r8, sl, fp, sp}^
    646c:	2d78756e 	cfldr64cs	mvdx7, [r8, #-440]!	; 0xfffffe48
    6470:	65756e67 	ldrbvs	r6, [r5, #-3687]!	; 0xfffff199
    6474:	68696261 	stmdavs	r9!, {r0, r5, r6, r9, sp, lr}^
    6478:	625f2f66 	subsvs	r2, pc, #408	; 0x198
    647c:	646c6975 	strbtvs	r6, [ip], #-2421	; 0xfffff68b
    6480:	6975622f 	ldmdbvs	r5!, {r0, r1, r2, r3, r5, r9, sp, lr}^
    6484:	2f73646c 	svccs	0x0073646c
    6488:	5f363878 	svcpl	0x00363878
    648c:	752d3436 	strvc	r3, [sp, #-1078]!	; 0xfffffbca
    6490:	6f6e6b6e 	svcvs	0x006e6b6e
    6494:	6c2d6e77 	stcvs	14, cr6, [sp], #-476	; 0xfffffe24
    6498:	78756e69 	ldmdavc	r5!, {r0, r3, r5, r6, r9, sl, fp, sp, lr}^
    649c:	756e672d 	strbvc	r6, [lr, #-1837]!	; 0xfffff8d3
    64a0:	6d72612f 	ldfvse	f6, [r2, #-188]!	; 0xffffff44
    64a4:	6e696c2d 	cdpvs	12, 6, cr6, cr9, cr13, {1}
    64a8:	672d7875 			; <UNDEFINED> instruction: 0x672d7875
    64ac:	6165756e 	cmnvs	r5, lr, ror #10
    64b0:	66686962 	strbtvs	r6, [r8], -r2, ror #18
    64b4:	6363672f 	cmnvs	r3, #12320768	; 0xbc0000
    64b8:	6e696c2d 	cdpvs	12, 6, cr6, cr9, cr13, {1}
    64bc:	2d6f7261 	sfmcs	f7, 2, [pc, #-388]!	; 6340 <shift+0x6340>
    64c0:	2d392e34 	ldccs	14, cr2, [r9, #-208]!	; 0xffffff30
    64c4:	37313032 			; <UNDEFINED> instruction: 0x37313032
    64c8:	2d31302e 	ldccs	0, cr3, [r1, #-184]!	; 0xffffff48
    64cc:	67617473 			; <UNDEFINED> instruction: 0x67617473
    64d0:	612f3265 			; <UNDEFINED> instruction: 0x612f3265
    64d4:	6c2d6d72 	stcvs	13, cr6, [sp], #-456	; 0xfffffe38
    64d8:	78756e69 	ldmdavc	r5!, {r0, r3, r5, r6, r9, sl, fp, sp, lr}^
    64dc:	756e672d 	strbvc	r6, [lr, #-1837]!	; 0xfffff8d3
    64e0:	69626165 	stmdbvs	r2!, {r0, r2, r5, r6, r8, sp, lr}^
    64e4:	6c2f6668 	stcvs	6, cr6, [pc], #-416	; 634c <shift+0x634c>
    64e8:	63676269 	cmnvs	r7, #-1879048186	; 0x90000006
    64ec:	4e470063 	cdpmi	0, 4, cr0, cr7, cr3, {3}
    64f0:	53412055 	movtpl	r2, #4181	; 0x1055
    64f4:	322e3220 	eorcc	r3, lr, #32, 4
    64f8:	00302e34 	eorseq	r2, r0, r4, lsr lr
    64fc:	015a8001 	cmpeq	sl, r1
    6500:	00040000 	andeq	r0, r4, r0
    6504:	0000195b 	andeq	r1, r0, fp, asr r9
    6508:	1f4c0104 	svcne	0x004c0104
    650c:	50010000 	andpl	r0, r1, r0
    6510:	66000020 	strvs	r0, [r0], -r0, lsr #32
    6514:	a400001e 	strge	r0, [r0], #-30	; 0xffffffe2
    6518:	1680003e 			; <UNDEFINED> instruction: 0x1680003e
    651c:	0d000001 	stceq	0, cr0, [r0, #-4]
    6520:	02000026 	andeq	r0, r0, #38	; 0x26
    6524:	00c90708 	sbceq	r0, r9, r8, lsl #14
    6528:	04030000 	streq	r0, [r3], #-0
    652c:	746e6905 	strbtvc	r6, [lr], #-2309	; 0xfffff6fb
    6530:	07040200 	streq	r0, [r4, -r0, lsl #4]
    6534:	000000d3 	ldrdeq	r0, [r0], -r3
    6538:	9e080102 	adflse	f0, f0, f2
    653c:	02000000 	andeq	r0, r0, #0
    6540:	00eb0702 	rsceq	r0, fp, r2, lsl #14
    6544:	04020000 	streq	r0, [r2], #-0
    6548:	0000ce07 	andeq	ip, r0, r7, lsl #28
    654c:	06010200 	streq	r0, [r1], -r0, lsl #4
    6550:	000000a0 	andeq	r0, r0, r0, lsr #1
    6554:	62050202 	andvs	r0, r5, #536870912	; 0x20000000
    6558:	02000001 	andeq	r0, r0, #1
    655c:	004d0508 	subeq	r0, sp, r8, lsl #10
    6560:	04020000 	streq	r0, [r2], #-0
    6564:	00005205 	andeq	r5, r0, r5, lsl #4
    6568:	07040200 	streq	r0, [r4, -r0, lsl #4]
    656c:	00002038 	andeq	r2, r0, r8, lsr r0
    6570:	a7080102 	strge	r0, [r8, -r2, lsl #2]
    6574:	04000000 	streq	r0, [r0], #-0
    6578:	00001bc5 	andeq	r1, r0, r5, asr #23
    657c:	00338202 	eorseq	r8, r3, r2, lsl #4
    6580:	22040000 	andcs	r0, r4, #0
    6584:	02000020 	andeq	r0, r0, #32
    6588:	00002586 	andeq	r2, r0, r6, lsl #11
    658c:	04040200 	streq	r0, [r4], #-512	; 0xfffffe00
    6590:	00002032 	andeq	r2, r0, r2, lsr r0
    6594:	2a030802 	bcs	c85a4 <shift+0xc85a4>
    6598:	02000020 	andeq	r0, r0, #32
    659c:	20490408 	subcs	r0, r9, r8, lsl #8
    65a0:	10020000 	andne	r0, r2, r0
    65a4:	00204103 	eoreq	r4, r0, r3, lsl #2
    65a8:	1e590500 	cdpne	5, 5, cr0, cr9, cr0, {0}
    65ac:	b0010000 	andlt	r0, r1, r0
    65b0:	00008403 	andeq	r8, r0, r3, lsl #8
    65b4:	003ea400 	eorseq	sl, lr, r0, lsl #8
    65b8:	00011680 	andeq	r1, r1, r0, lsl #13
    65bc:	579c0100 	ldrpl	r0, [ip, r0, lsl #2]
    65c0:	06000001 	streq	r0, [r0], -r1
    65c4:	b001006e 	andlt	r0, r1, lr, rrx
    65c8:	00008403 	andeq	r8, r0, r3, lsl #8
    65cc:	00000000 	andeq	r0, r0, r0
    65d0:	00640600 	rsbeq	r0, r4, r0, lsl #12
    65d4:	8403b001 	strhi	fp, [r3], #-1
    65d8:	28000000 	stmdacs	r0, {}	; <UNPREDICTABLE>
    65dc:	06000000 	streq	r0, [r0], -r0
    65e0:	01007072 	tsteq	r0, r2, ror r0
    65e4:	015703b0 	ldrheq	r0, [r7, #-48]	; 0xffffffd0
    65e8:	00500000 	subseq	r0, r0, r0
    65ec:	71070000 	mrsvc	r0, (UNDEF: 7)
    65f0:	03b20100 			; <UNDEFINED> instruction: 0x03b20100
    65f4:	00000084 	andeq	r0, r0, r4, lsl #1
    65f8:	00000070 	andeq	r0, r0, r0, ror r0
    65fc:	01007207 	tsteq	r0, r7, lsl #4
    6600:	008403b2 			; <UNDEFINED> instruction: 0x008403b2
    6604:	00d00000 	sbcseq	r0, r0, r0
    6608:	79070000 	stmdbvc	r7, {}	; <UNPREDICTABLE>
    660c:	03b20100 			; <UNDEFINED> instruction: 0x03b20100
    6610:	00000084 	andeq	r0, r0, r4, lsl #1
    6614:	00000128 	andeq	r0, r0, r8, lsr #2
    6618:	317a6c07 	cmncc	sl, r7, lsl #24
    661c:	03b30100 			; <UNDEFINED> instruction: 0x03b30100
    6620:	00000079 	andeq	r0, r0, r9, ror r0
    6624:	00000150 	andeq	r0, r0, r0, asr r1
    6628:	327a6c07 	rsbscc	r6, sl, #1792	; 0x700
    662c:	03b30100 			; <UNDEFINED> instruction: 0x03b30100
    6630:	00000079 	andeq	r0, r0, r9, ror r0
    6634:	00000163 	andeq	r0, r0, r3, ror #2
    6638:	01006907 	tsteq	r0, r7, lsl #18
    663c:	007903b3 	ldrhteq	r0, [r9], #-51	; 0xffffffcd
    6640:	01760000 	cmneq	r6, r0
    6644:	6b070000 	blvs	1c664c <shift+0x1c664c>
    6648:	03b30100 			; <UNDEFINED> instruction: 0x03b30100
    664c:	00000079 	andeq	r0, r0, r9, ror r0
    6650:	000001b9 			; <UNDEFINED> instruction: 0x000001b9
    6654:	84040800 	strhi	r0, [r4], #-2048	; 0xfffff800
    6658:	00000000 	andeq	r0, r0, r0

Disassembly of section .debug_abbrev:

00000000 <.debug_abbrev>:
       0:	10001101 	andne	r1, r0, r1, lsl #2
       4:	12011117 	andne	r1, r1, #-1073741819	; 0xc0000005
       8:	1b0e030f 	blne	380c4c <shift+0x380c4c>
       c:	130e250e 	movwne	r2, #58638	; 0xe50e
      10:	00000005 	andeq	r0, r0, r5
      14:	10001101 	andne	r1, r0, r1, lsl #2
      18:	12011117 	andne	r1, r1, #-1073741819	; 0xc0000005
      1c:	1b0e030f 	blne	380c60 <shift+0x380c60>
      20:	130e250e 	movwne	r2, #58638	; 0xe50e
      24:	00000005 	andeq	r0, r0, r5
      28:	0b002401 	bleq	9034 <shift+0x9034>
      2c:	030b3e0b 	movweq	r3, #48651	; 0xbe0b
      30:	0200000e 	andeq	r0, r0, #14
      34:	193f002e 	ldmdbne	pc!, {r1, r2, r3, r5}	; <UNPREDICTABLE>
      38:	0b3a0e03 	bleq	e8384c <shift+0xe8384c>
      3c:	21390b3b 	teqcs	r9, fp, lsr fp
      40:	3c192706 	ldccc	7, cr2, [r9], {6}
      44:	03000019 	movweq	r0, #25
      48:	13490005 	movtne	r0, #36869	; 0x9005
      4c:	0f040000 	svceq	0x00040000
      50:	04210b00 	strteq	r0, [r1], #-2816	; 0xfffff500
      54:	00001349 	andeq	r1, r0, r9, asr #6
      58:	3f012e05 	svccc	0x00012e05
      5c:	3a0e0319 	bcc	380cc8 <shift+0x380cc8>
      60:	0b3b0221 	bleq	ec08ec <shift+0xec08ec>
      64:	27062139 	smladxcs	r6, r9, r1, r2
      68:	01193c19 	tsteq	r9, r9, lsl ip
      6c:	06000013 			; <UNDEFINED> instruction: 0x06000013
      70:	0e030034 	mcreq	0, 0, r0, cr3, cr4, {1}
      74:	3b01213a 	blcc	48564 <shift+0x48564>
      78:	490b390b 	stmdbmi	fp, {r0, r1, r3, r8, fp, ip, sp}
      7c:	00180213 	andseq	r0, r8, r3, lsl r2
      80:	01110700 	tsteq	r1, r0, lsl #14
      84:	0b130e25 	bleq	4c3920 <shift+0x4c3920>
      88:	0e1b0e03 	cdpeq	14, 1, cr0, cr11, cr3, {0}
      8c:	06120111 			; <UNDEFINED> instruction: 0x06120111
      90:	00001710 	andeq	r1, r0, r0, lsl r7
      94:	0b002408 	bleq	90bc <shift+0x90bc>
      98:	030b3e0b 	movweq	r3, #48651	; 0xbe0b
      9c:	09000008 	stmdbeq	r0, {r3}
      a0:	0e030016 	mcreq	0, 0, r0, cr3, cr6, {0}
      a4:	0b3b0b3a 	bleq	ec2d94 <shift+0xec2d94>
      a8:	13490b39 	movtne	r0, #39737	; 0x9b39
      ac:	350a0000 	strcc	r0, [sl, #-0]
      b0:	00134900 	andseq	r4, r3, r0, lsl #18
      b4:	00260b00 	eoreq	r0, r6, r0, lsl #22
      b8:	00001349 	andeq	r1, r0, r9, asr #6
      bc:	3f012e0c 	svccc	0x00012e0c
      c0:	3a0e0319 	bcc	380d2c <shift+0x380d2c>
      c4:	390b3b0b 	stmdbcc	fp, {r0, r1, r3, r8, r9, fp, ip, sp}
      c8:	4919270b 	ldmdbmi	r9, {r0, r1, r3, r8, r9, sl, sp}
      cc:	01193c13 	tsteq	r9, r3, lsl ip
      d0:	0d000013 	stceq	0, cr0, [r0, #-76]	; 0xffffffb4
      d4:	00000018 	andeq	r0, r0, r8, lsl r0
      d8:	3f012e0e 	svccc	0x00012e0e
      dc:	3a0e0319 	bcc	380d48 <shift+0x380d48>
      e0:	390b3b0b 	stmdbcc	fp, {r0, r1, r3, r8, r9, fp, ip, sp}
      e4:	4919270b 	ldmdbmi	r9, {r0, r1, r3, r8, r9, sl, sp}
      e8:	12011113 	andne	r1, r1, #-1073741820	; 0xc0000004
      ec:	7c184006 	ldcvc	0, cr4, [r8], {6}
      f0:	00130119 	andseq	r0, r3, r9, lsl r1
      f4:	0d010000 	stceq	0, cr0, [r1, #-0]
      f8:	3a0e0300 	bcc	380d00 <shift+0x380d00>
      fc:	053b0321 	ldreq	r0, [fp, #-801]!	; 0xfffffcdf
     100:	13490b39 	movtne	r0, #39737	; 0x9b39
     104:	00000b38 	andeq	r0, r0, r8, lsr fp
     108:	03000d02 	movweq	r0, #3330	; 0xd02
     10c:	03213a0e 			; <UNDEFINED> instruction: 0x03213a0e
     110:	0b39053b 	bleq	e41604 <shift+0xe41604>
     114:	05381349 	ldreq	r1, [r8, #-841]!	; 0xfffffcb7
     118:	24030000 	strcs	r0, [r3], #-0
     11c:	3e0b0b00 	vmlacc.f64	d0, d11, d0
     120:	000e030b 	andeq	r0, lr, fp, lsl #6
     124:	01010400 	tsteq	r1, r0, lsl #8
     128:	13011349 	movwne	r1, #4937	; 0x1349
     12c:	21050000 	mrscs	r0, (UNDEF: 5)
     130:	2f134900 	svccs	0x00134900
     134:	0600000b 	streq	r0, [r0], -fp
     138:	0e030016 	mcreq	0, 0, r0, cr3, cr6, {0}
     13c:	3b02213a 	blcc	8862c <shift+0x8862c>
     140:	490b390b 	stmdbmi	fp, {r0, r1, r3, r8, fp, ip, sp}
     144:	07000013 	smladeq	r0, r3, r0, r0
     148:	0803000d 	stmdaeq	r3, {r0, r2, r3}
     14c:	3b03213a 	blcc	c863c <shift+0xc863c>
     150:	11213905 			; <UNDEFINED> instruction: 0x11213905
     154:	0b381349 	bleq	e04e80 <shift+0xe04e80>
     158:	16080000 	strne	r0, [r8], -r0
     15c:	3a0e0300 	bcc	380d64 <shift+0x380d64>
     160:	053b0321 	ldreq	r0, [fp, #-801]!	; 0xfffffcdf
     164:	49032139 	stmdbmi	r3, {r0, r3, r4, r5, r8, sp}
     168:	09000013 	stmdbeq	r0, {r0, r1, r4}
     16c:	0e250111 	mcreq	1, 1, r0, cr5, cr1, {0}
     170:	0e030b13 	vmoveq.32	d3[0], r0
     174:	01110e1b 	tsteq	r1, fp, lsl lr
     178:	17100612 			; <UNDEFINED> instruction: 0x17100612
     17c:	240a0000 	strcs	r0, [sl], #-0
     180:	3e0b0b00 	vmlacc.f64	d0, d11, d0
     184:	0008030b 	andeq	r0, r8, fp, lsl #6
     188:	00350b00 	eorseq	r0, r5, r0, lsl #22
     18c:	00001349 	andeq	r1, r0, r9, asr #6
     190:	0b01130c 	bleq	44dc8 <shift+0x44dc8>
     194:	3b0b3a0b 	blcc	2ce9c8 <shift+0x2ce9c8>
     198:	010b3905 	tsteq	fp, r5, lsl #18
     19c:	0d000013 	stceq	0, cr0, [r0, #-76]	; 0xffffffb4
     1a0:	050b0113 	streq	r0, [fp, #-275]	; 0xfffffeed
     1a4:	053b0b3a 	ldreq	r0, [fp, #-2874]!	; 0xfffff4c6
     1a8:	13010b39 	movwne	r0, #6969	; 0x1b39
     1ac:	2e0e0000 	cdpcs	0, 0, cr0, cr14, cr0, {0}
     1b0:	03193f01 	tsteq	r9, #1, 30
     1b4:	3b0b3a0e 	blcc	2ce9f4 <shift+0x2ce9f4>
     1b8:	270b390b 	strcs	r3, [fp, -fp, lsl #18]
     1bc:	12011119 	andne	r1, r1, #1073741830	; 0x40000006
     1c0:	7a184006 	bvc	6101e0 <shift+0x6101e0>
     1c4:	00130119 	andseq	r0, r3, r9, lsl r1
     1c8:	00340f00 	eorseq	r0, r4, r0, lsl #30
     1cc:	0b3a0803 	bleq	e821e0 <shift+0xe821e0>
     1d0:	0b390b3b 	bleq	e42ec4 <shift+0xe42ec4>
     1d4:	18021349 	stmdane	r2, {r0, r3, r6, r8, r9, ip}
     1d8:	2e100000 	cdpcs	0, 1, cr0, cr0, cr0, {0}
     1dc:	03193f00 	tsteq	r9, #0, 30
     1e0:	3b0b3a0e 	blcc	2cea20 <shift+0x2cea20>
     1e4:	270b390b 	strcs	r3, [fp, -fp, lsl #18]
     1e8:	12011119 	andne	r1, r1, #1073741830	; 0x40000006
     1ec:	7a184006 	bvc	61020c <shift+0x61020c>
     1f0:	00000019 	andeq	r0, r0, r9, lsl r0
     1f4:	03000501 	movweq	r0, #1281	; 0x501
     1f8:	01213a0e 			; <UNDEFINED> instruction: 0x01213a0e
     1fc:	0b39053b 	bleq	e416f0 <shift+0xe416f0>
     200:	18021349 	stmdane	r2, {r0, r3, r6, r8, r9, ip}
     204:	24020000 	strcs	r0, [r2], #-0
     208:	3e0b0b00 	vmlacc.f64	d0, d11, d0
     20c:	000e030b 	andeq	r0, lr, fp, lsl #6
     210:	00050300 	andeq	r0, r5, r0, lsl #6
     214:	00001349 	andeq	r1, r0, r9, asr #6
     218:	03000d04 	movweq	r0, #3332	; 0xd04
     21c:	03213a08 			; <UNDEFINED> instruction: 0x03213a08
     220:	2139053b 	teqcs	r9, fp, lsr r5
     224:	38134911 	ldmdacc	r3, {r0, r4, r8, fp, lr}
     228:	0500000b 	streq	r0, [r0, #-11]
     22c:	0e03000d 	cdpeq	0, 0, cr0, cr3, cr13, {0}
     230:	3b03213a 	blcc	c8720 <shift+0xc8720>
     234:	11213905 			; <UNDEFINED> instruction: 0x11213905
     238:	0b381349 	bleq	e04f64 <shift+0xe04f64>
     23c:	2e060000 	cdpcs	0, 0, cr0, cr6, cr0, {0}
     240:	03193f00 	tsteq	r9, #0, 30
     244:	02213a0e 	eoreq	r3, r1, #57344	; 0xe000
     248:	21390b3b 	teqcs	r9, fp, lsr fp
     24c:	11192706 	tstne	r9, r6, lsl #14
     250:	40061201 	andmi	r1, r6, r1, lsl #4
     254:	00197a18 	andseq	r7, r9, r8, lsl sl
     258:	01110700 	tsteq	r1, r0, lsl #14
     25c:	0b130e25 	bleq	4c3af8 <shift+0x4c3af8>
     260:	0e1b0e03 	cdpeq	14, 1, cr0, cr11, cr3, {0}
     264:	06120111 			; <UNDEFINED> instruction: 0x06120111
     268:	00001710 	andeq	r1, r0, r0, lsl r7
     26c:	0b002408 	bleq	9294 <shift+0x9294>
     270:	030b3e0b 	movweq	r3, #48651	; 0xbe0b
     274:	09000008 	stmdbeq	r0, {r3}
     278:	0e030016 	mcreq	0, 0, r0, cr3, cr6, {0}
     27c:	0b3b0b3a 	bleq	ec2f6c <shift+0xec2f6c>
     280:	13490b39 	movtne	r0, #39737	; 0x9b39
     284:	350a0000 	strcc	r0, [sl, #-0]
     288:	00134900 	andseq	r4, r3, r0, lsl #18
     28c:	01130b00 	tsteq	r3, r0, lsl #22
     290:	0b3a0b0b 	bleq	e82ec4 <shift+0xe82ec4>
     294:	0b39053b 	bleq	e41788 <shift+0xe41788>
     298:	00001301 	andeq	r1, r0, r1, lsl #6
     29c:	0300160c 	movweq	r1, #1548	; 0x60c
     2a0:	3b0b3a0e 	blcc	2ceae0 <shift+0x2ceae0>
     2a4:	490b3905 	stmdbmi	fp, {r0, r2, r8, fp, ip, sp}
     2a8:	0d000013 	stceq	0, cr0, [r0, #-76]	; 0xffffffb4
     2ac:	193f012e 	ldmdbne	pc!, {r1, r2, r3, r5, r8}	; <UNPREDICTABLE>
     2b0:	0b3a0e03 	bleq	e83ac4 <shift+0xe83ac4>
     2b4:	0b390b3b 	bleq	e42fa8 <shift+0xe42fa8>
     2b8:	193c1927 	ldmdbne	ip!, {r0, r1, r2, r5, r8, fp, ip}
     2bc:	00001301 	andeq	r1, r0, r1, lsl #6
     2c0:	0b000f0e 	bleq	3f00 <shift+0x3f00>
     2c4:	0013490b 	andseq	r4, r3, fp, lsl #18
     2c8:	012e0f00 			; <UNDEFINED> instruction: 0x012e0f00
     2cc:	0e03193f 			; <UNDEFINED> instruction: 0x0e03193f
     2d0:	0b3b0b3a 	bleq	ec2fc0 <shift+0xec2fc0>
     2d4:	19270b39 	stmdbne	r7!, {r0, r3, r4, r5, r8, r9, fp}
     2d8:	193c1349 	ldmdbne	ip!, {r0, r3, r6, r8, r9, ip}
     2dc:	00001301 	andeq	r1, r0, r1, lsl #6
     2e0:	3f012e10 	svccc	0x00012e10
     2e4:	3a0e0319 	bcc	380f50 <shift+0x380f50>
     2e8:	390b3b0b 	stmdbcc	fp, {r0, r1, r3, r8, r9, fp, ip, sp}
     2ec:	1119270b 	tstne	r9, fp, lsl #14
     2f0:	40061201 	andmi	r1, r6, r1, lsl #4
     2f4:	01197c18 	tsteq	r9, r8, lsl ip
     2f8:	11000013 	tstne	r0, r3, lsl r0
     2fc:	0e030005 	cdpeq	0, 0, cr0, cr3, cr5, {0}
     300:	0b3b0b3a 	bleq	ec2ff0 <shift+0xec2ff0>
     304:	13490b39 	movtne	r0, #39737	; 0x9b39
     308:	00001802 	andeq	r1, r0, r2, lsl #16
     30c:	03000512 	movweq	r0, #1298	; 0x512
     310:	3b0b3a08 	blcc	2ceb38 <shift+0x2ceb38>
     314:	490b390b 	stmdbmi	fp, {r0, r1, r3, r8, fp, ip, sp}
     318:	00180213 	andseq	r0, r8, r3, lsl r2
     31c:	002e1300 	eoreq	r1, lr, r0, lsl #6
     320:	0e03193f 			; <UNDEFINED> instruction: 0x0e03193f
     324:	0b3b0b3a 	bleq	ec3014 <shift+0xec3014>
     328:	19270b39 	stmdbne	r7!, {r0, r3, r4, r5, r8, r9, fp}
     32c:	06120111 			; <UNDEFINED> instruction: 0x06120111
     330:	197c1840 	ldmdbne	ip!, {r6, fp, ip}^
     334:	2e140000 	cdpcs	0, 1, cr0, cr4, cr0, {0}
     338:	3a0e0301 	bcc	380f44 <shift+0x380f44>
     33c:	39053b0b 	stmdbcc	r5, {r0, r1, r3, r8, r9, fp, ip, sp}
     340:	1119270b 	tstne	r9, fp, lsl #14
     344:	40061201 	andmi	r1, r6, r1, lsl #4
     348:	01197a18 	tsteq	r9, r8, lsl sl
     34c:	15000013 	strne	r0, [r0, #-19]	; 0xffffffed
     350:	0e03012e 	adfeqsp	f0, f3, #0.5
     354:	053b0b3a 	ldreq	r0, [fp, #-2874]!	; 0xfffff4c6
     358:	19270b39 	stmdbne	r7!, {r0, r3, r4, r5, r8, r9, fp}
     35c:	06120111 			; <UNDEFINED> instruction: 0x06120111
     360:	197a1840 	ldmdbne	sl!, {r6, fp, ip}^
     364:	01000000 	mrseq	r0, (UNDEF: 0)
     368:	0e030028 	cdpeq	0, 0, cr0, cr3, cr8, {1}
     36c:	00000b1c 	andeq	r0, r0, ip, lsl fp
     370:	03000d02 	movweq	r0, #3330	; 0xd02
     374:	02213a0e 	eoreq	r3, r1, #57344	; 0xe000
     378:	2139053b 	teqcs	r9, fp, lsr r5
     37c:	38134912 	ldmdacc	r3, {r1, r4, r8, fp, lr}
     380:	03000005 	movweq	r0, #5
     384:	13490101 	movtne	r0, #37121	; 0x9101
     388:	00001301 	andeq	r1, r0, r1, lsl #6
     38c:	49002104 	stmdbmi	r0, {r2, r8, sp}
     390:	000b2f13 	andeq	r2, fp, r3, lsl pc
     394:	00240500 	eoreq	r0, r4, r0, lsl #10
     398:	0b3e0b0b 	bleq	f82fcc <shift+0xf82fcc>
     39c:	00000e03 	andeq	r0, r0, r3, lsl #28
     3a0:	49003506 	stmdbmi	r0, {r1, r2, r8, sl, ip, sp}
     3a4:	07000013 	smladeq	r0, r3, r0, r0
     3a8:	0803000d 	stmdaeq	r3, {r0, r2, r3}
     3ac:	3b04213a 	blcc	10889c <shift+0x10889c>
     3b0:	11213905 			; <UNDEFINED> instruction: 0x11213905
     3b4:	0b381349 	bleq	e050e0 <shift+0xe050e0>
     3b8:	16080000 	strne	r0, [r8], -r0
     3bc:	3a0e0300 	bcc	380fc4 <shift+0x380fc4>
     3c0:	390b3b0b 	stmdbcc	fp, {r0, r1, r3, r8, r9, fp, ip, sp}
     3c4:	0013490b 	andseq	r4, r3, fp, lsl #18
     3c8:	00050900 	andeq	r0, r5, r0, lsl #18
     3cc:	00001349 	andeq	r1, r0, r9, asr #6
     3d0:	4900210a 	stmdbmi	r0, {r1, r3, r8, sp}
     3d4:	00052f13 	andeq	r2, r5, r3, lsl pc
     3d8:	012e0b00 			; <UNDEFINED> instruction: 0x012e0b00
     3dc:	0e03193f 			; <UNDEFINED> instruction: 0x0e03193f
     3e0:	3b01213a 	blcc	488d0 <shift+0x488d0>
     3e4:	0621390b 	strteq	r3, [r1], -fp, lsl #18
     3e8:	01111927 	tsteq	r1, r7, lsr #18
     3ec:	18400612 	stmdane	r0, {r1, r4, r9, sl}^
     3f0:	1301197c 	movwne	r1, #6524	; 0x197c
     3f4:	050c0000 	streq	r0, [ip, #-0]
     3f8:	3a0e0300 	bcc	381000 <shift+0x381000>
     3fc:	0b3b0121 	bleq	ec0888 <shift+0xec0888>
     400:	13490b39 	movtne	r0, #39737	; 0x9b39
     404:	00001802 	andeq	r1, r0, r2, lsl #16
     408:	0300340d 	movweq	r3, #1037	; 0x40d
     40c:	01213a0e 			; <UNDEFINED> instruction: 0x01213a0e
     410:	0b390b3b 	bleq	e43104 <shift+0xe43104>
     414:	18021349 	stmdane	r2, {r0, r3, r6, r8, r9, ip}
     418:	260e0000 	strcs	r0, [lr], -r0
     41c:	00134900 	andseq	r4, r3, r0, lsl #18
     420:	00160f00 	andseq	r0, r6, r0, lsl #30
     424:	0b3a0e03 	bleq	e83c38 <shift+0xe83c38>
     428:	2139053b 	teqcs	r9, fp, lsr r5
     42c:	00134903 	andseq	r4, r3, r3, lsl #18
     430:	000f1000 	andeq	r1, pc, r0
     434:	4904210b 	stmdbmi	r4, {r0, r1, r3, r8, sp}
     438:	11000013 	tstne	r0, r3, lsl r0
     43c:	193f002e 	ldmdbne	pc!, {r1, r2, r3, r5}	; <UNPREDICTABLE>
     440:	213a0e03 	teqcs	sl, r3, lsl #28
     444:	390b3b01 	stmdbcc	fp, {r0, r8, r9, fp, ip, sp}
     448:	19270621 	stmdbne	r7!, {r0, r5, r9, sl}
     44c:	06120111 			; <UNDEFINED> instruction: 0x06120111
     450:	197a1840 	ldmdbne	sl!, {r6, fp, ip}^
     454:	34120000 	ldrcc	r0, [r2], #-0
     458:	02133100 	andseq	r3, r3, #0, 2
     45c:	13000018 	movwne	r0, #24
     460:	08030005 	stmdaeq	r3, {r0, r2}
     464:	3b01213a 	blcc	48954 <shift+0x48954>
     468:	490b390b 	stmdbmi	fp, {r0, r1, r3, r8, fp, ip, sp}
     46c:	00180213 	andseq	r0, r8, r3, lsl r2
     470:	012e1400 			; <UNDEFINED> instruction: 0x012e1400
     474:	0e03193f 			; <UNDEFINED> instruction: 0x0e03193f
     478:	3b01213a 	blcc	48968 <shift+0x48968>
     47c:	0621390b 	strteq	r3, [r1], -fp, lsl #18
     480:	01111927 	tsteq	r1, r7, lsr #18
     484:	18400612 	stmdane	r0, {r1, r4, r9, sl}^
     488:	1301197a 	movwne	r1, #6522	; 0x197a
     48c:	11150000 	tstne	r5, r0
     490:	130e2501 	movwne	r2, #58625	; 0xe501
     494:	1b0e030b 	blne	3810c8 <shift+0x3810c8>
     498:	1201110e 	andne	r1, r1, #-2147483645	; 0x80000003
     49c:	00171006 	andseq	r1, r7, r6
     4a0:	00241600 	eoreq	r1, r4, r0, lsl #12
     4a4:	0b3e0b0b 	bleq	f830d8 <shift+0xf830d8>
     4a8:	00000803 	andeq	r0, r0, r3, lsl #16
     4ac:	03010417 	movweq	r0, #5143	; 0x1417
     4b0:	0b0b3e0e 	bleq	2cfcf0 <shift+0x2cfcf0>
     4b4:	3a13490b 	bcc	4d28e8 <shift+0x4d28e8>
     4b8:	390b3b0b 	stmdbcc	fp, {r0, r1, r3, r8, r9, fp, ip, sp}
     4bc:	0013010b 	andseq	r0, r3, fp, lsl #2
     4c0:	00281800 	eoreq	r1, r8, r0, lsl #16
     4c4:	0d1c0e03 	ldceq	14, cr0, [ip, #-12]
     4c8:	13190000 	tstne	r9, #0
     4cc:	3a0b0b01 	bcc	2c30d8 <shift+0x2c30d8>
     4d0:	39053b0b 	stmdbcc	r5, {r0, r1, r3, r8, r9, fp, ip, sp}
     4d4:	0013010b 	andseq	r0, r3, fp, lsl #2
     4d8:	000f1a00 	andeq	r1, pc, r0, lsl #20
     4dc:	00000b0b 	andeq	r0, r0, fp, lsl #22
     4e0:	0b01131b 	bleq	45154 <shift+0x45154>
     4e4:	3b0b3a05 	blcc	2ced00 <shift+0x2ced00>
     4e8:	010b3905 	tsteq	fp, r5, lsl #18
     4ec:	1c000013 	stcne	0, cr0, [r0], {19}
     4f0:	0e03000d 	cdpeq	0, 0, cr0, cr3, cr13, {0}
     4f4:	053b0b3a 	ldreq	r0, [fp, #-2874]!	; 0xfffff4c6
     4f8:	13490b39 	movtne	r0, #39737	; 0x9b39
     4fc:	00000b38 	andeq	r0, r0, r8, lsr fp
     500:	2701151d 	smladcs	r1, sp, r5, r1
     504:	00130119 	andseq	r0, r3, r9, lsl r1
     508:	012e1e00 			; <UNDEFINED> instruction: 0x012e1e00
     50c:	0e03193f 			; <UNDEFINED> instruction: 0x0e03193f
     510:	0b3b0b3a 	bleq	ec3200 <shift+0xec3200>
     514:	19270b39 	stmdbne	r7!, {r0, r3, r4, r5, r8, r9, fp}
     518:	1301193c 	movwne	r1, #6460	; 0x193c
     51c:	1d1f0000 	ldcne	0, cr0, [pc, #-0]	; 524 <shift+0x524>
     520:	11133101 	tstne	r3, r1, lsl #2
     524:	58061201 	stmdapl	r6, {r0, r9, ip}
     528:	570b590b 	strpl	r5, [fp, -fp, lsl #18]
     52c:	2000000b 	andcs	r0, r0, fp
     530:	13310005 	teqne	r1, #5
     534:	00001802 	andeq	r1, r0, r2, lsl #16
     538:	31011d21 	tstcc	r1, r1, lsr #26
     53c:	12011113 	andne	r1, r1, #-1073741820	; 0xc0000004
     540:	590b5806 	stmdbpl	fp, {r1, r2, fp, ip, lr}
     544:	000b5705 	andeq	r5, fp, r5, lsl #14
     548:	010b2200 	mrseq	r2, R11_fiq
     54c:	01111331 	tsteq	r1, r1, lsr r3
     550:	00000612 	andeq	r0, r0, r2, lsl r6
     554:	03003423 	movweq	r3, #1059	; 0x423
     558:	3b0b3a08 	blcc	2ced80 <shift+0x2ced80>
     55c:	490b390b 	stmdbmi	fp, {r0, r1, r3, r8, fp, ip, sp}
     560:	00180213 	andseq	r0, r8, r3, lsl r2
     564:	012e2400 			; <UNDEFINED> instruction: 0x012e2400
     568:	0b3a0e03 	bleq	e83d7c <shift+0xe83d7c>
     56c:	0b39053b 	bleq	e41a60 <shift+0xe41a60>
     570:	0b201927 	bleq	806a14 <shift+0x806a14>
     574:	00001301 	andeq	r1, r0, r1, lsl #6
     578:	03000525 	movweq	r0, #1317	; 0x525
     57c:	3b0b3a0e 	blcc	2cedbc <shift+0x2cedbc>
     580:	490b3905 	stmdbmi	fp, {r0, r2, r8, fp, ip, sp}
     584:	26000013 			; <UNDEFINED> instruction: 0x26000013
     588:	08030034 	stmdaeq	r3, {r2, r4, r5}
     58c:	053b0b3a 	ldreq	r0, [fp, #-2874]!	; 0xfffff4c6
     590:	13490b39 	movtne	r0, #39737	; 0x9b39
     594:	2e270000 	cdpcs	0, 2, cr0, cr7, cr0, {0}
     598:	3a0e0301 	bcc	3811a4 <shift+0x3811a4>
     59c:	39053b0b 	stmdbcc	r5, {r0, r1, r3, r8, r9, fp, ip, sp}
     5a0:	4919270b 	ldmdbmi	r9, {r0, r1, r3, r8, r9, sl, sp}
     5a4:	000b2013 	andeq	r2, fp, r3, lsl r0
     5a8:	010b2800 	tsteq	fp, r0, lsl #16
     5ac:	34290000 	strtcc	r0, [r9], #-0
     5b0:	3a0e0300 	bcc	3811b8 <shift+0x3811b8>
     5b4:	39053b0b 	stmdbcc	r5, {r0, r1, r3, r8, r9, fp, ip, sp}
     5b8:	0013490b 	andseq	r4, r3, fp, lsl #18
     5bc:	05010000 	streq	r0, [r1, #-0]
     5c0:	3a0e0300 	bcc	3811c8 <shift+0x3811c8>
     5c4:	053b0121 	ldreq	r0, [fp, #-289]!	; 0xfffffedf
     5c8:	13490b39 	movtne	r0, #39737	; 0x9b39
     5cc:	00001802 	andeq	r1, r0, r2, lsl #16
     5d0:	0b002402 	bleq	95e0 <shift+0x95e0>
     5d4:	030b3e0b 	movweq	r3, #48651	; 0xbe0b
     5d8:	0300000e 	movweq	r0, #14
     5dc:	0803000d 	stmdaeq	r3, {r0, r2, r3}
     5e0:	3b03213a 	blcc	c8ad0 <shift+0xc8ad0>
     5e4:	11213905 			; <UNDEFINED> instruction: 0x11213905
     5e8:	0b381349 	bleq	e05314 <shift+0xe05314>
     5ec:	0d040000 	stceq	0, cr0, [r4, #-0]
     5f0:	3a0e0300 	bcc	3811f8 <shift+0x3811f8>
     5f4:	053b0321 	ldreq	r0, [fp, #-801]!	; 0xfffffcdf
     5f8:	49112139 	ldmdbmi	r1, {r0, r3, r4, r5, r8, sp}
     5fc:	000b3813 	andeq	r3, fp, r3, lsl r8
     600:	01110500 	tsteq	r1, r0, lsl #10
     604:	0b130e25 	bleq	4c3ea0 <shift+0x4c3ea0>
     608:	0e1b0e03 	cdpeq	14, 1, cr0, cr11, cr3, {0}
     60c:	06120111 			; <UNDEFINED> instruction: 0x06120111
     610:	00001710 	andeq	r1, r0, r0, lsl r7
     614:	0b002406 	bleq	9634 <shift+0x9634>
     618:	030b3e0b 	movweq	r3, #48651	; 0xbe0b
     61c:	07000008 	streq	r0, [r0, -r8]
     620:	0e030016 	mcreq	0, 0, r0, cr3, cr6, {0}
     624:	0b3b0b3a 	bleq	ec3314 <shift+0xec3314>
     628:	13490b39 	movtne	r0, #39737	; 0x9b39
     62c:	35080000 	strcc	r0, [r8, #-0]
     630:	00134900 	andseq	r4, r3, r0, lsl #18
     634:	01130900 	tsteq	r3, r0, lsl #18
     638:	0b3a0b0b 	bleq	e8326c <shift+0xe8326c>
     63c:	0b39053b 	bleq	e41b30 <shift+0xe41b30>
     640:	00001301 	andeq	r1, r0, r1, lsl #6
     644:	0300160a 	movweq	r1, #1546	; 0x60a
     648:	3b0b3a0e 	blcc	2cee88 <shift+0x2cee88>
     64c:	490b3905 	stmdbmi	fp, {r0, r2, r8, fp, ip, sp}
     650:	0b000013 	bleq	6a4 <shift+0x6a4>
     654:	193f012e 	ldmdbne	pc!, {r1, r2, r3, r5, r8}	; <UNPREDICTABLE>
     658:	0b3a0e03 	bleq	e83e6c <shift+0xe83e6c>
     65c:	0b390b3b 	bleq	e43350 <shift+0xe43350>
     660:	01111927 	tsteq	r1, r7, lsr #18
     664:	18400612 	stmdane	r0, {r1, r4, r9, sl}^
     668:	1301197a 	movwne	r1, #6522	; 0x197a
     66c:	050c0000 	streq	r0, [ip, #-0]
     670:	3a0e0300 	bcc	381278 <shift+0x381278>
     674:	390b3b0b 	stmdbcc	fp, {r0, r1, r3, r8, r9, fp, ip, sp}
     678:	0213490b 	andseq	r4, r3, #180224	; 0x2c000
     67c:	0d000018 	stceq	0, cr0, [r0, #-96]	; 0xffffffa0
     680:	193f002e 	ldmdbne	pc!, {r1, r2, r3, r5}	; <UNPREDICTABLE>
     684:	0b3a0e03 	bleq	e83e98 <shift+0xe83e98>
     688:	0b390b3b 	bleq	e4337c <shift+0xe4337c>
     68c:	01111927 	tsteq	r1, r7, lsr #18
     690:	18400612 	stmdane	r0, {r1, r4, r9, sl}^
     694:	0000197c 	andeq	r1, r0, ip, ror r9
     698:	03012e0e 	movweq	r2, #7694	; 0x1e0e
     69c:	3b0b3a0e 	blcc	2ceedc <shift+0x2ceedc>
     6a0:	270b3905 	strcs	r3, [fp, -r5, lsl #18]
     6a4:	12011119 	andne	r1, r1, #1073741830	; 0x40000006
     6a8:	7a184006 	bvc	6106c8 <shift+0x6106c8>
     6ac:	00130119 	andseq	r0, r3, r9, lsl r1
     6b0:	012e0f00 			; <UNDEFINED> instruction: 0x012e0f00
     6b4:	0b3a0e03 	bleq	e83ec8 <shift+0xe83ec8>
     6b8:	0b39053b 	bleq	e41bac <shift+0xe41bac>
     6bc:	01111927 	tsteq	r1, r7, lsr #18
     6c0:	18400612 	stmdane	r0, {r1, r4, r9, sl}^
     6c4:	0000197a 	andeq	r1, r0, sl, ror r9
     6c8:	00050100 	andeq	r0, r5, r0, lsl #2
     6cc:	213a0e03 	teqcs	sl, r3, lsl #28
     6d0:	390b3b01 	stmdbcc	fp, {r0, r8, r9, fp, ip, sp}
     6d4:	0213490b 	andseq	r4, r3, #180224	; 0x2c000
     6d8:	02000018 	andeq	r0, r0, #24
     6dc:	0b0b0024 	bleq	2c0774 <shift+0x2c0774>
     6e0:	0e030b3e 	vmoveq.16	d3[0], r0
     6e4:	28030000 	stmdacs	r3, {}	; <UNPREDICTABLE>
     6e8:	1c0e0300 	stcne	3, cr0, [lr], {-0}
     6ec:	0400000b 	streq	r0, [r0], #-11
     6f0:	08030005 	stmdaeq	r3, {r0, r2}
     6f4:	3b01213a 	blcc	48be4 <shift+0x48be4>
     6f8:	490b390b 	stmdbmi	fp, {r0, r1, r3, r8, fp, ip, sp}
     6fc:	00180213 	andseq	r0, r8, r3, lsl r2
     700:	012e0500 			; <UNDEFINED> instruction: 0x012e0500
     704:	0e03193f 			; <UNDEFINED> instruction: 0x0e03193f
     708:	3b01213a 	blcc	48bf8 <shift+0x48bf8>
     70c:	0621390b 	strteq	r3, [r1], -fp, lsl #18
     710:	01111927 	tsteq	r1, r7, lsr #18
     714:	18400612 	stmdane	r0, {r1, r4, r9, sl}^
     718:	1301197a 	movwne	r1, #6522	; 0x197a
     71c:	16060000 	strne	r0, [r6], -r0
     720:	3a0e0300 	bcc	381328 <shift+0x381328>
     724:	390b3b0b 	stmdbcc	fp, {r0, r1, r3, r8, r9, fp, ip, sp}
     728:	0013490b 	andseq	r4, r3, fp, lsl #18
     72c:	000d0700 	andeq	r0, sp, r0, lsl #14
     730:	213a0803 	teqcs	sl, r3, lsl #16
     734:	39053b03 	stmdbcc	r5, {r0, r1, r8, r9, fp, ip, sp}
     738:	13491121 	movtne	r1, #37153	; 0x9121
     73c:	00000b38 	andeq	r0, r0, r8, lsr fp
     740:	03000d08 	movweq	r0, #3336	; 0xd08
     744:	03213a0e 			; <UNDEFINED> instruction: 0x03213a0e
     748:	2139053b 	teqcs	r9, fp, lsr r5
     74c:	38134911 	ldmdacc	r3, {r0, r4, r8, fp, lr}
     750:	0900000b 	stmdbeq	r0, {r0, r1, r3}
     754:	0e03000d 	cdpeq	0, 0, cr0, cr3, cr13, {0}
     758:	3b04213a 	blcc	108c48 <shift+0x108c48>
     75c:	490b390b 	stmdbmi	fp, {r0, r1, r3, r8, fp, ip, sp}
     760:	000b3813 	andeq	r3, fp, r3, lsl r8
     764:	000f0a00 	andeq	r0, pc, r0, lsl #20
     768:	4904210b 	stmdbmi	r4, {r0, r1, r3, r8, sp}
     76c:	0b000013 	bleq	7c0 <shift+0x7c0>
     770:	0e030104 	adfeqs	f0, f3, f4
     774:	0b07213e 	bleq	1c8c74 <shift+0x1c8c74>
     778:	13490421 	movtne	r0, #37921	; 0x9421
     77c:	3b04213a 	blcc	108c6c <shift+0x108c6c>
     780:	0e21390b 	vmuleq.f16	s6, s2, s22	; <UNPREDICTABLE>
     784:	00001301 	andeq	r1, r0, r1, lsl #6
     788:	2501110c 	strcs	r1, [r1, #-268]	; 0xfffffef4
     78c:	030b130e 	movweq	r1, #45838	; 0xb30e
     790:	110e1b0e 	tstne	lr, lr, lsl #22
     794:	10061201 	andne	r1, r6, r1, lsl #4
     798:	0d000017 	stceq	0, cr0, [r0, #-92]	; 0xffffffa4
     79c:	0b0b0024 	bleq	2c0834 <shift+0x2c0834>
     7a0:	08030b3e 	stmdaeq	r3, {r1, r2, r3, r4, r5, r8, r9, fp}
     7a4:	350e0000 	strcc	r0, [lr, #-0]
     7a8:	00134900 	andseq	r4, r3, r0, lsl #18
     7ac:	01130f00 	tsteq	r3, r0, lsl #30
     7b0:	0b3a0b0b 	bleq	e833e4 <shift+0xe833e4>
     7b4:	0b39053b 	bleq	e41ca8 <shift+0xe41ca8>
     7b8:	00001301 	andeq	r1, r0, r1, lsl #6
     7bc:	03001610 	movweq	r1, #1552	; 0x610
     7c0:	3b0b3a0e 	blcc	2cf000 <shift+0x2cf000>
     7c4:	490b3905 	stmdbmi	fp, {r0, r2, r8, fp, ip, sp}
     7c8:	11000013 	tstne	r0, r3, lsl r0
     7cc:	0e030113 	mcreq	1, 0, r0, cr3, cr3, {0}
     7d0:	0b3a0b0b 	bleq	e83404 <shift+0xe83404>
     7d4:	0b390b3b 	bleq	e434c8 <shift+0xe434c8>
     7d8:	00001301 	andeq	r1, r0, r1, lsl #6
     7dc:	03003412 	movweq	r3, #1042	; 0x412
     7e0:	3b0b3a08 	blcc	2cf008 <shift+0x2cf008>
     7e4:	490b390b 	stmdbmi	fp, {r0, r1, r3, r8, fp, ip, sp}
     7e8:	00180213 	andseq	r0, r8, r3, lsl r2
     7ec:	00341300 	eorseq	r1, r4, r0, lsl #6
     7f0:	0b3a0e03 	bleq	e84004 <shift+0xe84004>
     7f4:	0b390b3b 	bleq	e434e8 <shift+0xe434e8>
     7f8:	18021349 	stmdane	r2, {r0, r3, r6, r8, r9, ip}
     7fc:	2e140000 	cdpcs	0, 1, cr0, cr4, cr0, {0}
     800:	03193f01 	tsteq	r9, #1, 30
     804:	3b0b3a0e 	blcc	2cf044 <shift+0x2cf044>
     808:	270b390b 	strcs	r3, [fp, -fp, lsl #18]
     80c:	12011119 	andne	r1, r1, #1073741830	; 0x40000006
     810:	7c184006 	ldcvc	0, cr4, [r8], {6}
     814:	00130119 	andseq	r0, r3, r9, lsl r1
     818:	012e1500 			; <UNDEFINED> instruction: 0x012e1500
     81c:	0e03193f 			; <UNDEFINED> instruction: 0x0e03193f
     820:	0b3b0b3a 	bleq	ec3510 <shift+0xec3510>
     824:	19270b39 	stmdbne	r7!, {r0, r3, r4, r5, r8, r9, fp}
     828:	01111349 	tsteq	r1, r9, asr #6
     82c:	18400612 	stmdane	r0, {r1, r4, r9, sl}^
     830:	0000197a 	andeq	r1, r0, sl, ror r9
     834:	00050100 	andeq	r0, r5, r0, lsl #2
     838:	213a0e03 	teqcs	sl, r3, lsl #28
     83c:	39053b01 	stmdbcc	r5, {r0, r8, r9, fp, ip, sp}
     840:	0213490b 	andseq	r4, r3, #180224	; 0x2c000
     844:	02000018 	andeq	r0, r0, #24
     848:	0b0b0024 	bleq	2c08e0 <shift+0x2c08e0>
     84c:	0e030b3e 	vmoveq.16	d3[0], r0
     850:	28030000 	stmdacs	r3, {}	; <UNPREDICTABLE>
     854:	1c0e0300 	stcne	3, cr0, [lr], {-0}
     858:	0400000b 	streq	r0, [r0], #-11
     85c:	0e030016 	mcreq	0, 0, r0, cr3, cr6, {0}
     860:	0b3b0b3a 	bleq	ec3550 <shift+0xec3550>
     864:	13490b39 	movtne	r0, #39737	; 0x9b39
     868:	05050000 	streq	r0, [r5, #-0]
     86c:	00134900 	andseq	r4, r3, r0, lsl #18
     870:	000d0600 	andeq	r0, sp, r0, lsl #12
     874:	213a0803 	teqcs	sl, r3, lsl #16
     878:	39053b04 	stmdbcc	r5, {r2, r8, r9, fp, ip, sp}
     87c:	13491121 	movtne	r1, #37153	; 0x9121
     880:	00000b38 	andeq	r0, r0, r8, lsr fp
     884:	03000d07 	movweq	r0, #3335	; 0xd07
     888:	04213a0e 	strteq	r3, [r1], #-2574	; 0xfffff5f2
     88c:	2139053b 	teqcs	r9, fp, lsr r5
     890:	38134911 	ldmdacc	r3, {r0, r4, r8, fp, lr}
     894:	0800000b 	stmdaeq	r0, {r0, r1, r3}
     898:	0e030104 	adfeqs	f0, f3, f4
     89c:	0b07213e 	bleq	1c8d9c <shift+0x1c8d9c>
     8a0:	13490421 	movtne	r0, #37921	; 0x9421
     8a4:	0b3b0b3a 	bleq	ec3594 <shift+0xec3594>
     8a8:	010e2139 	tsteq	lr, r9, lsr r1
     8ac:	09000013 	stmdbeq	r0, {r0, r1, r4}
     8b0:	0e03000d 	cdpeq	0, 0, cr0, cr3, cr13, {0}
     8b4:	3b05213a 	blcc	148da4 <shift+0x148da4>
     8b8:	490b390b 	stmdbmi	fp, {r0, r1, r3, r8, fp, ip, sp}
     8bc:	000b3813 	andeq	r3, fp, r3, lsl r8
     8c0:	00350a00 	eorseq	r0, r5, r0, lsl #20
     8c4:	00001349 	andeq	r1, r0, r9, asr #6
     8c8:	3f012e0b 	svccc	0x00012e0b
     8cc:	3a0e0319 	bcc	381538 <shift+0x381538>
     8d0:	390b3b0b 	stmdbcc	fp, {r0, r1, r3, r8, r9, fp, ip, sp}
     8d4:	19270621 	stmdbne	r7!, {r0, r5, r9, sl}
     8d8:	1301193c 	movwne	r1, #6460	; 0x193c
     8dc:	0f0c0000 	svceq	0x000c0000
     8e0:	04210b00 	strteq	r0, [r1], #-2816	; 0xfffff500
     8e4:	00001349 	andeq	r1, r0, r9, asr #6
     8e8:	0300340d 	movweq	r3, #1037	; 0x40d
     8ec:	02213a0e 	eoreq	r3, r1, #57344	; 0xe000
     8f0:	0b390b3b 	bleq	e435e4 <shift+0xe435e4>
     8f4:	18021349 	stmdane	r2, {r0, r3, r6, r8, r9, ip}
     8f8:	110e0000 	mrsne	r0, (UNDEF: 14)
     8fc:	130e2501 	movwne	r2, #58625	; 0xe501
     900:	1b0e030b 	blne	381534 <shift+0x381534>
     904:	1201110e 	andne	r1, r1, #-2147483645	; 0x80000003
     908:	00171006 	andseq	r1, r7, r6
     90c:	00240f00 	eoreq	r0, r4, r0, lsl #30
     910:	0b3e0b0b 	bleq	f83544 <shift+0xf83544>
     914:	00000803 	andeq	r0, r0, r3, lsl #16
     918:	0b011310 	bleq	45560 <shift+0x45560>
     91c:	3b0b3a0b 	blcc	2cf150 <shift+0x2cf150>
     920:	010b3905 	tsteq	fp, r5, lsl #18
     924:	11000013 	tstne	r0, r3, lsl r0
     928:	0e030016 	mcreq	0, 0, r0, cr3, cr6, {0}
     92c:	053b0b3a 	ldreq	r0, [fp, #-2874]!	; 0xfffff4c6
     930:	13490b39 	movtne	r0, #39737	; 0x9b39
     934:	13120000 	tstne	r2, #0
     938:	0b0e0301 	bleq	381544 <shift+0x381544>
     93c:	3b0b3a0b 	blcc	2cf170 <shift+0x2cf170>
     940:	010b390b 	tsteq	fp, fp, lsl #18
     944:	13000013 	movwne	r0, #19
     948:	193f012e 	ldmdbne	pc!, {r1, r2, r3, r5, r8}	; <UNPREDICTABLE>
     94c:	0b3a0e03 	bleq	e84160 <shift+0xe84160>
     950:	0b390b3b 	bleq	e43644 <shift+0xe43644>
     954:	13491927 	movtne	r1, #39207	; 0x9927
     958:	1301193c 	movwne	r1, #6460	; 0x193c
     95c:	2e140000 	cdpcs	0, 1, cr0, cr4, cr0, {0}
     960:	03193f01 	tsteq	r9, #1, 30
     964:	3b0b3a0e 	blcc	2cf1a4 <shift+0x2cf1a4>
     968:	270b390b 	strcs	r3, [fp, -fp, lsl #18]
     96c:	11134919 	tstne	r3, r9, lsl r9
     970:	40061201 	andmi	r1, r6, r1, lsl #4
     974:	01197c18 	tsteq	r9, r8, lsl ip
     978:	15000013 	strne	r0, [r0, #-19]	; 0xffffffed
     97c:	08030034 	stmdaeq	r3, {r2, r4, r5}
     980:	0b3b0b3a 	bleq	ec3670 <shift+0xec3670>
     984:	13490b39 	movtne	r0, #39737	; 0x9b39
     988:	00001802 	andeq	r1, r0, r2, lsl #16
     98c:	3f012e16 	svccc	0x00012e16
     990:	3a0e0319 	bcc	3815fc <shift+0x3815fc>
     994:	390b3b0b 	stmdbcc	fp, {r0, r1, r3, r8, r9, fp, ip, sp}
     998:	1119270b 	tstne	r9, fp, lsl #14
     99c:	40061201 	andmi	r1, r6, r1, lsl #4
     9a0:	01197c18 	tsteq	r9, r8, lsl ip
     9a4:	17000013 	smladne	r0, r3, r0, r0
     9a8:	0e03012e 	adfeqsp	f0, f3, #0.5
     9ac:	053b0b3a 	ldreq	r0, [fp, #-2874]!	; 0xfffff4c6
     9b0:	19270b39 	stmdbne	r7!, {r0, r3, r4, r5, r8, r9, fp}
     9b4:	06120111 			; <UNDEFINED> instruction: 0x06120111
     9b8:	197a1840 	ldmdbne	sl!, {r6, fp, ip}^
     9bc:	00001301 	andeq	r1, r0, r1, lsl #6
     9c0:	03012e18 	movweq	r2, #7704	; 0x1e18
     9c4:	3b0b3a0e 	blcc	2cf204 <shift+0x2cf204>
     9c8:	270b3905 	strcs	r3, [fp, -r5, lsl #18]
     9cc:	12011119 	andne	r1, r1, #1073741830	; 0x40000006
     9d0:	7a184006 	bvc	6109f0 <shift+0x6109f0>
     9d4:	00000019 	andeq	r0, r0, r9, lsl r0
     9d8:	03002801 	movweq	r2, #2049	; 0x801
     9dc:	000b1c0e 	andeq	r1, fp, lr, lsl #24
     9e0:	000d0200 	andeq	r0, sp, r0, lsl #4
     9e4:	213a0e03 	teqcs	sl, r3, lsl #28
     9e8:	39053b02 	stmdbcc	r5, {r1, r8, r9, fp, ip, sp}
     9ec:	13491221 	movtne	r1, #37409	; 0x9221
     9f0:	00000538 	andeq	r0, r0, r8, lsr r5
     9f4:	49010103 	stmdbmi	r1, {r0, r1, r8}
     9f8:	00130113 	andseq	r0, r3, r3, lsl r1
     9fc:	00210400 	eoreq	r0, r1, r0, lsl #8
     a00:	0b2f1349 	bleq	bc572c <shift+0xbc572c>
     a04:	24050000 	strcs	r0, [r5], #-0
     a08:	3e0b0b00 	vmlacc.f64	d0, d11, d0
     a0c:	000e030b 	andeq	r0, lr, fp, lsl #6
     a10:	00350600 	eorseq	r0, r5, r0, lsl #12
     a14:	00001349 	andeq	r1, r0, r9, asr #6
     a18:	03001607 	movweq	r1, #1543	; 0x607
     a1c:	3b0b3a0e 	blcc	2cf25c <shift+0x2cf25c>
     a20:	490b390b 	stmdbmi	fp, {r0, r1, r3, r8, fp, ip, sp}
     a24:	08000013 	stmdaeq	r0, {r0, r1, r4}
     a28:	0e030005 	cdpeq	0, 0, cr0, cr3, cr5, {0}
     a2c:	3b01213a 	blcc	48f1c <shift+0x48f1c>
     a30:	490b390b 	stmdbmi	fp, {r0, r1, r3, r8, fp, ip, sp}
     a34:	00180213 	andseq	r0, r8, r3, lsl r2
     a38:	012e0900 			; <UNDEFINED> instruction: 0x012e0900
     a3c:	0e03193f 			; <UNDEFINED> instruction: 0x0e03193f
     a40:	3b01213a 	blcc	48f30 <shift+0x48f30>
     a44:	0621390b 	strteq	r3, [r1], -fp, lsl #18
     a48:	01111927 	tsteq	r1, r7, lsr #18
     a4c:	18400612 	stmdane	r0, {r1, r4, r9, sl}^
     a50:	1301197c 	movwne	r1, #6524	; 0x197c
     a54:	340a0000 	strcc	r0, [sl], #-0
     a58:	02133100 	andseq	r3, r3, #0, 2
     a5c:	0b000018 	bleq	ac4 <shift+0xac4>
     a60:	13490026 	movtne	r0, #36902	; 0x9026
     a64:	210c0000 	mrscs	r0, (UNDEF: 12)
     a68:	2f134900 	svccs	0x00134900
     a6c:	0d000005 	stceq	0, cr0, [r0, #-20]	; 0xffffffec
     a70:	210b000f 	tstcs	fp, pc
     a74:	00134904 	andseq	r4, r3, r4, lsl #18
     a78:	00050e00 	andeq	r0, r5, r0, lsl #28
     a7c:	00001349 	andeq	r1, r0, r9, asr #6
     a80:	0300340f 	movweq	r3, #1039	; 0x40f
     a84:	01213a0e 			; <UNDEFINED> instruction: 0x01213a0e
     a88:	0b390b3b 	bleq	e4377c <shift+0xe4377c>
     a8c:	18021349 	stmdane	r2, {r0, r3, r6, r8, r9, ip}
     a90:	04100000 	ldreq	r0, [r0], #-0
     a94:	3e0e0301 	cdpcc	3, 0, cr0, cr14, cr1, {0}
     a98:	04210b0b 	strteq	r0, [r1], #-2827	; 0xfffff4f5
     a9c:	0b3a1349 	bleq	e857c8 <shift+0xe857c8>
     aa0:	0b390b3b 	bleq	e43794 <shift+0xe43794>
     aa4:	00001301 	andeq	r1, r0, r1, lsl #6
     aa8:	03000d11 	movweq	r0, #3345	; 0xd11
     aac:	06213a0e 	strteq	r3, [r1], -lr, lsl #20
     ab0:	0b390b3b 	bleq	e437a4 <shift+0xe437a4>
     ab4:	0b381349 	bleq	e057e0 <shift+0xe057e0>
     ab8:	34120000 	ldrcc	r0, [r2], #-0
     abc:	3a080300 	bcc	2016c4 <shift+0x2016c4>
     ac0:	053b0221 	ldreq	r0, [fp, #-545]!	; 0xfffffddf
     ac4:	13490b39 	movtne	r0, #39737	; 0x9b39
     ac8:	34130000 	ldrcc	r0, [r3], #-0
     acc:	3a0e0300 	bcc	3816d4 <shift+0x3816d4>
     ad0:	053b0221 	ldreq	r0, [fp, #-545]!	; 0xfffffddf
     ad4:	13490b39 	movtne	r0, #39737	; 0x9b39
     ad8:	11140000 	tstne	r4, r0
     adc:	130e2501 	movwne	r2, #58625	; 0xe501
     ae0:	1b0e030b 	blne	381714 <shift+0x381714>
     ae4:	1201110e 	andne	r1, r1, #-2147483645	; 0x80000003
     ae8:	00171006 	andseq	r1, r7, r6
     aec:	00241500 	eoreq	r1, r4, r0, lsl #10
     af0:	0b3e0b0b 	bleq	f83724 <shift+0xf83724>
     af4:	00000803 	andeq	r0, r0, r3, lsl #16
     af8:	03002816 	movweq	r2, #2070	; 0x816
     afc:	000d1c0e 	andeq	r1, sp, lr, lsl #24
     b00:	000f1700 	andeq	r1, pc, r0, lsl #14
     b04:	00000b0b 	andeq	r0, r0, fp, lsl #22
     b08:	0b011318 	bleq	45770 <shift+0x45770>
     b0c:	3b0b3a05 	blcc	2cf328 <shift+0x2cf328>
     b10:	010b3905 	tsteq	fp, r5, lsl #18
     b14:	19000013 	stmdbne	r0, {r0, r1, r4}
     b18:	0e03000d 	cdpeq	0, 0, cr0, cr3, cr13, {0}
     b1c:	053b0b3a 	ldreq	r0, [fp, #-2874]!	; 0xfffff4c6
     b20:	13490b39 	movtne	r0, #39737	; 0x9b39
     b24:	00000b38 	andeq	r0, r0, r8, lsr fp
     b28:	0300161a 	movweq	r1, #1562	; 0x61a
     b2c:	3b0b3a0e 	blcc	2cf36c <shift+0x2cf36c>
     b30:	490b3905 	stmdbmi	fp, {r0, r2, r8, fp, ip, sp}
     b34:	1b000013 	blne	b88 <shift+0xb88>
     b38:	19270115 	stmdbne	r7!, {r0, r2, r4, r8}
     b3c:	00001301 	andeq	r1, r0, r1, lsl #6
     b40:	0301131c 	movweq	r1, #4892	; 0x131c
     b44:	3a0b0b0e 	bcc	2c3784 <shift+0x2c3784>
     b48:	390b3b0b 	stmdbcc	fp, {r0, r1, r3, r8, r9, fp, ip, sp}
     b4c:	0013010b 	andseq	r0, r3, fp, lsl #2
     b50:	012e1d00 			; <UNDEFINED> instruction: 0x012e1d00
     b54:	0e03193f 			; <UNDEFINED> instruction: 0x0e03193f
     b58:	0b3b0b3a 	bleq	ec3848 <shift+0xec3848>
     b5c:	19270b39 	stmdbne	r7!, {r0, r3, r4, r5, r8, r9, fp}
     b60:	193c1349 	ldmdbne	ip!, {r0, r3, r6, r8, r9, ip}
     b64:	00001301 	andeq	r1, r0, r1, lsl #6
     b68:	0000181e 	andeq	r1, r0, lr, lsl r8
     b6c:	012e1f00 			; <UNDEFINED> instruction: 0x012e1f00
     b70:	0e03193f 			; <UNDEFINED> instruction: 0x0e03193f
     b74:	0b3b0b3a 	bleq	ec3864 <shift+0xec3864>
     b78:	19270b39 	stmdbne	r7!, {r0, r3, r4, r5, r8, r9, fp}
     b7c:	06120111 			; <UNDEFINED> instruction: 0x06120111
     b80:	197a1840 	ldmdbne	sl!, {r6, fp, ip}^
     b84:	00001301 	andeq	r1, r0, r1, lsl #6
     b88:	03000520 	movweq	r0, #1312	; 0x520
     b8c:	3b0b3a08 	blcc	2cf3b4 <shift+0x2cf3b4>
     b90:	490b390b 	stmdbmi	fp, {r0, r1, r3, r8, fp, ip, sp}
     b94:	00180213 	andseq	r0, r8, r3, lsl r2
     b98:	00342100 	eorseq	r2, r4, r0, lsl #2
     b9c:	0b3a0803 	bleq	e82bb0 <shift+0xe82bb0>
     ba0:	0b390b3b 	bleq	e43894 <shift+0xe43894>
     ba4:	18021349 	stmdane	r2, {r0, r3, r6, r8, r9, ip}
     ba8:	1d220000 	stcne	0, cr0, [r2, #-0]
     bac:	11133101 	tstne	r3, r1, lsl #2
     bb0:	58061201 	stmdapl	r6, {r0, r9, ip}
     bb4:	570b590b 	strpl	r5, [fp, -fp, lsl #18]
     bb8:	0013010b 	andseq	r0, r3, fp, lsl #2
     bbc:	011d2300 	tsteq	sp, r0, lsl #6
     bc0:	01111331 	tsteq	r1, r1, lsr r3
     bc4:	0b580612 	bleq	1602414 <shift+0x1602414>
     bc8:	0b570559 	bleq	15c2134 <shift+0x15c2134>
     bcc:	0b240000 	bleq	900bd4 <shift+0x900bd4>
     bd0:	11133101 	tstne	r3, r1, lsl #2
     bd4:	00061201 	andeq	r1, r6, r1, lsl #4
     bd8:	011d2500 	tsteq	sp, r0, lsl #10
     bdc:	01111331 	tsteq	r1, r1, lsr r3
     be0:	0b580612 	bleq	1602430 <shift+0x1602430>
     be4:	0b570b59 	bleq	15c3950 <shift+0x15c3950>
     be8:	05260000 	streq	r0, [r6, #-0]!
     bec:	02133100 	andseq	r3, r3, #0, 2
     bf0:	27000018 	smladcs	r0, r8, r0, r0
     bf4:	0e03012e 	adfeqsp	f0, f3, #0.5
     bf8:	053b0b3a 	ldreq	r0, [fp, #-2874]!	; 0xfffff4c6
     bfc:	19270b39 	stmdbne	r7!, {r0, r3, r4, r5, r8, r9, fp}
     c00:	13010b20 	movwne	r0, #6944	; 0x1b20
     c04:	2e280000 	cdpcs	0, 2, cr0, cr8, cr0, {0}
     c08:	3a0e0301 	bcc	381814 <shift+0x381814>
     c0c:	39053b0b 	stmdbcc	r5, {r0, r1, r3, r8, r9, fp, ip, sp}
     c10:	4919270b 	ldmdbmi	r9, {r0, r1, r3, r8, r9, sl, sp}
     c14:	010b2013 	tsteq	fp, r3, lsl r0
     c18:	29000013 	stmdbcs	r0, {r0, r1, r4}
     c1c:	0000010b 	andeq	r0, r0, fp, lsl #2
     c20:	03012e2a 	movweq	r2, #7722	; 0x1e2a
     c24:	3b0b3a0e 	blcc	2cf464 <shift+0x2cf464>
     c28:	270b3905 	strcs	r3, [fp, -r5, lsl #18]
     c2c:	000b2019 	andeq	r2, fp, r9, lsl r0
     c30:	00052b00 	andeq	r2, r5, r0, lsl #22
     c34:	0b3a0e03 	bleq	e84448 <shift+0xe84448>
     c38:	0b39053b 	bleq	e4212c <shift+0xe4212c>
     c3c:	00001349 	andeq	r1, r0, r9, asr #6
     c40:	00280100 	eoreq	r0, r8, r0, lsl #2
     c44:	0b1c0e03 	bleq	704458 <shift+0x704458>
     c48:	0d020000 	stceq	0, cr0, [r2, #-0]
     c4c:	3a0e0300 	bcc	381854 <shift+0x381854>
     c50:	053b0321 	ldreq	r0, [fp, #-801]!	; 0xfffffcdf
     c54:	49122139 	ldmdbmi	r2, {r0, r3, r4, r5, r8, sp}
     c58:	00053813 	andeq	r3, r5, r3, lsl r8
     c5c:	01010300 	mrseq	r0, SP_irq
     c60:	13011349 	movwne	r1, #4937	; 0x1349
     c64:	21040000 	mrscs	r0, (UNDEF: 4)
     c68:	2f134900 	svccs	0x00134900
     c6c:	0500000b 	streq	r0, [r0, #-11]
     c70:	13490005 	movtne	r0, #36869	; 0x9005
     c74:	05060000 	streq	r0, [r6, #-0]
     c78:	3a0e0300 	bcc	381880 <shift+0x381880>
     c7c:	053b0121 	ldreq	r0, [fp, #-289]!	; 0xfffffedf
     c80:	13490b39 	movtne	r0, #39737	; 0x9b39
     c84:	00001802 	andeq	r1, r0, r2, lsl #16
     c88:	0b002407 	bleq	9cac <shift+0x9cac>
     c8c:	030b3e0b 	movweq	r3, #48651	; 0xbe0b
     c90:	0800000e 	stmdaeq	r0, {r1, r2, r3}
     c94:	0e030016 	mcreq	0, 0, r0, cr3, cr6, {0}
     c98:	0b3b0b3a 	bleq	ec3988 <shift+0xec3988>
     c9c:	13490b39 	movtne	r0, #39737	; 0x9b39
     ca0:	35090000 	strcc	r0, [r9, #-0]
     ca4:	00134900 	andseq	r4, r3, r0, lsl #18
     ca8:	000d0a00 	andeq	r0, sp, r0, lsl #20
     cac:	0b3a0e03 	bleq	e844c0 <shift+0xe844c0>
     cb0:	0b39053b 	bleq	e421a4 <shift+0xe421a4>
     cb4:	0b381349 	bleq	e059e0 <shift+0xe059e0>
     cb8:	0d0b0000 	stceq	0, cr0, [fp, #-0]
     cbc:	3a080300 	bcc	2018c4 <shift+0x2018c4>
     cc0:	053b0521 	ldreq	r0, [fp, #-1313]!	; 0xfffffadf
     cc4:	49112139 	ldmdbmi	r1, {r0, r3, r4, r5, r8, sp}
     cc8:	000b3813 	andeq	r3, fp, r3, lsl r8
     ccc:	000f0c00 	andeq	r0, pc, r0, lsl #24
     cd0:	4904210b 	stmdbmi	r4, {r0, r1, r3, r8, sp}
     cd4:	0d000013 	stceq	0, cr0, [r0, #-76]	; 0xffffffb4
     cd8:	193f012e 	ldmdbne	pc!, {r1, r2, r3, r5, r8}	; <UNPREDICTABLE>
     cdc:	0b3a0e03 	bleq	e844f0 <shift+0xe844f0>
     ce0:	21390b3b 	teqcs	r9, fp, lsr fp
     ce4:	3c192706 	ldccc	7, cr2, [r9], {6}
     ce8:	00130119 	andseq	r0, r3, r9, lsl r1
     cec:	01040e00 	tsteq	r4, r0, lsl #28
     cf0:	0b3e0e03 	bleq	f84504 <shift+0xf84504>
     cf4:	4904210b 	stmdbmi	r4, {r0, r1, r3, r8, sp}
     cf8:	3b0b3a13 	blcc	2cf54c <shift+0x2cf54c>
     cfc:	0e21390b 	vmuleq.f16	s6, s2, s22	; <UNPREDICTABLE>
     d00:	00001301 	andeq	r1, r0, r1, lsl #6
     d04:	4900210f 	stmdbmi	r0, {r0, r1, r2, r3, r8, sp}
     d08:	00052f13 	andeq	r2, r5, r3, lsl pc
     d0c:	000d1000 	andeq	r1, sp, r0
     d10:	213a0e03 	teqcs	sl, r3, lsl #28
     d14:	390b3b07 	stmdbcc	fp, {r0, r1, r2, r8, r9, fp, ip, sp}
     d18:	3813490b 	ldmdacc	r3, {r0, r1, r3, r8, fp, lr}
     d1c:	1100000b 	tstne	r0, fp
     d20:	13490026 	movtne	r0, #36902	; 0x9026
     d24:	16120000 	ldrne	r0, [r2], -r0
     d28:	3a0e0300 	bcc	381930 <shift+0x381930>
     d2c:	39053b0b 	stmdbcc	r5, {r0, r1, r3, r8, r9, fp, ip, sp}
     d30:	13490321 	movtne	r0, #37665	; 0x9321
     d34:	34130000 	ldrcc	r0, [r3], #-0
     d38:	02133100 	andseq	r3, r3, #0, 2
     d3c:	14000018 	strne	r0, [r0], #-24	; 0xffffffe8
     d40:	0e250111 	mcreq	1, 1, r0, cr5, cr1, {0}
     d44:	0e030b13 	vmoveq.32	d3[0], r0
     d48:	01110e1b 	tsteq	r1, fp, lsl lr
     d4c:	17100612 			; <UNDEFINED> instruction: 0x17100612
     d50:	24150000 	ldrcs	r0, [r5], #-0
     d54:	3e0b0b00 	vmlacc.f64	d0, d11, d0
     d58:	0008030b 	andeq	r0, r8, fp, lsl #6
     d5c:	00281600 	eoreq	r1, r8, r0, lsl #12
     d60:	0d1c0e03 	ldceq	14, cr0, [ip, #-12]
     d64:	13170000 	tstne	r7, #0
     d68:	3a0b0b01 	bcc	2c3974 <shift+0x2c3974>
     d6c:	39053b0b 	stmdbcc	r5, {r0, r1, r3, r8, r9, fp, ip, sp}
     d70:	0013010b 	andseq	r0, r3, fp, lsl #2
     d74:	000f1800 	andeq	r1, pc, r0, lsl #16
     d78:	00000b0b 	andeq	r0, r0, fp, lsl #22
     d7c:	0b011319 	bleq	459e8 <shift+0x459e8>
     d80:	3b0b3a05 	blcc	2cf59c <shift+0x2cf59c>
     d84:	010b3905 	tsteq	fp, r5, lsl #18
     d88:	1a000013 	bne	ddc <shift+0xddc>
     d8c:	19270115 	stmdbne	r7!, {r0, r2, r4, r8}
     d90:	00001301 	andeq	r1, r0, r1, lsl #6
     d94:	0301131b 	movweq	r1, #4891	; 0x131b
     d98:	3a0b0b0e 	bcc	2c39d8 <shift+0x2c39d8>
     d9c:	390b3b0b 	stmdbcc	fp, {r0, r1, r3, r8, r9, fp, ip, sp}
     da0:	0013010b 	andseq	r0, r3, fp, lsl #2
     da4:	002e1c00 	eoreq	r1, lr, r0, lsl #24
     da8:	0e03193f 			; <UNDEFINED> instruction: 0x0e03193f
     dac:	0b3b0b3a 	bleq	ec3a9c <shift+0xec3a9c>
     db0:	19270b39 	stmdbne	r7!, {r0, r3, r4, r5, r8, r9, fp}
     db4:	06120111 			; <UNDEFINED> instruction: 0x06120111
     db8:	197c1840 	ldmdbne	ip!, {r6, fp, ip}^
     dbc:	2e1d0000 	cdpcs	0, 1, cr0, cr13, cr0, {0}
     dc0:	03193f01 	tsteq	r9, #1, 30
     dc4:	3b0b3a0e 	blcc	2cf604 <shift+0x2cf604>
     dc8:	270b390b 	strcs	r3, [fp, -fp, lsl #18]
     dcc:	12011119 	andne	r1, r1, #1073741830	; 0x40000006
     dd0:	7c184006 	ldcvc	0, cr4, [r8], {6}
     dd4:	00130119 	andseq	r0, r3, r9, lsl r1
     dd8:	00341e00 	eorseq	r1, r4, r0, lsl #28
     ddc:	0b3a0e03 	bleq	e845f0 <shift+0xe845f0>
     de0:	0b390b3b 	bleq	e43ad4 <shift+0xe43ad4>
     de4:	18021349 	stmdane	r2, {r0, r3, r6, r8, r9, ip}
     de8:	1d1f0000 	ldcne	0, cr0, [pc, #-0]	; df0 <shift+0xdf0>
     dec:	11133101 	tstne	r3, r1, lsl #2
     df0:	58061201 	stmdapl	r6, {r0, r9, ip}
     df4:	570b590b 	strpl	r5, [fp, -fp, lsl #18]
     df8:	2000000b 	andcs	r0, r0, fp
     dfc:	13310005 	teqne	r1, #5
     e00:	00001802 	andeq	r1, r0, r2, lsl #16
     e04:	31011d21 	tstcc	r1, r1, lsr #26
     e08:	12011113 	andne	r1, r1, #-1073741820	; 0xc0000004
     e0c:	590b5806 	stmdbpl	fp, {r1, r2, fp, ip, lr}
     e10:	000b5705 	andeq	r5, fp, r5, lsl #14
     e14:	010b2200 	mrseq	r2, R11_fiq
     e18:	01111331 	tsteq	r1, r1, lsr r3
     e1c:	00000612 	andeq	r0, r0, r2, lsl r6
     e20:	03012e23 	movweq	r2, #7715	; 0x1e23
     e24:	3b0b3a0e 	blcc	2cf664 <shift+0x2cf664>
     e28:	270b3905 	strcs	r3, [fp, -r5, lsl #18]
     e2c:	010b2019 	tsteq	fp, r9, lsl r0
     e30:	24000013 	strcs	r0, [r0], #-19	; 0xffffffed
     e34:	0e030005 	cdpeq	0, 0, cr0, cr3, cr5, {0}
     e38:	053b0b3a 	ldreq	r0, [fp, #-2874]!	; 0xfffff4c6
     e3c:	13490b39 	movtne	r0, #39737	; 0x9b39
     e40:	34250000 	strtcc	r0, [r5], #-0
     e44:	3a080300 	bcc	201a4c <shift+0x201a4c>
     e48:	39053b0b 	stmdbcc	r5, {r0, r1, r3, r8, r9, fp, ip, sp}
     e4c:	0013490b 	andseq	r4, r3, fp, lsl #18
     e50:	012e2600 			; <UNDEFINED> instruction: 0x012e2600
     e54:	0b3a0e03 	bleq	e84668 <shift+0xe84668>
     e58:	0b39053b 	bleq	e4234c <shift+0xe4234c>
     e5c:	13491927 	movtne	r1, #39207	; 0x9927
     e60:	13010b20 	movwne	r0, #6944	; 0x1b20
     e64:	0b270000 	bleq	9c0e6c <shift+0x9c0e6c>
     e68:	28000001 	stmdacs	r0, {r0}
     e6c:	0e030034 	mcreq	0, 0, r0, cr3, cr4, {1}
     e70:	053b0b3a 	ldreq	r0, [fp, #-2874]!	; 0xfffff4c6
     e74:	13490b39 	movtne	r0, #39737	; 0x9b39
     e78:	2e290000 	cdpcs	0, 2, cr0, cr9, cr0, {0}
     e7c:	3a0e0301 	bcc	381a88 <shift+0x381a88>
     e80:	39053b0b 	stmdbcc	r5, {r0, r1, r3, r8, r9, fp, ip, sp}
     e84:	1119270b 	tstne	r9, fp, lsl #14
     e88:	40061201 	andmi	r1, r6, r1, lsl #4
     e8c:	01197a18 	tsteq	r9, r8, lsl sl
     e90:	2a000013 	bcs	ee4 <shift+0xee4>
     e94:	0e03012e 	adfeqsp	f0, f3, #0.5
     e98:	053b0b3a 	ldreq	r0, [fp, #-2874]!	; 0xfffff4c6
     e9c:	19270b39 	stmdbne	r7!, {r0, r3, r4, r5, r8, r9, fp}
     ea0:	06120111 			; <UNDEFINED> instruction: 0x06120111
     ea4:	197a1840 	ldmdbne	sl!, {r6, fp, ip}^
     ea8:	01000000 	mrseq	r0, (UNDEF: 0)
     eac:	0e030028 	cdpeq	0, 0, cr0, cr3, cr8, {1}
     eb0:	00000b1c 	andeq	r0, r0, ip, lsl fp
     eb4:	03000d02 	movweq	r0, #3330	; 0xd02
     eb8:	02213a0e 	eoreq	r3, r1, #57344	; 0xe000
     ebc:	2139053b 	teqcs	r9, fp, lsr r5
     ec0:	38134912 	ldmdacc	r3, {r1, r4, r8, fp, lr}
     ec4:	03000005 	movweq	r0, #5
     ec8:	13490101 	movtne	r0, #37121	; 0x9101
     ecc:	00001301 	andeq	r1, r0, r1, lsl #6
     ed0:	49002104 	stmdbmi	r0, {r2, r8, sp}
     ed4:	000b2f13 	andeq	r2, fp, r3, lsl pc
     ed8:	00240500 	eoreq	r0, r4, r0, lsl #10
     edc:	0b3e0b0b 	bleq	f83b10 <shift+0xf83b10>
     ee0:	00000e03 	andeq	r0, r0, r3, lsl #28
     ee4:	49003506 	stmdbmi	r0, {r1, r2, r8, sl, ip, sp}
     ee8:	07000013 	smladeq	r0, r3, r0, r0
     eec:	13490005 	movtne	r0, #36869	; 0x9005
     ef0:	16080000 	strne	r0, [r8], -r0
     ef4:	3a0e0300 	bcc	381afc <shift+0x381afc>
     ef8:	390b3b0b 	stmdbcc	fp, {r0, r1, r3, r8, r9, fp, ip, sp}
     efc:	0013490b 	andseq	r4, r3, fp, lsl #18
     f00:	000d0900 	andeq	r0, sp, r0, lsl #18
     f04:	213a0803 	teqcs	sl, r3, lsl #16
     f08:	39053b04 	stmdbcc	r5, {r2, r8, r9, fp, ip, sp}
     f0c:	13491121 	movtne	r1, #37153	; 0x9121
     f10:	00000b38 	andeq	r0, r0, r8, lsr fp
     f14:	3100340a 	tstcc	r0, sl, lsl #8
     f18:	00180213 	andseq	r0, r8, r3, lsl r2
     f1c:	00210b00 	eoreq	r0, r1, r0, lsl #22
     f20:	052f1349 	streq	r1, [pc, #-841]!	; bdf <shift+0xbdf>
     f24:	050c0000 	streq	r0, [ip, #-0]
     f28:	02133100 	andseq	r3, r3, #0, 2
     f2c:	0d000018 	stceq	0, cr0, [r0, #-96]	; 0xffffffa0
     f30:	0e030005 	cdpeq	0, 0, cr0, cr3, cr5, {0}
     f34:	3b02213a 	blcc	89424 <shift+0x89424>
     f38:	490b3905 	stmdbmi	fp, {r0, r2, r8, fp, ip, sp}
     f3c:	0e000013 	mcreq	0, 0, r0, cr0, cr3, {0}
     f40:	13490026 	movtne	r0, #36902	; 0x9026
     f44:	0d0f0000 	stceq	0, cr0, [pc, #-0]	; f4c <shift+0xf4c>
     f48:	3a0e0300 	bcc	381b50 <shift+0x381b50>
     f4c:	39053b0b 	stmdbcc	r5, {r0, r1, r3, r8, r9, fp, ip, sp}
     f50:	3813490b 	ldmdacc	r3, {r0, r1, r3, r8, fp, lr}
     f54:	1000000b 	andne	r0, r0, fp
     f58:	0e030016 	mcreq	0, 0, r0, cr3, cr6, {0}
     f5c:	053b0b3a 	ldreq	r0, [fp, #-2874]!	; 0xfffff4c6
     f60:	49032139 	stmdbmi	r3, {r0, r3, r4, r5, r8, sp}
     f64:	11000013 	tstne	r0, r3, lsl r0
     f68:	210b000f 	tstcs	fp, pc
     f6c:	00134904 	andseq	r4, r3, r4, lsl #18
     f70:	012e1200 			; <UNDEFINED> instruction: 0x012e1200
     f74:	0e03193f 			; <UNDEFINED> instruction: 0x0e03193f
     f78:	213b0b3a 	teqcs	fp, sl, lsr fp
     f7c:	270b3913 	smladcs	fp, r3, r9, r3
     f80:	01193c19 	tsteq	r9, r9, lsl ip
     f84:	13000013 	movwne	r0, #19
     f88:	0e030005 	cdpeq	0, 0, cr0, cr3, cr5, {0}
     f8c:	3b01213a 	blcc	4947c <shift+0x4947c>
     f90:	0b390c21 	bleq	e4401c <shift+0xe4401c>
     f94:	18021349 	stmdane	r2, {r0, r3, r6, r8, r9, ip}
     f98:	1d140000 	ldcne	0, cr0, [r4, #-0]
     f9c:	11133101 	tstne	r3, r1, lsl #2
     fa0:	58061201 	stmdapl	r6, {r0, r9, ip}
     fa4:	05590221 	ldrbeq	r0, [r9, #-545]	; 0xfffffddf
     fa8:	00212157 	eoreq	r2, r1, r7, asr r1
     fac:	010b1500 	tsteq	fp, r0, lsl #10
     fb0:	01111331 	tsteq	r1, r1, lsr r3
     fb4:	00000612 	andeq	r0, r0, r2, lsl r6
     fb8:	03012e16 	movweq	r2, #7702	; 0x1e16
     fbc:	02213a0e 	eoreq	r3, r1, #57344	; 0xe000
     fc0:	2139053b 	teqcs	r9, fp, lsr r5
     fc4:	20192723 	andscs	r2, r9, r3, lsr #14
     fc8:	13010321 	movwne	r0, #4897	; 0x1321
     fcc:	34170000 	ldrcc	r0, [r7], #-0
     fd0:	3a080300 	bcc	201bd8 <shift+0x201bd8>
     fd4:	053b0221 	ldreq	r0, [fp, #-545]!	; 0xfffffddf
     fd8:	490e2139 	stmdbmi	lr, {r0, r3, r4, r5, r8, sp}
     fdc:	18000013 	stmdane	r0, {r0, r1, r4}
     fe0:	0e250111 	mcreq	1, 1, r0, cr5, cr1, {0}
     fe4:	0e030b13 	vmoveq.32	d3[0], r0
     fe8:	01110e1b 	tsteq	r1, fp, lsl lr
     fec:	17100612 			; <UNDEFINED> instruction: 0x17100612
     ff0:	24190000 	ldrcs	r0, [r9], #-0
     ff4:	3e0b0b00 	vmlacc.f64	d0, d11, d0
     ff8:	0008030b 	andeq	r0, r8, fp, lsl #6
     ffc:	01041a00 	tsteq	r4, r0, lsl #20
    1000:	0b3e0e03 	bleq	f84814 <shift+0xf84814>
    1004:	13490b0b 	movtne	r0, #39691	; 0x9b0b
    1008:	0b3b0b3a 	bleq	ec3cf8 <shift+0xec3cf8>
    100c:	13010b39 	movwne	r0, #6969	; 0x1b39
    1010:	281b0000 	ldmdacs	fp, {}	; <UNPREDICTABLE>
    1014:	1c0e0300 	stcne	3, cr0, [lr], {-0}
    1018:	1c00000d 	stcne	0, cr0, [r0], {13}
    101c:	0b0b0113 	bleq	2c1470 <shift+0x2c1470>
    1020:	053b0b3a 	ldreq	r0, [fp, #-2874]!	; 0xfffff4c6
    1024:	13010b39 	movwne	r0, #6969	; 0x1b39
    1028:	0f1d0000 	svceq	0x001d0000
    102c:	000b0b00 	andeq	r0, fp, r0, lsl #22
    1030:	01131e00 	tsteq	r3, r0, lsl #28
    1034:	0b3a050b 	bleq	e82468 <shift+0xe82468>
    1038:	0b39053b 	bleq	e4252c <shift+0xe4252c>
    103c:	00001301 	andeq	r1, r0, r1, lsl #6
    1040:	2701151f 	smladcs	r1, pc, r5, r1	; <UNPREDICTABLE>
    1044:	00130119 	andseq	r0, r3, r9, lsl r1
    1048:	002e2000 	eoreq	r2, lr, r0
    104c:	0e03193f 			; <UNDEFINED> instruction: 0x0e03193f
    1050:	0b3b0b3a 	bleq	ec3d40 <shift+0xec3d40>
    1054:	19270b39 	stmdbne	r7!, {r0, r3, r4, r5, r8, r9, fp}
    1058:	06120111 			; <UNDEFINED> instruction: 0x06120111
    105c:	197c1840 	ldmdbne	ip!, {r6, fp, ip}^
    1060:	2e210000 	cdpcs	0, 2, cr0, cr1, cr0, {0}
    1064:	03193f01 	tsteq	r9, #1, 30
    1068:	3b0b3a0e 	blcc	2cf8a8 <shift+0x2cf8a8>
    106c:	270b390b 	strcs	r3, [fp, -fp, lsl #18]
    1070:	12011119 	andne	r1, r1, #1073741830	; 0x40000006
    1074:	7c184006 	ldcvc	0, cr4, [r8], {6}
    1078:	00130119 	andseq	r0, r3, r9, lsl r1
    107c:	011d2200 	tsteq	sp, r0, lsl #4
    1080:	01111331 	tsteq	r1, r1, lsr r3
    1084:	0b580612 	bleq	16028d4 <shift+0x16028d4>
    1088:	0b570b59 	bleq	15c3df4 <shift+0x15c3df4>
    108c:	00001301 	andeq	r1, r0, r1, lsl #6
    1090:	31011d23 	tstcc	r1, r3, lsr #26
    1094:	12011113 	andne	r1, r1, #-1073741820	; 0xc0000004
    1098:	590b5806 	stmdbpl	fp, {r1, r2, fp, ip, lr}
    109c:	000b570b 	andeq	r5, fp, fp, lsl #14
    10a0:	012e2400 			; <UNDEFINED> instruction: 0x012e2400
    10a4:	0b3a0e03 	bleq	e848b8 <shift+0xe848b8>
    10a8:	0b39053b 	bleq	e4259c <shift+0xe4259c>
    10ac:	13491927 	movtne	r1, #39207	; 0x9927
    10b0:	00000b20 	andeq	r0, r0, r0, lsr #22
    10b4:	00010b25 	andeq	r0, r1, r5, lsr #22
    10b8:	00342600 	eorseq	r2, r4, r0, lsl #12
    10bc:	0b3a0e03 	bleq	e848d0 <shift+0xe848d0>
    10c0:	0b39053b 	bleq	e425b4 <shift+0xe425b4>
    10c4:	00001349 	andeq	r1, r0, r9, asr #6
    10c8:	000d0100 	andeq	r0, sp, r0, lsl #2
    10cc:	213a0e03 	teqcs	sl, r3, lsl #28
    10d0:	39053b04 	stmdbcc	r5, {r2, r8, r9, fp, ip, sp}
    10d4:	3813490b 	ldmdacc	r3, {r0, r1, r3, r8, fp, lr}
    10d8:	0200000b 	andeq	r0, r0, #11
    10dc:	0e030005 	cdpeq	0, 0, cr0, cr3, cr5, {0}
    10e0:	053b0b3a 	ldreq	r0, [fp, #-2874]!	; 0xfffff4c6
    10e4:	13490b39 	movtne	r0, #39737	; 0x9b39
    10e8:	00001802 	andeq	r1, r0, r2, lsl #16
    10ec:	0b002403 	bleq	a100 <shift+0xa100>
    10f0:	030b3e0b 	movweq	r3, #48651	; 0xbe0b
    10f4:	0400000e 	streq	r0, [r0], #-14
    10f8:	0e030034 	mcreq	0, 0, r0, cr3, cr4, {1}
    10fc:	3b02213a 	blcc	895ec <shift+0x895ec>
    1100:	0e21390b 	vmuleq.f16	s6, s2, s22	; <UNPREDICTABLE>
    1104:	18021349 	stmdane	r2, {r0, r3, r6, r8, r9, ip}
    1108:	05050000 	streq	r0, [r5, #-0]
    110c:	3a0e0300 	bcc	381d14 <shift+0x381d14>
    1110:	0b3b0221 	bleq	ec199c <shift+0xec199c>
    1114:	13490b39 	movtne	r0, #39737	; 0x9b39
    1118:	00001802 	andeq	r1, r0, r2, lsl #16
    111c:	03003406 	movweq	r3, #1030	; 0x406
    1120:	02213a08 	eoreq	r3, r1, #8, 20	; 0x8000
    1124:	0b390b3b 	bleq	e43e18 <shift+0xe43e18>
    1128:	18021349 	stmdane	r2, {r0, r3, r6, r8, r9, ip}
    112c:	2e070000 	cdpcs	0, 0, cr0, cr7, cr0, {0}
    1130:	03193f01 	tsteq	r9, #1, 30
    1134:	02213a0e 	eoreq	r3, r1, #57344	; 0xe000
    1138:	21390b3b 	teqcs	r9, fp, lsr fp
    113c:	11192706 	tstne	r9, r6, lsl #14
    1140:	40061201 	andmi	r1, r6, r1, lsl #4
    1144:	01197a18 	tsteq	r9, r8, lsl sl
    1148:	08000013 	stmdaeq	r0, {r0, r1, r4}
    114c:	0e030016 	mcreq	0, 0, r0, cr3, cr6, {0}
    1150:	3b03213a 	blcc	c9640 <shift+0xc9640>
    1154:	490b390b 	stmdbmi	fp, {r0, r1, r3, r8, fp, ip, sp}
    1158:	09000013 	stmdbeq	r0, {r0, r1, r4}
    115c:	210b000f 	tstcs	fp, pc
    1160:	00134904 	andseq	r4, r3, r4, lsl #18
    1164:	012e0a00 			; <UNDEFINED> instruction: 0x012e0a00
    1168:	0e03193f 			; <UNDEFINED> instruction: 0x0e03193f
    116c:	3b02213a 	blcc	8965c <shift+0x8965c>
    1170:	0621390b 	strteq	r3, [r1], -fp, lsl #18
    1174:	01111927 	tsteq	r1, r7, lsr #18
    1178:	18400612 	stmdane	r0, {r1, r4, r9, sl}^
    117c:	1301197c 	movwne	r1, #6524	; 0x197c
    1180:	050b0000 	streq	r0, [fp, #-0]
    1184:	3a080300 	bcc	201d8c <shift+0x201d8c>
    1188:	0b3b0221 	bleq	ec1a14 <shift+0xec1a14>
    118c:	13490b39 	movtne	r0, #39737	; 0x9b39
    1190:	00001802 	andeq	r1, r0, r2, lsl #16
    1194:	3f002e0c 	svccc	0x00002e0c
    1198:	3a0e0319 	bcc	381e04 <shift+0x381e04>
    119c:	0b3b0221 	bleq	ec1a28 <shift+0xec1a28>
    11a0:	27062139 	smladxcs	r6, r9, r1, r2
    11a4:	12011119 	andne	r1, r1, #1073741830	; 0x40000006
    11a8:	7c184006 	ldcvc	0, cr4, [r8], {6}
    11ac:	0d000019 	stceq	0, cr0, [r0, #-100]	; 0xffffff9c
    11b0:	0e250111 	mcreq	1, 1, r0, cr5, cr1, {0}
    11b4:	0e030b13 	vmoveq.32	d3[0], r0
    11b8:	01110e1b 	tsteq	r1, fp, lsl lr
    11bc:	17100612 			; <UNDEFINED> instruction: 0x17100612
    11c0:	240e0000 	strcs	r0, [lr], #-0
    11c4:	3e0b0b00 	vmlacc.f64	d0, d11, d0
    11c8:	0008030b 	andeq	r0, r8, fp, lsl #6
    11cc:	00350f00 	eorseq	r0, r5, r0, lsl #30
    11d0:	00001349 	andeq	r1, r0, r9, asr #6
    11d4:	49010110 	stmdbmi	r1, {r4, r8}
    11d8:	00130113 	andseq	r0, r3, r3, lsl r1
    11dc:	00211100 	eoreq	r1, r1, r0, lsl #2
    11e0:	0b2f1349 	bleq	bc5f0c <shift+0xbc5f0c>
    11e4:	13120000 	tstne	r2, #0
    11e8:	3a0b0b01 	bcc	2c3df4 <shift+0x2c3df4>
    11ec:	39053b0b 	stmdbcc	r5, {r0, r1, r3, r8, r9, fp, ip, sp}
    11f0:	0013010b 	andseq	r0, r3, fp, lsl #2
    11f4:	000d1300 	andeq	r1, sp, r0, lsl #6
    11f8:	0b3a0803 	bleq	e8320c <shift+0xe8320c>
    11fc:	0b39053b 	bleq	e426f0 <shift+0xe426f0>
    1200:	0b381349 	bleq	e05f2c <shift+0xe05f2c>
    1204:	16140000 	ldrne	r0, [r4], -r0
    1208:	3a0e0300 	bcc	381e10 <shift+0x381e10>
    120c:	39053b0b 	stmdbcc	r5, {r0, r1, r3, r8, r9, fp, ip, sp}
    1210:	0013490b 	andseq	r4, r3, fp, lsl #18
    1214:	012e1500 			; <UNDEFINED> instruction: 0x012e1500
    1218:	0e03193f 			; <UNDEFINED> instruction: 0x0e03193f
    121c:	053b0b3a 	ldreq	r0, [fp, #-2874]!	; 0xfffff4c6
    1220:	19270b39 	stmdbne	r7!, {r0, r3, r4, r5, r8, r9, fp}
    1224:	06120111 			; <UNDEFINED> instruction: 0x06120111
    1228:	197a1840 	ldmdbne	sl!, {r6, fp, ip}^
    122c:	00001301 	andeq	r1, r0, r1, lsl #6
    1230:	3f002e16 	svccc	0x00002e16
    1234:	3a0e0319 	bcc	381ea0 <shift+0x381ea0>
    1238:	39053b0b 	stmdbcc	r5, {r0, r1, r3, r8, r9, fp, ip, sp}
    123c:	4919270b 	ldmdbmi	r9, {r0, r1, r3, r8, r9, sl, sp}
    1240:	12011113 	andne	r1, r1, #-1073741820	; 0xc0000004
    1244:	7a184006 	bvc	611264 <shift+0x611264>
    1248:	17000019 	smladne	r0, r9, r0, r0
    124c:	0111010b 	tsteq	r1, fp, lsl #2
    1250:	00000612 	andeq	r0, r0, r2, lsl r6
    1254:	03012e18 	movweq	r2, #7704	; 0x1e18
    1258:	3b0b3a0e 	blcc	2cfa98 <shift+0x2cfa98>
    125c:	270b3905 	strcs	r3, [fp, -r5, lsl #18]
    1260:	12011119 	andne	r1, r1, #1073741830	; 0x40000006
    1264:	7a184006 	bvc	611284 <shift+0x611284>
    1268:	00130119 	andseq	r0, r3, r9, lsl r1
    126c:	012e1900 			; <UNDEFINED> instruction: 0x012e1900
    1270:	0b3a0e03 	bleq	e84a84 <shift+0xe84a84>
    1274:	0b39053b 	bleq	e42768 <shift+0xe42768>
    1278:	01111927 	tsteq	r1, r7, lsr #18
    127c:	18400612 	stmdane	r0, {r1, r4, r9, sl}^
    1280:	0000197a 	andeq	r1, r0, sl, ror r9
    1284:	01010100 	mrseq	r0, (UNDEF: 17)
    1288:	13011349 	movwne	r1, #4937	; 0x1349
    128c:	24020000 	strcs	r0, [r2], #-0
    1290:	3e0b0b00 	vmlacc.f64	d0, d11, d0
    1294:	000e030b 	andeq	r0, lr, fp, lsl #6
    1298:	01110300 	tsteq	r1, r0, lsl #6
    129c:	0b130e25 	bleq	4c4b38 <shift+0x4c4b38>
    12a0:	0e1b0e03 	cdpeq	14, 1, cr0, cr11, cr3, {0}
    12a4:	00001710 	andeq	r1, r0, r0, lsl r7
    12a8:	00002104 	andeq	r2, r0, r4, lsl #2
    12ac:	00340500 	eorseq	r0, r4, r0, lsl #10
    12b0:	0b3a0e03 	bleq	e84ac4 <shift+0xe84ac4>
    12b4:	0b390b3b 	bleq	e43fa8 <shift+0xe43fa8>
    12b8:	193f1349 	ldmdbne	pc!, {r0, r3, r6, r8, r9, ip}	; <UNPREDICTABLE>
    12bc:	0000193c 	andeq	r1, r0, ip, lsr r9
    12c0:	49002106 	stmdbmi	r0, {r1, r2, r8, sp}
    12c4:	000b2f13 	andeq	r2, fp, r3, lsl pc
    12c8:	00340700 	eorseq	r0, r4, r0, lsl #14
    12cc:	0b3a1347 	bleq	e85ff0 <shift+0xe85ff0>
    12d0:	0b390b3b 	bleq	e43fc4 <shift+0xe43fc4>
    12d4:	18021349 	stmdane	r2, {r0, r3, r6, r8, r9, ip}
    12d8:	01000000 	mrseq	r0, (UNDEF: 0)
    12dc:	08030034 	stmdaeq	r3, {r2, r4, r5}
    12e0:	3b01213a 	blcc	497d0 <shift+0x497d0>
    12e4:	490b390b 	stmdbmi	fp, {r0, r1, r3, r8, fp, ip, sp}
    12e8:	00180213 	andseq	r0, r8, r3, lsl r2
    12ec:	00240200 	eoreq	r0, r4, r0, lsl #4
    12f0:	213e0b0b 	teqcs	lr, fp, lsl #22
    12f4:	000e0307 	andeq	r0, lr, r7, lsl #6
    12f8:	01110300 	tsteq	r1, r0, lsl #6
    12fc:	0b130e25 	bleq	4c4b98 <shift+0x4c4b98>
    1300:	0e1b0e03 	cdpeq	14, 1, cr0, cr11, cr3, {0}
    1304:	06120111 			; <UNDEFINED> instruction: 0x06120111
    1308:	00001710 	andeq	r1, r0, r0, lsl r7
    130c:	3f012e04 	svccc	0x00012e04
    1310:	3a0e0319 	bcc	381f7c <shift+0x381f7c>
    1314:	390b3b0b 	stmdbcc	fp, {r0, r1, r3, r8, r9, fp, ip, sp}
    1318:	4919270b 	ldmdbmi	r9, {r0, r1, r3, r8, r9, sl, sp}
    131c:	12011113 	andne	r1, r1, #-1073741820	; 0xc0000004
    1320:	7c184006 	ldcvc	0, cr4, [r8], {6}
    1324:	00130119 	andseq	r0, r3, r9, lsl r1
    1328:	00050500 	andeq	r0, r5, r0, lsl #10
    132c:	0b3a0803 	bleq	e83340 <shift+0xe83340>
    1330:	0b390b3b 	bleq	e44024 <shift+0xe44024>
    1334:	18021349 	stmdane	r2, {r0, r3, r6, r8, r9, ip}
    1338:	05060000 	streq	r0, [r6, #-0]
    133c:	3a0e0300 	bcc	381f44 <shift+0x381f44>
    1340:	390b3b0b 	stmdbcc	fp, {r0, r1, r3, r8, r9, fp, ip, sp}
    1344:	0213490b 	andseq	r4, r3, #180224	; 0x2c000
    1348:	07000018 	smladeq	r0, r8, r0, r0
    134c:	0e030034 	mcreq	0, 0, r0, cr3, cr4, {1}
    1350:	0b3b0b3a 	bleq	ec4040 <shift+0xec4040>
    1354:	13490b39 	movtne	r0, #39737	; 0x9b39
    1358:	00001802 	andeq	r1, r0, r2, lsl #16
    135c:	0b000f08 	bleq	4f84 <shift+0x4f84>
    1360:	0013490b 	andseq	r4, r3, fp, lsl #18
    1364:	24010000 	strcs	r0, [r1], #-0
    1368:	3e0b0b00 	vmlacc.f64	d0, d11, d0
    136c:	000e030b 	andeq	r0, lr, fp, lsl #6
    1370:	00160200 	andseq	r0, r6, r0, lsl #4
    1374:	213a0e03 	teqcs	sl, r3, lsl #28
    1378:	390b3b02 	stmdbcc	fp, {r1, r8, r9, fp, ip, sp}
    137c:	0013490b 	andseq	r4, r3, fp, lsl #18
    1380:	00340300 	eorseq	r0, r4, r0, lsl #6
    1384:	213a0803 	teqcs	sl, r3, lsl #16
    1388:	390b3b01 	stmdbcc	fp, {r0, r8, r9, fp, ip, sp}
    138c:	0213490b 	andseq	r4, r3, #180224	; 0x2c000
    1390:	04000018 	streq	r0, [r0], #-24	; 0xffffffe8
    1394:	0e030034 	mcreq	0, 0, r0, cr3, cr4, {1}
    1398:	3b01213a 	blcc	49888 <shift+0x49888>
    139c:	3900c721 	stmdbcc	r0, {r0, r5, r8, r9, sl, lr, pc}
    13a0:	13490a21 	movtne	r0, #39457	; 0x9a21
    13a4:	0d050000 	stceq	0, cr0, [r5, #-0]
    13a8:	3a080300 	bcc	201fb0 <shift+0x201fb0>
    13ac:	0b3b0221 	bleq	ec1c38 <shift+0xec1c38>
    13b0:	13490b39 	movtne	r0, #39737	; 0x9b39
    13b4:	05060000 	streq	r0, [r6, #-0]
    13b8:	3a080300 	bcc	201fc0 <shift+0x201fc0>
    13bc:	213b0121 	teqcs	fp, r1, lsr #2
    13c0:	490b393f 	stmdbmi	fp, {r0, r1, r2, r3, r4, r5, r8, fp, ip, sp}
    13c4:	00180213 	andseq	r0, r8, r3, lsl r2
    13c8:	010b0700 	tsteq	fp, r0, lsl #14
    13cc:	06120111 			; <UNDEFINED> instruction: 0x06120111
    13d0:	11080000 	mrsne	r0, (UNDEF: 8)
    13d4:	130e2501 	movwne	r2, #58625	; 0xe501
    13d8:	1b0e030b 	blne	38200c <shift+0x38200c>
    13dc:	1201110e 	andne	r1, r1, #-2147483645	; 0x80000003
    13e0:	00171006 	andseq	r1, r7, r6
    13e4:	00240900 	eoreq	r0, r4, r0, lsl #18
    13e8:	0b3e0b0b 	bleq	f8401c <shift+0xf8401c>
    13ec:	00000803 	andeq	r0, r0, r3, lsl #16
    13f0:	0301130a 	movweq	r1, #4874	; 0x130a
    13f4:	3a0b0b0e 	bcc	2c4034 <shift+0x2c4034>
    13f8:	390b3b0b 	stmdbcc	fp, {r0, r1, r3, r8, r9, fp, ip, sp}
    13fc:	0013010b 	andseq	r0, r3, fp, lsl #2
    1400:	000d0b00 	andeq	r0, sp, r0, lsl #22
    1404:	0b3a0803 	bleq	e83418 <shift+0xe83418>
    1408:	0b390b3b 	bleq	e440fc <shift+0xe440fc>
    140c:	0b381349 	bleq	e06138 <shift+0xe06138>
    1410:	0d0c0000 	stceq	0, cr0, [ip, #-0]
    1414:	3a0e0300 	bcc	38201c <shift+0x38201c>
    1418:	390b3b0b 	stmdbcc	fp, {r0, r1, r3, r8, r9, fp, ip, sp}
    141c:	3813490b 	ldmdacc	r3, {r0, r1, r3, r8, fp, lr}
    1420:	0d00000b 	stceq	0, cr0, [r0, #-44]	; 0xffffffd4
    1424:	0b0b0117 	bleq	2c1888 <shift+0x2c1888>
    1428:	0b3b0b3a 	bleq	ec4118 <shift+0xec4118>
    142c:	13010b39 	movwne	r0, #6969	; 0x1b39
    1430:	2e0e0000 	cdpcs	0, 0, cr0, cr14, cr0, {0}
    1434:	03193f01 	tsteq	r9, #1, 30
    1438:	3b0b3a0e 	blcc	2cfc78 <shift+0x2cfc78>
    143c:	270b390b 	strcs	r3, [fp, -fp, lsl #18]
    1440:	11134919 	tstne	r3, r9, lsl r9
    1444:	40061201 	andmi	r1, r6, r1, lsl #4
    1448:	00197a18 	andseq	r7, r9, r8, lsl sl
    144c:	28010000 	stmdacs	r1, {}	; <UNPREDICTABLE>
    1450:	1c0e0300 	stcne	3, cr0, [lr], {-0}
    1454:	0200000b 	andeq	r0, r0, #11
    1458:	0b0b0024 	bleq	2c14f0 <shift+0x2c14f0>
    145c:	0e030b3e 	vmoveq.16	d3[0], r0
    1460:	05030000 	streq	r0, [r3, #-0]
    1464:	00134900 	andseq	r4, r3, r0, lsl #18
    1468:	00340400 	eorseq	r0, r4, r0, lsl #8
    146c:	213a0e03 	teqcs	sl, r3, lsl #28
    1470:	390b3b01 	stmdbcc	fp, {r0, r8, r9, fp, ip, sp}
    1474:	0213490b 	andseq	r4, r3, #180224	; 0x2c000
    1478:	05000018 	streq	r0, [r0, #-24]	; 0xffffffe8
    147c:	08030034 	stmdaeq	r3, {r2, r4, r5}
    1480:	3b01213a 	blcc	49970 <shift+0x49970>
    1484:	490b390b 	stmdbmi	fp, {r0, r1, r3, r8, fp, ip, sp}
    1488:	00180213 	andseq	r0, r8, r3, lsl r2
    148c:	012e0600 			; <UNDEFINED> instruction: 0x012e0600
    1490:	0e03193f 			; <UNDEFINED> instruction: 0x0e03193f
    1494:	0b3b0b3a 	bleq	ec4184 <shift+0xec4184>
    1498:	19270b39 	stmdbne	r7!, {r0, r3, r4, r5, r8, r9, fp}
    149c:	193c1349 	ldmdbne	ip!, {r0, r3, r6, r8, r9, ip}
    14a0:	00001301 	andeq	r1, r0, r1, lsl #6
    14a4:	03001607 	movweq	r1, #1543	; 0x607
    14a8:	3b0b3a0e 	blcc	2cfce8 <shift+0x2cfce8>
    14ac:	490b390b 	stmdbmi	fp, {r0, r1, r3, r8, fp, ip, sp}
    14b0:	08000013 	stmdaeq	r0, {r0, r1, r4}
    14b4:	210b000f 	tstcs	fp, pc
    14b8:	00134904 	andseq	r4, r3, r4, lsl #18
    14bc:	00050900 	andeq	r0, r5, r0, lsl #18
    14c0:	213a0803 	teqcs	sl, r3, lsl #16
    14c4:	390b3b01 	stmdbcc	fp, {r0, r8, r9, fp, ip, sp}
    14c8:	13491821 	movtne	r1, #38945	; 0x9821
    14cc:	00001802 	andeq	r1, r0, r2, lsl #16
    14d0:	0000180a 	andeq	r1, r0, sl, lsl #16
    14d4:	01110b00 	tsteq	r1, r0, lsl #22
    14d8:	0b130e25 	bleq	4c4d74 <shift+0x4c4d74>
    14dc:	0e1b0e03 	cdpeq	14, 1, cr0, cr11, cr3, {0}
    14e0:	06120111 			; <UNDEFINED> instruction: 0x06120111
    14e4:	00001710 	andeq	r1, r0, r0, lsl r7
    14e8:	4900260c 	stmdbmi	r0, {r2, r3, r9, sl, sp}
    14ec:	0d000013 	stceq	0, cr0, [r0, #-76]	; 0xffffffb4
    14f0:	0b0b0024 	bleq	2c1588 <shift+0x2c1588>
    14f4:	08030b3e 	stmdaeq	r3, {r1, r2, r3, r4, r5, r8, r9, fp}
    14f8:	040e0000 	streq	r0, [lr], #-0
    14fc:	3e0e0301 	cdpcc	3, 0, cr0, cr14, cr1, {0}
    1500:	490b0b0b 	stmdbmi	fp, {r0, r1, r3, r8, r9, fp}
    1504:	3b0b3a13 	blcc	2cfd58 <shift+0x2cfd58>
    1508:	010b390b 	tsteq	fp, fp, lsl #18
    150c:	0f000013 	svceq	0x00000013
    1510:	13490101 	movtne	r0, #37121	; 0x9101
    1514:	00001301 	andeq	r1, r0, r1, lsl #6
    1518:	49002110 	stmdbmi	r0, {r4, r8, sp}
    151c:	00052f13 	andeq	r2, r5, r3, lsl pc
    1520:	002e1100 	eoreq	r1, lr, r0, lsl #2
    1524:	0e03193f 			; <UNDEFINED> instruction: 0x0e03193f
    1528:	0b3b0b3a 	bleq	ec4218 <shift+0xec4218>
    152c:	19270b39 	stmdbne	r7!, {r0, r3, r4, r5, r8, r9, fp}
    1530:	193c1349 	ldmdbne	ip!, {r0, r3, r6, r8, r9, ip}
    1534:	2e120000 	cdpcs	0, 1, cr0, cr2, cr0, {0}
    1538:	03193f01 	tsteq	r9, #1, 30
    153c:	3b0b3a0e 	blcc	2cfd7c <shift+0x2cfd7c>
    1540:	270b390b 	strcs	r3, [fp, -fp, lsl #18]
    1544:	01193c19 	tsteq	r9, r9, lsl ip
    1548:	13000013 	movwne	r0, #19
    154c:	193f012e 	ldmdbne	pc!, {r1, r2, r3, r5, r8}	; <UNPREDICTABLE>
    1550:	0b3a0e03 	bleq	e84d64 <shift+0xe84d64>
    1554:	0b390b3b 	bleq	e44248 <shift+0xe44248>
    1558:	13491927 	movtne	r1, #39207	; 0x9927
    155c:	06120111 			; <UNDEFINED> instruction: 0x06120111
    1560:	197c1840 	ldmdbne	ip!, {r6, fp, ip}^
    1564:	00001301 	andeq	r1, r0, r1, lsl #6
    1568:	3f012e14 	svccc	0x00012e14
    156c:	3a0e0319 	bcc	3821d8 <shift+0x3821d8>
    1570:	390b3b0b 	stmdbcc	fp, {r0, r1, r3, r8, r9, fp, ip, sp}
    1574:	4919270b 	ldmdbmi	r9, {r0, r1, r3, r8, r9, sl, sp}
    1578:	12011113 	andne	r1, r1, #-1073741820	; 0xc0000004
    157c:	7c184006 	ldcvc	0, cr4, [r8], {6}
    1580:	00000019 	andeq	r0, r0, r9, lsl r0
    1584:	03000501 	movweq	r0, #1281	; 0x501
    1588:	02213a08 	eoreq	r3, r1, #8, 20	; 0x8000
    158c:	0b39053b 	bleq	e42a80 <shift+0xe42a80>
    1590:	18021349 	stmdane	r2, {r0, r3, r6, r8, r9, ip}
    1594:	05020000 	streq	r0, [r2, #-0]
    1598:	3a080300 	bcc	2021a0 <shift+0x2021a0>
    159c:	390b3b0b 	stmdbcc	fp, {r0, r1, r3, r8, r9, fp, ip, sp}
    15a0:	0213490b 	andseq	r4, r3, #180224	; 0x2c000
    15a4:	03000018 	movweq	r0, #24
    15a8:	08030034 	stmdaeq	r3, {r2, r4, r5}
    15ac:	3b02213a 	blcc	89a9c <shift+0x89a9c>
    15b0:	490b3905 	stmdbmi	fp, {r0, r2, r8, fp, ip, sp}
    15b4:	00180213 	andseq	r0, r8, r3, lsl r2
    15b8:	00050400 	andeq	r0, r5, r0, lsl #8
    15bc:	213a0e03 	teqcs	sl, r3, lsl #28
    15c0:	39053b02 	stmdbcc	r5, {r1, r8, r9, fp, ip, sp}
    15c4:	0213490b 	andseq	r4, r3, #180224	; 0x2c000
    15c8:	05000018 	streq	r0, [r0, #-24]	; 0xffffffe8
    15cc:	193f012e 	ldmdbne	pc!, {r1, r2, r3, r5, r8}	; <UNPREDICTABLE>
    15d0:	213a0e03 	teqcs	sl, r3, lsl #28
    15d4:	390b3b02 	stmdbcc	fp, {r1, r8, r9, fp, ip, sp}
    15d8:	4919270b 	ldmdbmi	r9, {r0, r1, r3, r8, r9, sl, sp}
    15dc:	12011113 	andne	r1, r1, #-1073741820	; 0xc0000004
    15e0:	7a184006 	bvc	611600 <shift+0x611600>
    15e4:	00130119 	andseq	r0, r3, r9, lsl r1
    15e8:	00050600 	andeq	r0, r5, r0, lsl #12
    15ec:	213a0e03 	teqcs	sl, r3, lsl #28
    15f0:	390b3b02 	stmdbcc	fp, {r1, r8, r9, fp, ip, sp}
    15f4:	0213490b 	andseq	r4, r3, #180224	; 0x2c000
    15f8:	07000018 	smladeq	r0, r8, r0, r0
    15fc:	08030034 	stmdaeq	r3, {r2, r4, r5}
    1600:	3b02213a 	blcc	89af0 <shift+0x89af0>
    1604:	490b390b 	stmdbmi	fp, {r0, r1, r3, r8, fp, ip, sp}
    1608:	00180213 	andseq	r0, r8, r3, lsl r2
    160c:	012e0800 			; <UNDEFINED> instruction: 0x012e0800
    1610:	0e03193f 			; <UNDEFINED> instruction: 0x0e03193f
    1614:	3b02213a 	blcc	89b04 <shift+0x89b04>
    1618:	270b3905 	strcs	r3, [fp, -r5, lsl #18]
    161c:	11134919 	tstne	r3, r9, lsl r9
    1620:	40061201 	andmi	r1, r6, r1, lsl #4
    1624:	01197a18 	tsteq	r9, r8, lsl sl
    1628:	09000013 	stmdbeq	r0, {r0, r1, r4}
    162c:	210b000f 	tstcs	fp, pc
    1630:	00134904 	andseq	r4, r3, r4, lsl #18
    1634:	00340a00 	eorseq	r0, r4, r0, lsl #20
    1638:	213a0e03 	teqcs	sl, r3, lsl #28
    163c:	39053b02 	stmdbcc	r5, {r1, r8, r9, fp, ip, sp}
    1640:	0213490b 	andseq	r4, r3, #180224	; 0x2c000
    1644:	0b000018 	bleq	16ac <shift+0x16ac>
    1648:	0b0b0024 	bleq	2c16e0 <shift+0x2c16e0>
    164c:	0e030b3e 	vmoveq.16	d3[0], r0
    1650:	2e0c0000 	cdpcs	0, 0, cr0, cr12, cr0, {0}
    1654:	03193f01 	tsteq	r9, #1, 30
    1658:	02213a0e 	eoreq	r3, r1, #57344	; 0xe000
    165c:	2139053b 	teqcs	r9, fp, lsr r5
    1660:	49192708 	ldmdbmi	r9, {r3, r8, r9, sl, sp}
    1664:	12011113 	andne	r1, r1, #-1073741820	; 0xc0000004
    1668:	7c184006 	ldcvc	0, cr4, [r8], {6}
    166c:	00130119 	andseq	r0, r3, r9, lsl r1
    1670:	00260d00 	eoreq	r0, r6, r0, lsl #26
    1674:	00001349 	andeq	r1, r0, r9, asr #6
    1678:	0300340e 	movweq	r3, #1038	; 0x40e
    167c:	3b0b3a0e 	blcc	2cfebc <shift+0x2cfebc>
    1680:	490b390b 	stmdbmi	fp, {r0, r1, r3, r8, fp, ip, sp}
    1684:	3c193f13 	ldccc	15, cr3, [r9], {19}
    1688:	0f000019 	svceq	0x00000019
    168c:	193f012e 	ldmdbne	pc!, {r1, r2, r3, r5, r8}	; <UNPREDICTABLE>
    1690:	213a0e03 	teqcs	sl, r3, lsl #28
    1694:	390b3b02 	stmdbcc	fp, {r1, r8, r9, fp, ip, sp}
    1698:	4919270b 	ldmdbmi	r9, {r0, r1, r3, r8, r9, sl, sp}
    169c:	12011113 	andne	r1, r1, #-1073741820	; 0xc0000004
    16a0:	7c184006 	ldcvc	0, cr4, [r8], {6}
    16a4:	00130119 	andseq	r0, r3, r9, lsl r1
    16a8:	00341000 	eorseq	r1, r4, r0
    16ac:	213a0e03 	teqcs	sl, r3, lsl #28
    16b0:	390b3b02 	stmdbcc	fp, {r1, r8, r9, fp, ip, sp}
    16b4:	13491721 	movtne	r1, #38689	; 0x9721
    16b8:	00001802 	andeq	r1, r0, r2, lsl #16
    16bc:	25011111 	strcs	r1, [r1, #-273]	; 0xfffffeef
    16c0:	030b130e 	movweq	r1, #45838	; 0xb30e
    16c4:	110e1b0e 	tstne	lr, lr, lsl #22
    16c8:	10061201 	andne	r1, r6, r1, lsl #4
    16cc:	12000017 	andne	r0, r0, #23
    16d0:	13490101 	movtne	r0, #37121	; 0x9101
    16d4:	00001301 	andeq	r1, r0, r1, lsl #6
    16d8:	00002113 	andeq	r2, r0, r3, lsl r1
    16dc:	00161400 	andseq	r1, r6, r0, lsl #8
    16e0:	0b3a0e03 	bleq	e84ef4 <shift+0xe84ef4>
    16e4:	0b390b3b 	bleq	e443d8 <shift+0xe443d8>
    16e8:	00001349 	andeq	r1, r0, r9, asr #6
    16ec:	47003415 	smladmi	r0, r5, r4, r3
    16f0:	3b0b3a13 	blcc	2cff44 <shift+0x2cff44>
    16f4:	020b390b 	andeq	r3, fp, #180224	; 0x2c000
    16f8:	16000018 			; <UNDEFINED> instruction: 0x16000018
    16fc:	0b0b000f 	bleq	2c1740 <shift+0x2c1740>
    1700:	26170000 	ldrcs	r0, [r7], -r0
    1704:	18000000 	stmdane	r0, {}	; <UNPREDICTABLE>
    1708:	0b0b0024 	bleq	2c17a0 <shift+0x2c17a0>
    170c:	08030b3e 	stmdaeq	r3, {r1, r2, r3, r4, r5, r8, r9, fp}
    1710:	2e190000 	cdpcs	0, 1, cr0, cr9, cr0, {0}
    1714:	03193f01 	tsteq	r9, #1, 30
    1718:	3b0b3a0e 	blcc	2cff58 <shift+0x2cff58>
    171c:	270b3905 	strcs	r3, [fp, -r5, lsl #18]
    1720:	12011119 	andne	r1, r1, #1073741830	; 0x40000006
    1724:	7a184006 	bvc	611744 <shift+0x611744>
    1728:	00130119 	andseq	r0, r3, r9, lsl r1
    172c:	012e1a00 			; <UNDEFINED> instruction: 0x012e1a00
    1730:	0b3a0e03 	bleq	e84f44 <shift+0xe84f44>
    1734:	0b390b3b 	bleq	e44428 <shift+0xe44428>
    1738:	13491927 	movtne	r1, #39207	; 0x9927
    173c:	06120111 			; <UNDEFINED> instruction: 0x06120111
    1740:	197a1840 	ldmdbne	sl!, {r6, fp, ip}^
    1744:	01000000 	mrseq	r0, (UNDEF: 0)
    1748:	08030034 	stmdaeq	r3, {r2, r4, r5}
    174c:	3b02213a 	blcc	89c3c <shift+0x89c3c>
    1750:	490b3905 	stmdbmi	fp, {r0, r2, r8, fp, ip, sp}
    1754:	00180213 	andseq	r0, r8, r3, lsl r2
    1758:	00340200 	eorseq	r0, r4, r0, lsl #4
    175c:	213a0e03 	teqcs	sl, r3, lsl #28
    1760:	39053b02 	stmdbcc	r5, {r1, r8, r9, fp, ip, sp}
    1764:	0213490b 	andseq	r4, r3, #180224	; 0x2c000
    1768:	03000018 	movweq	r0, #24
    176c:	08030005 	stmdaeq	r3, {r0, r2}
    1770:	3b02213a 	blcc	89c60 <shift+0x89c60>
    1774:	490b3905 	stmdbmi	fp, {r0, r2, r8, fp, ip, sp}
    1778:	00180213 	andseq	r0, r8, r3, lsl r2
    177c:	010b0400 	tsteq	fp, r0, lsl #8
    1780:	06120111 			; <UNDEFINED> instruction: 0x06120111
    1784:	00001301 	andeq	r1, r0, r1, lsl #6
    1788:	0b000f05 	bleq	53a4 <shift+0x53a4>
    178c:	13490421 	movtne	r0, #37921	; 0x9421
    1790:	05060000 	streq	r0, [r6, #-0]
    1794:	3a080300 	bcc	20239c <shift+0x20239c>
    1798:	390b3b0b 	stmdbcc	fp, {r0, r1, r3, r8, r9, fp, ip, sp}
    179c:	0213490b 	andseq	r4, r3, #180224	; 0x2c000
    17a0:	07000018 	smladeq	r0, r8, r0, r0
    17a4:	0e030005 	cdpeq	0, 0, cr0, cr3, cr5, {0}
    17a8:	3b02213a 	blcc	89c98 <shift+0x89c98>
    17ac:	490b390b 	stmdbmi	fp, {r0, r1, r3, r8, fp, ip, sp}
    17b0:	00180213 	andseq	r0, r8, r3, lsl r2
    17b4:	00240800 	eoreq	r0, r4, r0, lsl #16
    17b8:	0b3e0b0b 	bleq	f843ec <shift+0xf843ec>
    17bc:	00000e03 	andeq	r0, r0, r3, lsl #28
    17c0:	03003409 	movweq	r3, #1033	; 0x409
    17c4:	02213a08 	eoreq	r3, r1, #8, 20	; 0x8000
    17c8:	0b390b3b 	bleq	e444bc <shift+0xe444bc>
    17cc:	18021349 	stmdane	r2, {r0, r3, r6, r8, r9, ip}
    17d0:	2e0a0000 	cdpcs	0, 0, cr0, cr10, cr0, {0}
    17d4:	03193f01 	tsteq	r9, #1, 30
    17d8:	02213a0e 	eoreq	r3, r1, #57344	; 0xe000
    17dc:	2139053b 	teqcs	r9, fp, lsr r5
    17e0:	49192705 	ldmdbmi	r9, {r0, r2, r8, r9, sl, sp}
    17e4:	12011113 	andne	r1, r1, #-1073741820	; 0xc0000004
    17e8:	7c184006 	ldcvc	0, cr4, [r8], {6}
    17ec:	00130119 	andseq	r0, r3, r9, lsl r1
    17f0:	00050b00 	andeq	r0, r5, r0, lsl #22
    17f4:	213a0e03 	teqcs	sl, r3, lsl #28
    17f8:	39053b02 	stmdbcc	r5, {r1, r8, r9, fp, ip, sp}
    17fc:	0213490b 	andseq	r4, r3, #180224	; 0x2c000
    1800:	0c000018 	stceq	0, cr0, [r0], {24}
    1804:	0e030034 	mcreq	0, 0, r0, cr3, cr4, {1}
    1808:	3b02213a 	blcc	89cf8 <shift+0x89cf8>
    180c:	490b390b 	stmdbmi	fp, {r0, r1, r3, r8, fp, ip, sp}
    1810:	00180213 	andseq	r0, r8, r3, lsl r2
    1814:	010b0d00 	tsteq	fp, r0, lsl #26
    1818:	06120111 			; <UNDEFINED> instruction: 0x06120111
    181c:	050e0000 	streq	r0, [lr, #-0]
    1820:	00134900 	andseq	r4, r3, r0, lsl #18
    1824:	00180f00 	andseq	r0, r8, r0, lsl #30
    1828:	2e100000 	cdpcs	0, 1, cr0, cr0, cr0, {0}
    182c:	03193f01 	tsteq	r9, #1, 30
    1830:	02213a0e 	eoreq	r3, r1, #57344	; 0xe000
    1834:	0b390b3b 	bleq	e44528 <shift+0xe44528>
    1838:	13491927 	movtne	r1, #39207	; 0x9927
    183c:	06120111 			; <UNDEFINED> instruction: 0x06120111
    1840:	197c1840 	ldmdbne	ip!, {r6, fp, ip}^
    1844:	00001301 	andeq	r1, r0, r1, lsl #6
    1848:	03001611 	movweq	r1, #1553	; 0x611
    184c:	3b0b3a0e 	blcc	2d008c <shift+0x2d008c>
    1850:	490b390b 	stmdbmi	fp, {r0, r1, r3, r8, fp, ip, sp}
    1854:	12000013 	andne	r0, r0, #19
    1858:	13490101 	movtne	r0, #37121	; 0x9101
    185c:	00001301 	andeq	r1, r0, r1, lsl #6
    1860:	03012e13 	movweq	r2, #7699	; 0x1e13
    1864:	02213a0e 	eoreq	r3, r1, #57344	; 0xe000
    1868:	0b390b3b 	bleq	e4455c <shift+0xe4455c>
    186c:	13491927 	movtne	r1, #39207	; 0x9927
    1870:	06120111 			; <UNDEFINED> instruction: 0x06120111
    1874:	197a1840 	ldmdbne	sl!, {r6, fp, ip}^
    1878:	00001301 	andeq	r1, r0, r1, lsl #6
    187c:	49002614 	stmdbmi	r0, {r2, r4, r9, sl, sp}
    1880:	15000013 	strne	r0, [r0, #-19]	; 0xffffffed
    1884:	193f012e 	ldmdbne	pc!, {r1, r2, r3, r5, r8}	; <UNPREDICTABLE>
    1888:	0b3a0e03 	bleq	e8509c <shift+0xe8509c>
    188c:	0b390b3b 	bleq	e44580 <shift+0xe44580>
    1890:	13491927 	movtne	r1, #39207	; 0x9927
    1894:	1301193c 	movwne	r1, #6460	; 0x193c
    1898:	2e160000 	cdpcs	0, 1, cr0, cr6, cr0, {0}
    189c:	3a0e0301 	bcc	3824a8 <shift+0x3824a8>
    18a0:	0b3b0221 	bleq	ec212c <shift+0xec212c>
    18a4:	270e2139 	smladxcs	lr, r9, r1, r2
    18a8:	11134919 	tstne	r3, r9, lsl r9
    18ac:	40061201 	andmi	r1, r6, r1, lsl #4
    18b0:	01197c18 	tsteq	r9, r8, lsl ip
    18b4:	17000013 	smladne	r0, r3, r0, r0
    18b8:	13490021 	movtne	r0, #36897	; 0x9021
    18bc:	00000b2f 	andeq	r0, r0, pc, lsr #22
    18c0:	25011118 	strcs	r1, [r1, #-280]	; 0xfffffee8
    18c4:	030b130e 	movweq	r1, #45838	; 0xb30e
    18c8:	110e1b0e 	tstne	lr, lr, lsl #22
    18cc:	10061201 	andne	r1, r6, r1, lsl #4
    18d0:	19000017 	stmdbne	r0, {r0, r1, r2, r4}
    18d4:	00000021 	andeq	r0, r0, r1, lsr #32
    18d8:	0300341a 	movweq	r3, #1050	; 0x41a
    18dc:	3b0b3a0e 	blcc	2d011c <shift+0x2d011c>
    18e0:	490b390b 	stmdbmi	fp, {r0, r1, r3, r8, fp, ip, sp}
    18e4:	3c193f13 	ldccc	15, cr3, [r9], {19}
    18e8:	1b000019 	blne	1954 <shift+0x1954>
    18ec:	0b0b0024 	bleq	2c1984 <shift+0x2c1984>
    18f0:	08030b3e 	stmdaeq	r3, {r1, r2, r3, r4, r5, r8, r9, fp}
    18f4:	0a1c0000 	beq	7018fc <shift+0x7018fc>
    18f8:	3a0e0300 	bcc	382500 <shift+0x382500>
    18fc:	39053b0b 	stmdbcc	r5, {r0, r1, r3, r8, r9, fp, ip, sp}
    1900:	0001110b 	andeq	r1, r1, fp, lsl #2
    1904:	012e1d00 			; <UNDEFINED> instruction: 0x012e1d00
    1908:	0b3a0e03 	bleq	e8511c <shift+0xe8511c>
    190c:	0b390b3b 	bleq	e44600 <shift+0xe44600>
    1910:	13491927 	movtne	r1, #39207	; 0x9927
    1914:	06120111 			; <UNDEFINED> instruction: 0x06120111
    1918:	197a1840 	ldmdbne	sl!, {r6, fp, ip}^
    191c:	01000000 	mrseq	r0, (UNDEF: 0)
    1920:	06100011 			; <UNDEFINED> instruction: 0x06100011
    1924:	01120111 	tsteq	r2, r1, lsl r1
    1928:	081b0803 	ldmdaeq	fp, {r0, r1, fp}
    192c:	05130825 	ldreq	r0, [r3, #-2085]	; 0xfffff7db
    1930:	01000000 	mrseq	r0, (UNDEF: 0)
    1934:	06100011 			; <UNDEFINED> instruction: 0x06100011
    1938:	01120111 	tsteq	r2, r1, lsl r1
    193c:	081b0803 	ldmdaeq	fp, {r0, r1, fp}
    1940:	05130825 	ldreq	r0, [r3, #-2085]	; 0xfffff7db
    1944:	01000000 	mrseq	r0, (UNDEF: 0)
    1948:	06100011 			; <UNDEFINED> instruction: 0x06100011
    194c:	01120111 	tsteq	r2, r1, lsl r1
    1950:	081b0803 	ldmdaeq	fp, {r0, r1, fp}
    1954:	05130825 	ldreq	r0, [r3, #-2085]	; 0xfffff7db
    1958:	01000000 	mrseq	r0, (UNDEF: 0)
    195c:	0e250111 	mcreq	1, 1, r0, cr5, cr1, {0}
    1960:	0e030b13 	vmoveq.32	d3[0], r0
    1964:	01110e1b 	tsteq	r1, fp, lsl lr
    1968:	17100612 			; <UNDEFINED> instruction: 0x17100612
    196c:	24020000 	strcs	r0, [r2], #-0
    1970:	3e0b0b00 	vmlacc.f64	d0, d11, d0
    1974:	000e030b 	andeq	r0, lr, fp, lsl #6
    1978:	00240300 	eoreq	r0, r4, r0, lsl #6
    197c:	0b3e0b0b 	bleq	f845b0 <shift+0xf845b0>
    1980:	00000803 	andeq	r0, r0, r3, lsl #16
    1984:	03001604 	movweq	r1, #1540	; 0x604
    1988:	3b0b3a0e 	blcc	2d01c8 <shift+0x2d01c8>
    198c:	0013490b 	andseq	r4, r3, fp, lsl #18
    1990:	012e0500 			; <UNDEFINED> instruction: 0x012e0500
    1994:	0e03193f 			; <UNDEFINED> instruction: 0x0e03193f
    1998:	053b0b3a 	ldreq	r0, [fp, #-2874]!	; 0xfffff4c6
    199c:	13491927 	movtne	r1, #39207	; 0x9927
    19a0:	06120111 			; <UNDEFINED> instruction: 0x06120111
    19a4:	42971840 	addsmi	r1, r7, #64, 16	; 0x400000
    19a8:	00130119 	andseq	r0, r3, r9, lsl r1
    19ac:	00050600 	andeq	r0, r5, r0, lsl #12
    19b0:	0b3a0803 	bleq	e839c4 <shift+0xe839c4>
    19b4:	1349053b 	movtne	r0, #38203	; 0x953b
    19b8:	00001702 	andeq	r1, r0, r2, lsl #14
    19bc:	03003407 	movweq	r3, #1031	; 0x407
    19c0:	3b0b3a08 	blcc	2d01e8 <shift+0x2d01e8>
    19c4:	02134905 	andseq	r4, r3, #81920	; 0x14000
    19c8:	08000017 	stmdaeq	r0, {r0, r1, r2, r4}
    19cc:	0b0b000f 	bleq	2c1a10 <shift+0x2c1a10>
    19d0:	00001349 	andeq	r1, r0, r9, asr #6
	...

Disassembly of section .debug_aranges:

00000000 <.debug_aranges>:
   0:	0000001c 	andeq	r0, r0, ip, lsl r0
   4:	00000002 	andeq	r0, r0, r2
   8:	00040000 	andeq	r0, r4, r0
   c:	00000000 	andeq	r0, r0, r0
  10:	80000000 	andhi	r0, r0, r0
  14:	00000178 	andeq	r0, r0, r8, ror r1
	...
  20:	0000001c 	andeq	r0, r0, ip, lsl r0
  24:	00250002 	eoreq	r0, r5, r2
  28:	00040000 	andeq	r0, r4, r0
  2c:	00000000 	andeq	r0, r0, r0
  30:	80000180 	andhi	r0, r0, r0, lsl #3
  34:	000001a0 	andeq	r0, r0, r0, lsr #3
	...
  40:	0000001c 	andeq	r0, r0, ip, lsl r0
  44:	004a0002 	subeq	r0, sl, r2
  48:	00040000 	andeq	r0, r4, r0
  4c:	00000000 	andeq	r0, r0, r0
  50:	80000320 	andhi	r0, r0, r0, lsr #6
  54:	00000080 	andeq	r0, r0, r0, lsl #1
	...
  60:	0000001c 	andeq	r0, r0, ip, lsl r0
  64:	016f0002 	cmneq	pc, r2
  68:	00040000 	andeq	r0, r4, r0
  6c:	00000000 	andeq	r0, r0, r0
  70:	800003a0 	andhi	r0, r0, r0, lsr #7
  74:	00000242 	andeq	r0, r0, r2, asr #4
	...
  80:	0000001c 	andeq	r0, r0, ip, lsl r0
  84:	07a20002 	streq	r0, [r2, r2]!
  88:	00040000 	andeq	r0, r4, r0
  8c:	00000000 	andeq	r0, r0, r0
  90:	800005e2 	andhi	r0, r0, r2, ror #11
  94:	00000172 	andeq	r0, r0, r2, ror r1
	...
  a0:	0000001c 	andeq	r0, r0, ip, lsl r0
  a4:	0a220002 	beq	8800b4 <shift+0x8800b4>
  a8:	00040000 	andeq	r0, r4, r0
  ac:	00000000 	andeq	r0, r0, r0
  b0:	80000754 	andhi	r0, r0, r4, asr r7
  b4:	00000264 	andeq	r0, r0, r4, ror #4
	...
  c0:	0000001c 	andeq	r0, r0, ip, lsl r0
  c4:	155f0002 	ldrbne	r0, [pc, #-2]	; ca <shift+0xca>
  c8:	00040000 	andeq	r0, r4, r0
  cc:	00000000 	andeq	r0, r0, r0
  d0:	800009b8 			; <UNDEFINED> instruction: 0x800009b8
  d4:	0000012c 	andeq	r0, r0, ip, lsr #2
	...
  e0:	0000001c 	andeq	r0, r0, ip, lsl r0
  e4:	17730002 	ldrbne	r0, [r3, -r2]!
  e8:	00040000 	andeq	r0, r4, r0
  ec:	00000000 	andeq	r0, r0, r0
  f0:	80000ae4 	andhi	r0, r0, r4, ror #21
  f4:	00000274 	andeq	r0, r0, r4, ror r2
	...
 100:	0000001c 	andeq	r0, r0, ip, lsl r0
 104:	1b020002 	blne	80114 <shift+0x80114>
 108:	00040000 	andeq	r0, r4, r0
 10c:	00000000 	andeq	r0, r0, r0
 110:	80000d58 	andhi	r0, r0, r8, asr sp
 114:	00000150 	andeq	r0, r0, r0, asr r1
	...
 120:	0000001c 	andeq	r0, r0, ip, lsl r0
 124:	1e6e0002 	cdpne	0, 6, cr0, cr14, cr2, {0}
 128:	00040000 	andeq	r0, r4, r0
 12c:	00000000 	andeq	r0, r0, r0
 130:	80000ea8 	andhi	r0, r0, r8, lsr #29
 134:	000001b8 			; <UNDEFINED> instruction: 0x000001b8
	...
 140:	0000001c 	andeq	r0, r0, ip, lsl r0
 144:	2b130002 	blcs	4c0154 <shift+0x4c0154>
 148:	00040000 	andeq	r0, r4, r0
 14c:	00000000 	andeq	r0, r0, r0
 150:	80001060 	andhi	r1, r0, r0, rrx
 154:	00000132 	andeq	r0, r0, r2, lsr r1
	...
 160:	0000001c 	andeq	r0, r0, ip, lsl r0
 164:	37480002 	strbcc	r0, [r8, -r2]
 168:	00040000 	andeq	r0, r4, r0
 16c:	00000000 	andeq	r0, r0, r0
 170:	80001194 	mulhi	r0, r4, r1
 174:	000000fa 	strdeq	r0, [r0], -sl
	...
 180:	0000001c 	andeq	r0, r0, ip, lsl r0
 184:	420c0002 	andmi	r0, ip, #2
 188:	00040000 	andeq	r0, r4, r0
 18c:	00000000 	andeq	r0, r0, r0
 190:	80001290 	mulhi	r0, r0, r2
 194:	00000626 	andeq	r0, r0, r6, lsr #12
	...
 1a0:	00000014 	andeq	r0, r0, r4, lsl r0
 1a4:	46b20002 	ldrtmi	r0, [r2], r2
 1a8:	00040000 	andeq	r0, r4, r0
	...
 1b8:	0000001c 	andeq	r0, r0, ip, lsl r0
 1bc:	47180002 	ldrmi	r0, [r8, -r2]
 1c0:	00040000 	andeq	r0, r4, r0
 1c4:	00000000 	andeq	r0, r0, r0
 1c8:	800018b8 			; <UNDEFINED> instruction: 0x800018b8
 1cc:	0000017a 	andeq	r0, r0, sl, ror r1
	...
 1d8:	0000001c 	andeq	r0, r0, ip, lsl r0
 1dc:	47ce0002 	strbmi	r0, [lr, r2]
 1e0:	00040000 	andeq	r0, r4, r0
 1e4:	00000000 	andeq	r0, r0, r0
 1e8:	80001a32 	andhi	r1, r0, r2, lsr sl
 1ec:	0000008a 	andeq	r0, r0, sl, lsl #1
	...
 1f8:	0000001c 	andeq	r0, r0, ip, lsl r0
 1fc:	49190002 	ldmdbmi	r9, {r1}
 200:	00040000 	andeq	r0, r4, r0
 204:	00000000 	andeq	r0, r0, r0
 208:	80001abc 			; <UNDEFINED> instruction: 0x80001abc
 20c:	000000e8 	andeq	r0, r0, r8, ror #1
	...
 218:	0000001c 	andeq	r0, r0, ip, lsl r0
 21c:	4c780002 	ldclmi	0, cr0, [r8], #-8
 220:	00040000 	andeq	r0, r4, r0
 224:	00000000 	andeq	r0, r0, r0
 228:	80001ba4 	andhi	r1, r0, r4, lsr #23
 22c:	0000072e 	andeq	r0, r0, lr, lsr #14
	...
 238:	0000001c 	andeq	r0, r0, ip, lsl r0
 23c:	54960002 	ldrpl	r0, [r6], #2
 240:	00040000 	andeq	r0, r4, r0
 244:	00000000 	andeq	r0, r0, r0
 248:	800022d4 	ldrdhi	r2, [r0], -r4
 24c:	0000191a 	andeq	r1, r0, sl, lsl r9
	...
 258:	0000001c 	andeq	r0, r0, ip, lsl r0
 25c:	5fc50002 	svcpl	0x00c50002
 260:	00040000 	andeq	r0, r4, r0
 264:	00000000 	andeq	r0, r0, r0
 268:	80003bf0 	strdhi	r3, [r0], -r0
 26c:	00000276 	andeq	r0, r0, r6, ror r2
	...
 278:	0000001c 	andeq	r0, r0, ip, lsl r0
 27c:	61840002 	orrvs	r0, r4, r2
 280:	00040000 	andeq	r0, r4, r0
 284:	00000000 	andeq	r0, r0, r0
 288:	80003e68 	andhi	r3, r0, r8, ror #28
 28c:	00000030 	andeq	r0, r0, r0, lsr r0
	...
 298:	0000001c 	andeq	r0, r0, ip, lsl r0
 29c:	633f0002 	teqvs	pc, #2
 2a0:	00040000 	andeq	r0, r4, r0
 2a4:	00000000 	andeq	r0, r0, r0
 2a8:	80003e98 	mulhi	r0, r8, lr
 2ac:	0000000c 	andeq	r0, r0, ip
	...
 2b8:	0000001c 	andeq	r0, r0, ip, lsl r0
 2bc:	64fe0002 	ldrbtvs	r0, [lr], #2
 2c0:	00040000 	andeq	r0, r4, r0
 2c4:	00000000 	andeq	r0, r0, r0
 2c8:	80003ea4 	andhi	r3, r0, r4, lsr #29
 2cc:	00000116 	andeq	r0, r0, r6, lsl r1
	...

Disassembly of section .debug_str:

00000000 <.debug_str>:
       0:	6a6f7270 	bvs	1bdc9c8 <shift+0x1bdc9c8>
       4:	2f746365 	svccs	0x00746365
       8:	72617473 	rsbvc	r7, r1, #1929379840	; 0x73000000
       c:	00532e74 	subseq	r2, r3, r4, ror lr
      10:	6d6f682f 	stclvs	8, cr6, [pc, #-188]!	; ffffff5c <__bss_end+0x7fffb120>
      14:	69782f65 	ldmdbvs	r8!, {r0, r2, r5, r6, r8, r9, sl, fp, sp}^
      18:	6f632f75 	svcvs	0x00632f75
      1c:	692f6564 	stmdbvs	pc!, {r2, r5, r6, r8, sl, sp, lr}	; <UNPREDICTABLE>
      20:	7536786d 	ldrvc	r7, [r6, #-2157]!	; 0xfffff793
      24:	61622f6c 	cmnvs	r2, ip, ror #30
      28:	47006572 	smlsdxmi	r0, r2, r5, r6
      2c:	4120554e 			; <UNDEFINED> instruction: 0x4120554e
      30:	2e322053 	mrccs	0, 1, r2, cr2, cr3, {2}
      34:	73003833 	movwvc	r3, #2099	; 0x833
      38:	6f696474 	svcvs	0x00696474
      3c:	62696c2f 	rsbvs	r6, r9, #12032	; 0x2f00
      40:	62696c2f 	rsbvs	r6, r9, #12032	; 0x2f00
      44:	6e756631 	mrcvs	6, 3, r6, cr5, cr1, {1}
      48:	532e7363 			; <UNDEFINED> instruction: 0x532e7363
      4c:	6e6f6c00 	cdpvs	12, 6, cr6, cr15, cr0, {0}
      50:	6f6c2067 	svcvs	0x006c2067
      54:	6920676e 	stmdbvs	r0!, {r1, r2, r3, r5, r6, r8, r9, sl, sp, lr}
      58:	7000746e 	andvc	r7, r0, lr, ror #8
      5c:	656a6f72 	strbvs	r6, [sl, #-3954]!	; 0xfffff08e
      60:	6d2f7463 	cfstrsvs	mvf7, [pc, #-396]!	; fffffedc <__bss_end+0x7fffb0a0>
      64:	2e6e6961 	vnmulcs.f16	s13, s28, s3	; <UNPREDICTABLE>
      68:	616d0063 	cmnvs	sp, r3, rrx
      6c:	64006e69 	strvs	r6, [r0], #-3689	; 0xfffff197
      70:	79616c65 	stmdbvc	r1!, {r0, r2, r5, r6, sl, fp, sp, lr}^
      74:	696e695f 	stmdbvs	lr!, {r0, r1, r2, r3, r4, r6, r8, fp, sp, lr}^
      78:	6e690074 	mcrvs	0, 3, r0, cr9, cr4, {3}
      7c:	6e695f74 	mcrvs	15, 3, r5, cr9, cr4, {3}
      80:	67007469 	strvs	r7, [r0, -r9, ror #8]
      84:	5f317470 	svcpl	0x00317470
      88:	74696e69 	strbtvc	r6, [r9], #-3689	; 0xfffff197
      8c:	6d696900 			; <UNDEFINED> instruction: 0x6d696900
      90:	6c753678 	ldclvs	6, cr3, [r5], #-480	; 0xfffffe20
      94:	6b6c635f 	blvs	1b18e18 <shift+0x1b18e18>
      98:	696e695f 	stmdbvs	lr!, {r0, r1, r2, r3, r4, r6, r8, fp, sp, lr}^
      9c:	6e750074 	mrcvs	0, 3, r0, cr5, cr4, {3}
      a0:	6e676973 			; <UNDEFINED> instruction: 0x6e676973
      a4:	63206465 			; <UNDEFINED> instruction: 0x63206465
      a8:	00726168 	rsbseq	r6, r2, r8, ror #2
      ac:	64636967 	strbtvs	r6, [r3], #-2407	; 0xfffff699
      b0:	7361625f 	cmnvc	r1, #-268435451	; 0xf0000005
      b4:	69750065 	ldmdbvs	r5!, {r0, r2, r5, r6}^
      b8:	3233746e 	eorscc	r7, r3, #1845493760	; 0x6e000000
      bc:	7500745f 	strvc	r7, [r0, #-1119]	; 0xfffffba1
      c0:	5f747261 	svcpl	0x00747261
      c4:	74696e69 	strbtvc	r6, [r9], #-3689	; 0xfffff197
      c8:	6e6f6c00 	cdpvs	12, 6, cr6, cr15, cr0, {0}
      cc:	6f6c2067 	svcvs	0x006c2067
      d0:	7520676e 	strvc	r6, [r0, #-1902]!	; 0xfffff892
      d4:	6769736e 	strbvs	r7, [r9, -lr, ror #6]!
      d8:	2064656e 	rsbcs	r6, r4, lr, ror #10
      dc:	00746e69 	rsbseq	r6, r4, r9, ror #28
      e0:	6e657369 	cdpvs	3, 6, cr7, cr5, cr9, {3}
      e4:	656c6261 	strbvs	r6, [ip, #-609]!	; 0xfffffd9f
      e8:	73003272 	movwvc	r3, #626	; 0x272
      ec:	74726f68 	ldrbtvc	r6, [r2], #-3944	; 0xfffff098
      f0:	736e7520 	cmnvc	lr, #32, 10	; 0x8000000
      f4:	656e6769 	strbvs	r6, [lr, #-1897]!	; 0xfffff897
      f8:	6e692064 	cdpvs	0, 6, cr2, cr9, cr4, {3}
      fc:	65640074 	strbvs	r0, [r4, #-116]!	; 0xffffff8c
     100:	6d79616c 	ldfvse	f6, [r9, #-432]!	; 0xfffffe50
     104:	4e470073 	mcrmi	0, 2, r0, cr7, cr3, {3}
     108:	31432055 	qdaddcc	r2, r5, r3
     10c:	31312037 	teqcc	r1, r7, lsr r0
     110:	302e342e 	eorcc	r3, lr, lr, lsr #8
     114:	666d2d20 	strbtvs	r2, [sp], -r0, lsr #26
     118:	74616f6c 	strbtvc	r6, [r1], #-3948	; 0xfffff094
     11c:	6962612d 	stmdbvs	r2!, {r0, r2, r3, r5, r8, sp, lr}^
     120:	7261683d 	rsbvc	r6, r1, #3997696	; 0x3d0000
     124:	6d2d2064 	stcvs	0, cr2, [sp, #-400]!	; 0xfffffe70
     128:	2d736c74 	ldclcs	12, cr6, [r3, #-464]!	; 0xfffffe30
     12c:	6c616964 			; <UNDEFINED> instruction: 0x6c616964
     130:	3d746365 	ldclcc	3, cr6, [r4, #-404]!	; 0xfffffe6c
     134:	20756e67 	rsbscs	r6, r5, r7, ror #28
     138:	68746d2d 	ldmdavs	r4!, {r0, r2, r3, r5, r8, sl, fp, sp, lr}^
     13c:	20626d75 	rsbcs	r6, r2, r5, ror sp
     140:	72616d2d 	rsbvc	r6, r1, #2880	; 0xb40
     144:	613d6863 	teqvs	sp, r3, ror #16
     148:	37766d72 			; <UNDEFINED> instruction: 0x37766d72
     14c:	662b612d 	strtvs	r6, [fp], -sp, lsr #2
     150:	672d2070 			; <UNDEFINED> instruction: 0x672d2070
     154:	6e662d20 	cdpvs	13, 6, cr2, cr6, cr0, {1}
     158:	75622d6f 	strbvc	r2, [r2, #-3439]!	; 0xfffff291
     15c:	69746c69 	ldmdbvs	r4!, {r0, r3, r5, r6, sl, fp, sp, lr}^
     160:	6873006e 	ldmdavs	r3!, {r1, r2, r3, r5, r6}^
     164:	2074726f 	rsbscs	r7, r4, pc, ror #4
     168:	00746e69 	rsbseq	r6, r4, r9, ror #28
     16c:	5f6b6c63 	svcpl	0x006b6c63
     170:	62616e65 	rsbvs	r6, r1, #1616	; 0x650
     174:	5000656c 	andpl	r6, r0, ip, ror #10
     178:	415f4c4c 	cmpmi	pc, ip, asr #24
     17c:	435f4d52 	cmpmi	pc, #5248	; 0x1480
     180:	4300524c 	movwmi	r5, #588	; 0x24c
     184:	524d4353 	subpl	r4, sp, #1275068417	; 0x4c000001
     188:	46500032 			; <UNDEFINED> instruction: 0x46500032
     18c:	38345f44 	ldmdacc	r4!, {r2, r6, r8, r9, sl, fp, ip, lr}
     190:	44430030 	strbmi	r0, [r3], #-48	; 0xffffffd0
     194:	52504948 	subspl	r4, r0, #72, 18	; 0x120000
     198:	4c4c5000 	marmi	acc0, r5, ip
     19c:	4455415f 	ldrbmi	r4, [r5], #-351	; 0xfffffea1
     1a0:	435f4f49 	cmpmi	pc, #292	; 0x124
     1a4:	4300524c 	movwmi	r5, #588	; 0x24c
     1a8:	52444353 	subpl	r4, r4, #1275068417	; 0x4c000001
     1ac:	46500031 			; <UNDEFINED> instruction: 0x46500031
     1b0:	38345f44 	ldmdacc	r4!, {r2, r6, r8, r9, sl, fp, ip, lr}
     1b4:	4f545f30 	svcmi	0x00545f30
     1b8:	53430047 	movtpl	r0, #12359	; 0x3047
     1bc:	33524443 	cmpcc	r2, #1124073472	; 0x43000000
     1c0:	53494300 	movtpl	r4, #37632	; 0x9300
     1c4:	4c500052 	mrrcmi	0, 5, r0, r0, cr2	; <UNPREDICTABLE>
     1c8:	53555f4c 	cmppl	r5, #76, 30	; 0x130
     1cc:	435f3142 	cmpmi	pc, #-2147483632	; 0x80000010
     1d0:	5200524c 	andpl	r5, r0, #76, 4	; 0xc0000004
     1d4:	52455345 	subpl	r5, r5, #335544321	; 0x14000001
     1d8:	5f444556 	svcpl	0x00444556
     1dc:	4c500037 	mrrcmi	0, 3, r0, r0, cr7	; <UNPREDICTABLE>
     1e0:	4e455f4c 	cdpmi	15, 4, cr5, cr5, cr12, {2}
     1e4:	435f5445 	cmpmi	pc, #1157627904	; 0x45000000
     1e8:	5000524c 	andpl	r5, r0, ip, asr #4
     1ec:	535f4c4c 	cmppl	pc, #76, 24	; 0x4c00
     1f0:	545f5359 	ldrbpl	r5, [pc], #-857	; 1f8 <shift+0x1f8>
     1f4:	5000474f 	andpl	r4, r0, pc, asr #14
     1f8:	565f4c4c 	ldrbpl	r4, [pc], -ip, asr #24
     1fc:	4f454449 	svcmi	0x00454449
     200:	53494d00 	movtpl	r4, #40192	; 0x9d00
     204:	535f3043 	cmppl	pc, #67	; 0x43
     208:	43005445 	movwmi	r5, #1093	; 0x445
     20c:	44433253 	strbmi	r3, [r3], #-595	; 0xfffffdad
     210:	43430052 	movtmi	r0, #12370	; 0x3052
     214:	4e415f4d 	cdpmi	15, 4, cr5, cr1, cr13, {2}
     218:	474f4c41 	strbmi	r4, [pc, -r1, asr #24]
     21c:	7079545f 	rsbsvc	r5, r9, pc, asr r4
     220:	494d0065 	stmdbmi	sp, {r0, r2, r5, r6}^
     224:	00304353 	eorseq	r4, r0, r3, asr r3
     228:	4353494d 	cmpmi	r3, #1261568	; 0x134000
     22c:	4c430031 	mcrrmi	0, 3, r0, r3, cr1
     230:	00524350 	subseq	r4, r2, r0, asr r3
     234:	5f4c4c50 	svcpl	0x004c4c50
     238:	45444956 	strbmi	r4, [r4, #-2390]	; 0xfffff6aa
     23c:	4c435f4f 	mcrrmi	15, 4, r5, r3, cr15
     240:	494d0052 	stmdbmi	sp, {r1, r4, r6}^
     244:	5f314353 	svcpl	0x00314353
     248:	00524c43 	subseq	r4, r2, r3, asr #24
     24c:	5f4c4c50 	svcpl	0x004c4c50
     250:	32425355 	subcc	r5, r2, #1409286145	; 0x54000001
     254:	474f545f 	smlsldmi	r5, pc, pc, r4	; <UNPREDICTABLE>
     258:	4c4c5000 	marmi	acc0, r5, ip
     25c:	5359535f 	cmppl	r9, #2080374785	; 0x7c000001
     260:	524c435f 	subpl	r4, ip, #2080374785	; 0x7c000001
     264:	6e697500 	cdpvs	5, 6, cr7, cr9, cr0, {0}
     268:	745f3874 	ldrbvc	r3, [pc], #-2164	; 270 <shift+0x270>
     26c:	4f434300 	svcmi	0x00434300
     270:	50005253 	andpl	r5, r0, r3, asr r2
     274:	345f4446 	ldrbcc	r4, [pc], #-1094	; 27c <shift+0x27c>
     278:	435f3038 	cmpmi	pc, #56	; 0x38
     27c:	5000524c 	andpl	r5, r0, ip, asr #4
     280:	535f4c4c 	cmppl	pc, #76, 24	; 0x4c00
     284:	535f5359 	cmppl	pc, #1677721601	; 0x64000001
     288:	4c500053 	mrrcmi	0, 5, r0, r0, cr3	; <UNPREDICTABLE>
     28c:	49565f4c 	ldmdbmi	r6, {r2, r3, r6, r8, r9, sl, fp, ip, lr}^
     290:	5f4f4544 	svcpl	0x004f4544
     294:	004d554e 	subeq	r5, sp, lr, asr #10
     298:	5f4c4c50 	svcpl	0x004c4c50
     29c:	49445541 	stmdbmi	r4, {r0, r6, r8, sl, ip, lr}^
     2a0:	45535f4f 	ldrbmi	r5, [r3, #-3919]	; 0xfffff0b1
     2a4:	46500054 			; <UNDEFINED> instruction: 0x46500054
     2a8:	32355f44 	eorscc	r5, r5, #68, 30	; 0x110
     2ac:	4c500038 	mrrcmi	0, 3, r0, r0, cr8	; <UNPREDICTABLE>
     2b0:	52415f4c 	subpl	r5, r1, #76, 30	; 0x130
     2b4:	494d004d 	stmdbmi	sp, {r0, r2, r3, r6}^
     2b8:	5f324353 	svcpl	0x00324353
     2bc:	00474f54 	subeq	r4, r7, r4, asr pc
     2c0:	5f4c4c50 	svcpl	0x004c4c50
     2c4:	00535953 	subseq	r5, r3, r3, asr r9
     2c8:	44434243 	strbmi	r4, [r3], #-579	; 0xfffffdbd
     2cc:	4c500052 	mrrcmi	0, 5, r0, r0, cr2	; <UNPREDICTABLE>
     2d0:	53555f4c 	cmppl	r5, #76, 30	; 0x130
     2d4:	535f3142 	cmppl	pc, #-2147483632	; 0x80000010
     2d8:	43005445 	movwmi	r5, #1093	; 0x445
     2dc:	545f4d43 	ldrbpl	r4, [pc], #-3395	; 2e4 <shift+0x2e4>
     2e0:	00657079 	rsbeq	r7, r5, r9, ror r0
     2e4:	5f4c4c50 	svcpl	0x004c4c50
     2e8:	32425355 	subcc	r5, r2, #1409286145	; 0x54000001
     2ec:	524c435f 	subpl	r4, ip, #2080374785	; 0x7c000001
     2f0:	4c4c5000 	marmi	acc0, r5, ip
     2f4:	4253555f 	subsmi	r5, r3, #398458880	; 0x17c00000
     2f8:	4c500031 	mrrcmi	0, 3, r0, r0, cr1	; <UNPREDICTABLE>
     2fc:	53555f4c 	cmppl	r5, #76, 30	; 0x130
     300:	4d003242 	sfmmi	f3, 4, [r0, #-264]	; 0xfffffef8
     304:	32435349 	subcc	r5, r3, #603979777	; 0x24000001
     308:	44465000 	strbmi	r5, [r6], #-0
     30c:	3832355f 	ldmdacc	r2!, {r0, r1, r2, r3, r4, r6, r8, sl, ip, sp}
     310:	474f545f 	smlsldmi	r5, pc, pc, r4	; <UNPREDICTABLE>
     314:	4c4c5000 	marmi	acc0, r5, ip
     318:	4449565f 	strbmi	r5, [r9], #-1631	; 0xfffff9a1
     31c:	535f4f45 	cmppl	pc, #276	; 0x114
     320:	4d005445 	cfstrsmi	mvf5, [r0, #-276]	; 0xfffffeec
     324:	31435349 	cmpcc	r3, r9, asr #6
     328:	5445535f 	strbpl	r5, [r5], #-863	; 0xfffffca1
     32c:	50474300 	subpl	r4, r7, r0, lsl #6
     330:	53430052 	movtpl	r0, #12370	; 0x3052
     334:	32524443 	subscc	r4, r2, #1124073472	; 0x43000000
     338:	4d494300 	stclmi	3, cr4, [r9, #-0]
     33c:	4c500052 	mrrcmi	0, 5, r0, r0, cr2	; <UNPREDICTABLE>
     340:	49565f4c 	ldmdbmi	r6, {r2, r3, r6, r8, r9, sl, fp, ip, lr}^
     344:	5f4f4544 	svcpl	0x004f4544
     348:	4f4e4544 	svcmi	0x004e4544
     34c:	494d004d 	stmdbmi	sp, {r0, r2, r3, r6}^
     350:	5f324353 	svcpl	0x00324353
     354:	00524c43 	subseq	r4, r2, r3, asr #24
     358:	5f444650 	svcpl	0x00444650
     35c:	5f303834 	svcpl	0x00303834
     360:	00544553 	subseq	r4, r4, r3, asr r5
     364:	43534843 	cmpmi	r3, #4390912	; 0x430000
     368:	00524443 	subseq	r4, r2, r3, asr #8
     36c:	2f707362 	svccs	0x00707362
     370:	2f6b6c63 	svccs	0x006b6c63
     374:	5f707362 	svcpl	0x00707362
     378:	2e6b6c63 	cdpcs	12, 6, cr6, cr11, cr3, {3}
     37c:	4c500063 	mrrcmi	0, 6, r0, r0, cr3	; <UNPREDICTABLE>
     380:	59535f4c 	ldmdbpl	r3, {r2, r3, r6, r8, r9, sl, fp, ip, lr}^
     384:	45535f53 	ldrbmi	r5, [r3, #-3923]	; 0xfffff0ad
     388:	4c500054 	mrrcmi	0, 5, r0, r0, cr4	; <UNPREDICTABLE>
     38c:	59535f4c 	ldmdbpl	r3, {r2, r3, r6, r8, r9, sl, fp, ip, lr}^
     390:	45445f53 	strbmi	r5, [r4, #-3923]	; 0xfffff0ad
     394:	004d4f4e 	subeq	r4, sp, lr, asr #30
     398:	4353494d 	cmpmi	r3, #1261568	; 0x134000
     39c:	4f545f30 	svcmi	0x00545f30
     3a0:	46500047 	ldrbmi	r0, [r0], -r7, asr #32
     3a4:	32355f44 	eorscc	r5, r5, #68, 30	; 0x110
     3a8:	4c435f38 	mcrrmi	15, 3, r5, r3, cr8
     3ac:	4c500052 	mrrcmi	0, 5, r0, r0, cr2	; <UNPREDICTABLE>
     3b0:	55415f4c 	strbpl	r5, [r1, #-3916]	; 0xfffff0b4
     3b4:	5f4f4944 	svcpl	0x004f4944
     3b8:	4f4e4544 	svcmi	0x004e4544
     3bc:	4c50004d 	mrrcmi	0, 4, r0, r0, cr13	; <UNPREDICTABLE>
     3c0:	4e455f4c 	cdpmi	15, 4, cr5, cr5, cr12, {2}
     3c4:	535f5445 	cmppl	pc, #1157627904	; 0x45000000
     3c8:	50005445 	andpl	r5, r0, r5, asr #8
     3cc:	555f4c4c 	ldrbpl	r4, [pc, #-3148]	; fffff788 <__bss_end+0x7fffa94c>
     3d0:	5f324253 	svcpl	0x00324253
     3d4:	00544553 	subseq	r4, r4, r3, asr r5
     3d8:	4d434243 	sfmmi	f4, 2, [r3, #-268]	; 0xfffffef4
     3dc:	43430052 	movtmi	r0, #12370	; 0x3052
     3e0:	43005253 	movwmi	r5, #595	; 0x253
     3e4:	30524743 	subscc	r4, r2, r3, asr #14
     3e8:	53455200 	movtpl	r5, #20992	; 0x5200
     3ec:	45565245 	ldrbmi	r5, [r6, #-581]	; 0xfffffdbb
     3f0:	00305f44 	eorseq	r5, r0, r4, asr #30
     3f4:	45534552 	ldrbmi	r4, [r3, #-1362]	; 0xfffffaae
     3f8:	44455652 	strbmi	r5, [r5], #-1618	; 0xfffff9ae
     3fc:	5200315f 	andpl	r3, r0, #-1073741801	; 0xc0000017
     400:	52455345 	subpl	r5, r5, #335544321	; 0x14000001
     404:	5f444556 	svcpl	0x00444556
     408:	45520032 	ldrbmi	r0, [r2, #-50]	; 0xffffffce
     40c:	56524553 			; <UNDEFINED> instruction: 0x56524553
     410:	335f4445 	cmpcc	pc, #1157627904	; 0x45000000
     414:	53455200 	movtpl	r5, #20992	; 0x5200
     418:	45565245 	ldrbmi	r5, [r6, #-581]	; 0xfffffdbb
     41c:	00345f44 	eorseq	r5, r4, r4, asr #30
     420:	45534552 	ldrbmi	r4, [r3, #-1362]	; 0xfffffaae
     424:	44455652 	strbmi	r5, [r5], #-1618	; 0xfffff9ae
     428:	5200355f 	andpl	r3, r0, #398458880	; 0x17c00000
     42c:	52455345 	subpl	r5, r5, #335544321	; 0x14000001
     430:	5f444556 	svcpl	0x00444556
     434:	4c500036 	mrrcmi	0, 3, r0, r0, cr6	; <UNPREDICTABLE>
     438:	52415f4c 	subpl	r5, r1, #76, 30	; 0x130
     43c:	4f545f4d 	svcmi	0x00545f4d
     440:	4c500047 	mrrcmi	0, 4, r0, r0, cr7	; <UNPREDICTABLE>
     444:	4e455f4c 	cdpmi	15, 4, cr5, cr5, cr12, {2}
     448:	50005445 	andpl	r5, r0, r5, asr #8
     44c:	415f4c4c 	cmpmi	pc, ip, asr #24
     450:	4f494455 	svcmi	0x00494455
     454:	474f545f 	smlsldmi	r5, pc, pc, r4	; <UNPREDICTABLE>
     458:	53494d00 	movtpl	r4, #40192	; 0x9d00
     45c:	535f3243 	cmppl	pc, #805306372	; 0x30000004
     460:	43005445 	movwmi	r5, #1093	; 0x445
     464:	52524341 	subspl	r4, r2, #67108865	; 0x4000001
     468:	53494d00 	movtpl	r4, #40192	; 0x9d00
     46c:	435f3043 	cmpmi	pc, #67	; 0x43
     470:	5000524c 	andpl	r5, r0, ip, asr #4
     474:	415f4c4c 	cmpmi	pc, ip, asr #24
     478:	4f494455 	svcmi	0x00494455
     47c:	4d554e5f 	ldclmi	14, cr4, [r5, #-380]	; 0xfffffe84
     480:	4c4c5000 	marmi	acc0, r5, ip
     484:	4253555f 	subsmi	r5, r3, #398458880	; 0x17c00000
     488:	4f545f31 	svcmi	0x00545f31
     48c:	4c500047 	mrrcmi	0, 4, r0, r0, cr7	; <UNPREDICTABLE>
     490:	59535f4c 	ldmdbpl	r3, {r2, r3, r6, r8, r9, sl, fp, ip, lr}^
     494:	554e5f53 	strbpl	r5, [lr, #-3923]	; 0xfffff0ad
     498:	4443004d 	strbmi	r0, [r3], #-77	; 0xffffffb3
     49c:	00524443 	subseq	r4, r2, r3, asr #8
     4a0:	43315343 	teqmi	r1, #201326593	; 0xc000001
     4a4:	50005244 	andpl	r5, r0, r4, asr #4
     4a8:	355f4446 	ldrbcc	r4, [pc, #-1094]	; 6a <shift+0x6a>
     4ac:	535f3832 	cmppl	pc, #3276800	; 0x320000
     4b0:	50005445 	andpl	r5, r0, r5, asr #8
     4b4:	455f4c4c 	ldrbmi	r4, [pc, #-3148]	; fffff870 <__bss_end+0x7fffaa34>
     4b8:	5f54454e 	svcpl	0x0054454e
     4bc:	00474f54 	subeq	r4, r7, r4, asr pc
     4c0:	4f454d43 	svcmi	0x00454d43
     4c4:	53430052 	movtpl	r0, #12370	; 0x3052
     4c8:	31524d43 	cmpcc	r2, r3, asr #26
     4cc:	47434300 	strbmi	r4, [r3, -r0, lsl #6]
     4d0:	50003152 	andpl	r3, r0, r2, asr r1
     4d4:	415f4c4c 	cmpmi	pc, ip, asr #24
     4d8:	4f494455 	svcmi	0x00494455
     4dc:	47434300 	strbmi	r4, [r3, -r0, lsl #6]
     4e0:	43003252 	movwmi	r3, #594	; 0x252
     4e4:	33524743 	cmpcc	r2, #17563648	; 0x10c0000
     4e8:	4c4c5000 	marmi	acc0, r5, ip
     4ec:	4d52415f 	ldfmie	f4, [r2, #-380]	; 0xfffffe84
     4f0:	5445535f 	strbpl	r5, [r5], #-863	; 0xfffffca1
     4f4:	47434300 	strbmi	r4, [r3, -r0, lsl #6]
     4f8:	43003452 	movwmi	r3, #1106	; 0x452
     4fc:	35524743 	ldrbcc	r4, [r2, #-1859]	; 0xfffff8bd
     500:	47434300 	strbmi	r4, [r3, -r0, lsl #6]
     504:	50003652 	andpl	r3, r0, r2, asr r6
     508:	565f4c4c 	ldrbpl	r4, [pc], -ip, asr #24
     50c:	4f454449 	svcmi	0x00454449
     510:	474f545f 	smlsldmi	r5, pc, pc, r4	; <UNPREDICTABLE>
     514:	53494d00 	movtpl	r4, #40192	; 0x9d00
     518:	545f3143 	ldrbpl	r3, [pc], #-323	; 520 <shift+0x520>
     51c:	6d00474f 	stcvs	7, cr4, [r0, #-316]	; 0xfffffec4
     520:	6f4d7875 	svcvs	0x004d7875
     524:	69006564 	stmdbvs	r0, {r2, r5, r6, r8, sl, sp, lr}
     528:	7475706e 	ldrbtvc	r7, [r5], #-110	; 0xffffff92
     52c:	69676552 	stmdbvs	r7!, {r1, r4, r6, r8, sl, sp, lr}^
     530:	72657473 	rsbvc	r7, r5, #1929379840	; 0x73000000
     534:	64656c00 	strbtvs	r6, [r5], #-3072	; 0xfffff400
     538:	696e695f 	stmdbvs	lr!, {r0, r1, r2, r3, r4, r6, r8, fp, sp, lr}^
     53c:	44470074 	strbmi	r0, [r7], #-116	; 0xffffff8c
     540:	6d005249 	sfmvs	f5, 4, [r0, #-292]	; 0xfffffedc
     544:	65527875 	ldrbvs	r7, [r2, #-2165]	; 0xfffff78b
     548:	74736967 	ldrbtvc	r6, [r3], #-2407	; 0xfffff699
     54c:	6c007265 	sfmvs	f7, 4, [r0], {101}	; 0x65
     550:	6f5f6465 	svcvs	0x005f6465
     554:	69006666 	stmdbvs	r0, {r1, r2, r5, r6, r9, sl, sp, lr}
     558:	7475706e 	ldrbtvc	r7, [r5], #-110	; 0xffffff92
     55c:	69666e4f 	stmdbvs	r6!, {r0, r1, r2, r3, r6, r9, sl, fp, sp, lr}^
     560:	00646c65 	rsbeq	r6, r4, r5, ror #24
     564:	554d4f49 	strbpl	r4, [sp, #-3913]	; 0xfffff0b7
     568:	535f4358 	cmppl	pc, #88, 6	; 0x60000001
     56c:	69507465 	ldmdbvs	r0, {r0, r2, r5, r6, sl, ip, sp, lr}^
     570:	78754d6e 	ldmdavc	r5!, {r1, r2, r3, r5, r6, r8, sl, fp, lr}^
     574:	64656c00 	strbtvs	r6, [r5], #-3072	; 0xfffff400
     578:	006e6f5f 	rsbeq	r6, lr, pc, asr pc
     57c:	75706e69 	ldrbvc	r6, [r0, #-3689]!	; 0xfffff197
     580:	69614474 	stmdbvs	r1!, {r2, r4, r5, r6, sl, lr}^
     584:	47007973 	smlsdxmi	r0, r3, r9, r7
     588:	5f4f4950 	svcpl	0x004f4950
     58c:	65707954 	ldrbvs	r7, [r0, #-2388]!	; 0xfffff6ac
     590:	69706700 	ldmdbvs	r0!, {r8, r9, sl, sp, lr}^
     594:	69705f6f 	ldmdbvs	r0!, {r0, r1, r2, r3, r5, r6, r8, r9, sl, fp, ip, lr}^
     598:	6165726e 	cmnvs	r5, lr, ror #4
     59c:	70670064 	rsbvc	r0, r7, r4, rrx
     5a0:	705f6f69 	subsvc	r6, pc, r9, ror #30
     5a4:	72776e69 	rsbsvc	r6, r7, #1680	; 0x690
     5a8:	00657469 	rsbeq	r7, r5, r9, ror #8
     5ac:	554d4f49 	strbpl	r4, [sp, #-3913]	; 0xfffff0b7
     5b0:	535f4358 	cmppl	pc, #88, 6	; 0x60000001
     5b4:	69507465 	ldmdbvs	r0, {r0, r2, r5, r6, sl, ip, sp, lr}^
     5b8:	6e6f436e 	cdpvs	3, 6, cr4, cr15, cr14, {3}
     5bc:	00676966 	rsbeq	r6, r7, r6, ror #18
     5c0:	666e6f63 	strbtvs	r6, [lr], -r3, ror #30
     5c4:	65526769 	ldrbvs	r6, [r2, #-1897]	; 0xfffff897
     5c8:	74736967 	ldrbtvc	r6, [r3], #-2407	; 0xfffff699
     5cc:	63007265 	movwvs	r7, #613	; 0x265
     5d0:	69666e6f 	stmdbvs	r6!, {r0, r1, r2, r3, r5, r6, r9, sl, fp, sp, lr}^
     5d4:	6c615667 	stclvs	6, cr5, [r1], #-412	; 0xfffffe64
     5d8:	45006575 	strmi	r6, [r0, #-1397]	; 0xfffffa8b
     5dc:	5f454744 	svcpl	0x00454744
     5e0:	004c4553 	subeq	r4, ip, r3, asr r5
     5e4:	31524349 	cmpcc	r2, r9, asr #6
     5e8:	52434900 	subpl	r4, r3, #0, 18
     5ec:	73620032 	cmnvc	r2, #50	; 0x32
     5f0:	656c2f70 	strbvs	r2, [ip, #-3952]!	; 0xfffff090
     5f4:	73622f64 	cmnvc	r2, #100, 30	; 0x190
     5f8:	656c5f70 	strbvs	r5, [ip, #-3952]!	; 0xfffff090
     5fc:	00632e64 	rsbeq	r2, r3, r4, ror #28
     600:	5f64656c 	svcpl	0x0064656c
     604:	74697773 	strbtvc	r7, [r9], #-1907	; 0xfffff88d
     608:	55006863 	strpl	r6, [r0, #-2147]	; 0xfffff79d
     60c:	33545241 	cmpcc	r4, #268435460	; 0x10000004
     610:	5152495f 	cmppl	r2, pc, asr r9
     614:	4344006e 	movtmi	r0, #16494	; 0x406e
     618:	52495f50 	subpl	r5, r9, #80, 30	; 0x140
     61c:	52495f51 	subpl	r5, r9, #324	; 0x144
     620:	43006e51 	movwmi	r6, #3665	; 0xe51
     624:	5050485f 	subspl	r4, r0, pc, asr r8
     628:	41005249 	tstmi	r0, r9, asr #4
     62c:	5f435253 	svcpl	0x00435253
     630:	6e515249 	cdpvs	2, 5, cr5, cr1, cr9, {2}
     634:	41414300 	mrsmi	r4, (UNDEF: 113)
     638:	6f4a5f4d 	svcvs	0x004a5f4d
     63c:	69525f62 	ldmdbvs	r2, {r1, r5, r6, r8, r9, sl, fp, ip, lr}^
     640:	5f30676e 	svcpl	0x0030676e
     644:	6e515249 	cdpvs	2, 5, cr5, cr1, cr9, {2}
     648:	49504700 	ldmdbmi	r0, {r8, r9, sl, lr}^
     64c:	435f344f 	cmpmi	pc, #1325400064	; 0x4f000000
     650:	69626d6f 	stmdbvs	r2!, {r0, r1, r2, r3, r5, r6, r8, sl, fp, sp, lr}^
     654:	5f64656e 	svcpl	0x0064656e
     658:	335f3631 	cmpcc	pc, #51380224	; 0x3100000
     65c:	52495f31 	subpl	r5, r9, #49, 30	; 0xc4
     660:	43006e51 	movwmi	r6, #3665	; 0xe51
     664:	5f314e41 	svcpl	0x00314e41
     668:	6e515249 	cdpvs	2, 5, cr5, cr1, cr9, {2}
     66c:	44535500 	ldrbmi	r5, [r3], #-1280	; 0xfffffb00
     670:	5f324348 	svcpl	0x00324348
     674:	6e515249 	cdpvs	2, 5, cr5, cr1, cr9, {2}
     678:	675f5f00 	ldrbvs	r5, [pc, -r0, lsl #30]
     67c:	435f7465 	cmpmi	pc, #1694498816	; 0x65000000
     680:	00524142 	subseq	r4, r2, r2, asr #2
     684:	314d5750 	cmpcc	sp, r0, asr r7
     688:	5152495f 	cmppl	r2, pc, asr r9
     68c:	5850006e 	ldmdapl	r0, {r1, r2, r3, r5, r6}^
     690:	52495f50 	subpl	r5, r9, #80, 30	; 0x140
     694:	495f3151 	ldmdbmi	pc, {r0, r4, r6, r8, ip, sp}^	; <UNPREDICTABLE>
     698:	006e5152 	rsbeq	r5, lr, r2, asr r1
     69c:	48425041 	stmdami	r2, {r0, r6, ip, lr}^
     6a0:	5152495f 	cmppl	r2, pc, asr r9
     6a4:	5053006e 	subspl	r0, r3, lr, rrx
     6a8:	5f464944 	svcpl	0x00464944
     6ac:	6e515249 	cdpvs	2, 5, cr5, cr1, cr9, {2}
     6b0:	495f4400 	ldmdbmi	pc, {sl, lr}^	; <UNPREDICTABLE>
     6b4:	54434153 	strbpl	r4, [r3], #-339	; 0xfffffead
     6b8:	52455649 	subpl	r5, r5, #76546048	; 0x4900000
     6bc:	42535500 	subsmi	r5, r3, #0, 10
     6c0:	47544f5f 			; <UNDEFINED> instruction: 0x47544f5f
     6c4:	52495f31 	subpl	r5, r9, #49, 30	; 0xc4
     6c8:	44006e51 	strmi	r6, [r0], #-3665	; 0xfffff1af
     6cc:	4449435f 	strbmi	r4, [r9], #-863	; 0xfffffca1
     6d0:	44003052 	strmi	r3, [r0], #-82	; 0xffffffae
     6d4:	4449435f 	strbmi	r4, [r9], #-863	; 0xfffffca1
     6d8:	44003152 	strmi	r3, [r0], #-338	; 0xfffffeae
     6dc:	4449435f 	strbmi	r4, [r9], #-863	; 0xfffffca1
     6e0:	44003252 	strmi	r3, [r0], #-594	; 0xfffffdae
     6e4:	4449435f 	strbmi	r4, [r9], #-863	; 0xfffffca1
     6e8:	52003352 	andpl	r3, r0, #1207959553	; 0x48000001
     6ec:	72657365 	rsbvc	r7, r5, #-1811939327	; 0x94000001
     6f0:	31646576 	smccc	18006	; 0x4656
     6f4:	495f3830 	ldmdbmi	pc, {r4, r5, fp, ip, sp}^	; <UNPREDICTABLE>
     6f8:	006e5152 	rsbeq	r5, lr, r2, asr r1
     6fc:	536e6f4e 	cmnpl	lr, #312	; 0x138
     700:	72756365 	rsbsvc	r6, r5, #-1811939327	; 0x94000001
     704:	79685065 	stmdbvc	r8!, {r0, r2, r5, r6, ip, lr}^
     708:	656d6954 	strbvs	r6, [sp, #-2388]!	; 0xfffff6ac
     70c:	52495f72 	subpl	r5, r9, #456	; 0x1c8
     710:	65006e51 	strvs	r6, [r0, #-3665]	; 0xfffff1af
     714:	49505343 	ldmdbmi	r0, {r0, r1, r6, r8, r9, ip, lr}^
     718:	52495f32 	subpl	r5, r9, #50, 30	; 0xc8
     71c:	47006e51 	smlsdmi	r0, r1, lr, r6
     720:	314f4950 	cmpcc	pc, r0, asr r9	; <UNPREDICTABLE>
     724:	544e495f 	strbpl	r4, [lr], #-2399	; 0xfffff6a1
     728:	52495f33 	subpl	r5, r9, #51, 30	; 0xcc
     72c:	75006e51 	strvc	r6, [r0, #-3665]	; 0xfffff1af
     730:	6c656473 	cfstrdvs	mvd6, [r5], #-460	; 0xfffffe34
     734:	44007961 	strmi	r7, [r0], #-2401	; 0xfffff69f
     738:	535f5043 	cmppl	pc, #67	; 0x43
     73c:	495f4345 	ldmdbmi	pc, {r0, r2, r6, r8, r9, lr}^	; <UNPREDICTABLE>
     740:	495f5152 	ldmdbmi	pc, {r1, r4, r6, r8, ip, lr}^	; <UNPREDICTABLE>
     744:	006e5152 	rsbeq	r5, lr, r2, asr r1
     748:	364d5750 			; <UNDEFINED> instruction: 0x364d5750
     74c:	5152495f 	cmppl	r2, pc, asr r9
     750:	5047006e 	subpl	r0, r7, lr, rrx
     754:	5f314f49 	svcpl	0x00314f49
     758:	626d6f43 	rsbvs	r6, sp, #268	; 0x10c
     75c:	64656e69 	strbtvs	r6, [r5], #-3689	; 0xfffff197
     760:	315f305f 	cmpcc	pc, pc, asr r0	; <UNPREDICTABLE>
     764:	52495f35 	subpl	r5, r9, #53, 30	; 0xd4
     768:	52006e51 	andpl	r6, r0, #1296	; 0x510
     76c:	72657365 	rsbvc	r7, r5, #-1811939327	; 0x94000001
     770:	31646576 	smccc	18006	; 0x4656
     774:	495f3533 	ldmdbmi	pc, {r0, r1, r4, r5, r8, sl, ip, sp}^	; <UNPREDICTABLE>
     778:	006e5152 	rsbeq	r5, lr, r2, asr r1
     77c:	4f495047 	svcmi	0x00495047
     780:	6f435f31 	svcvs	0x00435f31
     784:	6e69626d 	cdpvs	2, 6, cr6, cr9, cr13, {3}
     788:	315f6465 	cmpcc	pc, r5, ror #8
     78c:	31335f36 	teqcc	r3, r6, lsr pc
     790:	5152495f 	cmppl	r2, pc, asr r9
     794:	6f53006e 	svcvs	0x0053006e
     798:	61777466 	cmnvs	r7, r6, ror #8
     79c:	5f356572 	svcpl	0x00356572
     7a0:	6e515249 	cdpvs	2, 5, cr5, cr1, cr9, {2}
     7a4:	666f5300 	strbtvs	r5, [pc], -r0, lsl #6
     7a8:	72617774 	rsbvc	r7, r1, #116, 14	; 0x1d00000
     7ac:	5f333165 	svcpl	0x00333165
     7b0:	6e515249 	cdpvs	2, 5, cr5, cr1, cr9, {2}
     7b4:	43324900 	teqmi	r2, #0, 18
     7b8:	52495f31 	subpl	r5, r9, #49, 30	; 0xc4
     7bc:	52006e51 	andpl	r6, r0, #1296	; 0x510
     7c0:	414e5741 	cmpmi	lr, r1, asr #14
     7c4:	425f444e 	subsmi	r4, pc, #1308622848	; 0x4e000000
     7c8:	495f4843 	ldmdbmi	pc, {r0, r1, r6, fp, lr}^	; <UNPREDICTABLE>
     7cc:	006e5152 	rsbeq	r5, lr, r2, asr r1
     7d0:	54524155 	ldrbpl	r4, [r2], #-341	; 0xfffffeab
     7d4:	52495f34 	subpl	r5, r9, #52, 30	; 0xd0
     7d8:	53006e51 	movwpl	r6, #3665	; 0xe51
     7dc:	7774666f 	ldrbvc	r6, [r4, -pc, ror #12]!
     7e0:	30657261 	rsbcc	r7, r5, r1, ror #4
     7e4:	5152495f 	cmppl	r2, pc, asr r9
     7e8:	5045006e 	subpl	r0, r5, lr, rrx
     7ec:	5f325449 	svcpl	0x00325449
     7f0:	6e515249 	cdpvs	2, 5, cr5, cr1, cr9, {2}
     7f4:	43324900 	teqmi	r2, #0, 18
     7f8:	52495f34 	subpl	r5, r9, #52, 30	; 0xd0
     7fc:	43006e51 	movwmi	r6, #3665	; 0xe51
     800:	495f4953 	ldmdbmi	pc, {r0, r1, r4, r6, r8, fp, lr}^	; <UNPREDICTABLE>
     804:	006e5152 	rsbeq	r5, lr, r2, asr r1
     808:	49495f44 	stmdbmi	r9, {r2, r6, r8, r9, sl, fp, ip, lr}^
     80c:	54005244 	strpl	r5, [r0], #-580	; 0xfffffdbc
     810:	4d504d45 	ldclmi	13, cr4, [r0, #-276]	; 0xfffffeec
     814:	495f4e4f 	ldmdbmi	pc, {r0, r1, r2, r3, r6, r9, sl, fp, lr}^	; <UNPREDICTABLE>
     818:	006e5152 	rsbeq	r5, lr, r2, asr r1
     81c:	4f495047 	svcmi	0x00495047
     820:	6f435f33 	svcvs	0x00435f33
     824:	6e69626d 	cdpvs	2, 6, cr6, cr9, cr13, {3}
     828:	305f6465 	subscc	r6, pc, r5, ror #8
     82c:	5f35315f 	svcpl	0x0035315f
     830:	6e515249 	cdpvs	2, 5, cr5, cr1, cr9, {2}
     834:	50535100 	subspl	r5, r3, r0, lsl #2
     838:	52495f49 	subpl	r5, r9, #292	; 0x124
     83c:	55006e51 	strpl	r6, [r0, #-3665]	; 0xfffff1af
     840:	505f4253 	subspl	r4, pc, r3, asr r2	; <UNPREDICTABLE>
     844:	5f315948 	svcpl	0x00315948
     848:	6e515249 	cdpvs	2, 5, cr5, cr1, cr9, {2}
     84c:	6e637400 	cdpvs	4, 6, cr7, cr3, cr0, {0}
     850:	6c617674 	stclvs	6, cr7, [r1], #-464	; 0xfffffe30
     854:	44006575 	strmi	r6, [r0], #-1397	; 0xfffffa8b
     858:	565f5043 	ldrbpl	r5, [pc], -r3, asr #32
     85c:	495f494d 	ldmdbmi	pc, {r0, r2, r3, r6, r8, fp, lr}^	; <UNPREDICTABLE>
     860:	495f5152 	ldmdbmi	pc, {r1, r4, r6, r8, ip, lr}^	; <UNPREDICTABLE>
     864:	006e5152 	rsbeq	r5, lr, r2, asr r1
     868:	616c6564 	cmnvs	ip, r4, ror #10
     86c:	68735f79 	ldmdavs	r3!, {r0, r3, r4, r5, r6, r8, r9, sl, fp, ip, lr}^
     870:	0074726f 	rsbseq	r7, r4, pc, ror #4
     874:	45534552 	ldrbmi	r4, [r3, #-1362]	; 0xfffffaae
     878:	44455652 	strbmi	r5, [r5], #-1618	; 0xfffff9ae
     87c:	5f430038 	svcpl	0x00430038
     880:	00524944 	subseq	r4, r2, r4, asr #18
     884:	5f434947 	svcpl	0x00434947
     888:	62616e45 	rsbvs	r6, r1, #1104	; 0x450
     88c:	5249656c 	subpl	r6, r9, #108, 10	; 0x1b000000
     890:	65520051 	ldrbvs	r0, [r2, #-81]	; 0xffffffaf
     894:	76726573 			; <UNDEFINED> instruction: 0x76726573
     898:	34316465 	ldrtcc	r6, [r1], #-1125	; 0xfffffb9b
     89c:	52495f35 	subpl	r5, r9, #53, 30	; 0xd4
     8a0:	52006e51 	andpl	r6, r0, #1296	; 0x510
     8a4:	52455345 	subpl	r5, r5, #335544321	; 0x14000001
     8a8:	31444556 	cmpcc	r4, r6, asr r5
     8ac:	5f430033 	svcpl	0x00430033
     8b0:	00525052 	subseq	r5, r2, r2, asr r0
     8b4:	2f707362 	svccs	0x00707362
     8b8:	616c6564 	cmnvs	ip, r4, ror #10
     8bc:	73622f79 	cmnvc	r2, #484	; 0x1e4
     8c0:	65645f70 	strbvs	r5, [r4, #-3952]!	; 0xfffff090
     8c4:	2e79616c 	rpwcsez	f6, f1, #4.0
     8c8:	65520063 	ldrbvs	r0, [r2, #-99]	; 0xffffff9d
     8cc:	76726573 			; <UNDEFINED> instruction: 0x76726573
     8d0:	35316465 	ldrcc	r6, [r1, #-1125]!	; 0xfffffb9b
     8d4:	52495f37 	subpl	r5, r9, #55, 30	; 0xdc
     8d8:	43006e51 	movwmi	r6, #3665	; 0xe51
     8dc:	524d505f 	subpl	r5, sp, #95	; 0x5f
     8e0:	53436500 	movtpl	r6, #13568	; 0x3500
     8e4:	5f344950 	svcpl	0x00344950
     8e8:	6e515249 	cdpvs	2, 5, cr5, cr1, cr9, {2}
     8ec:	495f4400 	ldmdbmi	pc, {sl, lr}^	; <UNPREDICTABLE>
     8f0:	54434143 	strbpl	r4, [r3], #-323	; 0xfffffebd
     8f4:	52455649 	subpl	r5, r5, #76546048	; 0x4900000
     8f8:	49504700 	ldmdbmi	r0, {r8, r9, sl, lr}^
     8fc:	495f314f 	ldmdbmi	pc, {r0, r1, r2, r3, r6, r8, ip, sp}^	; <UNPREDICTABLE>
     900:	5f35544e 	svcpl	0x0035544e
     904:	6e515249 	cdpvs	2, 5, cr5, cr1, cr9, {2}
     908:	74706700 	ldrbtvc	r6, [r0], #-1792	; 0xfffff900
     90c:	72695f31 	rsbvc	r5, r9, #49, 30	; 0xc4
     910:	6e616871 	mcrvs	8, 3, r6, cr1, cr1, {3}
     914:	72656c64 	rsbvc	r6, r5, #100, 24	; 0x6400
     918:	44434c00 	strbmi	r4, [r3], #-3072	; 0xfffff400
     91c:	495f4649 	ldmdbmi	pc, {r0, r3, r6, r9, sl, lr}^	; <UNPREDICTABLE>
     920:	006e5152 	rsbeq	r5, lr, r2, asr r1
     924:	4f495047 	svcmi	0x00495047
     928:	4e495f31 	mcrmi	15, 2, r5, cr9, cr1, {1}
     92c:	495f3054 	ldmdbmi	pc, {r2, r4, r6, ip, sp}^	; <UNPREDICTABLE>
     930:	006e5152 	rsbeq	r5, lr, r2, asr r1
     934:	474f4457 	smlsldmi	r4, pc, r7, r4	; <UNPREDICTABLE>
     938:	52495f31 	subpl	r5, r9, #49, 30	; 0xc4
     93c:	49006e51 	stmdbmi	r0, {r0, r4, r6, r9, sl, fp, sp, lr}
     940:	5f6e5152 	svcpl	0x006e5152
     944:	65707954 	ldrbvs	r7, [r0, #-2388]!	; 0xfffff6ac
     948:	554d5000 	strbpl	r5, [sp, #-0]
     94c:	5152495f 	cmppl	r2, pc, asr r9
     950:	52495f31 	subpl	r5, r9, #49, 30	; 0xc4
     954:	53006e51 	movwpl	r6, #3665	; 0xe51
     958:	7774666f 	ldrbvc	r6, [r4, -pc, ror #12]!
     95c:	37657261 	strbcc	r7, [r5, -r1, ror #4]!
     960:	5152495f 	cmppl	r2, pc, asr r9
     964:	6f53006e 	svcvs	0x0053006e
     968:	61777466 	cmnvs	r7, r6, ror #8
     96c:	35316572 	ldrcc	r6, [r1, #-1394]!	; 0xfffffa8e
     970:	5152495f 	cmppl	r2, pc, asr r9
     974:	3249006e 	subcc	r0, r9, #110	; 0x6e
     978:	495f3343 	ldmdbmi	pc, {r0, r1, r6, r8, r9, ip, sp}^	; <UNPREDICTABLE>
     97c:	006e5152 	rsbeq	r5, lr, r2, asr r1
     980:	334d5750 	movtcc	r5, #55120	; 0xd750
     984:	5152495f 	cmppl	r2, pc, asr r9
     988:	6c6f006e 	stclvs	0, cr0, [pc], #-440	; 7d8 <shift+0x7d8>
     98c:	746e6364 	strbtvc	r6, [lr], #-868	; 0xfffffc9c
     990:	545f4400 	ldrbpl	r4, [pc], #-1024	; 998 <shift+0x998>
     994:	52455059 	subpl	r5, r5, #89	; 0x59
     998:	666f5300 	strbtvs	r5, [pc], -r0, lsl #6
     99c:	72617774 	rsbvc	r7, r1, #116, 14	; 0x1d00000
     9a0:	495f3265 	ldmdbmi	pc, {r0, r2, r5, r6, r9, ip, sp}^	; <UNPREDICTABLE>
     9a4:	006e5152 	rsbeq	r5, lr, r2, asr r1
     9a8:	65736552 	ldrbvs	r6, [r3, #-1362]!	; 0xfffffaae
     9ac:	64657672 	strbtvs	r7, [r5], #-1650	; 0xfffff98e
     9b0:	5f343331 	svcpl	0x00343331
     9b4:	6e515249 	cdpvs	2, 5, cr5, cr1, cr9, {2}
     9b8:	73655200 	cmnvc	r5, #0, 4
     9bc:	65767265 	ldrbvs	r7, [r6, #-613]!	; 0xfffffd9b
     9c0:	5f353864 	svcpl	0x00353864
     9c4:	6e515249 	cdpvs	2, 5, cr5, cr1, cr9, {2}
     9c8:	52415500 	subpl	r5, r1, #0, 10
     9cc:	495f3154 	ldmdbmi	pc, {r2, r4, r6, r8, ip, sp}^	; <UNPREDICTABLE>
     9d0:	006e5152 	rsbeq	r5, lr, r2, asr r1
     9d4:	53564e53 	cmppl	r6, #1328	; 0x530
     9d8:	6e6f435f 	mcrvs	3, 3, r4, cr15, cr15, {2}
     9dc:	696c6f73 	stmdbvs	ip!, {r0, r1, r4, r5, r6, r8, r9, sl, fp, sp, lr}^
     9e0:	65746164 	ldrbvs	r6, [r4, #-356]!	; 0xfffffe9c
     9e4:	52495f64 	subpl	r5, r9, #100, 30	; 0x190
     9e8:	52006e51 	andpl	r6, r0, #1296	; 0x510
     9ec:	72657365 	rsbvc	r7, r5, #-1811939327	; 0x94000001
     9f0:	31646576 	smccc	18006	; 0x4656
     9f4:	495f3435 	ldmdbmi	pc, {r0, r2, r4, r5, sl, ip, sp}^	; <UNPREDICTABLE>
     9f8:	006e5152 	rsbeq	r5, lr, r2, asr r1
     9fc:	54454e45 	strbpl	r4, [r5], #-3653	; 0xfffff1bb
     a00:	35315f32 	ldrcc	r5, [r1, #-3890]!	; 0xfffff0ce
     a04:	495f3838 	ldmdbmi	pc, {r3, r4, r5, fp, ip, sp}^	; <UNPREDICTABLE>
     a08:	006e5152 	rsbeq	r5, lr, r2, asr r1
     a0c:	53564e53 	cmppl	r6, #1328	; 0x530
     a10:	5152495f 	cmppl	r2, pc, asr r9
     a14:	5043006e 	subpl	r0, r3, lr, rrx
     a18:	65505f55 	ldrbvs	r5, [r0, #-3925]	; 0xfffff0ab
     a1c:	726f6672 	rsbvc	r6, pc, #119537664	; 0x7200000
     a20:	636e616d 	cmnvs	lr, #1073741851	; 0x4000001b
     a24:	696e5565 	stmdbvs	lr!, {r0, r2, r5, r6, r8, sl, ip, lr}^
     a28:	52495f74 	subpl	r5, r9, #116, 30	; 0x1d0
     a2c:	53006e51 	movwpl	r6, #3665	; 0xe51
     a30:	5f525443 	svcpl	0x00525443
     a34:	31515249 	cmpcc	r1, r9, asr #4
     a38:	5152495f 	cmppl	r2, pc, asr r9
     a3c:	4947006e 	stmdbmi	r7, {r1, r2, r3, r5, r6}^
     a40:	79545f43 	ldmdbvc	r4, {r0, r1, r6, r8, r9, sl, fp, ip, lr}^
     a44:	47006570 	smlsdxmi	r0, r0, r5, r6
     a48:	495f4350 	ldmdbmi	pc, {r4, r6, r8, r9, lr}^	; <UNPREDICTABLE>
     a4c:	006e5152 	rsbeq	r5, lr, r2, asr r1
     a50:	5f434a53 	svcpl	0x00434a53
     a54:	6e515249 	cdpvs	2, 5, cr5, cr1, cr9, {2}
     a58:	43444100 	movtmi	r4, #16640	; 0x4100
     a5c:	52495f31 	subpl	r5, r9, #49, 30	; 0xc4
     a60:	57006e51 	smlsdpl	r0, r1, lr, r6
     a64:	5f4d4945 	svcpl	0x004d4945
     a68:	6e515249 	cdpvs	2, 5, cr5, cr1, cr9, {2}
     a6c:	73655200 	cmnvc	r5, #0, 4
     a70:	65767265 	ldrbvs	r7, [r6, #-613]!	; 0xfffffd9b
     a74:	31313164 	teqcc	r1, r4, ror #2
     a78:	5152495f 	cmppl	r2, pc, asr r9
     a7c:	5750006e 	ldrbpl	r0, [r0, -lr, rrx]
     a80:	495f384d 	ldmdbmi	pc, {r0, r2, r3, r6, fp, ip, sp}^	; <UNPREDICTABLE>
     a84:	006e5152 	rsbeq	r5, lr, r2, asr r1
     a88:	6167654c 	cmnvs	r7, ip, asr #10
     a8c:	61467963 	cmpvs	r6, r3, ror #18
     a90:	6e497473 	mcrvs	4, 2, r7, cr9, cr3, {3}
     a94:	52495f74 	subpl	r5, r9, #116, 30	; 0x1d0
     a98:	47006e51 	smlsdmi	r0, r1, lr, r6
     a9c:	334f4950 	movtcc	r4, #63824	; 0xf950
     aa0:	6d6f435f 	stclvs	3, cr4, [pc, #-380]!	; 92c <shift+0x92c>
     aa4:	656e6962 	strbvs	r6, [lr, #-2402]!	; 0xfffff69e
     aa8:	36315f64 	ldrtcc	r5, [r1], -r4, ror #30
     aac:	5f31335f 	svcpl	0x0031335f
     ab0:	6e515249 	cdpvs	2, 5, cr5, cr1, cr9, {2}
     ab4:	41534500 	cmpmi	r3, r0, lsl #10
     ab8:	52495f49 	subpl	r5, r9, #292	; 0x124
     abc:	54006e51 	strpl	r6, [r0], #-3665	; 0xfffff1af
     ac0:	4353415a 	cmpmi	r3, #-2147483626	; 0x80000016
     ac4:	5152495f 	cmppl	r2, pc, asr r9
     ac8:	5850006e 	ldmdapl	r0, {r1, r2, r3, r5, r6}^
     acc:	52495f50 	subpl	r5, r9, #80, 30	; 0x140
     ad0:	495f3051 	ldmdbmi	pc, {r0, r4, r6, ip, sp}^	; <UNPREDICTABLE>
     ad4:	006e5152 	rsbeq	r5, lr, r2, asr r1
     ad8:	5f4d4343 	svcpl	0x004d4343
     adc:	32515249 	subscc	r5, r1, #-1879048188	; 0x90000004
     ae0:	5152495f 	cmppl	r2, pc, asr r9
     ae4:	4155006e 	cmpmi	r5, lr, rrx
     ae8:	5f365452 	svcpl	0x00365452
     aec:	6e515249 	cdpvs	2, 5, cr5, cr1, cr9, {2}
     af0:	535f4400 	cmppl	pc, #0, 8
     af4:	444e4550 	strbmi	r4, [lr], #-1360	; 0xfffffab0
     af8:	52494753 	subpl	r4, r9, #21757952	; 0x14c0000
     afc:	73655200 	cmnvc	r5, #0, 4
     b00:	65767265 	ldrbvs	r7, [r6, #-613]!	; 0xfffffd9b
     b04:	5f343464 	svcpl	0x00343464
     b08:	6e515249 	cdpvs	2, 5, cr5, cr1, cr9, {2}
     b0c:	495f4400 	ldmdbmi	pc, {sl, lr}^	; <UNPREDICTABLE>
     b10:	4e455053 	mcrmi	0, 2, r5, cr5, cr3, {2}
     b14:	53005244 	movwpl	r5, #580	; 0x244
     b18:	5f324941 	svcpl	0x00324941
     b1c:	6e515249 	cdpvs	2, 5, cr5, cr1, cr9, {2}
     b20:	67654c00 	strbvs	r4, [r5, -r0, lsl #24]!
     b24:	49796361 	ldmdbmi	r9!, {r0, r5, r6, r8, r9, sp, lr}^
     b28:	495f5152 	ldmdbmi	pc, {r1, r4, r6, r8, ip, lr}^	; <UNPREDICTABLE>
     b2c:	006e5152 	rsbeq	r5, lr, r2, asr r1
     b30:	554d4f49 	strbpl	r4, [sp, #-3913]	; 0xfffff0b7
     b34:	495f4358 	ldmdbmi	pc, {r3, r4, r6, r8, r9, lr}^	; <UNPREDICTABLE>
     b38:	006e5152 	rsbeq	r5, lr, r2, asr r1
     b3c:	50534365 	subspl	r4, r3, r5, ror #6
     b40:	495f3149 	ldmdbmi	pc, {r0, r3, r6, r8, ip, sp}^	; <UNPREDICTABLE>
     b44:	006e5152 	rsbeq	r5, lr, r2, asr r1
     b48:	48415f43 	stmdami	r1, {r0, r1, r6, r8, r9, sl, fp, ip, lr}^
     b4c:	52495050 	subpl	r5, r9, #80	; 0x50
     b50:	49504700 	ldmdbmi	r0, {r8, r9, sl, lr}^
     b54:	495f314f 	ldmdbmi	pc, {r0, r1, r2, r3, r6, r8, ip, sp}^	; <UNPREDICTABLE>
     b58:	5f32544e 	svcpl	0x0032544e
     b5c:	6e515249 	cdpvs	2, 5, cr5, cr1, cr9, {2}
     b60:	4f445700 	svcmi	0x00445700
     b64:	495f3347 	ldmdbmi	pc, {r0, r1, r2, r6, r8, r9, ip, sp}^	; <UNPREDICTABLE>
     b68:	006e5152 	rsbeq	r5, lr, r2, asr r1
     b6c:	65707948 	ldrbvs	r7, [r0, #-2376]!	; 0xfffff6b8
     b70:	73697672 	cmnvc	r9, #119537664	; 0x7200000
     b74:	6954726f 	ldmdbvs	r4, {r0, r1, r2, r3, r5, r6, r9, ip, sp, lr}^
     b78:	5f72656d 	svcpl	0x0072656d
     b7c:	6e515249 	cdpvs	2, 5, cr5, cr1, cr9, {2}
     b80:	6c656400 	cfstrdvs	mvd6, [r5], #-0
     b84:	73757961 	cmnvc	r5, #1589248	; 0x184000
     b88:	73655200 	cmnvc	r5, #0, 4
     b8c:	65767265 	ldrbvs	r7, [r6, #-613]!	; 0xfffffd9b
     b90:	32323164 	eorscc	r3, r2, #100, 2
     b94:	5152495f 	cmppl	r2, pc, asr r9
     b98:	6956006e 	ldmdbvs	r6, {r1, r2, r3, r5, r6}^
     b9c:	61757472 	cmnvs	r5, r2, ror r4
     ba0:	69614d6c 	stmdbvs	r1!, {r2, r3, r5, r6, r8, sl, fp, lr}^
     ba4:	6e65746e 	cdpvs	4, 6, cr7, cr5, cr14, {3}
     ba8:	65636e61 	strbvs	r6, [r3, #-3681]!	; 0xfffff19f
     bac:	5152495f 	cmppl	r2, pc, asr r9
     bb0:	6552006e 	ldrbvs	r0, [r2, #-110]	; 0xffffff92
     bb4:	76726573 			; <UNDEFINED> instruction: 0x76726573
     bb8:	33376465 	teqcc	r7, #1694498816	; 0x65000000
     bbc:	5152495f 	cmppl	r2, pc, asr r9
     bc0:	5f44006e 	svcpl	0x0044006e
     bc4:	52494753 	subpl	r4, r9, #21757952	; 0x14c0000
     bc8:	454e4500 	strbmi	r4, [lr, #-1280]	; 0xfffffb00
     bcc:	315f3154 	cmpcc	pc, r4, asr r1	; <UNPREDICTABLE>
     bd0:	5f383835 	svcpl	0x00383835
     bd4:	6e515249 	cdpvs	2, 5, cr5, cr1, cr9, {2}
     bd8:	666f5300 	strbtvs	r5, [pc], -r0, lsl #6
     bdc:	72617774 	rsbvc	r7, r1, #116, 14	; 0x1d00000
     be0:	495f3465 	ldmdbmi	pc, {r0, r2, r5, r6, sl, ip, sp}^	; <UNPREDICTABLE>
     be4:	006e5152 	rsbeq	r5, lr, r2, asr r1
     be8:	74666f53 	strbtvc	r6, [r6], #-3923	; 0xfffff0ad
     bec:	65726177 	ldrbvs	r6, [r2, #-375]!	; 0xfffffe89
     bf0:	495f3231 	ldmdbmi	pc, {r0, r4, r5, r9, ip, sp}^	; <UNPREDICTABLE>
     bf4:	006e5152 	rsbeq	r5, lr, r2, asr r1
     bf8:	33494153 	movtcc	r4, #37203	; 0x9153
     bfc:	5f58525f 	svcpl	0x0058525f
     c00:	6e515249 	cdpvs	2, 5, cr5, cr1, cr9, {2}
     c04:	43535400 	cmpmi	r3, #0, 8
     c08:	5152495f 	cmppl	r2, pc, asr r9
     c0c:	4e52006e 	cdpmi	0, 5, cr0, cr2, cr14, {3}
     c10:	495f4247 	ldmdbmi	pc, {r0, r1, r2, r6, r9, lr}^	; <UNPREDICTABLE>
     c14:	006e5152 	rsbeq	r5, lr, r2, asr r1
     c18:	54454e45 	strbpl	r4, [r5], #-3653	; 0xfffff1bb
     c1c:	52495f32 	subpl	r5, r9, #50, 30	; 0xc8
     c20:	55006e51 	strpl	r6, [r0, #-3665]	; 0xfffff1af
     c24:	43484453 	movtmi	r4, #33875	; 0x8453
     c28:	52495f31 	subpl	r5, r9, #49, 30	; 0xc4
     c2c:	47006e51 	smlsdmi	r0, r1, lr, r6
     c30:	314f4950 	cmpcc	pc, r0, asr r9	; <UNPREDICTABLE>
     c34:	544e495f 	strbpl	r4, [lr], #-2399	; 0xfffff6a1
     c38:	52495f37 	subpl	r5, r9, #55, 30	; 0xdc
     c3c:	52006e51 	andpl	r6, r0, #1296	; 0x510
     c40:	72657365 	rsbvc	r7, r5, #-1811939327	; 0x94000001
     c44:	31646576 	smccc	18006	; 0x4656
     c48:	495f3133 	ldmdbmi	pc, {r0, r1, r4, r5, r8, ip, sp}^	; <UNPREDICTABLE>
     c4c:	006e5152 	rsbeq	r5, lr, r2, asr r1
     c50:	32545047 	subscc	r5, r4, #71	; 0x47
     c54:	5152495f 	cmppl	r2, pc, asr r9
     c58:	5045006e 	subpl	r0, r5, lr, rrx
     c5c:	5f315449 	svcpl	0x00315449
     c60:	6e515249 	cdpvs	2, 5, cr5, cr1, cr9, {2}
     c64:	55534300 	ldrbpl	r4, [r3, #-768]	; 0xfffffd00
     c68:	5152495f 	cmppl	r2, pc, asr r9
     c6c:	6956006e 	ldmdbvs	r6, {r1, r2, r3, r5, r6}^
     c70:	61757472 	cmnvs	r5, r2, ror r4
     c74:	6d69546c 	cfstrdvs	mvd5, [r9, #-432]!	; 0xfffffe50
     c78:	495f7265 	ldmdbmi	pc, {r0, r2, r5, r6, r9, ip, sp, lr}^	; <UNPREDICTABLE>
     c7c:	006e5152 	rsbeq	r5, lr, r2, asr r1
     c80:	5f545047 	svcpl	0x00545047
     c84:	65707954 	ldrbvs	r7, [r0, #-2388]!	; 0xfffff6ac
     c88:	495f4400 	ldmdbmi	pc, {sl, lr}^	; <UNPREDICTABLE>
     c8c:	414e4553 	cmpmi	lr, r3, asr r5
     c90:	52454c42 	subpl	r4, r5, #16896	; 0x4200
     c94:	505f4400 	subspl	r4, pc, r0, lsl #8
     c98:	30524449 	subscc	r4, r2, r9, asr #8
     c9c:	505f4400 	subspl	r4, pc, r0, lsl #8
     ca0:	31524449 	cmpcc	r2, r9, asr #8
     ca4:	505f4400 	subspl	r4, pc, r0, lsl #8
     ca8:	32524449 	subscc	r4, r2, #1224736768	; 0x49000000
     cac:	505f4400 	subspl	r4, pc, r0, lsl #8
     cb0:	33524449 	cmpcc	r2, #1224736768	; 0x49000000
     cb4:	505f4400 	subspl	r4, pc, r0, lsl #8
     cb8:	34524449 	ldrbcc	r4, [r2], #-1097	; 0xfffffbb7
     cbc:	505f4400 	subspl	r4, pc, r0, lsl #8
     cc0:	35524449 	ldrbcc	r4, [r2, #-1097]	; 0xfffffbb7
     cc4:	505f4400 	subspl	r4, pc, r0, lsl #8
     cc8:	36524449 	ldrbcc	r4, [r2], -r9, asr #8
     ccc:	505f4400 	subspl	r4, pc, r0, lsl #8
     cd0:	37524449 	ldrbcc	r4, [r2, -r9, asr #8]
     cd4:	495f4300 	ldmdbmi	pc, {r8, r9, lr}^	; <UNPREDICTABLE>
     cd8:	00524449 	subseq	r4, r2, r9, asr #8
     cdc:	4f495047 	svcmi	0x00495047
     ce0:	6f435f34 	svcvs	0x00435f34
     ce4:	6e69626d 	cdpvs	2, 6, cr6, cr9, cr13, {3}
     ce8:	305f6465 	subscc	r6, pc, r5, ror #8
     cec:	5f35315f 	svcpl	0x0035315f
     cf0:	6e515249 	cdpvs	2, 5, cr5, cr1, cr9, {2}
     cf4:	4e414300 	cdpmi	3, 4, cr4, cr1, cr0, {0}
     cf8:	52495f32 	subpl	r5, r9, #50, 30	; 0xc8
     cfc:	53006e51 	movwpl	r6, #3665	; 0xe51
     d00:	435f4352 	cmpmi	pc, #1207959553	; 0x48000001
     d04:	69626d6f 	stmdbvs	r2!, {r0, r1, r2, r3, r5, r6, r8, sl, fp, sp, lr}^
     d08:	5f64656e 	svcpl	0x0064656e
     d0c:	6e515249 	cdpvs	2, 5, cr5, cr1, cr9, {2}
     d10:	666f5300 	strbtvs	r5, [pc], -r0, lsl #6
     d14:	72617774 	rsbvc	r7, r1, #116, 14	; 0x1d00000
     d18:	495f3965 	ldmdbmi	pc, {r0, r2, r5, r6, r8, fp, ip, sp}^	; <UNPREDICTABLE>
     d1c:	006e5152 	rsbeq	r5, lr, r2, asr r1
     d20:	354d5750 	strbcc	r5, [sp, #-1872]	; 0xfffff8b0
     d24:	5152495f 	cmppl	r2, pc, asr r9
     d28:	4155006e 	cmpmi	r5, lr, rrx
     d2c:	5f385452 	svcpl	0x00385452
     d30:	6e515249 	cdpvs	2, 5, cr5, cr1, cr9, {2}
     d34:	64736d00 	ldrbtvs	r6, [r3], #-3328	; 0xfffff300
     d38:	79616c65 	stmdbvc	r1!, {r0, r2, r5, r6, sl, fp, sp, lr}^
     d3c:	415f4300 	cmpmi	pc, r0, lsl #6
     d40:	00305250 	eorseq	r5, r0, r0, asr r2
     d44:	5f425355 	svcpl	0x00425355
     d48:	3247544f 	subcc	r5, r7, #1325400064	; 0x4f000000
     d4c:	5152495f 	cmppl	r2, pc, asr r9
     d50:	6552006e 	ldrbvs	r0, [r2, #-110]	; 0xffffff92
     d54:	76726573 			; <UNDEFINED> instruction: 0x76726573
     d58:	30316465 	eorscc	r6, r1, r5, ror #8
     d5c:	52495f39 	subpl	r5, r9, #57, 30	; 0xe4
     d60:	44006e51 	strmi	r6, [r0], #-3665	; 0xfffff1af
     d64:	4950535f 	ldmdbmi	r0, {r0, r1, r2, r3, r4, r6, r8, r9, ip, lr}^
     d68:	52005253 	andpl	r5, r0, #805306373	; 0x30000005
     d6c:	72657365 	rsbvc	r7, r5, #-1811939327	; 0x94000001
     d70:	31646576 	smccc	18006	; 0x4656
     d74:	495f3635 	ldmdbmi	pc, {r0, r2, r4, r5, r9, sl, ip, sp}^	; <UNPREDICTABLE>
     d78:	006e5152 	rsbeq	r5, lr, r2, asr r1
     d7c:	43495f44 	movtmi	r5, #40772	; 0x9f44
     d80:	00524746 	subseq	r4, r2, r6, asr #14
     d84:	33494153 	movtcc	r4, #37203	; 0x9153
     d88:	5f58545f 	svcpl	0x0058545f
     d8c:	6e515249 	cdpvs	2, 5, cr5, cr1, cr9, {2}
     d90:	53436500 	movtpl	r6, #13568	; 0x3500
     d94:	5f334950 	svcpl	0x00334950
     d98:	6e515249 	cdpvs	2, 5, cr5, cr1, cr9, {2}
     d9c:	43444100 	movtmi	r4, #16640	; 0x4100
     da0:	4348355f 	movtmi	r3, #34143	; 0x855f
     da4:	5152495f 	cmppl	r2, pc, asr r9
     da8:	4143006e 	cmpmi	r3, lr, rrx
     dac:	4a5f4d41 	bmi	17d42b8 <shift+0x17d42b8>
     db0:	525f626f 	subspl	r6, pc, #-268435450	; 0xf0000006
     db4:	31676e69 	cmncc	r7, r9, ror #28
     db8:	5152495f 	cmppl	r2, pc, asr r9
     dbc:	4552006e 	ldrbmi	r0, [r2, #-110]	; 0xffffff92
     dc0:	56524553 			; <UNDEFINED> instruction: 0x56524553
     dc4:	00304445 	eorseq	r4, r0, r5, asr #8
     dc8:	45534552 	ldrbmi	r4, [r3, #-1362]	; 0xfffffaae
     dcc:	44455652 	strbmi	r5, [r5], #-1618	; 0xfffff9ae
     dd0:	45520031 	ldrbmi	r0, [r2, #-49]	; 0xffffffcf
     dd4:	56524553 			; <UNDEFINED> instruction: 0x56524553
     dd8:	00324445 	eorseq	r4, r2, r5, asr #8
     ddc:	45534552 	ldrbmi	r4, [r3, #-1362]	; 0xfffffaae
     de0:	44455652 	strbmi	r5, [r5], #-1618	; 0xfffff9ae
     de4:	45520033 	ldrbmi	r0, [r2, #-51]	; 0xffffffcd
     de8:	56524553 			; <UNDEFINED> instruction: 0x56524553
     dec:	00344445 	eorseq	r4, r4, r5, asr #8
     df0:	45534552 	ldrbmi	r4, [r3, #-1362]	; 0xfffffaae
     df4:	44455652 	strbmi	r5, [r5], #-1618	; 0xfffff9ae
     df8:	45520035 	ldrbmi	r0, [r2, #-53]	; 0xffffffcb
     dfc:	56524553 			; <UNDEFINED> instruction: 0x56524553
     e00:	00364445 	eorseq	r4, r6, r5, asr #8
     e04:	45534552 	ldrbmi	r4, [r3, #-1362]	; 0xfffffaae
     e08:	44455652 	strbmi	r5, [r5], #-1618	; 0xfffff9ae
     e0c:	5f440037 	svcpl	0x00440037
     e10:	53495050 	movtpl	r5, #36944	; 0x9050
     e14:	45520052 	ldrbmi	r0, [r2, #-82]	; 0xffffffae
     e18:	56524553 			; <UNDEFINED> instruction: 0x56524553
     e1c:	00394445 	eorseq	r4, r9, r5, asr #8
     e20:	74666f53 	strbtvc	r6, [r6], #-3923	; 0xfffff0ad
     e24:	65726177 	ldrbvs	r6, [r2, #-375]!	; 0xfffffe89
     e28:	495f3431 	ldmdbmi	pc, {r0, r4, r5, sl, ip, sp}^	; <UNPREDICTABLE>
     e2c:	006e5152 	rsbeq	r5, lr, r2, asr r1
     e30:	4f495047 	svcmi	0x00495047
     e34:	6f435f35 	svcvs	0x00435f35
     e38:	6e69626d 	cdpvs	2, 6, cr6, cr9, cr13, {3}
     e3c:	315f6465 	cmpcc	pc, r5, ror #8
     e40:	31335f36 	teqcc	r3, r6, lsr pc
     e44:	5152495f 	cmppl	r2, pc, asr r9
     e48:	4155006e 	cmpmi	r5, lr, rrx
     e4c:	5f355452 	svcpl	0x00355452
     e50:	6e515249 	cdpvs	2, 5, cr5, cr1, cr9, {2}
     e54:	564e5300 	strbpl	r5, [lr], -r0, lsl #6
     e58:	65535f53 	ldrbvs	r5, [r3, #-3923]	; 0xfffff0ad
     e5c:	69727563 	ldmdbvs	r2!, {r0, r1, r5, r6, r8, sl, ip, sp, lr}^
     e60:	495f7974 	ldmdbmi	pc, {r2, r4, r5, r6, r8, fp, ip, sp, lr}^	; <UNPREDICTABLE>
     e64:	006e5152 	rsbeq	r5, lr, r2, asr r1
     e68:	324d5750 	subcc	r5, sp, #80, 14	; 0x1400000
     e6c:	5152495f 	cmppl	r2, pc, asr r9
     e70:	6f53006e 	svcvs	0x0053006e
     e74:	61777466 	cmnvs	r7, r6, ror #8
     e78:	5f316572 	svcpl	0x00316572
     e7c:	6e515249 	cdpvs	2, 5, cr5, cr1, cr9, {2}
     e80:	746f4e00 	strbtvc	r4, [pc], #-3584	; e88 <shift+0xe88>
     e84:	69617641 	stmdbvs	r1!, {r0, r6, r9, sl, ip, sp, lr}^
     e88:	52495f6c 	subpl	r5, r9, #108, 30	; 0x1b0
     e8c:	43006e51 	movwmi	r6, #3665	; 0xe51
     e90:	5241495f 	subpl	r4, r1, #1556480	; 0x17c000
     e94:	415f4300 	cmpmi	pc, r0, lsl #6
     e98:	52494f45 	subpl	r4, r9, #276	; 0x114
     e9c:	4e5f4300 	cdpmi	3, 5, cr4, cr15, cr0, {0}
     ea0:	52504153 	subspl	r4, r0, #-1073741804	; 0xc0000014
     ea4:	43530030 	cmpmi	r3, #48	; 0x30
     ea8:	495f5254 	ldmdbmi	pc, {r2, r4, r6, r9, ip, lr}^	; <UNPREDICTABLE>
     eac:	5f305152 	svcpl	0x00305152
     eb0:	6e515249 	cdpvs	2, 5, cr5, cr1, cr9, {2}
     eb4:	495f4400 	ldmdbmi	pc, {sl, lr}^	; <UNPREDICTABLE>
     eb8:	554f5247 	strbpl	r5, [pc, #-583]	; c79 <shift+0xc79>
     ebc:	52005250 	andpl	r5, r0, #80, 4
     ec0:	72657365 	rsbvc	r7, r5, #-1811939327	; 0x94000001
     ec4:	31646576 	smccc	18006	; 0x4656
     ec8:	495f3532 	ldmdbmi	pc, {r1, r4, r5, r8, sl, ip, sp}^	; <UNPREDICTABLE>
     ecc:	006e5152 	rsbeq	r5, lr, r2, asr r1
     ed0:	49415f43 	stmdbmi	r1, {r0, r1, r6, r8, r9, sl, fp, ip, lr}^
     ed4:	47005241 	strmi	r5, [r0, -r1, asr #4]
     ed8:	314f4950 	cmpcc	pc, r0, asr r9	; <UNPREDICTABLE>
     edc:	544e495f 	strbpl	r4, [lr], #-2399	; 0xfffff6a1
     ee0:	52495f34 	subpl	r5, r9, #52, 30	; 0xd0
     ee4:	4b006e51 	blmi	1c830 <shift+0x1c830>
     ee8:	495f5050 	ldmdbmi	pc, {r4, r6, ip, lr}^	; <UNPREDICTABLE>
     eec:	006e5152 	rsbeq	r5, lr, r2, asr r1
     ef0:	43495f44 	movtmi	r5, #40772	; 0x9f44
     ef4:	42414e45 	submi	r4, r1, #1104	; 0x450
     ef8:	0052454c 	subseq	r4, r2, ip, asr #10
     efc:	43495f44 	movtmi	r5, #40772	; 0x9f44
     f00:	444e4550 	strbmi	r4, [lr], #-1360	; 0xfffffab0
     f04:	57500052 			; <UNDEFINED> instruction: 0x57500052
     f08:	495f374d 	ldmdbmi	pc, {r0, r2, r3, r6, r8, r9, sl, ip, sp}^	; <UNPREDICTABLE>
     f0c:	006e5152 	rsbeq	r5, lr, r2, asr r1
     f10:	65736552 	ldrbvs	r6, [r3, #-1362]!	; 0xfffffaae
     f14:	64657672 	strbtvs	r7, [r5], #-1650	; 0xfffff98e
     f18:	5f343231 	svcpl	0x00343231
     f1c:	6e515249 	cdpvs	2, 5, cr5, cr1, cr9, {2}
     f20:	49504700 	ldmdbmi	r0, {r8, r9, sl, lr}^
     f24:	435f324f 	cmpmi	pc, #-268435452	; 0xf0000004
     f28:	69626d6f 	stmdbvs	r2!, {r0, r1, r2, r3, r5, r6, r8, sl, fp, sp, lr}^
     f2c:	5f64656e 	svcpl	0x0064656e
     f30:	335f3631 	cmpcc	pc, #51380224	; 0x3100000
     f34:	52495f31 	subpl	r5, r9, #49, 30	; 0xc4
     f38:	44006e51 	strmi	r6, [r0], #-3665	; 0xfffff1af
     f3c:	495f5041 	ldmdbmi	pc, {r0, r6, ip, lr}^	; <UNPREDICTABLE>
     f40:	006e5152 	rsbeq	r5, lr, r2, asr r1
     f44:	4e574152 	mrcmi	1, 2, r4, cr7, cr2, {2}
     f48:	5f444e41 	svcpl	0x00444e41
     f4c:	494d5047 	stmdbmi	sp, {r0, r1, r2, r6, ip, lr}^
     f50:	5152495f 	cmppl	r2, pc, asr r9
     f54:	4453006e 	ldrbmi	r0, [r3], #-110	; 0xffffff92
     f58:	495f414d 	ldmdbmi	pc, {r0, r2, r3, r6, r8, lr}^	; <UNPREDICTABLE>
     f5c:	006e5152 	rsbeq	r5, lr, r2, asr r1
     f60:	74666f53 	strbtvc	r6, [r6], #-3923	; 0xfffff0ad
     f64:	65726177 	ldrbvs	r6, [r2, #-375]!	; 0xfffffe89
     f68:	52495f36 	subpl	r5, r9, #54, 30	; 0xd8
     f6c:	49006e51 	stmdbmi	r0, {r0, r4, r6, r9, sl, fp, sp, lr}
     f70:	5f324332 	svcpl	0x00324332
     f74:	6e515249 	cdpvs	2, 5, cr5, cr1, cr9, {2}
     f78:	4d434300 	stclmi	3, cr4, [r3, #-0]
     f7c:	5152495f 	cmppl	r2, pc, asr r9
     f80:	52495f31 	subpl	r5, r9, #49, 30	; 0xc4
     f84:	52006e51 	andpl	r6, r0, #1296	; 0x510
     f88:	72657365 	rsbvc	r7, r5, #-1811939327	; 0x94000001
     f8c:	31646576 	smccc	18006	; 0x4656
     f90:	495f3031 	ldmdbmi	pc, {r0, r4, r5, ip, sp}^	; <UNPREDICTABLE>
     f94:	006e5152 	rsbeq	r5, lr, r2, asr r1
     f98:	5f555043 	svcpl	0x00555043
     f9c:	5f495443 	svcpl	0x00495443
     fa0:	67697254 			; <UNDEFINED> instruction: 0x67697254
     fa4:	5f726567 	svcpl	0x00726567
     fa8:	6e515249 	cdpvs	2, 5, cr5, cr1, cr9, {2}
     fac:	73655200 	cmnvc	r5, #0, 4
     fb0:	65767265 	ldrbvs	r7, [r6, #-613]!	; 0xfffffd9b
     fb4:	38353164 	ldmdacc	r5!, {r2, r5, r6, r8, ip, sp}
     fb8:	5152495f 	cmppl	r2, pc, asr r9
     fbc:	7973006e 	ldmdbvc	r3!, {r1, r2, r3, r5, r6}^
     fc0:	6d657473 	cfstrdvs	mvd7, [r5, #-460]!	; 0xfffffe34
     fc4:	7172695f 	cmnvc	r2, pc, asr r9
     fc8:	6e61685f 	mcrvs	8, 3, r6, cr1, cr15, {2}
     fcc:	72656c64 	rsbvc	r6, r5, #100, 24	; 0x6400
     fd0:	5300745f 	movwpl	r7, #1119	; 0x45f
     fd4:	5f314941 	svcpl	0x00314941
     fd8:	6e515249 	cdpvs	2, 5, cr5, cr1, cr9, {2}
     fdc:	666f5300 	strbtvs	r5, [pc], -r0, lsl #6
     fe0:	72617774 	rsbvc	r7, r1, #116, 14	; 0x1d00000
     fe4:	5f303165 	svcpl	0x00303165
     fe8:	6e515249 	cdpvs	2, 5, cr5, cr1, cr9, {2}
     fec:	454e4500 	strbmi	r4, [lr, #-1280]	; 0xfffffb00
     ff0:	495f3154 	ldmdbmi	pc, {r2, r4, r6, r8, ip, sp}^	; <UNPREDICTABLE>
     ff4:	006e5152 	rsbeq	r5, lr, r2, asr r1
     ff8:	54495f44 	strbpl	r5, [r9], #-3908	; 0xfffff0bc
     ffc:	45475241 	strbmi	r5, [r7, #-577]	; 0xfffffdbf
    1000:	00525354 	subseq	r5, r2, r4, asr r3
    1004:	50435f44 	subpl	r5, r3, r4, asr #30
    1008:	53444e45 	movtpl	r4, #20037	; 0x4e45
    100c:	00524947 	subseq	r4, r2, r7, asr #18
    1010:	4f495047 	svcmi	0x00495047
    1014:	6f435f32 	svcvs	0x00435f32
    1018:	6e69626d 	cdpvs	2, 6, cr6, cr9, cr13, {3}
    101c:	305f6465 	subscc	r6, pc, r5, ror #8
    1020:	5f35315f 	svcpl	0x0035315f
    1024:	6e515249 	cdpvs	2, 5, cr5, cr1, cr9, {2}
    1028:	53455200 	movtpl	r5, #20992	; 0x5200
    102c:	45565245 	ldrbmi	r5, [r6, #-581]	; 0xfffffdbb
    1030:	00303144 	eorseq	r3, r0, r4, asr #2
    1034:	45534552 	ldrbmi	r4, [r3, #-1362]	; 0xfffffaae
    1038:	44455652 	strbmi	r5, [r5], #-1618	; 0xfffff9ae
    103c:	52003131 	andpl	r3, r0, #1073741836	; 0x4000000c
    1040:	52455345 	subpl	r5, r5, #335544321	; 0x14000001
    1044:	31444556 	cmpcc	r4, r6, asr r5
    1048:	45520032 	ldrbmi	r0, [r2, #-50]	; 0xffffffce
    104c:	56524553 			; <UNDEFINED> instruction: 0x56524553
    1050:	34314445 	ldrtcc	r4, [r1], #-1093	; 0xfffffbbb
    1054:	53455200 	movtpl	r5, #20992	; 0x5200
    1058:	45565245 	ldrbmi	r5, [r6, #-581]	; 0xfffffdbb
    105c:	00353144 	eorseq	r3, r5, r4, asr #2
    1060:	45534552 	ldrbmi	r4, [r3, #-1362]	; 0xfffffaae
    1064:	44455652 	strbmi	r5, [r5], #-1618	; 0xfffff9ae
    1068:	52003631 	andpl	r3, r0, #51380224	; 0x3100000
    106c:	52455345 	subpl	r5, r5, #335544321	; 0x14000001
    1070:	31444556 	cmpcc	r4, r6, asr r5
    1074:	45520037 	ldrbmi	r0, [r2, #-55]	; 0xffffffc9
    1078:	56524553 			; <UNDEFINED> instruction: 0x56524553
    107c:	38314445 	ldmdacc	r1!, {r0, r2, r6, sl, lr}
    1080:	77656e00 	strbvc	r6, [r5, -r0, lsl #28]!
    1084:	00746e63 	rsbseq	r6, r4, r3, ror #28
    1088:	74666f53 	strbtvc	r6, [r6], #-3923	; 0xfffff0ad
    108c:	65726177 	ldrbvs	r6, [r2, #-375]!	; 0xfffffe89
    1090:	495f3131 	ldmdbmi	pc, {r0, r4, r5, r8, ip, sp}^	; <UNPREDICTABLE>
    1094:	006e5152 	rsbeq	r5, lr, r2, asr r1
    1098:	54524155 	ldrbpl	r4, [r2], #-341	; 0xfffffeab
    109c:	52495f32 	subpl	r5, r9, #50, 30	; 0xc8
    10a0:	47006e51 	smlsdmi	r0, r1, lr, r6
    10a4:	5f315450 	svcpl	0x00315450
    10a8:	6e515249 	cdpvs	2, 5, cr5, cr1, cr9, {2}
    10ac:	73655200 	cmnvc	r5, #0, 4
    10b0:	65767265 	ldrbvs	r7, [r6, #-613]!	; 0xfffffd9b
    10b4:	34343164 	ldrtcc	r3, [r4], #-356	; 0xfffffe9c
    10b8:	5152495f 	cmppl	r2, pc, asr r9
    10bc:	5355006e 	cmppl	r5, #110	; 0x6e
    10c0:	48505f42 	ldmdami	r0, {r1, r6, r8, r9, sl, fp, ip, lr}^
    10c4:	495f3259 	ldmdbmi	pc, {r0, r3, r4, r6, r9, ip, sp}^	; <UNPREDICTABLE>
    10c8:	006e5152 	rsbeq	r5, lr, r2, asr r1
    10cc:	50425f43 	subpl	r5, r2, r3, asr #30
    10d0:	50470052 	subpl	r0, r7, r2, asr r0
    10d4:	5f314f49 	svcpl	0x00314f49
    10d8:	36544e49 	ldrbcc	r4, [r4], -r9, asr #28
    10dc:	5152495f 	cmppl	r2, pc, asr r9
    10e0:	5047006e 	subpl	r0, r7, lr, rrx
    10e4:	5f354f49 	svcpl	0x00354f49
    10e8:	626d6f43 	rsbvs	r6, sp, #268	; 0x10c
    10ec:	64656e69 	strbtvs	r6, [r5], #-3689	; 0xfffff197
    10f0:	315f305f 	cmpcc	pc, pc, asr r0	; <UNPREDICTABLE>
    10f4:	52495f35 	subpl	r5, r9, #53, 30	; 0xd4
    10f8:	47006e51 	smlsdmi	r0, r1, lr, r6
    10fc:	314f4950 	cmpcc	pc, r0, asr r9	; <UNPREDICTABLE>
    1100:	544e495f 	strbpl	r4, [lr], #-2399	; 0xfffff6a1
    1104:	52495f31 	subpl	r5, r9, #49, 30	; 0xc4
    1108:	57006e51 	smlsdpl	r0, r1, lr, r6
    110c:	32474f44 	subcc	r4, r7, #68, 30	; 0x110
    1110:	5152495f 	cmppl	r2, pc, asr r9
    1114:	5f44006e 	svcpl	0x0044006e
    1118:	49525049 	ldmdbmi	r2, {r0, r3, r6, ip, lr}^
    111c:	5449524f 	strbpl	r5, [r9], #-591	; 0xfffffdb1
    1120:	50005259 	andpl	r5, r0, r9, asr r2
    1124:	495f554d 	ldmdbmi	pc, {r0, r2, r3, r6, r8, sl, ip, lr}^	; <UNPREDICTABLE>
    1128:	5f325152 	svcpl	0x00325152
    112c:	6e515249 	cdpvs	2, 5, cr5, cr1, cr9, {2}
    1130:	666f5300 	strbtvs	r5, [pc], -r0, lsl #6
    1134:	72617774 	rsbvc	r7, r1, #116, 14	; 0x1d00000
    1138:	495f3865 	ldmdbmi	pc, {r0, r2, r5, r6, fp, ip, sp}^	; <UNPREDICTABLE>
    113c:	006e5152 	rsbeq	r5, lr, r2, asr r1
    1140:	42415f43 	submi	r5, r1, #268	; 0x10c
    1144:	50005250 	andpl	r5, r0, r0, asr r2
    1148:	5f344d57 	svcpl	0x00344d57
    114c:	6e515249 	cdpvs	2, 5, cr5, cr1, cr9, {2}
    1150:	73797300 	cmnvc	r9, #0, 6
    1154:	5f6d6574 	svcpl	0x006d6574
    1158:	69676572 	stmdbvs	r7!, {r1, r4, r5, r6, r8, sl, sp, lr}^
    115c:	72657473 	rsbvc	r7, r5, #1929379840	; 0x73000000
    1160:	7172695f 	cmnvc	r2, pc, asr r9
    1164:	646e6168 	strbtvs	r6, [lr], #-360	; 0xfffffe98
    1168:	0072656c 	rsbseq	r6, r2, ip, ror #10
    116c:	4f455f43 	svcmi	0x00455f43
    1170:	55005249 	strpl	r5, [r0, #-585]	; 0xfffffdb7
    1174:	37545241 	ldrbcc	r5, [r4, -r1, asr #4]
    1178:	5152495f 	cmppl	r2, pc, asr r9
    117c:	5f44006e 	svcpl	0x0044006e
    1180:	524c5443 	subpl	r5, ip, #1124073472	; 0x43000000
    1184:	666f5300 	strbtvs	r5, [pc], -r0, lsl #6
    1188:	72617774 	rsbvc	r7, r1, #116, 14	; 0x1d00000
    118c:	495f3365 	ldmdbmi	pc, {r0, r2, r5, r6, r8, r9, ip, sp}^	; <UNPREDICTABLE>
    1190:	006e5152 	rsbeq	r5, lr, r2, asr r1
    1194:	73645f5f 	cmnvc	r4, #380	; 0x17c
    1198:	5f430074 	svcpl	0x00430074
    119c:	524c5443 	subpl	r5, ip, #1124073472	; 0x43000000
    11a0:	73655200 	cmnvc	r5, #0, 4
    11a4:	65767265 	ldrbvs	r7, [r6, #-613]!	; 0xfffffd9b
    11a8:	35353164 	ldrcc	r3, [r5, #-356]!	; 0xfffffe9c
    11ac:	5152495f 	cmppl	r2, pc, asr r9
    11b0:	7473006e 	ldrbtvc	r0, [r3], #-110	; 0xffffff92
    11b4:	73757461 	cmnvc	r5, #1627389952	; 0x61000000
    11b8:	65656200 	strbvs	r6, [r5, #-512]!	; 0xfffffe00
    11bc:	77735f70 			; <UNDEFINED> instruction: 0x77735f70
    11c0:	68637469 	stmdavs	r3!, {r0, r3, r5, r6, sl, ip, sp, lr}^
    11c4:	65656200 	strbvs	r6, [r5, #-512]!	; 0xfffffe00
    11c8:	6e695f70 	mcrvs	15, 3, r5, cr9, cr0, {3}
    11cc:	62007469 	andvs	r7, r0, #1761607680	; 0x69000000
    11d0:	622f7073 	eorvs	r7, pc, #115	; 0x73
    11d4:	2f706565 	svccs	0x00706565
    11d8:	5f707362 	svcpl	0x00707362
    11dc:	70656562 	rsbvc	r6, r5, r2, ror #10
    11e0:	6b00632e 	blvs	19ea0 <shift+0x19ea0>
    11e4:	4f495047 	svcmi	0x00495047
    11e8:	746e495f 	strbtvc	r4, [lr], #-2399	; 0xfffff6a1
    11ec:	4c776f4c 	ldclmi	15, cr6, [r7], #-304	; 0xfffffed0
    11f0:	6c657665 	stclvs	6, cr7, [r5], #-404	; 0xfffffe6c
    11f4:	70675f00 	rsbvc	r5, r7, r0, lsl #30
    11f8:	705f6f69 	subsvc	r6, pc, r9, ror #30
    11fc:	645f6e69 	ldrbvs	r6, [pc], #-3689	; 1204 <shift+0x1204>
    1200:	63657269 	cmnvs	r5, #-1879048186	; 0x90000006
    1204:	6e6f6974 			; <UNDEFINED> instruction: 0x6e6f6974
    1208:	50476b00 	subpl	r6, r7, r0, lsl #22
    120c:	495f4f49 	ldmdbmi	pc, {r0, r3, r6, r8, r9, sl, fp, lr}^	; <UNPREDICTABLE>
    1210:	6952746e 	ldmdbvs	r2, {r1, r2, r3, r5, r6, sl, ip, sp, lr}^
    1214:	676e6973 			; <UNDEFINED> instruction: 0x676e6973
    1218:	6146724f 	cmpvs	r6, pc, asr #4
    121c:	6e696c6c 	cdpvs	12, 6, cr6, cr9, cr12, {3}
    1220:	67644567 	strbvs	r4, [r4, -r7, ror #10]!
    1224:	70670065 	rsbvc	r0, r7, r5, rrx
    1228:	695f6f69 	ldmdbvs	pc, {r0, r3, r5, r6, r8, r9, sl, fp, sp, lr}^	; <UNPREDICTABLE>
    122c:	7265746e 	rsbvc	r7, r5, #1845493760	; 0x6e000000
    1230:	74707572 	ldrbtvc	r7, [r0], #-1394	; 0xfffffa8e
    1234:	646f6d5f 	strbtvs	r6, [pc], #-3423	; 123c <shift+0x123c>
    1238:	00745f65 	rsbseq	r5, r4, r5, ror #30
    123c:	4950476b 	ldmdbmi	r0, {r0, r1, r3, r5, r6, r8, r9, sl, lr}^
    1240:	6e495f4f 	cdpvs	15, 4, cr5, cr9, cr15, {2}
    1244:	67694874 			; <UNDEFINED> instruction: 0x67694874
    1248:	76654c68 	strbtvc	r4, [r5], -r8, ror #24
    124c:	70006c65 	andvc	r6, r0, r5, ror #24
    1250:	695f6e69 	ldmdbvs	pc, {r0, r3, r5, r6, r9, sl, fp, sp, lr}^	; <UNPREDICTABLE>
    1254:	6d5f746e 	cfldrdvs	mvd7, [pc, #-440]	; 10a4 <shift+0x10a4>
    1258:	0065646f 	rsbeq	r6, r5, pc, ror #8
    125c:	4950476b 	ldmdbmi	r0, {r0, r1, r3, r5, r6, r8, r9, sl, lr}^
    1260:	69445f4f 	stmdbvs	r4, {r0, r1, r2, r3, r6, r8, r9, sl, fp, ip, lr}^
    1264:	61746967 	cmnvs	r4, r7, ror #18
    1268:	706e496c 	rsbvc	r4, lr, ip, ror #18
    126c:	6b007475 	blvs	1e448 <shift+0x1e448>
    1270:	4f495047 	svcmi	0x00495047
    1274:	746e495f 	strbtvc	r4, [lr], #-2399	; 0xfffff6a1
    1278:	6c6c6146 	stfvse	f6, [ip], #-280	; 0xfffffee8
    127c:	45676e69 	strbmi	r6, [r7, #-3689]!	; 0xfffff197
    1280:	00656764 	rsbeq	r6, r5, r4, ror #14
    1284:	6f697067 	svcvs	0x00697067
    1288:	656c635f 	strbvs	r6, [ip, #-863]!	; 0xfffffca1
    128c:	6e697261 	cdpvs	2, 6, cr7, cr9, cr1, {3}
    1290:	616c6674 	smcvs	50788	; 0xc664
    1294:	67007367 	strvs	r7, [r0, -r7, ror #6]
    1298:	5f6f6970 	svcpl	0x006f6970
    129c:	62616e65 	rsbvs	r6, r1, #1616	; 0x650
    12a0:	6e69656c 	cdpvs	5, 6, cr6, cr9, cr12, {3}
    12a4:	476b0074 			; <UNDEFINED> instruction: 0x476b0074
    12a8:	5f4f4950 	svcpl	0x004f4950
    12ac:	52746e49 	rsbspl	r6, r4, #1168	; 0x490
    12b0:	6e697369 	cdpvs	3, 6, cr7, cr9, cr9, {3}
    12b4:	67644567 	strbvs	r4, [r4, -r7, ror #10]!
    12b8:	70670065 	rsbvc	r0, r7, r5, rrx
    12bc:	705f6f69 	subsvc	r6, pc, r9, ror #30
    12c0:	635f6e69 	cmpvs	pc, #1680	; 0x690
    12c4:	69666e6f 	stmdbvs	r6!, {r0, r1, r2, r3, r5, r6, r9, sl, fp, sp, lr}^
    12c8:	00745f67 	rsbseq	r5, r4, r7, ror #30
    12cc:	7074756f 	rsbsvc	r7, r4, pc, ror #10
    12d0:	6f4c7475 	svcvs	0x004c7475
    12d4:	00636967 	rsbeq	r6, r3, r7, ror #18
    12d8:	6f697067 	svcvs	0x00697067
    12dc:	746e695f 	strbtvc	r6, [lr], #-2399	; 0xfffff6a1
    12e0:	666e6f63 	strbtvs	r6, [lr], -r3, ror #30
    12e4:	69006769 	stmdbvs	r0, {r0, r3, r5, r6, r8, r9, sl, sp, lr}
    12e8:	7265746e 	rsbvc	r7, r5, #1845493760	; 0x6e000000
    12ec:	74707572 	ldrbtvc	r7, [r0], #-1394	; 0xfffffa8e
    12f0:	65646f4d 	strbvs	r6, [r4, #-3917]!	; 0xfffff0b3
    12f4:	69706700 	ldmdbvs	r0!, {r8, r9, sl, sp, lr}^
    12f8:	6e695f6f 	cdpvs	15, 6, cr5, cr9, cr15, {3}
    12fc:	67007469 	strvs	r7, [r0, -r9, ror #8]
    1300:	5f6f6970 	svcpl	0x006f6970
    1304:	5f6e6970 	svcpl	0x006e6970
    1308:	65726964 	ldrbvs	r6, [r2, #-2404]!	; 0xfffff69c
    130c:	6f697463 	svcvs	0x00697463
    1310:	00745f6e 	rsbseq	r5, r4, lr, ror #30
    1314:	6970675f 	ldmdbvs	r0!, {r0, r1, r2, r3, r4, r6, r8, r9, sl, sp, lr}^
    1318:	69705f6f 	ldmdbvs	r0!, {r0, r1, r2, r3, r5, r6, r8, r9, sl, fp, ip, lr}^
    131c:	6f635f6e 	svcvs	0x00635f6e
    1320:	6769666e 	strbvs	r6, [r9, -lr, ror #12]!
    1324:	69706700 	ldmdbvs	r0!, {r8, r9, sl, sp, lr}^
    1328:	69645f6f 	stmdbvs	r4!, {r0, r1, r2, r3, r5, r6, r8, r9, sl, fp, ip, lr}^
    132c:	6c626173 	stfvse	f6, [r2], #-460	; 0xfffffe34
    1330:	746e6965 	strbtvc	r6, [lr], #-2405	; 0xfffff69b
    1334:	69706700 	ldmdbvs	r0!, {r8, r9, sl, sp, lr}^
    1338:	6f735f6f 	svcvs	0x00735f6f
    133c:	6e697466 	cdpvs	4, 6, cr7, cr9, cr6, {3}
    1340:	63690074 	cmnvs	r9, #116	; 0x74
    1344:	69685372 	stmdbvs	r8!, {r1, r4, r5, r6, r8, r9, ip, lr}^
    1348:	5f007466 	svcpl	0x00007466
    134c:	6f697067 	svcvs	0x00697067
    1350:	746e695f 	strbtvc	r6, [lr], #-2399	; 0xfffff6a1
    1354:	75727265 	ldrbvc	r7, [r2, #-613]!	; 0xfffffd9b
    1358:	6d5f7470 	cfldrdvs	mvd7, [pc, #-448]	; 11a0 <shift+0x11a0>
    135c:	0065646f 	rsbeq	r6, r5, pc, ror #8
    1360:	2f707362 	svccs	0x00707362
    1364:	6f697067 	svcvs	0x00697067
    1368:	7073622f 	rsbsvc	r6, r3, pc, lsr #4
    136c:	6970675f 	ldmdbvs	r0!, {r0, r1, r2, r3, r4, r6, r8, r9, sl, sp, lr}^
    1370:	00632e6f 	rsbeq	r2, r3, pc, ror #28
    1374:	4950476b 	ldmdbmi	r0, {r0, r1, r3, r5, r6, r8, r9, sl, lr}^
    1378:	69445f4f 	stmdbvs	r4, {r0, r1, r2, r3, r6, r8, r9, sl, fp, ip, lr}^
    137c:	61746967 	cmnvs	r4, r7, ror #18
    1380:	74754f6c 	ldrbtvc	r4, [r5], #-3948	; 0xfffff094
    1384:	00747570 	rsbseq	r7, r4, r0, ror r5
    1388:	4950476b 	ldmdbmi	r0, {r0, r1, r3, r5, r6, r8, r9, sl, lr}^
    138c:	6f4e5f4f 	svcvs	0x004e5f4f
    1390:	6d746e49 	ldclvs	14, cr6, [r4, #-292]!	; 0xfffffedc
    1394:	0065646f 	rsbeq	r6, r5, pc, ror #8
    1398:	5f79656b 	svcpl	0x0079656b
    139c:	756c6176 	strbvc	r6, [ip, #-374]!	; 0xfffffe8a
    13a0:	65720065 	ldrbvs	r0, [r2, #-101]!	; 0xffffff9b
    13a4:	6573656c 	ldrbvs	r6, [r3, #-1388]!	; 0xfffffa94
    13a8:	59454b00 	stmdbpl	r5, {r8, r9, fp, lr}^
    13ac:	41565f30 	cmpmi	r6, r0, lsr pc
    13b0:	0045554c 	subeq	r5, r5, ip, asr #10
    13b4:	5f59454b 	svcpl	0x0059454b
    13b8:	454e4f4e 	strbmi	r4, [lr, #-3918]	; 0xfffff0b2
    13bc:	79656b00 	stmdbvc	r5!, {r8, r9, fp, sp, lr}^
    13c0:	696e695f 	stmdbvs	lr!, {r0, r1, r2, r3, r4, r6, r8, fp, sp, lr}^
    13c4:	656b0074 	strbvs	r0, [fp, #-116]!	; 0xffffff8c
    13c8:	61765f79 	cmnvs	r6, r9, ror pc
    13cc:	5f65756c 	svcpl	0x0065756c
    13d0:	656b0074 	strbvs	r0, [fp, #-116]!	; 0xffffff8c
    13d4:	6f635f79 	svcvs	0x00635f79
    13d8:	6769666e 	strbvs	r6, [r9, -lr, ror #12]!
    13dc:	70736200 	rsbsvc	r6, r3, r0, lsl #4
    13e0:	79656b2f 	stmdbvc	r5!, {r0, r1, r2, r3, r5, r8, r9, fp, sp, lr}^
    13e4:	7073622f 	rsbsvc	r6, r3, pc, lsr #4
    13e8:	79656b5f 	stmdbvc	r5!, {r0, r1, r2, r3, r4, r6, r8, r9, fp, sp, lr}^
    13ec:	6b00632e 	blvs	1a0ac <shift+0x1a0ac>
    13f0:	675f7965 	ldrbvs	r7, [pc, -r5, ror #18]
    13f4:	61767465 	cmnvs	r6, r5, ror #8
    13f8:	0065756c 	rsbeq	r7, r5, ip, ror #10
    13fc:	6174536b 	cmnvs	r4, fp, ror #6
    1400:	47737574 			; <UNDEFINED> instruction: 0x47737574
    1404:	70756f72 	rsbsvc	r6, r5, r2, ror pc
    1408:	454c465f 	strbmi	r4, [ip, #-1631]	; 0xfffff9a1
    140c:	5f4f4958 	svcpl	0x004f4958
    1410:	54524155 	ldrbpl	r4, [r2], #-341	; 0xfffffeab
    1414:	74536b00 	ldrbvc	r6, [r3], #-2816	; 0xfffff500
    1418:	73757461 	cmnvc	r5, #1627389952	; 0x61000000
    141c:	756f7247 	strbvc	r7, [pc, #-583]!	; 11dd <shift+0x11dd>
    1420:	41535f70 	cmpmi	r3, r0, ror pc
    1424:	536b0049 	cmnpl	fp, #73	; 0x49
    1428:	75746174 	ldrbvc	r6, [r4, #-372]!	; 0xfffffe8c
    142c:	6f724773 	svcvs	0x00724773
    1430:	535f7075 	cmppl	pc, #117	; 0x75
    1434:	4d415244 	sfmmi	f5, 2, [r1, #-272]	; 0xfffffef0
    1438:	735f0043 	cmpvc	pc, #67	; 0x43
    143c:	695f7379 	ldmdbvs	pc, {r0, r3, r4, r5, r6, r8, r9, ip, sp, lr}^	; <UNPREDICTABLE>
    1440:	685f7172 	ldmdavs	pc, {r1, r4, r5, r6, r8, ip, sp, lr}^	; <UNPREDICTABLE>
    1444:	6c646e61 	stclvs	14, cr6, [r4], #-388	; 0xfffffe7c
    1448:	536b0065 	cmnpl	fp, #101	; 0x65
    144c:	75746174 	ldrbvc	r6, [r4, #-372]!	; 0xfffffe8c
    1450:	6f724773 	svcvs	0x00724773
    1454:	555f7075 	ldrbpl	r7, [pc, #-117]	; 13e7 <shift+0x13e7>
    1458:	43484453 	movtmi	r4, #33875	; 0x8453
    145c:	74536b00 	ldrbvc	r6, [r3], #-2816	; 0xfffff500
    1460:	73757461 	cmnvc	r5, #1627389952	; 0x61000000
    1464:	756f7247 	strbvc	r7, [pc, #-583]!	; 1225 <shift+0x1225>
    1468:	65475f70 	strbvs	r5, [r7, #-3952]	; 0xfffff090
    146c:	6972656e 	ldmdbvs	r2!, {r1, r2, r3, r5, r6, r8, sl, sp, lr}^
    1470:	536b0063 	cmnpl	fp, #99	; 0x63
    1474:	75746174 	ldrbvc	r6, [r4, #-372]!	; 0xfffffe8c
    1478:	6f724773 	svcvs	0x00724773
    147c:	4c5f7075 	mrrcmi	0, 7, r7, pc, cr5	; <UNPREDICTABLE>
    1480:	6b004354 	blvs	121d8 <shift+0x121d8>
    1484:	74617453 	strbtvc	r7, [r1], #-1107	; 0xfffffbad
    1488:	72477375 	subvc	r7, r7, #-738197503	; 0xd4000001
    148c:	5f70756f 	svcpl	0x0070756f
    1490:	54454e45 	strbpl	r4, [r5], #-3653	; 0xfffff1bb
    1494:	74536b00 	ldrbvc	r6, [r3], #-2816	; 0xfffff500
    1498:	73757461 	cmnvc	r5, #1627389952	; 0x61000000
    149c:	756f7247 	strbvc	r7, [pc, #-583]!	; 125d <shift+0x125d>
    14a0:	41555f70 	cmpmi	r5, r0, ror pc
    14a4:	6b005452 	blvs	165f4 <shift+0x165f4>
    14a8:	74617453 	strbtvc	r7, [r1], #-1107	; 0xfffffbad
    14ac:	72477375 	subvc	r7, r7, #-738197503	; 0xd4000001
    14b0:	5f70756f 	svcpl	0x0070756f
    14b4:	414d4553 	cmpmi	sp, r3, asr r5
    14b8:	6b003234 	blvs	dd90 <shift+0xdd90>
    14bc:	74617453 	strbtvc	r7, [r1], #-1107	; 0xfffffbad
    14c0:	72477375 	subvc	r7, r7, #-738197503	; 0xd4000001
    14c4:	5f70756f 	svcpl	0x0070756f
    14c8:	4e41434d 	cdpmi	3, 4, cr4, cr1, cr13, {2}
    14cc:	74536b00 	ldrbvc	r6, [r3], #-2816	; 0xfffff500
    14d0:	73757461 	cmnvc	r5, #1627389952	; 0x61000000
    14d4:	756f7247 	strbvc	r7, [pc, #-583]!	; 1295 <shift+0x1295>
    14d8:	504c5f70 	subpl	r5, ip, r0, ror pc
    14dc:	50535f43 	subspl	r5, r3, r3, asr #30
    14e0:	536b0049 	cmnpl	fp, #73	; 0x49
    14e4:	75746174 	ldrbvc	r6, [r4, #-372]!	; 0xfffffe8c
    14e8:	6f724773 	svcvs	0x00724773
    14ec:	465f7075 			; <UNDEFINED> instruction: 0x465f7075
    14f0:	4958454c 	ldmdbmi	r8, {r2, r3, r6, r8, sl, lr}^
    14f4:	434d5f4f 	movtmi	r5, #57167	; 0xdf4f
    14f8:	44434c55 	strbmi	r4, [r3], #-3157	; 0xfffff3ab
    14fc:	43494700 	movtmi	r4, #38656	; 0x9700
    1500:	696e495f 	stmdbvs	lr!, {r0, r1, r2, r3, r4, r6, r8, fp, lr}^
    1504:	536b0074 	cmnpl	fp, #116	; 0x74
    1508:	75746174 	ldrbvc	r6, [r4, #-372]!	; 0xfffffe8c
    150c:	6f724773 	svcvs	0x00724773
    1510:	4c5f7075 	mrrcmi	0, 7, r7, pc, cr5	; <UNPREDICTABLE>
    1514:	495f4350 	ldmdbmi	pc, {r4, r6, r8, r9, lr}^	; <UNPREDICTABLE>
    1518:	6b004332 	blvs	121e8 <shift+0x121e8>
    151c:	74617453 	strbtvc	r7, [r1], #-1107	; 0xfffffbad
    1520:	72477375 	subvc	r7, r7, #-738197503	; 0xd4000001
    1524:	5f70756f 	svcpl	0x0070756f
    1528:	0050544f 	subseq	r5, r0, pc, asr #8
    152c:	6174536b 	cmnvs	r4, fp, ror #6
    1530:	47737574 			; <UNDEFINED> instruction: 0x47737574
    1534:	70756f72 	rsbsvc	r6, r5, r2, ror pc
    1538:	5053445f 	subspl	r4, r3, pc, asr r4
    153c:	536b0049 	cmnpl	fp, #73	; 0x49
    1540:	75746174 	ldrbvc	r6, [r4, #-372]!	; 0xfffffe8c
    1544:	6f724773 	svcvs	0x00724773
    1548:	515f7075 	cmppl	pc, r5, ror r0	; <UNPREDICTABLE>
    154c:	00495053 	subeq	r5, r9, r3, asr r0
    1550:	6174536b 	cmnvs	r4, fp, ror #6
    1554:	47737574 			; <UNDEFINED> instruction: 0x47737574
    1558:	70756f72 	rsbsvc	r6, r5, r2, ror pc
    155c:	444d4d5f 	strbmi	r4, [sp], #-3423	; 0xfffff2a1
    1560:	6e690043 	cdpvs	0, 6, cr0, cr9, cr3, {2}
    1564:	6d754e74 	ldclvs	14, cr4, [r5, #-464]!	; 0xfffffe30
    1568:	71726900 	cmnvc	r2, r0, lsl #18
    156c:	6c626154 	stfvse	f6, [r2], #-336	; 0xfffffeb0
    1570:	536b0065 	cmnpl	fp, #101	; 0x65
    1574:	75746174 	ldrbvc	r6, [r4, #-372]!	; 0xfffffe8c
    1578:	6f724773 	svcvs	0x00724773
    157c:	535f7075 	cmppl	pc, #117	; 0x75
    1580:	49505344 	ldmdbmi	r0, {r2, r6, r8, r9, ip, lr}^
    1584:	71726900 	cmnvc	r2, r0, lsl #18
    1588:	7473654e 	ldrbtvc	r6, [r3], #-1358	; 0xfffffab2
    158c:	00676e69 	rsbeq	r6, r7, r9, ror #28
    1590:	65735f5f 	ldrbvs	r5, [r3, #-3935]!	; 0xfffff0a1
    1594:	42565f74 	subsmi	r5, r6, #116, 30	; 0x1d0
    1598:	6b005241 	blvs	15ea4 <shift+0x15ea4>
    159c:	74617453 	strbtvc	r7, [r1], #-1107	; 0xfffffbad
    15a0:	72477375 	subvc	r7, r7, #-738197503	; 0xd4000001
    15a4:	5f70756f 	svcpl	0x0070756f
    15a8:	58454c46 	stmdapl	r5, {r1, r2, r6, sl, fp, lr}^
    15ac:	004e4143 	subeq	r4, lr, r3, asr #2
    15b0:	6174536b 	cmnvs	r4, fp, ror #6
    15b4:	47737574 			; <UNDEFINED> instruction: 0x47737574
    15b8:	70756f72 	rsbsvc	r6, r5, r2, ror pc
    15bc:	544f4e5f 	strbpl	r4, [pc], #-3679	; 15c4 <shift+0x15c4>
    15c0:	45494649 	strbmi	r4, [r9, #-1609]	; 0xfffff9b7
    15c4:	536b0052 	cmnpl	fp, #82	; 0x52
    15c8:	75746174 	ldrbvc	r6, [r4, #-372]!	; 0xfffffe8c
    15cc:	6f724773 	svcvs	0x00724773
    15d0:	445f7075 	ldrbmi	r7, [pc], #-117	; 15d8 <shift+0x15d8>
    15d4:	474d414d 	strbmi	r4, [sp, -sp, asr #2]
    15d8:	536b0052 	cmnpl	fp, #82	; 0x52
    15dc:	75746174 	ldrbvc	r6, [r4, #-372]!	; 0xfffffe8c
    15e0:	6f724773 	svcvs	0x00724773
    15e4:	465f7075 			; <UNDEFINED> instruction: 0x465f7075
    15e8:	4958454c 	ldmdbmi	r8, {r2, r3, r6, r8, sl, lr}^
    15ec:	41435f4f 	cmpmi	r3, pc, asr #30
    15f0:	4152454d 	cmpmi	r2, sp, asr #10
    15f4:	74536b00 	ldrbvc	r6, [r3], #-2816	; 0xfffff500
    15f8:	73757461 	cmnvc	r5, #1627389952	; 0x61000000
    15fc:	756f7247 	strbvc	r7, [pc, #-583]!	; 13bd <shift+0x13bd>
    1600:	4f505f70 	svcmi	0x00505f70
    1604:	00524557 	subseq	r4, r2, r7, asr r5
    1608:	6174536b 	cmnvs	r4, fp, ror #6
    160c:	47737574 			; <UNDEFINED> instruction: 0x47737574
    1610:	70756f72 	rsbsvc	r6, r5, r2, ror pc
    1614:	47434d5f 	smlsldmi	r4, r3, pc, sp	; <UNPREDICTABLE>
    1618:	74536b00 	ldrbvc	r6, [r3], #-2816	; 0xfffff500
    161c:	73757461 	cmnvc	r5, #1627389952	; 0x61000000
    1620:	756f7247 	strbvc	r7, [pc, #-583]!	; 13e1 <shift+0x13e1>
    1624:	4d445f70 	stclmi	15, cr5, [r4, #-448]	; 0xfffffe40
    1628:	75004349 	strvc	r4, [r0, #-841]	; 0xfffffcb7
    162c:	50726573 	rsbspl	r6, r2, r3, ror r5
    1630:	6d617261 	sfmvs	f7, 2, [r1, #-388]!	; 0xfffffe7c
    1634:	74536b00 	ldrbvc	r6, [r3], #-2816	; 0xfffff500
    1638:	73757461 	cmnvc	r5, #1627389952	; 0x61000000
    163c:	756f7247 	strbvc	r7, [pc, #-583]!	; 13fd <shift+0x13fd>
    1640:	44535f70 	ldrbmi	r5, [r3], #-3952	; 0xfffff090
    1644:	6b004348 	blvs	1236c <shift+0x1236c>
    1648:	74617453 	strbtvc	r7, [r1], #-1107	; 0xfffffbad
    164c:	72477375 	subvc	r7, r7, #-738197503	; 0xd4000001
    1650:	5f70756f 	svcpl	0x0070756f
    1654:	00414d44 	subeq	r4, r1, r4, asr #26
    1658:	6174536b 	cmnvs	r4, fp, ror #6
    165c:	47737574 			; <UNDEFINED> instruction: 0x47737574
    1660:	70756f72 	rsbsvc	r6, r5, r2, ror pc
    1664:	4953435f 	ldmdbmi	r3, {r0, r1, r2, r3, r4, r6, r8, r9, lr}^
    1668:	63696700 	cmnvs	r9, #0, 14
    166c:	72614963 	rsbvc	r4, r1, #1622016	; 0x18c000
    1670:	70736200 	rsbsvc	r6, r3, r0, lsl #4
    1674:	746e692f 	strbtvc	r6, [lr], #-2351	; 0xfffff6d1
    1678:	7073622f 	rsbsvc	r6, r3, pc, lsr #4
    167c:	746e695f 	strbtvc	r6, [lr], #-2399	; 0xfffff6a1
    1680:	6b00632e 	blvs	1a340 <shift+0x1a340>
    1684:	74617453 	strbtvc	r7, [r1], #-1107	; 0xfffffbad
    1688:	72477375 	subvc	r7, r7, #-738197503	; 0xd4000001
    168c:	5f70756f 	svcpl	0x0070756f
    1690:	46494453 			; <UNDEFINED> instruction: 0x46494453
    1694:	73797300 	cmnvc	r9, #0, 6
    1698:	5f6d6574 	svcpl	0x006d6574
    169c:	74717269 	ldrbtvc	r7, [r1], #-617	; 0xfffffd97
    16a0:	656c6261 	strbvs	r6, [ip, #-609]!	; 0xfffffd9f
    16a4:	696e695f 	stmdbvs	lr!, {r0, r1, r2, r3, r4, r6, r8, fp, sp, lr}^
    16a8:	536b0074 	cmnpl	fp, #116	; 0x74
    16ac:	75746174 	ldrbvc	r6, [r4, #-372]!	; 0xfffffe8c
    16b0:	6f724773 	svcvs	0x00724773
    16b4:	465f7075 			; <UNDEFINED> instruction: 0x465f7075
    16b8:	4853414c 	ldmdami	r3, {r2, r3, r6, r8, lr}^
    16bc:	74536b00 	ldrbvc	r6, [r3], #-2816	; 0xfffff500
    16c0:	73757461 	cmnvc	r5, #1627389952	; 0x61000000
    16c4:	756f7247 	strbvc	r7, [pc, #-583]!	; 1485 <shift+0x1485>
    16c8:	4c465f70 	mcrrmi	15, 7, r5, r6, cr0
    16cc:	4f495845 	svcmi	0x00495845
    16d0:	5332495f 	teqpl	r2, #1556480	; 0x17c000
    16d4:	73797300 	cmnvc	r9, #0, 6
    16d8:	5f6d6574 	svcpl	0x006d6574
    16dc:	68717269 	ldmdavs	r1!, {r0, r3, r5, r6, r9, ip, sp, lr}^
    16e0:	6c646e61 	stclvs	14, cr6, [r4], #-388	; 0xfffffe7c
    16e4:	6b007265 	blvs	1e080 <shift+0x1e080>
    16e8:	74617453 	strbtvc	r7, [r1], #-1107	; 0xfffffbad
    16ec:	72477375 	subvc	r7, r7, #-738197503	; 0xd4000001
    16f0:	5f70756f 	svcpl	0x0070756f
    16f4:	52415549 	subpl	r5, r1, #306184192	; 0x12400000
    16f8:	536b0054 	cmnpl	fp, #84	; 0x54
    16fc:	75746174 	ldrbvc	r6, [r4, #-372]!	; 0xfffffe8c
    1700:	6f724773 	svcvs	0x00724773
    1704:	465f7075 			; <UNDEFINED> instruction: 0x465f7075
    1708:	4958454c 	ldmdbmi	r8, {r2, r3, r6, r8, sl, lr}^
    170c:	50535f4f 	subspl	r5, r3, pc, asr #30
    1710:	536b0049 	cmnpl	fp, #73	; 0x49
    1714:	75746174 	ldrbvc	r6, [r4, #-372]!	; 0xfffffe8c
    1718:	6f724773 	svcvs	0x00724773
    171c:	435f7075 	cmpmi	pc, #117	; 0x75
    1720:	004d4141 	subeq	r4, sp, r1, asr #2
    1724:	48717269 	ldmdami	r1!, {r0, r3, r5, r6, r9, ip, sp, lr}^
    1728:	6c646e61 	stclvs	14, cr6, [r4], #-388	; 0xfffffe7c
    172c:	73007265 	movwvc	r7, #613	; 0x265
    1730:	695f7379 	ldmdbvs	pc, {r0, r3, r4, r5, r6, r8, r9, ip, sp, lr}^	; <UNPREDICTABLE>
    1734:	685f7172 	ldmdavs	pc, {r1, r4, r5, r6, r8, ip, sp, lr}^	; <UNPREDICTABLE>
    1738:	6c646e61 	stclvs	14, cr6, [r4], #-388	; 0xfffffe7c
    173c:	00745f65 	rsbseq	r5, r4, r5, ror #30
    1740:	6174536b 	cmnvs	r4, fp, ror #6
    1744:	47737574 			; <UNDEFINED> instruction: 0x47737574
    1748:	70756f72 	rsbsvc	r6, r5, r2, ror pc
    174c:	4950535f 	ldmdbmi	r0, {r0, r1, r2, r3, r4, r6, r8, r9, ip, lr}^
    1750:	74536b00 	ldrbvc	r6, [r3], #-2816	; 0xfffff500
    1754:	73757461 	cmnvc	r5, #1627389952	; 0x61000000
    1758:	756f7247 	strbvc	r7, [pc, #-583]!	; 1519 <shift+0x1519>
    175c:	52545f70 	subspl	r5, r4, #112, 30	; 0x1c0
    1760:	58554d47 	ldmdapl	r5, {r0, r1, r2, r6, r8, sl, fp, lr}^
    1764:	74536b00 	ldrbvc	r6, [r3], #-2816	; 0xfffff500
    1768:	73757461 	cmnvc	r5, #1627389952	; 0x61000000
    176c:	756f7247 	strbvc	r7, [pc, #-583]!	; 152d <shift+0x152d>
    1770:	70415f70 	subvc	r5, r1, r0, ror pc
    1774:	63696c70 	cmnvs	r9, #112, 24	; 0x7000
    1778:	6f697461 	svcvs	0x00697461
    177c:	6e61526e 	cdpvs	2, 6, cr5, cr1, cr14, {3}
    1780:	74536567 	ldrbvc	r6, [r3], #-1383	; 0xfffffa99
    1784:	00747261 	rsbseq	r7, r4, r1, ror #4
    1788:	6174735f 	cmnvs	r4, pc, asr r3
    178c:	5f737574 	svcpl	0x00737574
    1790:	756f7267 	strbvc	r7, [pc, #-615]!	; 1531 <shift+0x1531>
    1794:	6b007370 	blvs	1e55c <shift+0x1e55c>
    1798:	74617453 	strbtvc	r7, [r1], #-1107	; 0xfffffbad
    179c:	72477375 	subvc	r7, r7, #-738197503	; 0xd4000001
    17a0:	5f70756f 	svcpl	0x0070756f
    17a4:	4155504c 	cmpmi	r5, ip, asr #32
    17a8:	6b005452 	blvs	168f8 <shift+0x168f8>
    17ac:	74617453 	strbtvc	r7, [r1], #-1107	; 0xfffffbad
    17b0:	72477375 	subvc	r7, r7, #-738197503	; 0xd4000001
    17b4:	5f70756f 	svcpl	0x0070756f
    17b8:	46495053 			; <UNDEFINED> instruction: 0x46495053
    17bc:	536b0049 	cmnpl	fp, #73	; 0x49
    17c0:	75746174 	ldrbvc	r6, [r4, #-372]!	; 0xfffffe8c
    17c4:	6f724773 	svcvs	0x00724773
    17c8:	585f7075 	ldmdapl	pc, {r0, r2, r4, r5, r6, ip, sp, lr}^	; <UNPREDICTABLE>
    17cc:	00434452 	subeq	r4, r3, r2, asr r4
    17d0:	6174536b 	cmnvs	r4, fp, ror #6
    17d4:	47737574 			; <UNDEFINED> instruction: 0x47737574
    17d8:	70756f72 	rsbsvc	r6, r5, r2, ror pc
    17dc:	454c465f 	strbmi	r4, [ip, #-1631]	; 0xfffff9a1
    17e0:	5f4f4958 	svcpl	0x004f4958
    17e4:	00433249 	subeq	r3, r3, r9, asr #4
    17e8:	6174536b 	cmnvs	r4, fp, ror #6
    17ec:	47737574 			; <UNDEFINED> instruction: 0x47737574
    17f0:	70756f72 	rsbsvc	r6, r5, r2, ror pc
    17f4:	5343455f 	movtpl	r4, #13663	; 0x355f
    17f8:	6b004950 	blvs	13d40 <shift+0x13d40>
    17fc:	74617453 	strbtvc	r7, [r1], #-1107	; 0xfffffbad
    1800:	72477375 	subvc	r7, r7, #-738197503	; 0xd4000001
    1804:	5f70756f 	svcpl	0x0070756f
    1808:	00433249 	subeq	r3, r3, r9, asr #4
    180c:	6174536b 	cmnvs	r4, fp, ror #6
    1810:	47737574 			; <UNDEFINED> instruction: 0x47737574
    1814:	70756f72 	rsbsvc	r6, r5, r2, ror pc
    1818:	5332495f 	teqpl	r2, #1556480	; 0x17c000
    181c:	74536b00 	ldrbvc	r6, [r3], #-2816	; 0xfffff500
    1820:	73757461 	cmnvc	r5, #1627389952	; 0x61000000
    1824:	756f7247 	strbvc	r7, [pc, #-583]!	; 15e5 <shift+0x15e5>
    1828:	4c465f70 	mcrrmi	15, 7, r5, r6, cr0
    182c:	49485341 	stmdbmi	r8, {r0, r6, r8, r9, ip, lr}^
    1830:	6b005041 	blvs	1593c <shift+0x1593c>
    1834:	74617453 	strbtvc	r7, [r1], #-1107	; 0xfffffbad
    1838:	72477375 	subvc	r7, r7, #-738197503	; 0xd4000001
    183c:	5f70756f 	svcpl	0x0070756f
    1840:	58454c46 	stmdapl	r5, {r1, r2, r6, sl, fp, lr}^
    1844:	00495053 	subeq	r5, r9, r3, asr r0
    1848:	6174536b 	cmnvs	r4, fp, ror #6
    184c:	47737574 			; <UNDEFINED> instruction: 0x47737574
    1850:	70756f72 	rsbsvc	r6, r5, r2, ror pc
    1854:	53504c5f 	cmppl	r0, #24320	; 0x5f00
    1858:	6b004950 	blvs	13da0 <shift+0x13da0>
    185c:	74617453 	strbtvc	r7, [r1], #-1107	; 0xfffffbad
    1860:	72477375 	subvc	r7, r7, #-738197503	; 0xd4000001
    1864:	5f70756f 	svcpl	0x0070756f
    1868:	58454c46 	stmdapl	r5, {r1, r2, r6, sl, fp, lr}^
    186c:	4d4d4f43 	stclmi	15, cr4, [sp, #-268]	; 0xfffffef4
    1870:	4332495f 	teqmi	r2, #1556480	; 0x17c000
    1874:	74536b00 	ldrbvc	r6, [r3], #-2816	; 0xfffff500
    1878:	73757461 	cmnvc	r5, #1627389952	; 0x61000000
    187c:	756f7247 	strbvc	r7, [pc, #-583]!	; 163d <shift+0x163d>
    1880:	65445f70 	strbvs	r5, [r4, #-3952]	; 0xfffff090
    1884:	43677562 	cmnmi	r7, #411041792	; 0x18800000
    1888:	6f736e6f 	svcvs	0x00736e6f
    188c:	6b00656c 	blvs	1ae44 <shift+0x1ae44>
    1890:	74617453 	strbtvc	r7, [r1], #-1107	; 0xfffffbad
    1894:	72477375 	subvc	r7, r7, #-738197503	; 0xd4000001
    1898:	5f70756f 	svcpl	0x0070756f
    189c:	4643494d 	strbmi	r4, [r3], -sp, asr #18
    18a0:	6b004c49 	blvs	149cc <shift+0x149cc>
    18a4:	74617453 	strbtvc	r7, [r1], #-1107	; 0xfffffbad
    18a8:	72477375 	subvc	r7, r7, #-738197503	; 0xd4000001
    18ac:	5f70756f 	svcpl	0x0070756f
    18b0:	414d4445 	cmpmi	sp, r5, asr #8
    18b4:	74536b00 	ldrbvc	r6, [r3], #-2816	; 0xfffff500
    18b8:	73757461 	cmnvc	r5, #1627389952	; 0x61000000
    18bc:	756f7247 	strbvc	r7, [pc, #-583]!	; 167d <shift+0x167d>
    18c0:	504c5f70 	subpl	r5, ip, r0, ror pc
    18c4:	53555f43 	cmppl	r5, #268	; 0x10c
    18c8:	00545241 	subseq	r5, r4, r1, asr #4
    18cc:	6174536b 	cmnvs	r4, fp, ror #6
    18d0:	47737574 			; <UNDEFINED> instruction: 0x47737574
    18d4:	70756f72 	rsbsvc	r6, r5, r2, ror pc
    18d8:	4743535f 	smlsldmi	r5, r3, pc, r3	; <UNPREDICTABLE>
    18dc:	74536b00 	ldrbvc	r6, [r3], #-2816	; 0xfffff500
    18e0:	73757461 	cmnvc	r5, #1627389952	; 0x61000000
    18e4:	756f7247 	strbvc	r7, [pc, #-583]!	; 16a5 <shift+0x16a5>
    18e8:	44535f70 	ldrbmi	r5, [r3], #-3952	; 0xfffff090
    18ec:	00434d4d 	subeq	r4, r3, sp, asr #26
    18f0:	6174536b 	cmnvs	r4, fp, ror #6
    18f4:	47737574 			; <UNDEFINED> instruction: 0x47737574
    18f8:	70756f72 	rsbsvc	r6, r5, r2, ror pc
    18fc:	49504c5f 	ldmdbmi	r0, {r0, r1, r2, r3, r4, r6, sl, fp, lr}^
    1900:	6b004332 	blvs	125d0 <shift+0x125d0>
    1904:	74617453 	strbtvc	r7, [r1], #-1107	; 0xfffffbad
    1908:	72477375 	subvc	r7, r7, #-738197503	; 0xd4000001
    190c:	5f70756f 	svcpl	0x0070756f
    1910:	414d4453 	cmpmi	sp, r3, asr r4
    1914:	74536b00 	ldrbvc	r6, [r3], #-2816	; 0xfffff500
    1918:	73757461 	cmnvc	r5, #1627389952	; 0x61000000
    191c:	756f7247 	strbvc	r7, [pc, #-583]!	; 16dd <shift+0x16dd>
    1920:	4d535f70 	ldclmi	15, cr5, [r3, #-448]	; 0xfffffe40
    1924:	43545241 	cmpmi	r4, #268435460	; 0x10000004
    1928:	00445241 	subeq	r5, r4, r1, asr #4
    192c:	6174536b 	cmnvs	r4, fp, ror #6
    1930:	47737574 			; <UNDEFINED> instruction: 0x47737574
    1934:	70756f72 	rsbsvc	r6, r5, r2, ror pc
    1938:	454d4c5f 	strbmi	r4, [sp, #-3167]	; 0xfffff3a1
    193c:	6276004d 	rsbsvs	r0, r6, #77	; 0x4d
    1940:	6b007261 	blvs	1e2cc <shift+0x1e2cc>
    1944:	74617453 	strbtvc	r7, [r1], #-1107	; 0xfffffbad
    1948:	72477375 	subvc	r7, r7, #-738197503	; 0xd4000001
    194c:	5f70756f 	svcpl	0x0070756f
    1950:	4353504c 	cmpmi	r3, #76	; 0x4c
    1954:	536b0049 	cmnpl	fp, #73	; 0x49
    1958:	75746174 	ldrbvc	r6, [r4, #-372]!	; 0xfffffe8c
    195c:	6f724773 	svcvs	0x00724773
    1960:	455f7075 	ldrbmi	r7, [pc, #-117]	; 18f3 <shift+0x18f3>
    1964:	00494153 	subeq	r4, r9, r3, asr r1
    1968:	52717269 	rsbspl	r7, r1, #-1879048186	; 0x90000006
    196c:	00736765 	rsbseq	r6, r3, r5, ror #14
    1970:	6174536b 	cmnvs	r4, fp, ror #6
    1974:	47737574 			; <UNDEFINED> instruction: 0x47737574
    1978:	70756f72 	rsbsvc	r6, r5, r2, ror pc
    197c:	5948505f 	stmdbpl	r8, {r0, r1, r2, r3, r4, r6, ip, lr}^
    1980:	66656400 	strbtvs	r6, [r5], -r0, lsl #8
    1984:	746c7561 	strbtvc	r7, [ip], #-1377	; 0xfffffa9f
    1988:	7172695f 	cmnvc	r2, pc, asr r9
    198c:	646e6168 	strbtvs	r6, [lr], #-360	; 0xfffffe98
    1990:	0072656c 	rsbseq	r6, r2, ip, ror #10
    1994:	6f697067 	svcvs	0x00697067
    1998:	6f695f31 	svcvs	0x00695f31
    199c:	695f3831 	ldmdbvs	pc, {r0, r4, r5, fp, ip, sp}^	; <UNPREDICTABLE>
    19a0:	61687172 	smcvs	34578	; 0x8712
    19a4:	656c646e 	strbvs	r6, [ip, #-1134]!	; 0xfffffb92
    19a8:	73620072 	cmnvc	r2, #114	; 0x72
    19ac:	78652f70 	stmdavc	r5!, {r4, r5, r6, r8, r9, sl, fp, sp}^
    19b0:	622f6974 	eorvs	r6, pc, #116, 18	; 0x1d0000
    19b4:	655f7073 	ldrbvs	r7, [pc, #-115]	; 1949 <shift+0x1949>
    19b8:	2e697478 	mcrcs	4, 3, r7, cr9, cr8, {3}
    19bc:	78650063 	stmdavc	r5!, {r0, r1, r5, r6}^
    19c0:	695f6974 	ldmdbvs	pc, {r2, r4, r5, r6, r8, fp, sp, lr}^	; <UNPREDICTABLE>
    19c4:	0074696e 	rsbseq	r6, r4, lr, ror #18
    19c8:	63617266 	cmnvs	r1, #1610612742	; 0x60000006
    19cc:	49504500 	ldmdbmi	r0, {r8, sl, lr}^
    19d0:	79545f54 	ldmdbvc	r4, {r2, r4, r6, r8, r9, sl, fp, ip, lr}^
    19d4:	70006570 	andvc	r6, r0, r0, ror r5
    19d8:	00637475 	rsbeq	r7, r3, r5, ror r4
    19dc:	5f434947 	svcpl	0x00434947
    19e0:	50746553 	rsbspl	r6, r4, r3, asr r5
    19e4:	726f6972 	rsbvc	r6, pc, #1867776	; 0x1c8000
    19e8:	00797469 	rsbseq	r7, r9, r9, ror #8
    19ec:	2f707362 	svccs	0x00707362
    19f0:	74697065 	strbtvc	r7, [r9], #-101	; 0xffffff9b
    19f4:	656d6974 	strbvs	r6, [sp, #-2420]!	; 0xfffff68c
    19f8:	73622f72 	cmnvc	r2, #456	; 0x1c8
    19fc:	70655f70 	rsbvc	r5, r5, r0, ror pc
    1a00:	69747469 	ldmdbvs	r4!, {r0, r3, r5, r6, sl, ip, sp, lr}^
    1a04:	2e72656d 	cdpcs	5, 7, cr6, cr2, cr13, {3}
    1a08:	4d430063 	stclmi	0, cr0, [r3, #-396]	; 0xfffffe74
    1a0c:	70005250 	andvc	r5, r0, r0, asr r2
    1a10:	726f6972 	rsbvc	r6, pc, #1867776	; 0x1c8000
    1a14:	00797469 	rsbseq	r7, r9, r9, ror #8
    1a18:	74697065 	strbtvc	r7, [r9], #-101	; 0xffffff9b
    1a1c:	6e695f31 	mcrvs	15, 3, r5, cr9, cr1, {1}
    1a20:	65007469 	strvs	r7, [r0, #-1129]	; 0xfffffb97
    1a24:	31746970 	cmncc	r4, r0, ror r9
    1a28:	7172695f 	cmnvc	r2, pc, asr r9
    1a2c:	646e6168 	strbtvs	r6, [lr], #-360	; 0xfffffe98
    1a30:	0072656c 	rsbseq	r6, r2, ip, ror #10
    1a34:	31524355 	cmpcc	r2, r5, asr r3
    1a38:	52435500 	subpl	r5, r3, #0, 10
    1a3c:	43550032 	cmpmi	r5, #50	; 0x32
    1a40:	55003352 	strpl	r3, [r0, #-850]	; 0xfffffcae
    1a44:	00345243 	eorseq	r5, r4, r3, asr #4
    1a48:	746e6975 	strbtvc	r6, [lr], #-2421	; 0xfffff68b
    1a4c:	745f3436 	ldrbvc	r3, [pc], #-1078	; 1a54 <shift+0x1a54>
    1a50:	70736200 	rsbsvc	r6, r3, r0, lsl #4
    1a54:	7261752f 	rsbvc	r7, r1, #197132288	; 0xbc00000
    1a58:	73622f74 	cmnvc	r2, #116, 30	; 0x1d0
    1a5c:	61755f70 	cmnvs	r5, r0, ror pc
    1a60:	632e7472 			; <UNDEFINED> instruction: 0x632e7472
    1a64:	53455500 	movtpl	r5, #21760	; 0x5500
    1a68:	53550043 	cmppl	r5, #67	; 0x43
    1a6c:	55003252 	strpl	r3, [r0, #-594]	; 0xfffffdae
    1a70:	00435242 	subeq	r5, r3, r2, asr #4
    1a74:	46666572 			; <UNDEFINED> instruction: 0x46666572
    1a78:	44716572 	ldrbtmi	r6, [r1], #-1394	; 0xfffffa8e
    1a7c:	67007669 	strvs	r7, [r0, -r9, ror #12]
    1a80:	00637465 	rsbeq	r7, r3, r5, ror #8
    1a84:	74726175 	ldrbtvc	r6, [r2], #-373	; 0xfffffe8b
    1a88:	7465735f 	strbtvc	r7, [r5], #-863	; 0xfffffca1
    1a8c:	64756162 	ldrbtvs	r6, [r5], #-354	; 0xfffffe9e
    1a90:	65746172 	ldrbvs	r6, [r4, #-370]!	; 0xfffffe8e
    1a94:	6d756e00 	ldclvs	14, cr6, [r5, #-0]
    1a98:	74617265 	strbtvc	r7, [r1], #-613	; 0xfffffd9b
    1a9c:	7300726f 	movwvc	r7, #623	; 0x26f
    1aa0:	6e5f6769 	cdpvs	7, 5, cr6, cr15, cr9, {3}
    1aa4:	75700072 	ldrbvc	r0, [r0, #-114]!	; 0xffffff8e
    1aa8:	72007374 	andvc	r7, r0, #116, 6	; 0xd0000001
    1aac:	65736961 	ldrbvs	r6, [r3, #-2401]!	; 0xfffff69f
    1ab0:	52535500 	subspl	r5, r3, #0, 10
    1ab4:	42550031 	subsmi	r0, r5, #49	; 0x31
    1ab8:	7500524d 	strvc	r5, [r0, #-589]	; 0xfffffdb3
    1abc:	5f747261 	svcpl	0x00747261
    1ac0:	62616e65 	rsbvs	r6, r1, #1616	; 0x650
    1ac4:	7400656c 	strvc	r6, [r0], #-1388	; 0xfffffa94
    1ac8:	4e706d65 	cdpmi	13, 7, cr6, cr0, cr5, {3}
    1acc:	72656d75 	rsbvc	r6, r5, #7488	; 0x1d40
    1ad0:	726f7461 	rsbvc	r7, pc, #1627389952	; 0x61000000
    1ad4:	58545500 	ldmdapl	r4, {r8, sl, ip, lr}^
    1ad8:	61620044 	cmnvs	r2, r4, asr #32
    1adc:	69446475 	stmdbvs	r4, {r0, r2, r4, r5, r6, sl, sp, lr}^
    1ae0:	55006666 	strpl	r6, [r0, #-1638]	; 0xfffff99a
    1ae4:	004d4954 	subeq	r4, sp, r4, asr r9
    1ae8:	52434655 	subpl	r4, r3, #89128960	; 0x5500000
    1aec:	52415500 	subpl	r5, r1, #0, 10
    1af0:	79545f54 	ldmdbvc	r4, {r2, r4, r6, r8, r9, sl, fp, ip, lr}^
    1af4:	4f006570 	svcmi	0x00006570
    1af8:	534d454e 	movtpl	r4, #54606	; 0xd54e
    1afc:	49425500 	stmdbmi	r2, {r8, sl, ip, lr}^
    1b00:	61750052 	cmnvs	r5, r2, asr r0
    1b04:	735f7472 	cmpvc	pc, #1912602624	; 0x72000000
    1b08:	7274666f 	rsbsvc	r6, r4, #116391936	; 0x6f00000
    1b0c:	74657365 	strbtvc	r7, [r5], #-869	; 0xfffffc9b
    1b10:	72617500 	rsbvc	r7, r1, #0, 10
    1b14:	69645f74 	stmdbvs	r4!, {r2, r4, r5, r6, r8, r9, sl, fp, ip, lr}^
    1b18:	6c626173 	stfvse	f6, [r2], #-460	; 0xfffffe34
    1b1c:	69640065 	stmdbvs	r4!, {r0, r2, r5, r6}^
    1b20:	6f736976 	svcvs	0x00736976
    1b24:	72730072 	rsbsvc	r0, r3, #114	; 0x72
    1b28:	6f6c6363 	svcvs	0x006c6363
    1b2c:	685f6b63 	ldmdavs	pc, {r0, r1, r5, r6, r8, r9, fp, sp, lr}^	; <UNPREDICTABLE>
    1b30:	6564007a 	strbvs	r0, [r4, #-122]!	; 0xffffff86
    1b34:	696d6f6e 	stmdbvs	sp!, {r1, r2, r3, r5, r6, r8, r9, sl, fp, sp, lr}^
    1b38:	6f74616e 	svcvs	0x0074616e
    1b3c:	65740072 	ldrbvs	r0, [r4, #-114]!	; 0xffffff8e
    1b40:	6544706d 	strbvs	r7, [r4, #-109]	; 0xffffff93
    1b44:	696d6f6e 	stmdbvs	sp!, {r1, r2, r3, r5, r6, r8, r9, sl, fp, sp, lr}^
    1b48:	6f74616e 	svcvs	0x0074616e
    1b4c:	52550072 	subspl	r0, r5, #114	; 0x72
    1b50:	64004458 	strvs	r4, [r0], #-1112	; 0xfffffba8
    1b54:	64697669 	strbtvs	r7, [r9], #-1641	; 0xfffff997
    1b58:	75007265 	strvc	r7, [r0, #-613]	; 0xfffffd9b
    1b5c:	5f747261 	svcpl	0x00747261
    1b60:	695f6f69 	ldmdbvs	pc, {r0, r3, r5, r6, r8, r9, sl, fp, sp, lr}^	; <UNPREDICTABLE>
    1b64:	0074696e 	rsbseq	r6, r4, lr, ror #18
    1b68:	52434d55 	subpl	r4, r3, #5440	; 0x1540
    1b6c:	64747300 	ldrbtvs	r7, [r4], #-768	; 0xfffffd00
    1b70:	6c2f6f69 	stcvs	15, cr6, [pc], #-420	; 19d4 <shift+0x19d4>
    1b74:	632f6269 			; <UNDEFINED> instruction: 0x632f6269
    1b78:	65707974 	ldrbvs	r7, [r0, #-2420]!	; 0xfffff68c
    1b7c:	5f00632e 	svcpl	0x0000632e
    1b80:	70797463 	rsbsvc	r7, r9, r3, ror #8
    1b84:	74730065 	ldrbtvc	r0, [r3], #-101	; 0xffffff9b
    1b88:	2f6f6964 	svccs	0x006f6964
    1b8c:	2f62696c 	svccs	0x0062696c
    1b90:	36766964 	ldrbtcc	r6, [r6], -r4, ror #18
    1b94:	00632e34 	rsbeq	r2, r3, r4, lsr lr
    1b98:	69645f5f 	stmdbvs	r4!, {r0, r1, r2, r3, r4, r6, r8, r9, sl, fp, ip, lr}^
    1b9c:	5f343676 	svcpl	0x00343676
    1ba0:	68003233 	stmdavs	r0, {r0, r1, r4, r5, r9, ip, sp}
    1ba4:	00686769 	rsbeq	r6, r8, r9, ror #14
    1ba8:	69647473 	stmdbvs	r4!, {r0, r1, r4, r5, r6, sl, ip, sp, lr}^
    1bac:	696c2f6f 	stmdbvs	ip!, {r0, r1, r2, r3, r5, r6, r8, r9, sl, fp, sp}^
    1bb0:	756d2f62 	strbvc	r2, [sp, #-3938]!	; 0xfffff09e
    1bb4:	3369646c 	cmncc	r9, #108, 8	; 0x6c000000
    1bb8:	5f00632e 	svcpl	0x0000632e
    1bbc:	0031745f 	eorseq	r7, r1, pc, asr r4
    1bc0:	32745f5f 	rsbscc	r5, r4, #380	; 0x17c
    1bc4:	49535500 	ldmdbmi	r3, {r8, sl, ip, lr}^
    1bc8:	65707974 	ldrbvs	r7, [r0, #-2420]!	; 0xfffff68c
    1bcc:	73494400 	movtvc	r4, #37888	; 0x9400
    1bd0:	63757274 	cmnvs	r5, #116, 4	; 0x40000007
    1bd4:	5f5f0074 	svcpl	0x005f0074
    1bd8:	44003074 	strmi	r3, [r0], #-116	; 0xffffff8c
    1bdc:	696e7549 	stmdbvs	lr!, {r0, r3, r6, r8, sl, ip, sp, lr}^
    1be0:	5f006e6f 	svcpl	0x00006e6f
    1be4:	6c756d5f 	ldclvs	13, cr6, [r5], #-380	; 0xfffffe84
    1be8:	00336964 	eorseq	r6, r3, r4, ror #18
    1bec:	657a6973 	ldrbvs	r6, [sl, #-2419]!	; 0xfffff68d
    1bf0:	6700745f 	smlsdvs	r0, pc, r4, r7	; <UNPREDICTABLE>
    1bf4:	4963705f 	stmdbmi	r3!, {r0, r1, r2, r3, r4, r6, ip, sp, lr}^
    1bf8:	6675426e 	ldrbtvs	r4, [r5], -lr, ror #4
    1bfc:	5f617600 	svcpl	0x00617600
    1c00:	7473696c 	ldrbtvc	r6, [r3], #-2412	; 0xfffff694
    1c04:	64747300 	ldrbtvs	r7, [r4], #-768	; 0xfffffd00
    1c08:	6c2f6f69 	stcvs	15, cr6, [pc], #-420	; 1a6c <shift+0x1a6c>
    1c0c:	702f6269 	eorvc	r6, pc, r9, ror #4
    1c10:	746e6972 	strbtvc	r6, [lr], #-2418	; 0xfffff68e
    1c14:	00632e66 	rsbeq	r2, r3, r6, ror #28
    1c18:	73677261 	cmnvc	r7, #268435462	; 0x10000006
    1c1c:	72747300 	rsbsvc	r7, r4, #0, 6
    1c20:	006e656c 	rsbeq	r6, lr, ip, ror #10
    1c24:	72707376 	rsbsvc	r7, r0, #-671088639	; 0xd8000001
    1c28:	66746e69 	ldrbtvs	r6, [r4], -r9, ror #28
    1c2c:	705f6700 	subsvc	r6, pc, r0, lsl #14
    1c30:	74754f63 	ldrbtvc	r4, [r5], #-3939	; 0xfffff09d
    1c34:	00667542 	rsbeq	r7, r6, r2, asr #10
    1c38:	63737376 	cmnvs	r3, #-671088639	; 0xd8000001
    1c3c:	00666e61 	rsbeq	r6, r6, r1, ror #28
    1c40:	73727473 	cmnvc	r2, #1929379840	; 0x73000000
    1c44:	6d007065 	stcvs	0, cr7, [r0, #-404]	; 0xfffffe6c
    1c48:	6f6d6d65 	svcvs	0x006d6d65
    1c4c:	6d006576 	cfstr32vs	mvfx6, [r0, #-472]	; 0xfffffe28
    1c50:	6d636d65 	stclvs	13, cr6, [r3, #-404]!	; 0xfffffe6c
    1c54:	6f630070 	svcvs	0x00630070
    1c58:	00746e75 	rsbseq	r6, r4, r5, ror lr
    1c5c:	736d656d 	cmnvc	sp, #457179136	; 0x1b400000
    1c60:	006e6163 	rsbeq	r6, lr, r3, ror #2
    1c64:	65636361 	strbvs	r6, [r3, #-865]!	; 0xfffffc9f
    1c68:	5f007470 	svcpl	0x00007470
    1c6c:	6c6f745f 	cfstrdvs	mvd7, [pc], #-380	; 1af8 <shift+0x1af8>
    1c70:	7265776f 	rsbvc	r7, r5, #29097984	; 0x1bc0000
    1c74:	72747300 	rsbsvc	r7, r4, #0, 6
    1c78:	00726863 	rsbseq	r6, r2, r3, ror #16
    1c7c:	74736564 	ldrbtvc	r6, [r3], #-1380	; 0xfffffa9c
    1c80:	00706d54 	rsbseq	r6, r0, r4, asr sp
    1c84:	6e727473 	mrcvs	4, 3, r7, cr2, cr3, {3}
    1c88:	00746163 	rsbseq	r6, r4, r3, ror #2
    1c8c:	69647473 	stmdbvs	r4!, {r0, r1, r4, r5, r6, sl, ip, sp, lr}^
    1c90:	696c2f6f 	stmdbvs	ip!, {r0, r1, r2, r3, r5, r6, r8, r9, sl, fp, sp}^
    1c94:	74732f62 	ldrbtvc	r2, [r3], #-3938	; 0xfffff09e
    1c98:	676e6972 			; <UNDEFINED> instruction: 0x676e6972
    1c9c:	6400632e 	strvs	r6, [r0], #-814	; 0xfffffcd2
    1ca0:	00747365 	rsbseq	r7, r4, r5, ror #6
    1ca4:	706f6362 	rsbvc	r6, pc, r2, ror #6
    1ca8:	74730079 	ldrbtvc	r0, [r3], #-121	; 0xffffff87
    1cac:	79706372 	ldmdbvc	r0!, {r1, r4, r5, r6, r8, r9, sp, lr}^
    1cb0:	64646100 	strbtvs	r6, [r4], #-256	; 0xffffff00
    1cb4:	74730072 	ldrbtvc	r0, [r3], #-114	; 0xffffff8e
    1cb8:	74616372 	strbtvc	r6, [r1], #-882	; 0xfffffc8e
    1cbc:	72747300 	rsbsvc	r7, r4, #0, 6
    1cc0:	7970636e 	ldmdbvc	r0!, {r1, r2, r3, r5, r6, r8, r9, sp, lr}^
    1cc4:	5f5f5f00 	svcpl	0x005f5f00
    1cc8:	74727473 	ldrbtvc	r7, [r2], #-1139	; 0xfffffb8d
    1ccc:	6d006b6f 	vstrvs	d6, [r0, #-444]	; 0xfffffe44
    1cd0:	68636d65 	stmdavs	r3!, {r0, r2, r5, r6, r8, sl, fp, sp, lr}^
    1cd4:	5f5f0072 	svcpl	0x005f0072
    1cd8:	00736572 	rsbseq	r6, r3, r2, ror r5
    1cdc:	646e6573 	strbtvs	r6, [lr], #-1395	; 0xfffffa8d
    1ce0:	72747300 	rsbsvc	r7, r4, #0, 6
    1ce4:	6e656c6e 	cdpvs	12, 6, cr6, cr5, cr14, {3}
    1ce8:	72747300 	rsbsvc	r7, r4, #0, 6
    1cec:	00706d63 	rsbseq	r6, r0, r3, ror #26
    1cf0:	70727473 	rsbsvc	r7, r2, r3, ror r4
    1cf4:	006b7262 	rsbeq	r7, fp, r2, ror #4
    1cf8:	73727473 	cmnvc	r2, #1929379840	; 0x73000000
    1cfc:	6d006e70 	stcvs	14, cr6, [r0, #-448]	; 0xfffffe40
    1d00:	70636d65 	rsbvc	r6, r3, r5, ror #26
    1d04:	62730079 	rsbsvs	r0, r3, #121	; 0x79
    1d08:	6e696765 	cdpvs	7, 6, cr6, cr9, cr5, {3}
    1d0c:	63727300 	cmnvs	r2, #0, 6
    1d10:	00706d54 	rsbseq	r6, r0, r4, asr sp
    1d14:	736d656d 	cmnvc	sp, #457179136	; 0x1b400000
    1d18:	73007465 	movwvc	r7, #1125	; 0x465
    1d1c:	63727274 	cmnvs	r2, #116, 4	; 0x40000007
    1d20:	73007268 	movwvc	r7, #616	; 0x268
    1d24:	696e7274 	stmdbvs	lr!, {r2, r4, r5, r6, r9, ip, sp, lr}^
    1d28:	00706d63 	rsbseq	r6, r0, r3, ror #26
    1d2c:	73727473 	cmnvc	r2, #1929379840	; 0x73000000
    1d30:	73007274 	movwvc	r7, #628	; 0x274
    1d34:	00657a69 	rsbeq	r7, r5, r9, ror #20
    1d38:	6e727473 	mrcvs	4, 3, r7, cr2, cr3, {3}
    1d3c:	00706d63 	rsbseq	r6, r0, r3, ror #26
    1d40:	75736572 	ldrbvc	r6, [r3, #-1394]!	; 0xfffffa8e
    1d44:	6e00746c 	cdpvs	4, 0, cr7, cr0, cr12, {3}
    1d48:	5f646565 	svcpl	0x00646565
    1d4c:	00786670 	rsbseq	r6, r8, r0, ror r6
    1d50:	6c656966 			; <UNDEFINED> instruction: 0x6c656966
    1d54:	69775f64 	ldmdbvs	r7!, {r2, r5, r6, r8, r9, sl, fp, ip, lr}^
    1d58:	00687464 	rsbeq	r7, r8, r4, ror #8
    1d5c:	706d6973 	rsbvc	r6, sp, r3, ror r9
    1d60:	735f656c 	cmpvc	pc, #108, 10	; 0x1b000000
    1d64:	6f747274 	svcvs	0x00747274
    1d68:	7369006c 	cmnvc	r9, #108	; 0x6c
    1d6c:	6769735f 			; <UNDEFINED> instruction: 0x6769735f
    1d70:	6572006e 	ldrbvs	r0, [r2, #-110]!	; 0xffffff92
    1d74:	74616570 	strbtvc	r6, [r1], #-1392	; 0xfffffa90
    1d78:	636f6c00 	cmnvs	pc, #0, 24
    1d7c:	00657361 	rsbeq	r7, r5, r1, ror #6
    1d80:	65725f5f 	ldrbvs	r5, [r2, #-3935]!	; 0xfffff0a1
    1d84:	6e65006d 	cdpvs	0, 6, cr0, cr5, cr13, {3}
    1d88:	5f007064 	svcpl	0x00007064
    1d8c:	7361625f 	cmnvc	r1, #-268435451	; 0xf0000005
    1d90:	75700065 	ldrbvc	r0, [r0, #-101]!	; 0xffffff9b
    1d94:	65645f74 	strbvs	r5, [r4, #-3956]!	; 0xfffff08c
    1d98:	75665f63 	strbvc	r5, [r6, #-3939]!	; 0xfffff09d
    1d9c:	5f006c6c 	svcpl	0x00006c6c
    1da0:	756f745f 	strbvc	r7, [pc, #-1119]!	; 1949 <shift+0x1949>
    1da4:	72657070 	rsbvc	r7, r5, #112	; 0x70
    1da8:	69687300 	stmdbvs	r8!, {r8, r9, ip, sp, lr}^
    1dac:	64007466 	strvs	r7, [r0], #-1126	; 0xfffffb9a
    1db0:	74696769 	strbtvc	r6, [r9], #-1897	; 0xfffff897
    1db4:	69730073 	ldmdbvs	r3!, {r0, r1, r4, r5, r6}^
    1db8:	656c706d 	strbvs	r7, [ip, #-109]!	; 0xffffff93
    1dbc:	7274735f 	rsbsvc	r7, r4, #2080374785	; 0x7c000001
    1dc0:	6c6c6f74 	stclvs	15, cr6, [ip], #-464	; 0xfffffe30
    1dc4:	74757000 	ldrbtvc	r7, [r5], #-0
    1dc8:	6365645f 	cmnvs	r5, #1593835520	; 0x5f000000
    1dcc:	6d697300 	stclvs	3, cr7, [r9, #-0]
    1dd0:	5f656c70 	svcpl	0x00656c70
    1dd4:	74727473 	ldrbtvc	r7, [r2], #-1139	; 0xfffffb8d
    1dd8:	6c6c756f 	cfstr64vs	mvdx7, [ip], #-444	; 0xfffffe44
    1ddc:	6e737600 	cdpvs	6, 7, cr7, cr3, cr0, {0}
    1de0:	6e697270 	mcrvs	2, 3, r7, cr9, cr0, {3}
    1de4:	76006674 			; <UNDEFINED> instruction: 0x76006674
    1de8:	706e6373 	rsbvc	r6, lr, r3, ror r3
    1dec:	746e6972 	strbtvc	r6, [lr], #-2418	; 0xfffff68e
    1df0:	75700066 	ldrbvc	r0, [r0, #-102]!	; 0xffffff9a
    1df4:	65645f74 	strbvs	r5, [r4, #-3956]!	; 0xfffff08c
    1df8:	72745f63 	rsbsvc	r5, r4, #396	; 0x18c
    1dfc:	00636e75 	rsbeq	r6, r3, r5, ror lr
    1e00:	6c617571 	cfstr64vs	mvdx7, [r1], #-452	; 0xfffffe3c
    1e04:	65696669 	strbvs	r6, [r9, #-1641]!	; 0xfffff997
    1e08:	6b730072 	blvs	1cc1fd8 <shift+0x1cc1fd8>
    1e0c:	615f7069 	cmpvs	pc, r9, rrx
    1e10:	00696f74 	rsbeq	r6, r9, r4, ror pc
    1e14:	69647473 	stmdbvs	r4!, {r0, r1, r4, r5, r6, sl, ip, sp, lr}^
    1e18:	696c2f6f 	stmdbvs	ip!, {r0, r1, r2, r3, r5, r6, r8, r9, sl, fp, sp}^
    1e1c:	73762f62 	cmnvc	r6, #392	; 0x188
    1e20:	6e697270 	mcrvs	2, 3, r7, cr9, cr0, {3}
    1e24:	632e6674 			; <UNDEFINED> instruction: 0x632e6674
    1e28:	73616d00 	cmnvc	r1, #0, 26
    1e2c:	6973006b 	ldmdbvs	r3!, {r0, r1, r3, r5, r6}^
    1e30:	656c706d 	strbvs	r7, [ip, #-109]!	; 0xffffff93
    1e34:	7274735f 	rsbsvc	r7, r4, #2080374785	; 0x7c000001
    1e38:	6c756f74 	ldclvs	15, cr6, [r5], #-464	; 0xfffffe30
    1e3c:	67696400 	strbvs	r6, [r9, -r0, lsl #8]!
    1e40:	6e007469 	cdpvs	4, 0, cr7, cr0, cr9, {3}
    1e44:	65626d75 	strbvs	r6, [r2, #-3445]!	; 0xfffff28b
    1e48:	72700072 	rsbsvc	r0, r0, #114	; 0x72
    1e4c:	73696365 	cmnvc	r9, #-1811939327	; 0x94000001
    1e50:	006e6f69 	rsbeq	r6, lr, r9, ror #30
    1e54:	7478656e 	ldrbtvc	r6, [r8], #-1390	; 0xfffffa92
    1e58:	755f5f00 	ldrbvc	r5, [pc, #-3840]	; f60 <shift+0xf60>
    1e5c:	6d766964 			; <UNDEFINED> instruction: 0x6d766964
    1e60:	6964646f 	stmdbvs	r4!, {r0, r1, r2, r3, r5, r6, sl, sp, lr}^
    1e64:	682f0034 	stmdavs	pc!, {r2, r4, r5}	; <UNPREDICTABLE>
    1e68:	2f656d6f 	svccs	0x00656d6f
    1e6c:	67776374 			; <UNDEFINED> instruction: 0x67776374
    1e70:	6975622d 	ldmdbvs	r5!, {r0, r2, r3, r5, r9, sp, lr}^
    1e74:	6c73646c 	cfldrdvs	mvd6, [r3], #-432	; 0xfffffe50
    1e78:	2f657661 	svccs	0x00657661
    1e7c:	6b726f77 	blvs	1c9dc60 <shift+0x1c9dc60>
    1e80:	63617073 	cmnvs	r1, #115	; 0x73
    1e84:	63742f65 	cmnvs	r4, #404	; 0x194
    1e88:	6d2d6777 	stcvs	7, cr6, [sp, #-476]!	; 0xfffffe24
    1e8c:	2d656b61 	fstmdbxcs	r5!, {d22-d69}	;@ Deprecated
    1e90:	656c6572 	strbvs	r6, [ip, #-1394]!	; 0xfffffa8e
    1e94:	2f657361 	svccs	0x00657361
    1e98:	6562616c 	strbvs	r6, [r2, #-364]!	; 0xfffffe94
    1e9c:	6f642f6c 	svcvs	0x00642f6c
    1ea0:	72656b63 	rsbvc	r6, r5, #101376	; 0x18c00
    1ea4:	7572742d 	ldrbvc	r7, [r2, #-1069]!	; 0xfffffbd3
    1ea8:	2d797473 	cfldrdcs	mvd7, [r9, #-460]!	; 0xfffffe34
    1eac:	36646d61 	strbtcc	r6, [r4], -r1, ror #26
    1eb0:	63742d34 	cmnvs	r4, #52, 26	; 0xd00
    1eb4:	622d6777 	eorvs	r6, sp, #31195136	; 0x1dc0000
    1eb8:	646c6975 	strbtvs	r6, [ip], #-2421	; 0xfffff68b
    1ebc:	7261742f 	rsbvc	r7, r1, #788529152	; 0x2f000000
    1ec0:	2f746567 	svccs	0x00746567
    1ec4:	2d6d7261 	sfmcs	f7, 2, [sp, #-388]!	; 0xfffffe7c
    1ec8:	756e696c 	strbvc	r6, [lr, #-2412]!	; 0xfffff694
    1ecc:	6e672d78 	mcrvs	13, 3, r2, cr7, cr8, {3}
    1ed0:	62616575 	rsbvs	r6, r1, #490733568	; 0x1d400000
    1ed4:	2f666869 	svccs	0x00666869
    1ed8:	6975625f 	ldmdbvs	r5!, {r0, r1, r2, r3, r4, r6, r9, sp, lr}^
    1edc:	622f646c 	eorvs	r6, pc, #108, 8	; 0x6c000000
    1ee0:	646c6975 	strbtvs	r6, [ip], #-2421	; 0xfffff68b
    1ee4:	38782f73 	ldmdacc	r8!, {r0, r1, r4, r5, r6, r8, r9, sl, fp, sp}^
    1ee8:	34365f36 	ldrtcc	r5, [r6], #-3894	; 0xfffff0ca
    1eec:	6b6e752d 	blvs	1b9f3a8 <shift+0x1b9f3a8>
    1ef0:	6e776f6e 	cdpvs	15, 7, cr6, cr7, cr14, {3}
    1ef4:	6e696c2d 	cdpvs	12, 6, cr6, cr9, cr13, {1}
    1ef8:	672d7875 			; <UNDEFINED> instruction: 0x672d7875
    1efc:	612f756e 			; <UNDEFINED> instruction: 0x612f756e
    1f00:	6c2d6d72 	stcvs	13, cr6, [sp], #-456	; 0xfffffe38
    1f04:	78756e69 	ldmdavc	r5!, {r0, r3, r5, r6, r9, sl, fp, sp, lr}^
    1f08:	756e672d 	strbvc	r6, [lr, #-1837]!	; 0xfffff8d3
    1f0c:	69626165 	stmdbvs	r2!, {r0, r2, r5, r6, r8, sp, lr}^
    1f10:	672f6668 	strvs	r6, [pc, -r8, ror #12]!
    1f14:	6c2d6363 	stcvs	3, cr6, [sp], #-396	; 0xfffffe74
    1f18:	72616e69 	rsbvc	r6, r1, #1680	; 0x690
    1f1c:	2e342d6f 	cdpcs	13, 3, cr2, cr4, cr15, {3}
    1f20:	30322d39 	eorscc	r2, r2, r9, lsr sp
    1f24:	302e3731 	eorcc	r3, lr, r1, lsr r7
    1f28:	74732d31 	ldrbtvc	r2, [r3], #-3377	; 0xfffff2cf
    1f2c:	32656761 	rsbcc	r6, r5, #25427968	; 0x1840000
    1f30:	6d72612f 	ldfvse	f6, [r2, #-188]!	; 0xffffff44
    1f34:	6e696c2d 	cdpvs	12, 6, cr6, cr9, cr13, {1}
    1f38:	672d7875 			; <UNDEFINED> instruction: 0x672d7875
    1f3c:	6165756e 	cmnvs	r5, lr, ror #10
    1f40:	66686962 	strbtvs	r6, [r8], -r2, ror #18
    1f44:	62696c2f 	rsbvs	r6, r9, #12032	; 0x2f00
    1f48:	00636367 	rsbeq	r6, r3, r7, ror #6
    1f4c:	20554e47 	subscs	r4, r5, r7, asr #28
    1f50:	2e342043 	cdpcs	0, 3, cr2, cr4, cr3, {2}
    1f54:	20342e39 	eorscs	r2, r4, r9, lsr lr
    1f58:	72616d2d 	rsbvc	r6, r1, #2880	; 0xb40
    1f5c:	613d6863 	teqvs	sp, r3, ror #16
    1f60:	37766d72 			; <UNDEFINED> instruction: 0x37766d72
    1f64:	2d20612d 	stfcss	f6, [r0, #-180]!	; 0xffffff4c
    1f68:	6e75746d 	cdpvs	4, 7, cr7, cr5, cr13, {3}
    1f6c:	6f633d65 	svcvs	0x00633d65
    1f70:	78657472 	stmdavc	r5!, {r1, r4, r5, r6, sl, ip, sp, lr}^
    1f74:	2039612d 	eorscs	r6, r9, sp, lsr #2
    1f78:	6c666d2d 	stclvs	13, cr6, [r6], #-180	; 0xffffff4c
    1f7c:	2d74616f 	ldfcse	f6, [r4, #-444]!	; 0xfffffe44
    1f80:	3d696261 	sfmcc	f6, 2, [r9, #-388]!	; 0xfffffe7c
    1f84:	64726168 	ldrbtvs	r6, [r2], #-360	; 0xfffffe98
    1f88:	666d2d20 	strbtvs	r2, [sp], -r0, lsr #26
    1f8c:	763d7570 			; <UNDEFINED> instruction: 0x763d7570
    1f90:	33767066 	cmncc	r6, #102	; 0x66
    1f94:	3631642d 	ldrtcc	r6, [r1], -sp, lsr #8
    1f98:	746d2d20 	strbtvc	r2, [sp], #-3360	; 0xfffff2e0
    1f9c:	626d7568 	rsbvs	r7, sp, #104, 10	; 0x1a000000
    1fa0:	746d2d20 	strbtvc	r2, [sp], #-3360	; 0xfffff2e0
    1fa4:	642d736c 	strtvs	r7, [sp], #-876	; 0xfffffc94
    1fa8:	656c6169 	strbvs	r6, [ip, #-361]!	; 0xfffffe97
    1fac:	673d7463 	ldrvs	r7, [sp, -r3, ror #8]!
    1fb0:	2d20756e 	cfstr32cs	mvfx7, [r0, #-440]!	; 0xfffffe48
    1fb4:	672d2067 	strvs	r2, [sp, -r7, rrx]!
    1fb8:	20672d20 	rsbcs	r2, r7, r0, lsr #26
    1fbc:	20324f2d 	eorscs	r4, r2, sp, lsr #30
    1fc0:	20324f2d 	eorscs	r4, r2, sp, lsr #30
    1fc4:	20324f2d 	eorscs	r4, r2, sp, lsr #30
    1fc8:	7562662d 	strbvc	r6, [r2, #-1581]!	; 0xfffff9d3
    1fcc:	69646c69 	stmdbvs	r4!, {r0, r3, r5, r6, sl, fp, sp, lr}^
    1fd0:	6c2d676e 	stcvs	7, cr6, [sp], #-440	; 0xfffffe48
    1fd4:	63676269 	cmnvs	r7, #-1879048186	; 0x90000006
    1fd8:	662d2063 	strtvs	r2, [sp], -r3, rrx
    1fdc:	732d6f6e 			; <UNDEFINED> instruction: 0x732d6f6e
    1fe0:	6b636174 	blvs	18da5b8 <shift+0x18da5b8>
    1fe4:	6f72702d 	svcvs	0x0072702d
    1fe8:	74636574 	strbtvc	r6, [r3], #-1396	; 0xfffffa8c
    1fec:	2d20726f 	sfmcs	f7, 4, [r0, #-444]!	; 0xfffffe44
    1ff0:	43495066 	movtmi	r5, #36966	; 0x9066
    1ff4:	6e662d20 	cdpvs	13, 6, cr2, cr6, cr0, {1}
    1ff8:	6e692d6f 	cdpvs	13, 6, cr2, cr9, cr15, {3}
    1ffc:	656e696c 	strbvs	r6, [lr, #-2412]!	; 0xfffff694
    2000:	65662d20 	strbvs	r2, [r6, #-3360]!	; 0xfffff2e0
    2004:	70656378 	rsbvc	r6, r5, r8, ror r3
    2008:	6e6f6974 			; <UNDEFINED> instruction: 0x6e6f6974
    200c:	662d2073 			; <UNDEFINED> instruction: 0x662d2073
    2010:	69736976 	ldmdbvs	r3!, {r1, r2, r4, r5, r6, r8, fp, sp, lr}^
    2014:	696c6962 	stmdbvs	ip!, {r1, r5, r6, r8, fp, sp, lr}^
    2018:	683d7974 	ldmdavs	sp!, {r2, r4, r5, r6, r8, fp, ip, sp, lr}
    201c:	65646469 	strbvs	r6, [r4, #-1129]!	; 0xfffffb97
    2020:	4455006e 	ldrbmi	r0, [r5], #-110	; 0xffffff92
    2024:	70797449 	rsbsvc	r7, r9, r9, asr #8
    2028:	6f630065 	svcvs	0x00630065
    202c:	656c706d 	strbvs	r7, [ip, #-109]!	; 0xffffff93
    2030:	6c662078 	stclvs	0, cr2, [r6], #-480	; 0xfffffe20
    2034:	0074616f 	rsbseq	r6, r4, pc, ror #2
    2038:	657a6973 	ldrbvs	r6, [sl, #-2419]!	; 0xfffff68d
    203c:	65707974 	ldrbvs	r7, [r0, #-2420]!	; 0xfffff68c
    2040:	6d6f6300 	stclvs	3, cr6, [pc, #-0]	; 2048 <shift+0x2048>
    2044:	78656c70 	stmdavc	r5!, {r4, r5, r6, sl, fp, sp, lr}^
    2048:	756f6420 	strbvc	r6, [pc, #-1056]!	; 1c30 <shift+0x1c30>
    204c:	00656c62 	rsbeq	r6, r5, r2, ror #24
    2050:	6d6f682f 	stclvs	8, cr6, [pc, #-188]!	; 1f9c <shift+0x1f9c>
    2054:	63742f65 	cmnvs	r4, #404	; 0x194
    2058:	622d6777 	eorvs	r6, sp, #31195136	; 0x1dc0000
    205c:	646c6975 	strbtvs	r6, [ip], #-2421	; 0xfffff68b
    2060:	76616c73 			; <UNDEFINED> instruction: 0x76616c73
    2064:	6f772f65 	svcvs	0x00772f65
    2068:	70736b72 	rsbsvc	r6, r3, r2, ror fp
    206c:	2f656361 	svccs	0x00656361
    2070:	67776374 			; <UNDEFINED> instruction: 0x67776374
    2074:	6b616d2d 	blvs	185d530 <shift+0x185d530>
    2078:	65722d65 	ldrbvs	r2, [r2, #-3429]!	; 0xfffff29b
    207c:	7361656c 	cmnvc	r1, #108, 10	; 0x1b000000
    2080:	616c2f65 	cmnvs	ip, r5, ror #30
    2084:	2f6c6562 	svccs	0x006c6562
    2088:	6b636f64 	blvs	18dde20 <shift+0x18dde20>
    208c:	742d7265 	strtvc	r7, [sp], #-613	; 0xfffffd9b
    2090:	74737572 	ldrbtvc	r7, [r3], #-1394	; 0xfffffa8e
    2094:	6d612d79 	stclvs	13, cr2, [r1, #-484]!	; 0xfffffe1c
    2098:	2d343664 	ldccs	6, cr3, [r4, #-400]!	; 0xfffffe70
    209c:	67776374 			; <UNDEFINED> instruction: 0x67776374
    20a0:	6975622d 	ldmdbvs	r5!, {r0, r2, r3, r5, r9, sp, lr}^
    20a4:	742f646c 	strtvc	r6, [pc], #-1132	; 20ac <shift+0x20ac>
    20a8:	65677261 	strbvs	r7, [r7, #-609]!	; 0xfffffd9f
    20ac:	72612f74 	rsbvc	r2, r1, #116, 30	; 0x1d0
    20b0:	696c2d6d 	stmdbvs	ip!, {r0, r2, r3, r5, r6, r8, sl, fp, sp}^
    20b4:	2d78756e 	cfldr64cs	mvdx7, [r8, #-440]!	; 0xfffffe48
    20b8:	65756e67 	ldrbvs	r6, [r5, #-3687]!	; 0xfffff199
    20bc:	68696261 	stmdavs	r9!, {r0, r5, r6, r9, sp, lr}^
    20c0:	6e732f66 	cdpvs	15, 7, cr2, cr3, cr6, {3}
    20c4:	68737061 	ldmdavs	r3!, {r0, r5, r6, ip, sp, lr}^
    20c8:	2f73746f 	svccs	0x0073746f
    20cc:	2d636367 	stclcs	3, cr6, [r3, #-412]!	; 0xfffffe64
    20d0:	616e696c 	cmnvs	lr, ip, ror #18
    20d4:	342d6f72 	strtcc	r6, [sp], #-3954	; 0xfffff08e
    20d8:	322d392e 	eorcc	r3, sp, #753664	; 0xb8000
    20dc:	2e373130 	mrccs	1, 1, r3, cr7, cr0, {1}
    20e0:	6c2f3130 	stfvss	f3, [pc], #-192	; 2028 <shift+0x2028>
    20e4:	63676269 	cmnvs	r7, #-1879048186	; 0x90000006
    20e8:	696c2f63 	stmdbvs	ip!, {r0, r1, r5, r6, r8, r9, sl, fp, sp}^
    20ec:	63636762 	cmnvs	r3, #25690112	; 0x1880000
    20f0:	00632e32 	rsbeq	r2, r3, r2, lsr lr

Disassembly of section .debug_frame:

00000000 <.debug_frame>:
       0:	0000000c 	andeq	r0, r0, ip
       4:	ffffffff 			; <UNDEFINED> instruction: 0xffffffff
       8:	7c020001 	stcvc	0, cr0, [r2], {1}
       c:	000d0c0e 	andeq	r0, sp, lr, lsl #24
      10:	0000001c 	andeq	r0, r0, ip, lsl r0
      14:	00000000 	andeq	r0, r0, r0
      18:	80000320 	andhi	r0, r0, r0, lsr #6
      1c:	00000080 	andeq	r0, r0, r0, lsl #1
      20:	87080e41 	strhi	r0, [r8, -r1, asr #28]
      24:	41018e02 	tstmi	r1, r2, lsl #28
      28:	0d41100e 	stcleq	0, cr1, [r1, #-56]	; 0xffffffc8
      2c:	00000007 	andeq	r0, r0, r7
      30:	0000000c 	andeq	r0, r0, ip
      34:	ffffffff 			; <UNDEFINED> instruction: 0xffffffff
      38:	7c020001 	stcvc	0, cr0, [r2], {1}
      3c:	000d0c0e 	andeq	r0, sp, lr, lsl #24
      40:	0000001c 	andeq	r0, r0, ip, lsl r0
      44:	00000030 	andeq	r0, r0, r0, lsr r0
      48:	800003a0 	andhi	r0, r0, r0, lsr #7
      4c:	00000070 	andeq	r0, r0, r0, ror r0
      50:	87040e41 	strhi	r0, [r4, -r1, asr #28]
      54:	070d4101 	streq	r4, [sp, -r1, lsl #2]
      58:	420d0d73 	andmi	r0, sp, #7360	; 0x1cc0
      5c:	00000ec7 	andeq	r0, r0, r7, asr #29
      60:	00000024 	andeq	r0, r0, r4, lsr #32
      64:	00000030 	andeq	r0, r0, r0, lsr r0
      68:	80000410 	andhi	r0, r0, r0, lsl r4
      6c:	000001d2 	ldrdeq	r0, [r0], -r2
      70:	87040e41 	strhi	r0, [r4, -r1, asr #28]
      74:	100e4101 	andne	r4, lr, r1, lsl #2
      78:	02070d41 	andeq	r0, r7, #4160	; 0x1040
      7c:	41040ee2 	smlattmi	r4, r2, lr, r0
      80:	c7420d0d 	strbgt	r0, [r2, -sp, lsl #26]
      84:	0000000e 	andeq	r0, r0, lr
      88:	0000000c 	andeq	r0, r0, ip
      8c:	ffffffff 			; <UNDEFINED> instruction: 0xffffffff
      90:	7c020001 	stcvc	0, cr0, [r2], {1}
      94:	000d0c0e 	andeq	r0, sp, lr, lsl #24
      98:	00000024 	andeq	r0, r0, r4, lsr #32
      9c:	00000088 	andeq	r0, r0, r8, lsl #1
      a0:	800005e2 	andhi	r0, r0, r2, ror #11
      a4:	0000003e 	andeq	r0, r0, lr, lsr r0
      a8:	87040e41 	strhi	r0, [r4, -r1, asr #28]
      ac:	180e4101 	stmdane	lr, {r0, r8, lr}
      b0:	58070d41 	stmdapl	r7, {r0, r6, r8, sl, fp}
      b4:	0d41040e 	cfstrdeq	mvd0, [r1, #-56]	; 0xffffffc8
      b8:	0ec7420d 	cdpeq	2, 12, cr4, cr7, cr13, {0}
      bc:	00000000 	andeq	r0, r0, r0
      c0:	00000024 	andeq	r0, r0, r4, lsr #32
      c4:	00000088 	andeq	r0, r0, r8, lsl #1
      c8:	80000620 	andhi	r0, r0, r0, lsr #12
      cc:	00000026 	andeq	r0, r0, r6, lsr #32
      d0:	87040e41 	strhi	r0, [r4, -r1, asr #28]
      d4:	180e4101 	stmdane	lr, {r0, r8, lr}
      d8:	4c070d41 	stcmi	13, cr0, [r7], {65}	; 0x41
      dc:	0d41040e 	cfstrdeq	mvd0, [r1, #-56]	; 0xffffffc8
      e0:	0ec7420d 	cdpeq	2, 12, cr4, cr7, cr13, {0}
      e4:	00000000 	andeq	r0, r0, r0
      e8:	00000020 	andeq	r0, r0, r0, lsr #32
      ec:	00000088 	andeq	r0, r0, r8, lsl #1
      f0:	80000646 	andhi	r0, r0, r6, asr #12
      f4:	0000007a 	andeq	r0, r0, sl, ror r0
      f8:	87080e41 	strhi	r0, [r8, -r1, asr #28]
      fc:	41018e02 	tstmi	r1, r2, lsl #28
     100:	0c41100e 	mcrreq	0, 0, r1, r1, cr14
     104:	0d790807 	ldcleq	8, cr0, [r9, #-28]!	; 0xffffffe4
     108:	0000000d 	andeq	r0, r0, sp
     10c:	0000001c 	andeq	r0, r0, ip, lsl r0
     110:	00000088 	andeq	r0, r0, r8, lsl #1
     114:	800006c0 	andhi	r0, r0, r0, asr #13
     118:	00000026 	andeq	r0, r0, r6, lsr #32
     11c:	87040e41 	strhi	r0, [r4, -r1, asr #28]
     120:	070d4101 	streq	r4, [sp, -r1, lsl #2]
     124:	420d0d4e 	andmi	r0, sp, #4992	; 0x1380
     128:	00000ec7 	andeq	r0, r0, r7, asr #29
     12c:	0000001c 	andeq	r0, r0, ip, lsl r0
     130:	00000088 	andeq	r0, r0, r8, lsl #1
     134:	800006e6 	andhi	r0, r0, r6, ror #13
     138:	00000026 	andeq	r0, r0, r6, lsr #32
     13c:	87040e41 	strhi	r0, [r4, -r1, asr #28]
     140:	070d4101 	streq	r4, [sp, -r1, lsl #2]
     144:	420d0d4e 	andmi	r0, sp, #4992	; 0x1380
     148:	00000ec7 	andeq	r0, r0, r7, asr #29
     14c:	00000020 	andeq	r0, r0, r0, lsr #32
     150:	00000088 	andeq	r0, r0, r8, lsl #1
     154:	8000070c 	andhi	r0, r0, ip, lsl #14
     158:	00000048 	andeq	r0, r0, r8, asr #32
     15c:	87080e41 	strhi	r0, [r8, -r1, asr #28]
     160:	41018e02 	tstmi	r1, r2, lsl #28
     164:	0d41100e 	stcleq	0, cr1, [r1, #-56]	; 0xffffffc8
     168:	080e5f07 	stmdaeq	lr, {r0, r1, r2, r8, r9, sl, fp, ip, lr}
     16c:	000d0d41 	andeq	r0, sp, r1, asr #26
     170:	0000000c 	andeq	r0, r0, ip
     174:	ffffffff 			; <UNDEFINED> instruction: 0xffffffff
     178:	7c020001 	stcvc	0, cr0, [r2], {1}
     17c:	000d0c0e 	andeq	r0, sp, lr, lsl #24
     180:	0000001c 	andeq	r0, r0, ip, lsl r0
     184:	00000170 	andeq	r0, r0, r0, ror r1
     188:	80000754 	andhi	r0, r0, r4, asr r7
     18c:	0000007a 	andeq	r0, r0, sl, ror r0
     190:	87040e41 	strhi	r0, [r4, -r1, asr #28]
     194:	070d4101 	streq	r4, [sp, -r1, lsl #2]
     198:	420d0d78 	andmi	r0, sp, #120, 26	; 0x1e00
     19c:	00000ec7 	andeq	r0, r0, r7, asr #29
     1a0:	00000024 	andeq	r0, r0, r4, lsr #32
     1a4:	00000170 	andeq	r0, r0, r0, ror r1
     1a8:	800007ce 	andhi	r0, r0, lr, asr #15
     1ac:	0000006c 	andeq	r0, r0, ip, rrx
     1b0:	87040e41 	strhi	r0, [r4, -r1, asr #28]
     1b4:	200e4101 	andcs	r4, lr, r1, lsl #2
     1b8:	6f070d41 	svcvs	0x00070d41
     1bc:	0d41040e 	cfstrdeq	mvd0, [r1, #-56]	; 0xffffffc8
     1c0:	0ec7420d 	cdpeq	2, 12, cr4, cr7, cr13, {0}
     1c4:	00000000 	andeq	r0, r0, r0
     1c8:	00000020 	andeq	r0, r0, r0, lsr #32
     1cc:	00000170 	andeq	r0, r0, r0, ror r1
     1d0:	8000083a 	andhi	r0, r0, sl, lsr r8
     1d4:	00000032 	andeq	r0, r0, r2, lsr r0
     1d8:	87080e41 	strhi	r0, [r8, -r1, asr #28]
     1dc:	41018e02 	tstmi	r1, r2, lsl #28
     1e0:	0d41180e 	stcleq	8, cr1, [r1, #-56]	; 0xffffffc8
     1e4:	080e5407 	stmdaeq	lr, {r0, r1, r2, sl, ip, lr}
     1e8:	000d0d41 	andeq	r0, sp, r1, asr #26
     1ec:	00000024 	andeq	r0, r0, r4, lsr #32
     1f0:	00000170 	andeq	r0, r0, r0, ror r1
     1f4:	8000086c 	andhi	r0, r0, ip, ror #16
     1f8:	00000022 	andeq	r0, r0, r2, lsr #32
     1fc:	87040e41 	strhi	r0, [r4, -r1, asr #28]
     200:	100e4101 	andne	r4, lr, r1, lsl #2
     204:	4a070d41 	bmi	1c3710 <shift+0x1c3710>
     208:	0d41040e 	cfstrdeq	mvd0, [r1, #-56]	; 0xffffffc8
     20c:	0ec7420d 	cdpeq	2, 12, cr4, cr7, cr13, {0}
     210:	00000000 	andeq	r0, r0, r0
     214:	00000020 	andeq	r0, r0, r0, lsr #32
     218:	00000170 	andeq	r0, r0, r0, ror r1
     21c:	8000088e 	andhi	r0, r0, lr, lsl #17
     220:	00000026 	andeq	r0, r0, r6, lsr #32
     224:	87080e41 	strhi	r0, [r8, -r1, asr #28]
     228:	41018e02 	tstmi	r1, r2, lsl #28
     22c:	0d41100e 	stcleq	0, cr1, [r1, #-56]	; 0xffffffc8
     230:	080e4e07 	stmdaeq	lr, {r0, r1, r2, r9, sl, fp, lr}
     234:	000d0d41 	andeq	r0, sp, r1, asr #26
     238:	00000020 	andeq	r0, r0, r0, lsr #32
     23c:	00000170 	andeq	r0, r0, r0, ror r1
     240:	800008b4 			; <UNDEFINED> instruction: 0x800008b4
     244:	000000d4 	ldrdeq	r0, [r0], -r4
     248:	87080e41 	strhi	r0, [r8, -r1, asr #28]
     24c:	41018e02 	tstmi	r1, r2, lsl #28
     250:	0d41200e 	stcleq	0, cr2, [r1, #-56]	; 0xffffffc8
     254:	0e630207 	cdpeq	2, 6, cr0, cr3, cr7, {0}
     258:	0d0d4108 	stfeqs	f4, [sp, #-32]	; 0xffffffe0
     25c:	0000001c 	andeq	r0, r0, ip, lsl r0
     260:	00000170 	andeq	r0, r0, r0, ror r1
     264:	80000988 	andhi	r0, r0, r8, lsl #19
     268:	00000030 	andeq	r0, r0, r0, lsr r0
     26c:	87040e41 	strhi	r0, [r4, -r1, asr #28]
     270:	070d4101 	streq	r4, [sp, -r1, lsl #2]
     274:	420d0d53 	andmi	r0, sp, #5312	; 0x14c0
     278:	00000ec7 	andeq	r0, r0, r7, asr #29
     27c:	0000000c 	andeq	r0, r0, ip
     280:	ffffffff 			; <UNDEFINED> instruction: 0xffffffff
     284:	7c020001 	stcvc	0, cr0, [r2], {1}
     288:	000d0c0e 	andeq	r0, sp, lr, lsl #24
     28c:	00000024 	andeq	r0, r0, r4, lsr #32
     290:	0000027c 	andeq	r0, r0, ip, ror r2
     294:	800009b8 			; <UNDEFINED> instruction: 0x800009b8
     298:	0000003e 	andeq	r0, r0, lr, lsr r0
     29c:	87040e41 	strhi	r0, [r4, -r1, asr #28]
     2a0:	180e4101 	stmdane	lr, {r0, r8, lr}
     2a4:	58070d41 	stmdapl	r7, {r0, r6, r8, sl, fp}
     2a8:	0d41040e 	cfstrdeq	mvd0, [r1, #-56]	; 0xffffffc8
     2ac:	0ec7420d 	cdpeq	2, 12, cr4, cr7, cr13, {0}
     2b0:	00000000 	andeq	r0, r0, r0
     2b4:	00000024 	andeq	r0, r0, r4, lsr #32
     2b8:	0000027c 	andeq	r0, r0, ip, ror r2
     2bc:	800009f6 	strdhi	r0, [r0], -r6
     2c0:	00000026 	andeq	r0, r0, r6, lsr #32
     2c4:	87040e41 	strhi	r0, [r4, -r1, asr #28]
     2c8:	180e4101 	stmdane	lr, {r0, r8, lr}
     2cc:	4c070d41 	stcmi	13, cr0, [r7], {65}	; 0x41
     2d0:	0d41040e 	cfstrdeq	mvd0, [r1, #-56]	; 0xffffffc8
     2d4:	0ec7420d 	cdpeq	2, 12, cr4, cr7, cr13, {0}
     2d8:	00000000 	andeq	r0, r0, r0
     2dc:	00000020 	andeq	r0, r0, r0, lsr #32
     2e0:	0000027c 	andeq	r0, r0, ip, ror r2
     2e4:	80000a1c 	andhi	r0, r0, ip, lsl sl
     2e8:	00000076 	andeq	r0, r0, r6, ror r0
     2ec:	87080e41 	strhi	r0, [r8, -r1, asr #28]
     2f0:	41018e02 	tstmi	r1, r2, lsl #28
     2f4:	0c41100e 	mcrreq	0, 0, r1, r1, cr14
     2f8:	0d770807 	ldcleq	8, cr0, [r7, #-28]!	; 0xffffffe4
     2fc:	0000000d 	andeq	r0, r0, sp
     300:	00000024 	andeq	r0, r0, r4, lsr #32
     304:	0000027c 	andeq	r0, r0, ip, ror r2
     308:	80000a92 	mulhi	r0, r2, sl
     30c:	00000052 	andeq	r0, r0, r2, asr r0
     310:	87040e41 	strhi	r0, [r4, -r1, asr #28]
     314:	100e4101 	andne	r4, lr, r1, lsl #2
     318:	62070d41 	andvs	r0, r7, #4160	; 0x1040
     31c:	0d41040e 	cfstrdeq	mvd0, [r1, #-56]	; 0xffffffc8
     320:	0ec7420d 	cdpeq	2, 12, cr4, cr7, cr13, {0}
     324:	00000000 	andeq	r0, r0, r0
     328:	0000000c 	andeq	r0, r0, ip
     32c:	ffffffff 			; <UNDEFINED> instruction: 0xffffffff
     330:	7c020001 	stcvc	0, cr0, [r2], {1}
     334:	000d0c0e 	andeq	r0, sp, lr, lsl #24
     338:	00000024 	andeq	r0, r0, r4, lsr #32
     33c:	00000328 	andeq	r0, r0, r8, lsr #6
     340:	80000ae4 	andhi	r0, r0, r4, ror #21
     344:	00000024 	andeq	r0, r0, r4, lsr #32
     348:	87040e41 	strhi	r0, [r4, -r1, asr #28]
     34c:	100e4101 	andne	r4, lr, r1, lsl #2
     350:	4b070d41 	blmi	1c385c <shift+0x1c385c>
     354:	0d41040e 	cfstrdeq	mvd0, [r1, #-56]	; 0xffffffc8
     358:	0ec7420d 	cdpeq	2, 12, cr4, cr7, cr13, {0}
     35c:	00000000 	andeq	r0, r0, r0
     360:	00000024 	andeq	r0, r0, r4, lsr #32
     364:	00000328 	andeq	r0, r0, r8, lsr #6
     368:	80000b08 	andhi	r0, r0, r8, lsl #22
     36c:	00000046 	andeq	r0, r0, r6, asr #32
     370:	87040e41 	strhi	r0, [r4, -r1, asr #28]
     374:	180e4101 	stmdane	lr, {r0, r8, lr}
     378:	5c070d41 	stcpl	13, cr0, [r7], {65}	; 0x41
     37c:	0d41040e 	cfstrdeq	mvd0, [r1, #-56]	; 0xffffffc8
     380:	0ec7420d 	cdpeq	2, 12, cr4, cr7, cr13, {0}
     384:	00000000 	andeq	r0, r0, r0
     388:	00000020 	andeq	r0, r0, r0, lsr #32
     38c:	00000328 	andeq	r0, r0, r8, lsr #6
     390:	80000b4e 	andhi	r0, r0, lr, asr #22
     394:	00000068 	andeq	r0, r0, r8, rrx
     398:	87080e41 	strhi	r0, [r8, -r1, asr #28]
     39c:	41018e02 	tstmi	r1, r2, lsl #28
     3a0:	0d41180e 	stcleq	8, cr1, [r1, #-56]	; 0xffffffc8
     3a4:	080e6f07 	stmdaeq	lr, {r0, r1, r2, r8, r9, sl, fp, sp, lr}
     3a8:	000d0d41 	andeq	r0, sp, r1, asr #26
     3ac:	00000024 	andeq	r0, r0, r4, lsr #32
     3b0:	00000328 	andeq	r0, r0, r8, lsr #6
     3b4:	80000bb6 			; <UNDEFINED> instruction: 0x80000bb6
     3b8:	000000fe 	strdeq	r0, [r0], -lr
     3bc:	87040e41 	strhi	r0, [r4, -r1, asr #28]
     3c0:	200e4101 	andcs	r4, lr, r1, lsl #2
     3c4:	02070d41 	andeq	r0, r7, #4160	; 0x1040
     3c8:	41040e78 	tstmi	r4, r8, ror lr
     3cc:	c7420d0d 	strbgt	r0, [r2, -sp, lsl #26]
     3d0:	0000000e 	andeq	r0, r0, lr
     3d4:	00000024 	andeq	r0, r0, r4, lsr #32
     3d8:	00000328 	andeq	r0, r0, r8, lsr #6
     3dc:	80000cb4 			; <UNDEFINED> instruction: 0x80000cb4
     3e0:	00000028 	andeq	r0, r0, r8, lsr #32
     3e4:	87040e41 	strhi	r0, [r4, -r1, asr #28]
     3e8:	100e4101 	andne	r4, lr, r1, lsl #2
     3ec:	4d070d41 	stcmi	13, cr0, [r7, #-260]	; 0xfffffefc
     3f0:	0d41040e 	cfstrdeq	mvd0, [r1, #-56]	; 0xffffffc8
     3f4:	0ec7420d 	cdpeq	2, 12, cr4, cr7, cr13, {0}
     3f8:	00000000 	andeq	r0, r0, r0
     3fc:	00000024 	andeq	r0, r0, r4, lsr #32
     400:	00000328 	andeq	r0, r0, r8, lsr #6
     404:	80000cdc 	ldrdhi	r0, [r0], -ip
     408:	0000002a 	andeq	r0, r0, sl, lsr #32
     40c:	87040e41 	strhi	r0, [r4, -r1, asr #28]
     410:	100e4101 	andne	r4, lr, r1, lsl #2
     414:	4e070d41 	cdpmi	13, 0, cr0, cr7, cr1, {2}
     418:	0d41040e 	cfstrdeq	mvd0, [r1, #-56]	; 0xffffffc8
     41c:	0ec7420d 	cdpeq	2, 12, cr4, cr7, cr13, {0}
     420:	00000000 	andeq	r0, r0, r0
     424:	00000024 	andeq	r0, r0, r4, lsr #32
     428:	00000328 	andeq	r0, r0, r8, lsr #6
     42c:	80000d06 	andhi	r0, r0, r6, lsl #26
     430:	00000028 	andeq	r0, r0, r8, lsr #32
     434:	87040e41 	strhi	r0, [r4, -r1, asr #28]
     438:	100e4101 	andne	r4, lr, r1, lsl #2
     43c:	4d070d41 	stcmi	13, cr0, [r7, #-260]	; 0xfffffefc
     440:	0d41040e 	cfstrdeq	mvd0, [r1, #-56]	; 0xffffffc8
     444:	0ec7420d 	cdpeq	2, 12, cr4, cr7, cr13, {0}
     448:	00000000 	andeq	r0, r0, r0
     44c:	00000024 	andeq	r0, r0, r4, lsr #32
     450:	00000328 	andeq	r0, r0, r8, lsr #6
     454:	80000d2e 	andhi	r0, r0, lr, lsr #26
     458:	0000002a 	andeq	r0, r0, sl, lsr #32
     45c:	87040e41 	strhi	r0, [r4, -r1, asr #28]
     460:	100e4101 	andne	r4, lr, r1, lsl #2
     464:	4e070d41 	cdpmi	13, 0, cr0, cr7, cr1, {2}
     468:	0d41040e 	cfstrdeq	mvd0, [r1, #-56]	; 0xffffffc8
     46c:	0ec7420d 	cdpeq	2, 12, cr4, cr7, cr13, {0}
     470:	00000000 	andeq	r0, r0, r0
     474:	0000000c 	andeq	r0, r0, ip
     478:	ffffffff 			; <UNDEFINED> instruction: 0xffffffff
     47c:	7c020001 	stcvc	0, cr0, [r2], {1}
     480:	000d0c0e 	andeq	r0, sp, lr, lsl #24
     484:	00000024 	andeq	r0, r0, r4, lsr #32
     488:	00000474 	andeq	r0, r0, r4, ror r4
     48c:	80000d58 	andhi	r0, r0, r8, asr sp
     490:	0000003e 	andeq	r0, r0, lr, lsr r0
     494:	87040e41 	strhi	r0, [r4, -r1, asr #28]
     498:	180e4101 	stmdane	lr, {r0, r8, lr}
     49c:	58070d41 	stmdapl	r7, {r0, r6, r8, sl, fp}
     4a0:	0d41040e 	cfstrdeq	mvd0, [r1, #-56]	; 0xffffffc8
     4a4:	0ec7420d 	cdpeq	2, 12, cr4, cr7, cr13, {0}
     4a8:	00000000 	andeq	r0, r0, r0
     4ac:	00000024 	andeq	r0, r0, r4, lsr #32
     4b0:	00000474 	andeq	r0, r0, r4, ror r4
     4b4:	80000d96 	mulhi	r0, r6, sp
     4b8:	00000026 	andeq	r0, r0, r6, lsr #32
     4bc:	87040e41 	strhi	r0, [r4, -r1, asr #28]
     4c0:	180e4101 	stmdane	lr, {r0, r8, lr}
     4c4:	4c070d41 	stcmi	13, cr0, [r7], {65}	; 0x41
     4c8:	0d41040e 	cfstrdeq	mvd0, [r1, #-56]	; 0xffffffc8
     4cc:	0ec7420d 	cdpeq	2, 12, cr4, cr7, cr13, {0}
     4d0:	00000000 	andeq	r0, r0, r0
     4d4:	00000020 	andeq	r0, r0, r0, lsr #32
     4d8:	00000474 	andeq	r0, r0, r4, ror r4
     4dc:	80000dbc 			; <UNDEFINED> instruction: 0x80000dbc
     4e0:	00000066 	andeq	r0, r0, r6, rrx
     4e4:	87080e41 	strhi	r0, [r8, -r1, asr #28]
     4e8:	41018e02 	tstmi	r1, r2, lsl #28
     4ec:	0c41200e 	mcrreq	0, 0, r2, r1, cr14
     4f0:	0e6e1807 	cdpeq	8, 6, cr1, cr14, cr7, {0}
     4f4:	0d0d4108 	stfeqs	f4, [sp, #-32]	; 0xffffffe0
     4f8:	00000020 	andeq	r0, r0, r0, lsr #32
     4fc:	00000474 	andeq	r0, r0, r4, ror r4
     500:	80000e22 	andhi	r0, r0, r2, lsr #28
     504:	00000086 	andeq	r0, r0, r6, lsl #1
     508:	87080e41 	strhi	r0, [r8, -r1, asr #28]
     50c:	41018e02 	tstmi	r1, r2, lsl #28
     510:	0d41100e 	stcleq	0, cr1, [r1, #-56]	; 0xffffffc8
     514:	080e7807 	stmdaeq	lr, {r0, r1, r2, fp, ip, sp, lr}
     518:	000d0d41 	andeq	r0, sp, r1, asr #26
     51c:	0000000c 	andeq	r0, r0, ip
     520:	ffffffff 			; <UNDEFINED> instruction: 0xffffffff
     524:	7c020001 	stcvc	0, cr0, [r2], {1}
     528:	000d0c0e 	andeq	r0, sp, lr, lsl #24
     52c:	00000020 	andeq	r0, r0, r0, lsr #32
     530:	0000051c 	andeq	r0, r0, ip, lsl r5
     534:	80000ea8 	andhi	r0, r0, r8, lsr #29
     538:	00000096 	muleq	r0, r6, r0
     53c:	87080e41 	strhi	r0, [r8, -r1, asr #28]
     540:	41018e02 	tstmi	r1, r2, lsl #28
     544:	0d41200e 	stcleq	0, cr2, [r1, #-56]	; 0xffffffc8
     548:	0e460207 	cdpeq	2, 4, cr0, cr6, cr7, {0}
     54c:	0d0d4108 	stfeqs	f4, [sp, #-32]	; 0xffffffe0
     550:	00000020 	andeq	r0, r0, r0, lsr #32
     554:	0000051c 	andeq	r0, r0, ip, lsl r5
     558:	80000f3e 	andhi	r0, r0, lr, lsr pc
     55c:	00000046 	andeq	r0, r0, r6, asr #32
     560:	87080e41 	strhi	r0, [r8, -r1, asr #28]
     564:	41018e02 	tstmi	r1, r2, lsl #28
     568:	0d41100e 	stcleq	0, cr1, [r1, #-56]	; 0xffffffc8
     56c:	080e5907 	stmdaeq	lr, {r0, r1, r2, r8, fp, ip, lr}
     570:	000d0d41 	andeq	r0, sp, r1, asr #26
     574:	00000024 	andeq	r0, r0, r4, lsr #32
     578:	0000051c 	andeq	r0, r0, ip, lsl r5
     57c:	80000f84 	andhi	r0, r0, r4, lsl #31
     580:	0000003c 	andeq	r0, r0, ip, lsr r0
     584:	87040e41 	strhi	r0, [r4, -r1, asr #28]
     588:	180e4101 	stmdane	lr, {r0, r8, lr}
     58c:	52070d41 	andpl	r0, r7, #4160	; 0x1040
     590:	0d41040e 	cfstrdeq	mvd0, [r1, #-56]	; 0xffffffc8
     594:	0ec7420d 	cdpeq	2, 12, cr4, cr7, cr13, {0}
     598:	00000000 	andeq	r0, r0, r0
     59c:	00000020 	andeq	r0, r0, r0, lsr #32
     5a0:	0000051c 	andeq	r0, r0, ip, lsl r5
     5a4:	80000fc0 	andhi	r0, r0, r0, asr #31
     5a8:	00000080 	andeq	r0, r0, r0, lsl #1
     5ac:	87080e41 	strhi	r0, [r8, -r1, asr #28]
     5b0:	41018e02 	tstmi	r1, r2, lsl #28
     5b4:	0d41180e 	stcleq	8, cr1, [r1, #-56]	; 0xffffffc8
     5b8:	080e6d07 	stmdaeq	lr, {r0, r1, r2, r8, sl, fp, sp, lr}
     5bc:	000d0d41 	andeq	r0, sp, r1, asr #26
     5c0:	00000020 	andeq	r0, r0, r0, lsr #32
     5c4:	0000051c 	andeq	r0, r0, ip, lsl r5
     5c8:	80001040 	andhi	r1, r0, r0, asr #32
     5cc:	00000020 	andeq	r0, r0, r0, lsr #32
     5d0:	87080e41 	strhi	r0, [r8, -r1, asr #28]
     5d4:	41018e02 	tstmi	r1, r2, lsl #28
     5d8:	0d41100e 	stcleq	0, cr1, [r1, #-56]	; 0xffffffc8
     5dc:	080e4907 	stmdaeq	lr, {r0, r1, r2, r8, fp, lr}
     5e0:	000d0d41 	andeq	r0, sp, r1, asr #26
     5e4:	0000000c 	andeq	r0, r0, ip
     5e8:	ffffffff 			; <UNDEFINED> instruction: 0xffffffff
     5ec:	7c020001 	stcvc	0, cr0, [r2], {1}
     5f0:	000d0c0e 	andeq	r0, sp, lr, lsl #24
     5f4:	00000024 	andeq	r0, r0, r4, lsr #32
     5f8:	000005e4 	andeq	r0, r0, r4, ror #11
     5fc:	80001060 	andhi	r1, r0, r0, rrx
     600:	0000003e 	andeq	r0, r0, lr, lsr r0
     604:	87040e41 	strhi	r0, [r4, -r1, asr #28]
     608:	180e4101 	stmdane	lr, {r0, r8, lr}
     60c:	58070d41 	stmdapl	r7, {r0, r6, r8, sl, fp}
     610:	0d41040e 	cfstrdeq	mvd0, [r1, #-56]	; 0xffffffc8
     614:	0ec7420d 	cdpeq	2, 12, cr4, cr7, cr13, {0}
     618:	00000000 	andeq	r0, r0, r0
     61c:	00000024 	andeq	r0, r0, r4, lsr #32
     620:	000005e4 	andeq	r0, r0, r4, ror #11
     624:	8000109e 	mulhi	r0, lr, r0
     628:	00000026 	andeq	r0, r0, r6, lsr #32
     62c:	87040e41 	strhi	r0, [r4, -r1, asr #28]
     630:	180e4101 	stmdane	lr, {r0, r8, lr}
     634:	4c070d41 	stcmi	13, cr0, [r7], {65}	; 0x41
     638:	0d41040e 	cfstrdeq	mvd0, [r1, #-56]	; 0xffffffc8
     63c:	0ec7420d 	cdpeq	2, 12, cr4, cr7, cr13, {0}
     640:	00000000 	andeq	r0, r0, r0
     644:	00000024 	andeq	r0, r0, r4, lsr #32
     648:	000005e4 	andeq	r0, r0, r4, ror #11
     64c:	800010c4 	andhi	r1, r0, r4, asr #1
     650:	000000b8 	strheq	r0, [r0], -r8
     654:	87080e41 	strhi	r0, [r8, -r1, asr #28]
     658:	41018e02 	tstmi	r1, r2, lsl #28
     65c:	0c41280e 	mcrreq	8, 0, r2, r1, cr14
     660:	55022007 	strpl	r2, [r2, #-7]
     664:	0d41080e 	stcleq	8, cr0, [r1, #-56]	; 0xffffffc8
     668:	0000000d 	andeq	r0, r0, sp
     66c:	00000018 	andeq	r0, r0, r8, lsl r0
     670:	000005e4 	andeq	r0, r0, r4, ror #11
     674:	8000117c 	andhi	r1, r0, ip, ror r1
     678:	00000016 	andeq	r0, r0, r6, lsl r0
     67c:	87080e41 	strhi	r0, [r8, -r1, asr #28]
     680:	41018e02 	tstmi	r1, r2, lsl #28
     684:	0000070d 	andeq	r0, r0, sp, lsl #14
     688:	0000000c 	andeq	r0, r0, ip
     68c:	ffffffff 			; <UNDEFINED> instruction: 0xffffffff
     690:	7c020001 	stcvc	0, cr0, [r2], {1}
     694:	000d0c0e 	andeq	r0, sp, lr, lsl #24
     698:	00000020 	andeq	r0, r0, r0, lsr #32
     69c:	00000688 	andeq	r0, r0, r8, lsl #13
     6a0:	80001194 	mulhi	r0, r4, r1
     6a4:	000000d8 	ldrdeq	r0, [r0], -r8
     6a8:	87080e41 	strhi	r0, [r8, -r1, asr #28]
     6ac:	41018e02 	tstmi	r1, r2, lsl #28
     6b0:	0d41300e 	stcleq	0, cr3, [r1, #-56]	; 0xffffffc8
     6b4:	0e640207 	cdpeq	2, 6, cr0, cr4, cr7, {0}
     6b8:	0d0d4108 	stfeqs	f4, [sp, #-32]	; 0xffffffe0
     6bc:	00000018 	andeq	r0, r0, r8, lsl r0
     6c0:	00000688 	andeq	r0, r0, r8, lsl #13
     6c4:	8000126c 	andhi	r1, r0, ip, ror #4
     6c8:	00000022 	andeq	r0, r0, r2, lsr #32
     6cc:	87080e41 	strhi	r0, [r8, -r1, asr #28]
     6d0:	41018e02 	tstmi	r1, r2, lsl #28
     6d4:	0000070d 	andeq	r0, r0, sp, lsl #14
     6d8:	0000000c 	andeq	r0, r0, ip
     6dc:	ffffffff 			; <UNDEFINED> instruction: 0xffffffff
     6e0:	7c020001 	stcvc	0, cr0, [r2], {1}
     6e4:	000d0c0e 	andeq	r0, sp, lr, lsl #24
     6e8:	00000024 	andeq	r0, r0, r4, lsr #32
     6ec:	000006d8 	ldrdeq	r0, [r0], -r8
     6f0:	80001290 	mulhi	r0, r0, r2
     6f4:	0000003e 	andeq	r0, r0, lr, lsr r0
     6f8:	87040e41 	strhi	r0, [r4, -r1, asr #28]
     6fc:	180e4101 	stmdane	lr, {r0, r8, lr}
     700:	58070d41 	stmdapl	r7, {r0, r6, r8, sl, fp}
     704:	0d41040e 	cfstrdeq	mvd0, [r1, #-56]	; 0xffffffc8
     708:	0ec7420d 	cdpeq	2, 12, cr4, cr7, cr13, {0}
     70c:	00000000 	andeq	r0, r0, r0
     710:	00000024 	andeq	r0, r0, r4, lsr #32
     714:	000006d8 	ldrdeq	r0, [r0], -r8
     718:	800012ce 	andhi	r1, r0, lr, asr #5
     71c:	00000026 	andeq	r0, r0, r6, lsr #32
     720:	87040e41 	strhi	r0, [r4, -r1, asr #28]
     724:	180e4101 	stmdane	lr, {r0, r8, lr}
     728:	4c070d41 	stcmi	13, cr0, [r7], {65}	; 0x41
     72c:	0d41040e 	cfstrdeq	mvd0, [r1, #-56]	; 0xffffffc8
     730:	0ec7420d 	cdpeq	2, 12, cr4, cr7, cr13, {0}
     734:	00000000 	andeq	r0, r0, r0
     738:	00000018 	andeq	r0, r0, r8, lsl r0
     73c:	000006d8 	ldrdeq	r0, [r0], -r8
     740:	800012f4 	strdhi	r1, [r0], -r4
     744:	000000a6 	andeq	r0, r0, r6, lsr #1
     748:	87080e41 	strhi	r0, [r8, -r1, asr #28]
     74c:	41018e02 	tstmi	r1, r2, lsl #28
     750:	0000070d 	andeq	r0, r0, sp, lsl #14
     754:	00000020 	andeq	r0, r0, r0, lsr #32
     758:	000006d8 	ldrdeq	r0, [r0], -r8
     75c:	8000139a 	mulhi	r0, sl, r3
     760:	00000094 	muleq	r0, r4, r0
     764:	87080e41 	strhi	r0, [r8, -r1, asr #28]
     768:	41018e02 	tstmi	r1, r2, lsl #28
     76c:	0c41100e 	mcrreq	0, 0, r1, r1, cr14
     770:	46020807 	strmi	r0, [r2], -r7, lsl #16
     774:	00000d0d 	andeq	r0, r0, sp, lsl #26
     778:	00000030 	andeq	r0, r0, r0, lsr r0
     77c:	000006d8 	ldrdeq	r0, [r0], -r8
     780:	8000142e 	andhi	r1, r0, lr, lsr #8
     784:	00000368 	andeq	r0, r0, r8, ror #6
     788:	84200e42 	strthi	r0, [r0], #-3650	; 0xfffff1be
     78c:	87078508 	strhi	r8, [r7, -r8, lsl #10]
     790:	89058806 	stmdbhi	r5, {r1, r2, fp, pc}
     794:	8b038a04 	blhi	e2fac <shift+0xe2fac>
     798:	41018e02 	tstmi	r1, r2, lsl #28
     79c:	4101b00e 	tstmi	r1, lr
     7a0:	ad03070d 	stcge	7, cr0, [r3, #-52]	; 0xffffffcc
     7a4:	41200e01 			; <UNDEFINED> instruction: 0x41200e01
     7a8:	00000d0d 	andeq	r0, r0, sp, lsl #26
     7ac:	00000024 	andeq	r0, r0, r4, lsr #32
     7b0:	000006d8 	ldrdeq	r0, [r0], -r8
     7b4:	80001796 	mulhi	r0, r6, r7
     7b8:	00000024 	andeq	r0, r0, r4, lsr #32
     7bc:	87040e41 	strhi	r0, [r4, -r1, asr #28]
     7c0:	100e4101 	andne	r4, lr, r1, lsl #2
     7c4:	4b070d41 	blmi	1c3cd0 <shift+0x1c3cd0>
     7c8:	0d41040e 	cfstrdeq	mvd0, [r1, #-56]	; 0xffffffc8
     7cc:	0ec7420d 	cdpeq	2, 12, cr4, cr7, cr13, {0}
     7d0:	00000000 	andeq	r0, r0, r0
     7d4:	00000024 	andeq	r0, r0, r4, lsr #32
     7d8:	000006d8 	ldrdeq	r0, [r0], -r8
     7dc:	800017ba 			; <UNDEFINED> instruction: 0x800017ba
     7e0:	00000024 	andeq	r0, r0, r4, lsr #32
     7e4:	87040e41 	strhi	r0, [r4, -r1, asr #28]
     7e8:	100e4101 	andne	r4, lr, r1, lsl #2
     7ec:	4b070d41 	blmi	1c3cf8 <shift+0x1c3cf8>
     7f0:	0d41040e 	cfstrdeq	mvd0, [r1, #-56]	; 0xffffffc8
     7f4:	0ec7420d 	cdpeq	2, 12, cr4, cr7, cr13, {0}
     7f8:	00000000 	andeq	r0, r0, r0
     7fc:	00000024 	andeq	r0, r0, r4, lsr #32
     800:	000006d8 	ldrdeq	r0, [r0], -r8
     804:	800017de 	ldrdhi	r1, [r0], -lr
     808:	00000036 	andeq	r0, r0, r6, lsr r0
     80c:	87040e41 	strhi	r0, [r4, -r1, asr #28]
     810:	100e4101 	andne	r4, lr, r1, lsl #2
     814:	54070d41 	strpl	r0, [r7], #-3393	; 0xfffff2bf
     818:	0d41040e 	cfstrdeq	mvd0, [r1, #-56]	; 0xffffffc8
     81c:	0ec7420d 	cdpeq	2, 12, cr4, cr7, cr13, {0}
     820:	00000000 	andeq	r0, r0, r0
     824:	00000024 	andeq	r0, r0, r4, lsr #32
     828:	000006d8 	ldrdeq	r0, [r0], -r8
     82c:	80001814 	andhi	r1, r0, r4, lsl r8
     830:	00000034 	andeq	r0, r0, r4, lsr r0
     834:	87040e41 	strhi	r0, [r4, -r1, asr #28]
     838:	100e4101 	andne	r4, lr, r1, lsl #2
     83c:	53070d41 	movwpl	r0, #32065	; 0x7d41
     840:	0d41040e 	cfstrdeq	mvd0, [r1, #-56]	; 0xffffffc8
     844:	0ec7420d 	cdpeq	2, 12, cr4, cr7, cr13, {0}
     848:	00000000 	andeq	r0, r0, r0
     84c:	00000020 	andeq	r0, r0, r0, lsr #32
     850:	000006d8 	ldrdeq	r0, [r0], -r8
     854:	80001848 	andhi	r1, r0, r8, asr #16
     858:	0000002e 	andeq	r0, r0, lr, lsr #32
     85c:	87080e41 	strhi	r0, [r8, -r1, asr #28]
     860:	41018e02 	tstmi	r1, r2, lsl #28
     864:	0d41180e 	stcleq	8, cr1, [r1, #-56]	; 0xffffffc8
     868:	080e5207 	stmdaeq	lr, {r0, r1, r2, r9, ip, lr}
     86c:	000d0d41 	andeq	r0, sp, r1, asr #26
     870:	0000001c 	andeq	r0, r0, ip, lsl r0
     874:	000006d8 	ldrdeq	r0, [r0], -r8
     878:	80001876 	andhi	r1, r0, r6, ror r8
     87c:	0000002c 	andeq	r0, r0, ip, lsr #32
     880:	87040e41 	strhi	r0, [r4, -r1, asr #28]
     884:	070d4101 	streq	r4, [sp, -r1, lsl #2]
     888:	420d0d51 	andmi	r0, sp, #5184	; 0x1440
     88c:	00000ec7 	andeq	r0, r0, r7, asr #29
     890:	00000024 	andeq	r0, r0, r4, lsr #32
     894:	000006d8 	ldrdeq	r0, [r0], -r8
     898:	800018a2 	andhi	r1, r0, r2, lsr #17
     89c:	00000014 	andeq	r0, r0, r4, lsl r0
     8a0:	87040e41 	strhi	r0, [r4, -r1, asr #28]
     8a4:	100e4101 	andne	r4, lr, r1, lsl #2
     8a8:	43070d41 	movwmi	r0, #32065	; 0x7d41
     8ac:	0d41040e 	cfstrdeq	mvd0, [r1, #-56]	; 0xffffffc8
     8b0:	0ec7420d 	cdpeq	2, 12, cr4, cr7, cr13, {0}
     8b4:	00000000 	andeq	r0, r0, r0
     8b8:	0000000c 	andeq	r0, r0, ip
     8bc:	ffffffff 			; <UNDEFINED> instruction: 0xffffffff
     8c0:	7c020001 	stcvc	0, cr0, [r2], {1}
     8c4:	000d0c0e 	andeq	r0, sp, lr, lsl #24
     8c8:	0000002c 	andeq	r0, r0, ip, lsr #32
     8cc:	000008b8 			; <UNDEFINED> instruction: 0x000008b8
     8d0:	800018b8 			; <UNDEFINED> instruction: 0x800018b8
     8d4:	0000017a 	andeq	r0, r0, sl, ror r1
     8d8:	84200e42 	strthi	r0, [r0], #-3650	; 0xfffff1be
     8dc:	87078508 	strhi	r8, [r7, -r8, lsl #10]
     8e0:	89058806 	stmdbhi	r5, {r1, r2, fp, pc}
     8e4:	8b038a04 	blhi	e30fc <shift+0xe30fc>
     8e8:	41018e02 	tstmi	r1, r2, lsl #28
     8ec:	0d41780e 	stcleq	8, cr7, [r1, #-56]	; 0xffffffc8
     8f0:	0eb60207 	cdpeq	2, 11, cr0, cr6, cr7, {0}
     8f4:	0d0d4120 	stfeqs	f4, [sp, #-128]	; 0xffffff80
     8f8:	0000000c 	andeq	r0, r0, ip
     8fc:	ffffffff 			; <UNDEFINED> instruction: 0xffffffff
     900:	7c020001 	stcvc	0, cr0, [r2], {1}
     904:	000d0c0e 	andeq	r0, sp, lr, lsl #24
     908:	00000024 	andeq	r0, r0, r4, lsr #32
     90c:	000008f8 	strdeq	r0, [r0], -r8
     910:	80001a32 	andhi	r1, r0, r2, lsr sl
     914:	0000008a 	andeq	r0, r0, sl, lsl #1
     918:	84080e41 	strhi	r0, [r8], #-3649	; 0xfffff1bf
     91c:	41018702 	tstmi	r1, r2, lsl #14
     920:	0d41380e 	stcleq	8, cr3, [r1, #-56]	; 0xffffffc8
     924:	080e7f07 	stmdaeq	lr, {r0, r1, r2, r8, r9, sl, fp, ip, sp, lr}
     928:	410d0d41 	tstmi	sp, r1, asr #26
     92c:	000ec4c7 	andeq	ip, lr, r7, asr #9
     930:	0000000c 	andeq	r0, r0, ip
     934:	ffffffff 			; <UNDEFINED> instruction: 0xffffffff
     938:	7c020001 	stcvc	0, cr0, [r2], {1}
     93c:	000d0c0e 	andeq	r0, sp, lr, lsl #24
     940:	00000038 	andeq	r0, r0, r8, lsr r0
     944:	00000930 	andeq	r0, r0, r0, lsr r9
     948:	80001abc 			; <UNDEFINED> instruction: 0x80001abc
     94c:	0000006c 	andeq	r0, r0, ip, rrx
     950:	80100e41 	andshi	r0, r0, r1, asr #28
     954:	82038104 	andhi	r8, r3, #4, 2
     958:	41018302 	tstmi	r1, r2, lsl #6
     95c:	0687180e 	streq	r1, [r7], lr, lsl #16
     960:	0e41058e 	cdpeq	5, 4, cr0, cr1, cr14, {4}
     964:	070d4128 	streq	r4, [sp, -r8, lsr #2]
     968:	41180e66 	tstmi	r8, r6, ror #28
     96c:	ce420d0d 	cdpgt	13, 4, cr0, cr2, cr13, {0}
     970:	41100ec7 	tstmi	r0, r7, asr #29
     974:	c0c1c2c3 	sbcgt	ip, r1, r3, asr #5
     978:	0000000e 	andeq	r0, r0, lr
     97c:	00000038 	andeq	r0, r0, r8, lsr r0
     980:	00000930 	andeq	r0, r0, r0, lsr r9
     984:	80001b28 	andhi	r1, r0, r8, lsr #22
     988:	0000007c 	andeq	r0, r0, ip, ror r0
     98c:	80100e41 	andshi	r0, r0, r1, asr #28
     990:	82038104 	andhi	r8, r3, #4, 2
     994:	41018302 	tstmi	r1, r2, lsl #6
     998:	0687180e 	streq	r1, [r7], lr, lsl #16
     99c:	0e41058e 	cdpeq	5, 4, cr0, cr1, cr14, {4}
     9a0:	070d4128 	streq	r4, [sp, -r8, lsr #2]
     9a4:	41180e6e 	tstmi	r8, lr, ror #28
     9a8:	ce420d0d 	cdpgt	13, 4, cr0, cr2, cr13, {0}
     9ac:	41100ec7 	tstmi	r0, r7, asr #29
     9b0:	c0c1c2c3 	sbcgt	ip, r1, r3, asr #5
     9b4:	0000000e 	andeq	r0, r0, lr
     9b8:	0000000c 	andeq	r0, r0, ip
     9bc:	ffffffff 			; <UNDEFINED> instruction: 0xffffffff
     9c0:	7c020001 	stcvc	0, cr0, [r2], {1}
     9c4:	000d0c0e 	andeq	r0, sp, lr, lsl #24
     9c8:	00000024 	andeq	r0, r0, r4, lsr #32
     9cc:	000009b8 			; <UNDEFINED> instruction: 0x000009b8
     9d0:	80001ba4 	andhi	r1, r0, r4, lsr #23
     9d4:	0000003c 	andeq	r0, r0, ip, lsr r0
     9d8:	87040e41 	strhi	r0, [r4, -r1, asr #28]
     9dc:	100e4101 	andne	r4, lr, r1, lsl #2
     9e0:	52070d41 	andpl	r0, r7, #4160	; 0x1040
     9e4:	0d41040e 	cfstrdeq	mvd0, [r1, #-56]	; 0xffffffc8
     9e8:	0ec7420d 	cdpeq	2, 12, cr4, cr7, cr13, {0}
     9ec:	00000000 	andeq	r0, r0, r0
     9f0:	00000020 	andeq	r0, r0, r0, lsr #32
     9f4:	000009b8 			; <UNDEFINED> instruction: 0x000009b8
     9f8:	80001be0 	andhi	r1, r0, r0, ror #23
     9fc:	00000090 	muleq	r0, r0, r0
     a00:	87080e41 	strhi	r0, [r8, -r1, asr #28]
     a04:	41018e02 	tstmi	r1, r2, lsl #28
     a08:	0d41200e 	stcleq	0, cr2, [r1, #-56]	; 0xffffffc8
     a0c:	0e430207 	cdpeq	2, 4, cr0, cr3, cr7, {0}
     a10:	0d0d4108 	stfeqs	f4, [sp, #-32]	; 0xffffffe0
     a14:	00000024 	andeq	r0, r0, r4, lsr #32
     a18:	000009b8 			; <UNDEFINED> instruction: 0x000009b8
     a1c:	80001c70 	andhi	r1, r0, r0, ror ip
     a20:	00000034 	andeq	r0, r0, r4, lsr r0
     a24:	87040e41 	strhi	r0, [r4, -r1, asr #28]
     a28:	180e4101 	stmdane	lr, {r0, r8, lr}
     a2c:	53070d41 	movwpl	r0, #32065	; 0x7d41
     a30:	0d41040e 	cfstrdeq	mvd0, [r1, #-56]	; 0xffffffc8
     a34:	0ec7420d 	cdpeq	2, 12, cr4, cr7, cr13, {0}
     a38:	00000000 	andeq	r0, r0, r0
     a3c:	00000024 	andeq	r0, r0, r4, lsr #32
     a40:	000009b8 			; <UNDEFINED> instruction: 0x000009b8
     a44:	80001ca4 	andhi	r1, r0, r4, lsr #25
     a48:	00000040 	andeq	r0, r0, r0, asr #32
     a4c:	87040e41 	strhi	r0, [r4, -r1, asr #28]
     a50:	200e4101 	andcs	r4, lr, r1, lsl #2
     a54:	59070d41 	stmdbpl	r7, {r0, r6, r8, sl, fp}
     a58:	0d41040e 	cfstrdeq	mvd0, [r1, #-56]	; 0xffffffc8
     a5c:	0ec7420d 	cdpeq	2, 12, cr4, cr7, cr13, {0}
     a60:	00000000 	andeq	r0, r0, r0
     a64:	00000024 	andeq	r0, r0, r4, lsr #32
     a68:	000009b8 			; <UNDEFINED> instruction: 0x000009b8
     a6c:	80001ce4 	andhi	r1, r0, r4, ror #25
     a70:	00000044 	andeq	r0, r0, r4, asr #32
     a74:	87040e41 	strhi	r0, [r4, -r1, asr #28]
     a78:	180e4101 	stmdane	lr, {r0, r8, lr}
     a7c:	5b070d41 	blpl	1c3f88 <shift+0x1c3f88>
     a80:	0d41040e 	cfstrdeq	mvd0, [r1, #-56]	; 0xffffffc8
     a84:	0ec7420d 	cdpeq	2, 12, cr4, cr7, cr13, {0}
     a88:	00000000 	andeq	r0, r0, r0
     a8c:	00000024 	andeq	r0, r0, r4, lsr #32
     a90:	000009b8 			; <UNDEFINED> instruction: 0x000009b8
     a94:	80001d28 	andhi	r1, r0, r8, lsr #26
     a98:	00000060 	andeq	r0, r0, r0, rrx
     a9c:	87040e41 	strhi	r0, [r4, -r1, asr #28]
     aa0:	200e4101 	andcs	r4, lr, r1, lsl #2
     aa4:	69070d41 	stmdbvs	r7, {r0, r6, r8, sl, fp}
     aa8:	0d41040e 	cfstrdeq	mvd0, [r1, #-56]	; 0xffffffc8
     aac:	0ec7420d 	cdpeq	2, 12, cr4, cr7, cr13, {0}
     ab0:	00000000 	andeq	r0, r0, r0
     ab4:	00000024 	andeq	r0, r0, r4, lsr #32
     ab8:	000009b8 			; <UNDEFINED> instruction: 0x000009b8
     abc:	80001d88 	andhi	r1, r0, r8, lsl #27
     ac0:	0000003a 	andeq	r0, r0, sl, lsr r0
     ac4:	84080e41 	strhi	r0, [r8], #-3649	; 0xfffff1bf
     ac8:	41018702 	tstmi	r1, r2, lsl #14
     acc:	0d41100e 	stcleq	0, cr1, [r1, #-56]	; 0xffffffc8
     ad0:	080e5707 	stmdaeq	lr, {r0, r1, r2, r8, r9, sl, ip, lr}
     ad4:	410d0d41 	tstmi	sp, r1, asr #26
     ad8:	000ec4c7 	andeq	ip, lr, r7, asr #9
     adc:	00000024 	andeq	r0, r0, r4, lsr #32
     ae0:	000009b8 			; <UNDEFINED> instruction: 0x000009b8
     ae4:	80001dc2 	andhi	r1, r0, r2, asr #27
     ae8:	0000004a 	andeq	r0, r0, sl, asr #32
     aec:	84080e41 	strhi	r0, [r8], #-3649	; 0xfffff1bf
     af0:	41018702 	tstmi	r1, r2, lsl #14
     af4:	0d41180e 	stcleq	8, cr1, [r1, #-56]	; 0xffffffc8
     af8:	080e5f07 	stmdaeq	lr, {r0, r1, r2, r8, r9, sl, fp, ip, lr}
     afc:	410d0d41 	tstmi	sp, r1, asr #26
     b00:	000ec4c7 	andeq	ip, lr, r7, asr #9
     b04:	00000024 	andeq	r0, r0, r4, lsr #32
     b08:	000009b8 			; <UNDEFINED> instruction: 0x000009b8
     b0c:	80001e0c 	andhi	r1, r0, ip, lsl #28
     b10:	00000038 	andeq	r0, r0, r8, lsr r0
     b14:	87040e41 	strhi	r0, [r4, -r1, asr #28]
     b18:	100e4101 	andne	r4, lr, r1, lsl #2
     b1c:	55070d41 	strpl	r0, [r7, #-3393]	; 0xfffff2bf
     b20:	0d41040e 	cfstrdeq	mvd0, [r1, #-56]	; 0xffffffc8
     b24:	0ec7420d 	cdpeq	2, 12, cr4, cr7, cr13, {0}
     b28:	00000000 	andeq	r0, r0, r0
     b2c:	00000020 	andeq	r0, r0, r0, lsr #32
     b30:	000009b8 			; <UNDEFINED> instruction: 0x000009b8
     b34:	80001e44 	andhi	r1, r0, r4, asr #28
     b38:	00000040 	andeq	r0, r0, r0, asr #32
     b3c:	87080e41 	strhi	r0, [r8, -r1, asr #28]
     b40:	41018e02 	tstmi	r1, r2, lsl #28
     b44:	0d41180e 	stcleq	8, cr1, [r1, #-56]	; 0xffffffc8
     b48:	080e5b07 	stmdaeq	lr, {r0, r1, r2, r8, r9, fp, ip, lr}
     b4c:	000d0d41 	andeq	r0, sp, r1, asr #26
     b50:	00000024 	andeq	r0, r0, r4, lsr #32
     b54:	000009b8 			; <UNDEFINED> instruction: 0x000009b8
     b58:	80001e84 	andhi	r1, r0, r4, lsl #29
     b5c:	0000002e 	andeq	r0, r0, lr, lsr #32
     b60:	87040e41 	strhi	r0, [r4, -r1, asr #28]
     b64:	180e4101 	stmdane	lr, {r0, r8, lr}
     b68:	50070d41 	andpl	r0, r7, r1, asr #26
     b6c:	0d41040e 	cfstrdeq	mvd0, [r1, #-56]	; 0xffffffc8
     b70:	0ec7420d 	cdpeq	2, 12, cr4, cr7, cr13, {0}
     b74:	00000000 	andeq	r0, r0, r0
     b78:	00000024 	andeq	r0, r0, r4, lsr #32
     b7c:	000009b8 			; <UNDEFINED> instruction: 0x000009b8
     b80:	80001eb2 			; <UNDEFINED> instruction: 0x80001eb2
     b84:	0000003a 	andeq	r0, r0, sl, lsr r0
     b88:	87040e41 	strhi	r0, [r4, -r1, asr #28]
     b8c:	180e4101 	stmdane	lr, {r0, r8, lr}
     b90:	56070d41 	strpl	r0, [r7], -r1, asr #26
     b94:	0d41040e 	cfstrdeq	mvd0, [r1, #-56]	; 0xffffffc8
     b98:	0ec7420d 	cdpeq	2, 12, cr4, cr7, cr13, {0}
     b9c:	00000000 	andeq	r0, r0, r0
     ba0:	00000024 	andeq	r0, r0, r4, lsr #32
     ba4:	000009b8 			; <UNDEFINED> instruction: 0x000009b8
     ba8:	80001eec 	andhi	r1, r0, ip, ror #29
     bac:	00000066 	andeq	r0, r0, r6, rrx
     bb0:	87040e41 	strhi	r0, [r4, -r1, asr #28]
     bb4:	200e4101 	andcs	r4, lr, r1, lsl #2
     bb8:	6c070d41 	stcvs	13, cr0, [r7], {65}	; 0x41
     bbc:	0d41040e 	cfstrdeq	mvd0, [r1, #-56]	; 0xffffffc8
     bc0:	0ec7420d 	cdpeq	2, 12, cr4, cr7, cr13, {0}
     bc4:	00000000 	andeq	r0, r0, r0
     bc8:	00000024 	andeq	r0, r0, r4, lsr #32
     bcc:	000009b8 			; <UNDEFINED> instruction: 0x000009b8
     bd0:	80001f52 	andhi	r1, r0, r2, asr pc
     bd4:	00000050 	andeq	r0, r0, r0, asr r0
     bd8:	87040e41 	strhi	r0, [r4, -r1, asr #28]
     bdc:	180e4101 	stmdane	lr, {r0, r8, lr}
     be0:	61070d41 	tstvs	r7, r1, asr #26
     be4:	0d41040e 	cfstrdeq	mvd0, [r1, #-56]	; 0xffffffc8
     be8:	0ec7420d 	cdpeq	2, 12, cr4, cr7, cr13, {0}
     bec:	00000000 	andeq	r0, r0, r0
     bf0:	00000020 	andeq	r0, r0, r0, lsr #32
     bf4:	000009b8 			; <UNDEFINED> instruction: 0x000009b8
     bf8:	80001fa2 	andhi	r1, r0, r2, lsr #31
     bfc:	0000008a 	andeq	r0, r0, sl, lsl #1
     c00:	87080e41 	strhi	r0, [r8, -r1, asr #28]
     c04:	41018e02 	tstmi	r1, r2, lsl #28
     c08:	0d41180e 	stcleq	8, cr1, [r1, #-56]	; 0xffffffc8
     c0c:	080e7a07 	stmdaeq	lr, {r0, r1, r2, r9, fp, ip, sp, lr}
     c10:	000d0d41 	andeq	r0, sp, r1, asr #26
     c14:	00000020 	andeq	r0, r0, r0, lsr #32
     c18:	000009b8 			; <UNDEFINED> instruction: 0x000009b8
     c1c:	8000202c 	andhi	r2, r0, ip, lsr #32
     c20:	00000044 	andeq	r0, r0, r4, asr #32
     c24:	87080e41 	strhi	r0, [r8, -r1, asr #28]
     c28:	41018e02 	tstmi	r1, r2, lsl #28
     c2c:	0d41180e 	stcleq	8, cr1, [r1, #-56]	; 0xffffffc8
     c30:	080e5d07 	stmdaeq	lr, {r0, r1, r2, r8, sl, fp, ip, lr}
     c34:	000d0d41 	andeq	r0, sp, r1, asr #26
     c38:	00000024 	andeq	r0, r0, r4, lsr #32
     c3c:	000009b8 			; <UNDEFINED> instruction: 0x000009b8
     c40:	80002070 	andhi	r2, r0, r0, ror r0
     c44:	00000036 	andeq	r0, r0, r6, lsr r0
     c48:	87040e41 	strhi	r0, [r4, -r1, asr #28]
     c4c:	200e4101 	andcs	r4, lr, r1, lsl #2
     c50:	54070d41 	strpl	r0, [r7], #-3393	; 0xfffff2bf
     c54:	0d41040e 	cfstrdeq	mvd0, [r1, #-56]	; 0xffffffc8
     c58:	0ec7420d 	cdpeq	2, 12, cr4, cr7, cr13, {0}
     c5c:	00000000 	andeq	r0, r0, r0
     c60:	00000024 	andeq	r0, r0, r4, lsr #32
     c64:	000009b8 			; <UNDEFINED> instruction: 0x000009b8
     c68:	800020a6 	andhi	r2, r0, r6, lsr #1
     c6c:	0000003e 	andeq	r0, r0, lr, lsr r0
     c70:	87040e41 	strhi	r0, [r4, -r1, asr #28]
     c74:	200e4101 	andcs	r4, lr, r1, lsl #2
     c78:	58070d41 	stmdapl	r7, {r0, r6, r8, sl, fp}
     c7c:	0d41040e 	cfstrdeq	mvd0, [r1, #-56]	; 0xffffffc8
     c80:	0ec7420d 	cdpeq	2, 12, cr4, cr7, cr13, {0}
     c84:	00000000 	andeq	r0, r0, r0
     c88:	00000024 	andeq	r0, r0, r4, lsr #32
     c8c:	000009b8 			; <UNDEFINED> instruction: 0x000009b8
     c90:	800020e4 	andhi	r2, r0, r4, ror #1
     c94:	0000003e 	andeq	r0, r0, lr, lsr r0
     c98:	87040e41 	strhi	r0, [r4, -r1, asr #28]
     c9c:	200e4101 	andcs	r4, lr, r1, lsl #2
     ca0:	58070d41 	stmdapl	r7, {r0, r6, r8, sl, fp}
     ca4:	0d41040e 	cfstrdeq	mvd0, [r1, #-56]	; 0xffffffc8
     ca8:	0ec7420d 	cdpeq	2, 12, cr4, cr7, cr13, {0}
     cac:	00000000 	andeq	r0, r0, r0
     cb0:	00000024 	andeq	r0, r0, r4, lsr #32
     cb4:	000009b8 			; <UNDEFINED> instruction: 0x000009b8
     cb8:	80002122 	andhi	r2, r0, r2, lsr #2
     cbc:	00000078 	andeq	r0, r0, r8, ror r0
     cc0:	87040e41 	strhi	r0, [r4, -r1, asr #28]
     cc4:	200e4101 	andcs	r4, lr, r1, lsl #2
     cc8:	75070d41 	strvc	r0, [r7, #-3393]	; 0xfffff2bf
     ccc:	0d41040e 	cfstrdeq	mvd0, [r1, #-56]	; 0xffffffc8
     cd0:	0ec7420d 	cdpeq	2, 12, cr4, cr7, cr13, {0}
     cd4:	00000000 	andeq	r0, r0, r0
     cd8:	00000024 	andeq	r0, r0, r4, lsr #32
     cdc:	000009b8 			; <UNDEFINED> instruction: 0x000009b8
     ce0:	8000219a 	mulhi	r0, sl, r1
     ce4:	00000058 	andeq	r0, r0, r8, asr r0
     ce8:	87040e41 	strhi	r0, [r4, -r1, asr #28]
     cec:	280e4101 	stmdacs	lr, {r0, r8, lr}
     cf0:	65070d41 	strvs	r0, [r7, #-3393]	; 0xfffff2bf
     cf4:	0d41040e 	cfstrdeq	mvd0, [r1, #-56]	; 0xffffffc8
     cf8:	0ec7420d 	cdpeq	2, 12, cr4, cr7, cr13, {0}
     cfc:	00000000 	andeq	r0, r0, r0
     d00:	00000024 	andeq	r0, r0, r4, lsr #32
     d04:	000009b8 			; <UNDEFINED> instruction: 0x000009b8
     d08:	800021f2 	strdhi	r2, [r0], -r2	; <UNPREDICTABLE>
     d0c:	00000042 	andeq	r0, r0, r2, asr #32
     d10:	87040e41 	strhi	r0, [r4, -r1, asr #28]
     d14:	200e4101 	andcs	r4, lr, r1, lsl #2
     d18:	5a070d41 	bpl	1c4224 <shift+0x1c4224>
     d1c:	0d41040e 	cfstrdeq	mvd0, [r1, #-56]	; 0xffffffc8
     d20:	0ec7420d 	cdpeq	2, 12, cr4, cr7, cr13, {0}
     d24:	00000000 	andeq	r0, r0, r0
     d28:	00000020 	andeq	r0, r0, r0, lsr #32
     d2c:	000009b8 			; <UNDEFINED> instruction: 0x000009b8
     d30:	80002234 	andhi	r2, r0, r4, lsr r2
     d34:	0000005e 	andeq	r0, r0, lr, asr r0
     d38:	87080e41 	strhi	r0, [r8, -r1, asr #28]
     d3c:	41018e02 	tstmi	r1, r2, lsl #28
     d40:	0d41180e 	stcleq	8, cr1, [r1, #-56]	; 0xffffffc8
     d44:	080e6a07 	stmdaeq	lr, {r0, r1, r2, r9, fp, sp, lr}
     d48:	000d0d41 	andeq	r0, sp, r1, asr #26
     d4c:	00000024 	andeq	r0, r0, r4, lsr #32
     d50:	000009b8 			; <UNDEFINED> instruction: 0x000009b8
     d54:	80002292 	mulhi	r0, r2, r2
     d58:	00000040 	andeq	r0, r0, r0, asr #32
     d5c:	87040e41 	strhi	r0, [r4, -r1, asr #28]
     d60:	200e4101 	andcs	r4, lr, r1, lsl #2
     d64:	59070d41 	stmdbpl	r7, {r0, r6, r8, sl, fp}
     d68:	0d41040e 	cfstrdeq	mvd0, [r1, #-56]	; 0xffffffc8
     d6c:	0ec7420d 	cdpeq	2, 12, cr4, cr7, cr13, {0}
     d70:	00000000 	andeq	r0, r0, r0
     d74:	0000000c 	andeq	r0, r0, ip
     d78:	ffffffff 			; <UNDEFINED> instruction: 0xffffffff
     d7c:	7c020001 	stcvc	0, cr0, [r2], {1}
     d80:	000d0c0e 	andeq	r0, sp, lr, lsl #24
     d84:	00000024 	andeq	r0, r0, r4, lsr #32
     d88:	00000d74 	andeq	r0, r0, r4, ror sp
     d8c:	800022d4 	ldrdhi	r2, [r0], -r4
     d90:	0000003c 	andeq	r0, r0, ip, lsr r0
     d94:	87040e41 	strhi	r0, [r4, -r1, asr #28]
     d98:	100e4101 	andne	r4, lr, r1, lsl #2
     d9c:	52070d41 	andpl	r0, r7, #4160	; 0x1040
     da0:	0d41040e 	cfstrdeq	mvd0, [r1, #-56]	; 0xffffffc8
     da4:	0ec7420d 	cdpeq	2, 12, cr4, cr7, cr13, {0}
     da8:	00000000 	andeq	r0, r0, r0
     dac:	00000024 	andeq	r0, r0, r4, lsr #32
     db0:	00000d74 	andeq	r0, r0, r4, ror sp
     db4:	80002310 	andhi	r2, r0, r0, lsl r3
     db8:	00000104 	andeq	r0, r0, r4, lsl #2
     dbc:	840c0e41 	strhi	r0, [ip], #-3649	; 0xfffff1bf
     dc0:	8e028703 	cdphi	7, 0, cr8, cr2, cr3, {0}
     dc4:	280e4101 	stmdacs	lr, {r0, r8, lr}
     dc8:	02070d41 	andeq	r0, r7, #4160	; 0x1040
     dcc:	410c0e79 	tstmi	ip, r9, ror lr
     dd0:	00000d0d 	andeq	r0, r0, sp, lsl #26
     dd4:	00000020 	andeq	r0, r0, r0, lsr #32
     dd8:	00000d74 	andeq	r0, r0, r4, ror sp
     ddc:	80002414 	andhi	r2, r0, r4, lsl r4
     de0:	0000003c 	andeq	r0, r0, ip, lsr r0
     de4:	87080e41 	strhi	r0, [r8, -r1, asr #28]
     de8:	41018e02 	tstmi	r1, r2, lsl #28
     dec:	0d41180e 	stcleq	8, cr1, [r1, #-56]	; 0xffffffc8
     df0:	080e5907 	stmdaeq	lr, {r0, r1, r2, r8, fp, ip, lr}
     df4:	000d0d41 	andeq	r0, sp, r1, asr #26
     df8:	00000030 	andeq	r0, r0, r0, lsr r0
     dfc:	00000d74 	andeq	r0, r0, r4, ror sp
     e00:	80002450 	andhi	r2, r0, r0, asr r4
     e04:	00000170 	andeq	r0, r0, r0, ror r1
     e08:	84240e42 	strthi	r0, [r4], #-3650	; 0xfffff1be
     e0c:	86088509 	strhi	r8, [r8], -r9, lsl #10
     e10:	88068707 	stmdahi	r6, {r0, r1, r2, r8, r9, sl, pc}
     e14:	8a048905 	bhi	123230 <shift+0x123230>
     e18:	8e028b03 	vmlahi.f64	d8, d2, d3
     e1c:	580e4101 	stmdapl	lr, {r0, r8, lr}
     e20:	02070d41 	andeq	r0, r7, #4160	; 0x1040
     e24:	41240eac 	smulwbmi	r4, ip, lr
     e28:	00000d0d 	andeq	r0, r0, sp, lsl #26
     e2c:	00000024 	andeq	r0, r0, r4, lsr #32
     e30:	00000d74 	andeq	r0, r0, r4, ror sp
     e34:	800025c0 	andhi	r2, r0, r0, asr #11
     e38:	0000004c 	andeq	r0, r0, ip, asr #32
     e3c:	84100e41 	ldrhi	r0, [r0], #-3649	; 0xfffff1bf
     e40:	87038504 	strhi	r8, [r3, -r4, lsl #10]
     e44:	41018e02 	tstmi	r1, r2, lsl #28
     e48:	0d41200e 	stcleq	0, cr2, [r1, #-56]	; 0xffffffc8
     e4c:	100e6107 	andne	r6, lr, r7, lsl #2
     e50:	000d0d41 	andeq	r0, sp, r1, asr #26
     e54:	00000024 	andeq	r0, r0, r4, lsr #32
     e58:	00000d74 	andeq	r0, r0, r4, ror sp
     e5c:	8000260c 	andhi	r2, r0, ip, lsl #12
     e60:	00000058 	andeq	r0, r0, r8, asr r0
     e64:	84080e41 	strhi	r0, [r8], #-3649	; 0xfffff1bf
     e68:	41018702 	tstmi	r1, r2, lsl #14
     e6c:	0d41180e 	stcleq	8, cr1, [r1, #-56]	; 0xffffffc8
     e70:	080e6107 	stmdaeq	lr, {r0, r1, r2, r8, sp, lr}
     e74:	410d0d41 	tstmi	sp, r1, asr #26
     e78:	000ec4c7 	andeq	ip, lr, r7, asr #9
     e7c:	00000024 	andeq	r0, r0, r4, lsr #32
     e80:	00000d74 	andeq	r0, r0, r4, ror sp
     e84:	80002664 	andhi	r2, r0, r4, ror #12
     e88:	00000152 	andeq	r0, r0, r2, asr r1
     e8c:	87040e41 	strhi	r0, [r4, -r1, asr #28]
     e90:	200e4101 	andcs	r4, lr, r1, lsl #2
     e94:	02070d41 	andeq	r0, r7, #4160	; 0x1040
     e98:	41040ea2 	smlatbmi	r4, r2, lr, r0
     e9c:	c7420d0d 	strbgt	r0, [r2, -sp, lsl #26]
     ea0:	0000000e 	andeq	r0, r0, lr
     ea4:	00000024 	andeq	r0, r0, r4, lsr #32
     ea8:	00000d74 	andeq	r0, r0, r4, ror sp
     eac:	800027b6 			; <UNDEFINED> instruction: 0x800027b6
     eb0:	00000134 	andeq	r0, r0, r4, lsr r1
     eb4:	87040e41 	strhi	r0, [r4, -r1, asr #28]
     eb8:	200e4101 	andcs	r4, lr, r1, lsl #2
     ebc:	02070d41 	andeq	r0, r7, #4160	; 0x1040
     ec0:	41040e93 			; <UNDEFINED> instruction: 0x41040e93
     ec4:	c7420d0d 	strbgt	r0, [r2, -sp, lsl #26]
     ec8:	0000000e 	andeq	r0, r0, lr
     ecc:	00000024 	andeq	r0, r0, r4, lsr #32
     ed0:	00000d74 	andeq	r0, r0, r4, ror sp
     ed4:	800028ea 	andhi	r2, r0, sl, ror #17
     ed8:	000000a4 	andeq	r0, r0, r4, lsr #1
     edc:	84100e41 	ldrhi	r0, [r0], #-3649	; 0xfffff1bf
     ee0:	87038504 	strhi	r8, [r3, -r4, lsl #10]
     ee4:	41018e02 	tstmi	r1, r2, lsl #28
     ee8:	0d41300e 	stcleq	0, cr3, [r1, #-56]	; 0xffffffc8
     eec:	0e4d0207 	cdpeq	2, 4, cr0, cr13, cr7, {0}
     ef0:	0d0d4110 	stfeqs	f4, [sp, #-64]	; 0xffffffc0
     ef4:	0000002c 	andeq	r0, r0, ip, lsr #32
     ef8:	00000d74 	andeq	r0, r0, r4, ror sp
     efc:	8000298e 	andhi	r2, r0, lr, lsl #19
     f00:	00000346 	andeq	r0, r0, r6, asr #6
     f04:	841c0e42 	ldrhi	r0, [ip], #-3650	; 0xfffff1be
     f08:	86068507 	strhi	r8, [r6], -r7, lsl #10
     f0c:	88048705 	stmdahi	r4, {r0, r2, r8, r9, sl, pc}
     f10:	8e028903 	vmlahi.f16	s16, s4, s6	; <UNPREDICTABLE>
     f14:	b00e4101 	andlt	r4, lr, r1, lsl #2
     f18:	070d4101 	streq	r4, [sp, -r1, lsl #2]
     f1c:	0e019a03 	vmlaeq.f32	s18, s2, s6
     f20:	0d0d411c 	stfeqs	f4, [sp, #-112]	; 0xffffff90
     f24:	00000034 	andeq	r0, r0, r4, lsr r0
     f28:	00000d74 	andeq	r0, r0, r4, ror sp
     f2c:	80002cd4 	ldrdhi	r2, [r0], -r4
     f30:	0000070c 	andeq	r0, r0, ip, lsl #14
     f34:	84240e42 	strthi	r0, [r4], #-3650	; 0xfffff1be
     f38:	86088509 	strhi	r8, [r8], -r9, lsl #10
     f3c:	88068707 	stmdahi	r6, {r0, r1, r2, r8, r9, sl, pc}
     f40:	8a048905 	bhi	12335c <shift+0x12335c>
     f44:	8e028b03 	vmlahi.f64	d8, d2, d3
     f48:	b00e4101 	andlt	r4, lr, r1, lsl #2
     f4c:	070c4101 	streq	r4, [ip, -r1, lsl #2]
     f50:	790301a0 	stmdbvc	r3, {r5, r7, r8}
     f54:	41240e03 			; <UNDEFINED> instruction: 0x41240e03
     f58:	00000d0d 	andeq	r0, r0, sp, lsl #26
     f5c:	00000020 	andeq	r0, r0, r0, lsr #32
     f60:	00000d74 	andeq	r0, r0, r4, ror sp
     f64:	800033e0 	andhi	r3, r0, r0, ror #7
     f68:	00000034 	andeq	r0, r0, r4, lsr r0
     f6c:	87080e41 	strhi	r0, [r8, -r1, asr #28]
     f70:	41018e02 	tstmi	r1, r2, lsl #28
     f74:	0d41200e 	stcleq	0, cr2, [r1, #-56]	; 0xffffffc8
     f78:	080e5507 	stmdaeq	lr, {r0, r1, r2, r8, sl, ip, lr}
     f7c:	000d0d41 	andeq	r0, sp, r1, asr #26
     f80:	00000030 	andeq	r0, r0, r0, lsr r0
     f84:	00000d74 	andeq	r0, r0, r4, ror sp
     f88:	80003414 	andhi	r3, r0, r4, lsl r4
     f8c:	00000030 	andeq	r0, r0, r0, lsr r0
     f90:	82080e41 	andhi	r0, r8, #1040	; 0x410
     f94:	41018302 	tstmi	r1, r2, lsl #6
     f98:	0487100e 	streq	r1, [r7], #14
     f9c:	0e41038e 	cdpeq	3, 4, cr0, cr1, cr14, {4}
     fa0:	070d4120 	streq	r4, [sp, -r0, lsr #2]
     fa4:	41100e4f 	tstmi	r0, pc, asr #28
     fa8:	ce420d0d 	cdpgt	13, 4, cr0, cr2, cr13, {0}
     fac:	41080ec7 	smlabtmi	r8, r7, lr, r0
     fb0:	000ec2c3 	andeq	ip, lr, r3, asr #5
     fb4:	00000030 	andeq	r0, r0, r0, lsr r0
     fb8:	00000d74 	andeq	r0, r0, r4, ror sp
     fbc:	80003444 	andhi	r3, r0, r4, asr #8
     fc0:	0000003e 	andeq	r0, r0, lr, lsr r0
     fc4:	82080e41 	andhi	r0, r8, #1040	; 0x410
     fc8:	41018302 	tstmi	r1, r2, lsl #6
     fcc:	0487100e 	streq	r1, [r7], #14
     fd0:	0e41038e 	cdpeq	3, 4, cr0, cr1, cr14, {4}
     fd4:	070d4120 	streq	r4, [sp, -r0, lsr #2]
     fd8:	41100e56 	tstmi	r0, r6, asr lr
     fdc:	ce420d0d 	cdpgt	13, 4, cr0, cr2, cr13, {0}
     fe0:	41080ec7 	smlabtmi	r8, r7, lr, r0
     fe4:	000ec2c3 	andeq	ip, lr, r3, asr #5
     fe8:	00000020 	andeq	r0, r0, r0, lsr #32
     fec:	00000d74 	andeq	r0, r0, r4, ror sp
     ff0:	80003482 	andhi	r3, r0, r2, lsl #9
     ff4:	00000024 	andeq	r0, r0, r4, lsr #32
     ff8:	87080e41 	strhi	r0, [r8, -r1, asr #28]
     ffc:	41018e02 	tstmi	r1, r2, lsl #28
    1000:	0d41180e 	stcleq	8, cr1, [r1, #-56]	; 0xffffffc8
    1004:	080e4d07 	stmdaeq	lr, {r0, r1, r2, r8, sl, fp, lr}
    1008:	000d0d41 	andeq	r0, sp, r1, asr #26
    100c:	00000034 	andeq	r0, r0, r4, lsr r0
    1010:	00000d74 	andeq	r0, r0, r4, ror sp
    1014:	800034a6 	andhi	r3, r0, r6, lsr #9
    1018:	0000002e 	andeq	r0, r0, lr, lsr #32
    101c:	810c0e41 	tsthi	ip, r1, asr #28
    1020:	83028203 	movwhi	r8, #8707	; 0x2203
    1024:	140e4101 	strne	r4, [lr], #-257	; 0xfffffeff
    1028:	048e0587 	streq	r0, [lr], #1415	; 0x587
    102c:	41280e41 			; <UNDEFINED> instruction: 0x41280e41
    1030:	0e4e070d 	cdpeq	7, 4, cr0, cr14, cr13, {0}
    1034:	0d0d4114 	stfeqs	f4, [sp, #-80]	; 0xffffffb0
    1038:	0ec7ce42 	cdpeq	14, 12, cr12, cr7, cr2, {2}
    103c:	c2c3410c 	sbcgt	r4, r3, #12, 2
    1040:	00000ec1 	andeq	r0, r0, r1, asr #29
    1044:	00000024 	andeq	r0, r0, r4, lsr #32
    1048:	00000d74 	andeq	r0, r0, r4, ror sp
    104c:	800034d4 	ldrdhi	r3, [r0], -r4
    1050:	000006ec 	andeq	r0, r0, ip, ror #13
    1054:	840c0e41 	strhi	r0, [ip], #-3649	; 0xfffff1bf
    1058:	8e028703 	cdphi	7, 0, cr8, cr2, cr3, {0}
    105c:	780e4101 	stmdavc	lr, {r0, r8, lr}
    1060:	03070d41 	movweq	r0, #32065	; 0x7d41
    1064:	0c0e036d 	stceq	3, cr0, [lr], {109}	; 0x6d
    1068:	000d0d41 	andeq	r0, sp, r1, asr #26
    106c:	00000034 	andeq	r0, r0, r4, lsr r0
    1070:	00000d74 	andeq	r0, r0, r4, ror sp
    1074:	80003bc0 	andhi	r3, r0, r0, asr #23
    1078:	0000002e 	andeq	r0, r0, lr, lsr #32
    107c:	810c0e41 	tsthi	ip, r1, asr #28
    1080:	83028203 	movwhi	r8, #8707	; 0x2203
    1084:	140e4101 	strne	r4, [lr], #-257	; 0xfffffeff
    1088:	048e0587 	streq	r0, [lr], #1415	; 0x587
    108c:	41280e41 			; <UNDEFINED> instruction: 0x41280e41
    1090:	0e4e070d 	cdpeq	7, 4, cr0, cr14, cr13, {0}
    1094:	0d0d4114 	stfeqs	f4, [sp, #-80]	; 0xffffffb0
    1098:	0ec7ce42 	cdpeq	14, 12, cr12, cr7, cr2, {2}
    109c:	c2c3410c 	sbcgt	r4, r3, #12, 2
    10a0:	00000ec1 	andeq	r0, r0, r1, asr #29
    10a4:	0000000c 	andeq	r0, r0, ip
    10a8:	ffffffff 			; <UNDEFINED> instruction: 0xffffffff
    10ac:	7c010001 	stcvc	0, cr0, [r1], {1}
    10b0:	000d0c0e 	andeq	r0, sp, lr, lsl #24
    10b4:	0000000c 	andeq	r0, r0, ip
    10b8:	000010a4 	andeq	r1, r0, r4, lsr #1
    10bc:	80003bf1 	strdhi	r3, [r0], -r1
    10c0:	0000025c 	andeq	r0, r0, ip, asr r2
    10c4:	0000000c 	andeq	r0, r0, ip
    10c8:	ffffffff 			; <UNDEFINED> instruction: 0xffffffff
    10cc:	7c020001 	stcvc	0, cr0, [r2], {1}
    10d0:	000d0c0e 	andeq	r0, sp, lr, lsl #24
    10d4:	00000018 	andeq	r0, r0, r8, lsl r0
    10d8:	000010c4 	andeq	r1, r0, r4, asr #1
    10dc:	80003e68 	andhi	r3, r0, r8, ror #28
    10e0:	00000030 	andeq	r0, r0, r0, lsr r0
    10e4:	8e100e50 	mrchi	14, 0, r0, cr0, cr0, {2}
    10e8:	0ece4703 	cdpeq	7, 12, cr4, cr14, cr3, {0}
    10ec:	00000010 	andeq	r0, r0, r0, lsl r0
    10f0:	0000000c 	andeq	r0, r0, ip
    10f4:	ffffffff 			; <UNDEFINED> instruction: 0xffffffff
    10f8:	7c020001 	stcvc	0, cr0, [r2], {1}
    10fc:	000d0c0e 	andeq	r0, sp, lr, lsl #24
    1100:	00000020 	andeq	r0, r0, r0, lsr #32
    1104:	000010f0 	strdeq	r1, [r0], -r0
    1108:	80003ea4 	andhi	r3, r0, r4, lsr #29
    110c:	00000116 	andeq	r0, r0, r6, lsl r1
    1110:	841c0e42 	ldrhi	r0, [ip], #-3650	; 0xfffff1be
    1114:	86068507 	strhi	r8, [r6], -r7, lsl #10
    1118:	88048705 	stmdahi	r4, {r0, r2, r8, r9, sl, pc}
    111c:	8e028903 	vmlahi.f16	s16, s4, s6	; <UNPREDICTABLE>
    1120:	00000001 	andeq	r0, r0, r1

Disassembly of section .debug_loc:

00000000 <.debug_loc>:
   0:	00000000 	andeq	r0, r0, r0
   4:	0000000c 	andeq	r0, r0, ip
   8:	93500006 	cmpls	r0, #6
   c:	04935104 	ldreq	r5, [r3], #260	; 0x104
  10:	0000000c 	andeq	r0, r0, ip
  14:	00000116 	andeq	r0, r0, r6, lsl r1
  18:	03f30006 	mvnseq	r0, #6
  1c:	9f2500f5 	svcls	0x002500f5
	...
  2c:	00000014 	andeq	r0, r0, r4, lsl r0
  30:	93520006 	cmpls	r2, #6
  34:	04935304 	ldreq	r5, [r3], #772	; 0x304
  38:	00000014 	andeq	r0, r0, r4, lsl r0
  3c:	00000116 	andeq	r0, r0, r6, lsl r1
  40:	03f30006 	mvnseq	r0, #6
  44:	9f2502f5 	svcls	0x002502f5
	...
  54:	000000fc 	strdeq	r0, [r0], -ip
  58:	00910002 	addseq	r0, r1, r2
  5c:	000000fc 	strdeq	r0, [r0], -ip
  60:	00000116 	andeq	r0, r0, r6, lsl r1
  64:	00910002 	addseq	r0, r1, r2
	...
  74:	00000076 	andeq	r0, r0, r6, ror r0
  78:	089e000a 	ldmeq	lr, {r1, r3}
	...
  84:	00000076 	andeq	r0, r0, r6, ror r0
  88:	000000c0 	andeq	r0, r0, r0, asr #1
  8c:	93500006 	cmpls	r0, #6
  90:	04935104 	ldreq	r5, [r3], #260	; 0x104
  94:	000000ca 	andeq	r0, r0, sl, asr #1
  98:	000000ea 	andeq	r0, r0, sl, ror #1
  9c:	93500006 	cmpls	r0, #6
  a0:	04935104 	ldreq	r5, [r3], #260	; 0x104
  a4:	000000f2 	strdeq	r0, [r0], -r2
  a8:	000000fc 	strdeq	r0, [r0], -ip
  ac:	93500006 	cmpls	r0, #6
  b0:	04935104 	ldreq	r5, [r3], #260	; 0x104
  b4:	000000fc 	strdeq	r0, [r0], -ip
  b8:	00000116 	andeq	r0, r0, r6, lsl r1
  bc:	089e000a 	ldmeq	lr, {r1, r3}
	...
  d0:	0000000a 	andeq	r0, r0, sl
  d4:	00000062 	andeq	r0, r0, r2, rrx
  d8:	93540006 	cmpls	r4, #6
  dc:	04935504 	ldreq	r5, [r3], #1284	; 0x504
  e0:	00000076 	andeq	r0, r0, r6, ror r0
  e4:	00000084 	andeq	r0, r0, r4, lsl #1
  e8:	93540006 	cmpls	r4, #6
  ec:	04935504 	ldreq	r5, [r3], #1284	; 0x504
  f0:	00000092 	muleq	r0, r2, r0
  f4:	000000a0 	andeq	r0, r0, r0, lsr #1
  f8:	93540006 	cmpls	r4, #6
  fc:	04935504 	ldreq	r5, [r3], #1284	; 0x504
 100:	000000a2 	andeq	r0, r0, r2, lsr #1
 104:	000000c8 	andeq	r0, r0, r8, asr #1
 108:	93540006 	cmpls	r4, #6
 10c:	04935504 	ldreq	r5, [r3], #1284	; 0x504
 110:	000000cc 	andeq	r0, r0, ip, asr #1
 114:	00000116 	andeq	r0, r0, r6, lsl r1
 118:	93540006 	cmpls	r4, #6
 11c:	04935504 	ldreq	r5, [r3], #1284	; 0x504
	...
 128:	0000000e 	andeq	r0, r0, lr
 12c:	00000018 	andeq	r0, r0, r8, lsl r0
 130:	93500006 	cmpls	r0, #6
 134:	04935104 	ldreq	r5, [r3], #260	; 0x104
 138:	0000004e 	andeq	r0, r0, lr, asr #32
 13c:	000000ae 	andeq	r0, r0, lr, lsr #1
 140:	93560006 	cmpls	r6, #6
 144:	04935704 	ldreq	r5, [r3], #1796	; 0x704
	...
 150:	0000010c 	andeq	r0, r0, ip, lsl #2
 154:	00000116 	andeq	r0, r0, r6, lsl r1
 158:	00560001 	subseq	r0, r6, r1
 15c:	00000000 	andeq	r0, r0, r0
 160:	2c000000 	stccs	0, cr0, [r0], {-0}
 164:	2e000000 	cdpcs	0, 0, cr0, cr0, cr0, {0}
 168:	01000000 	mrseq	r0, (UNDEF: 0)
 16c:	00005300 	andeq	r5, r0, r0, lsl #6
 170:	00000000 	andeq	r0, r0, r0
 174:	00800000 	addeq	r0, r0, r0
 178:	00920000 	addseq	r0, r2, r0
 17c:	00010000 	andeq	r0, r1, r0
 180:	00009253 	andeq	r9, r0, r3, asr r2
 184:	00009400 	andeq	r9, r0, r0, lsl #8
 188:	73000300 	movwvc	r0, #768	; 0x300
 18c:	00949f7f 	addseq	r9, r4, pc, ror pc
 190:	00a20000 	adceq	r0, r2, r0
 194:	00010000 	andeq	r0, r1, r0
 198:	0000a253 	andeq	sl, r0, r3, asr r2
 19c:	0000a400 	andeq	sl, r0, r0, lsl #8
 1a0:	73000300 	movwvc	r0, #768	; 0x300
 1a4:	00a49f7f 	adceq	r9, r4, pc, ror pc
 1a8:	00b60000 	adcseq	r0, r6, r0
 1ac:	00010000 	andeq	r0, r1, r0
 1b0:	00000053 	andeq	r0, r0, r3, asr r0
 1b4:	00000000 	andeq	r0, r0, r0
 1b8:	00002e00 	andeq	r2, r0, r0, lsl #28
 1bc:	00008200 	andeq	r8, r0, r0, lsl #4
 1c0:	53000100 	movwpl	r0, #256	; 0x100
 1c4:	00000082 	andeq	r0, r0, r2, lsl #1
 1c8:	000000f2 	strdeq	r0, [r0], -r2
 1cc:	005e0001 	subseq	r0, lr, r1
 1d0:	00000000 	andeq	r0, r0, r0
 1d4:	Address 0x00000000000001d4 is out of bounds.

