
main.elf:     file format elf32-littlearm


Disassembly of section .text:

80000000 <_start>:
80000000:	e59ff144 	ldr	pc, [pc, #324]	; 8000014c <FIQ_Handler+0x8>
80000004:	e59ff144 	ldr	pc, [pc, #324]	; 80000150 <FIQ_Handler+0xc>
80000008:	e59ff144 	ldr	pc, [pc, #324]	; 80000154 <FIQ_Handler+0x10>
8000000c:	e59ff144 	ldr	pc, [pc, #324]	; 80000158 <FIQ_Handler+0x14>
80000010:	e59ff144 	ldr	pc, [pc, #324]	; 8000015c <FIQ_Handler+0x18>
80000014:	e59ff144 	ldr	pc, [pc, #324]	; 80000160 <FIQ_Handler+0x1c>
80000018:	e59ff144 	ldr	pc, [pc, #324]	; 80000164 <FIQ_Handler+0x20>
8000001c:	e59ff144 	ldr	pc, [pc, #324]	; 80000168 <FIQ_Handler+0x24>

80000020 <Reset_Handler>:
80000020:	f10c0080 	cpsid	i
80000024:	ee110f10 	mrc	15, 0, r0, cr1, cr0, {0}
80000028:	e3c00a01 	bic	r0, r0, #4096	; 0x1000
8000002c:	e3c00004 	bic	r0, r0, #4
80000030:	e3c00002 	bic	r0, r0, #2
80000034:	e3c00b02 	bic	r0, r0, #2048	; 0x800
80000038:	e3c00001 	bic	r0, r0, #1
8000003c:	ee010f10 	mcr	15, 0, r0, cr1, cr0, {0}
80000040:	e3a00102 	mov	r0, #-2147483648	; 0x80000000
80000044:	f57ff04f 	dsb	sy
80000048:	f57ff06f 	isb	sy
8000004c:	ee0c0f10 	mcr	15, 0, r0, cr12, cr0, {0}
80000050:	f57ff04f 	dsb	sy
80000054:	f57ff06f 	isb	sy
80000058:	e10f0000 	mrs	r0, CPSR
8000005c:	e3c0001f 	bic	r0, r0, #31
80000060:	e3800012 	orr	r0, r0, #18
80000064:	e129f000 	msr	CPSR_fc, r0
80000068:	e3a0d209 	mov	sp, #-1879048192	; 0x90000000
8000006c:	e10f0000 	mrs	r0, CPSR
80000070:	e3c0001f 	bic	r0, r0, #31
80000074:	e380001f 	orr	r0, r0, #31
80000078:	e129f000 	msr	CPSR_fc, r0
8000007c:	e3a0d48e 	mov	sp, #-1912602624	; 0x8e000000
80000080:	e10f0000 	mrs	r0, CPSR
80000084:	e3c0001f 	bic	r0, r0, #31
80000088:	e3800013 	orr	r0, r0, #19
8000008c:	e129f000 	msr	CPSR_fc, r0
80000090:	e3a0d323 	mov	sp, #-1946157056	; 0x8c000000
80000094:	f1080080 	cpsie	i
80000098:	e10f0000 	mrs	r0, CPSR
8000009c:	e3c00080 	bic	r0, r0, #128	; 0x80
800000a0:	e121f000 	msr	CPSR_c, r0
800000a4:	e59f00c0 	ldr	r0, [pc, #192]	; 8000016c <FIQ_Handler+0x28>
800000a8:	e59f10c0 	ldr	r1, [pc, #192]	; 80000170 <FIQ_Handler+0x2c>
800000ac:	e3a02000 	mov	r2, #0

800000b0 <loop_clear_bss>:
800000b0:	e1500001 	cmp	r0, r1
800000b4:	0a000002 	beq	800000c4 <end_clear_bss>
800000b8:	e5802000 	str	r2, [r0]
800000bc:	e2800004 	add	r0, r0, #4
800000c0:	eafffffa 	b	800000b0 <loop_clear_bss>

800000c4 <end_clear_bss>:
800000c4:	ea000fb5 	b	80003fa0 <__main_from_arm>

800000c8 <Undefined_Handler>:
800000c8:	e59f0080 	ldr	r0, [pc, #128]	; 80000150 <FIQ_Handler+0xc>
800000cc:	e12fff10 	bx	r0

800000d0 <SVC_Handler>:
800000d0:	e59f007c 	ldr	r0, [pc, #124]	; 80000154 <FIQ_Handler+0x10>
800000d4:	e12fff10 	bx	r0

800000d8 <PrefAbort_Handler>:
800000d8:	e59f0078 	ldr	r0, [pc, #120]	; 80000158 <FIQ_Handler+0x14>
800000dc:	e12fff10 	bx	r0

800000e0 <DataAbort_Handler>:
800000e0:	e59f0074 	ldr	r0, [pc, #116]	; 8000015c <FIQ_Handler+0x18>
800000e4:	e12fff10 	bx	r0

800000e8 <NotUsed_Handler>:
800000e8:	e59f0070 	ldr	r0, [pc, #112]	; 80000160 <FIQ_Handler+0x1c>
800000ec:	e12fff10 	bx	r0

800000f0 <IRQ_Handler>:
800000f0:	e52de004 	push	{lr}		; (str lr, [sp, #-4]!)
800000f4:	e92d100f 	push	{r0, r1, r2, r3, ip}
800000f8:	e14f0000 	mrs	r0, SPSR
800000fc:	e52d0004 	push	{r0}		; (str r0, [sp, #-4]!)
80000100:	e3a0160a 	mov	r1, #10485760	; 0xa00000
80000104:	e2811a02 	add	r1, r1, #8192	; 0x2000
80000108:	e591000c 	ldr	r0, [r1, #12]
8000010c:	e92d0003 	push	{r0, r1}
80000110:	f1020013 	cps	#19
80000114:	e52de004 	push	{lr}		; (str lr, [sp, #-4]!)
80000118:	e59f2054 	ldr	r2, [pc, #84]	; 80000174 <FIQ_Handler+0x30>
8000011c:	e12fff32 	blx	r2
80000120:	e49de004 	pop	{lr}		; (ldr lr, [sp], #4)
80000124:	f1020012 	cps	#18
80000128:	e8bd0003 	pop	{r0, r1}
8000012c:	e5810010 	str	r0, [r1, #16]
80000130:	e49d0004 	pop	{r0}		; (ldr r0, [sp], #4)
80000134:	e16ff000 	msr	SPSR_fsxc, r0
80000138:	e8bd100f 	pop	{r0, r1, r2, r3, ip}
8000013c:	e49de004 	pop	{lr}		; (ldr lr, [sp], #4)
80000140:	e25ef004 	subs	pc, lr, #4

80000144 <FIQ_Handler>:
80000144:	e59f001c 	ldr	r0, [pc, #28]	; 80000168 <FIQ_Handler+0x24>
80000148:	e12fff10 	bx	r0
8000014c:	80000020 	andhi	r0, r0, r0, lsr #32
80000150:	800000c8 	andhi	r0, r0, r8, asr #1
80000154:	800000d0 	ldrdhi	r0, [r0], -r0	; <UNPREDICTABLE>
80000158:	800000d8 	ldrdhi	r0, [r0], -r8
8000015c:	800000e0 	andhi	r0, r0, r0, ror #1
80000160:	800000e8 	andhi	r0, r0, r8, ror #1
80000164:	800000f0 	strdhi	r0, [r0], -r0	; <UNPREDICTABLE>
80000168:	80000144 	andhi	r0, r0, r4, asr #2
8000016c:	80004118 	andhi	r4, r0, r8, lsl r1
80000170:	80004e20 	andhi	r4, r0, r0, lsr #28
80000174:	80000fad 	andhi	r0, r0, sp, lsr #31
	...

80000180 <__umodsi3>:
80000180:	e2512001 	subs	r2, r1, #1
80000184:	3a000062 	bcc	80000314 <Ldiv0>
80000188:	11500001 	cmpne	r0, r1
8000018c:	03a00000 	moveq	r0, #0
80000190:	81110002 	tsthi	r1, r2
80000194:	00000002 	andeq	r0, r0, r2
80000198:	91a0f00e 	movls	pc, lr
8000019c:	e3a02000 	mov	r2, #0
800001a0:	e3510201 	cmp	r1, #268435456	; 0x10000000
800001a4:	31510000 	cmpcc	r1, r0
800001a8:	31a01201 	lslcc	r1, r1, #4
800001ac:	32822004 	addcc	r2, r2, #4
800001b0:	3afffffa 	bcc	800001a0 <__umodsi3+0x20>
800001b4:	e3510102 	cmp	r1, #-2147483648	; 0x80000000
800001b8:	31510000 	cmpcc	r1, r0
800001bc:	31a01081 	lslcc	r1, r1, #1
800001c0:	32822001 	addcc	r2, r2, #1
800001c4:	3afffffa 	bcc	800001b4 <__umodsi3+0x34>
800001c8:	e2522003 	subs	r2, r2, #3
800001cc:	ba00000e 	blt	8000020c <__umodsi3+0x8c>
800001d0:	e1500001 	cmp	r0, r1
800001d4:	20400001 	subcs	r0, r0, r1
800001d8:	e15000a1 	cmp	r0, r1, lsr #1
800001dc:	204000a1 	subcs	r0, r0, r1, lsr #1
800001e0:	e1500121 	cmp	r0, r1, lsr #2
800001e4:	20400121 	subcs	r0, r0, r1, lsr #2
800001e8:	e15001a1 	cmp	r0, r1, lsr #3
800001ec:	204001a1 	subcs	r0, r0, r1, lsr #3
800001f0:	e3500001 	cmp	r0, #1
800001f4:	e1a01221 	lsr	r1, r1, #4
800001f8:	a2522004 	subsge	r2, r2, #4
800001fc:	aafffff3 	bge	800001d0 <__umodsi3+0x50>
80000200:	e3120003 	tst	r2, #3
80000204:	13300000 	teqne	r0, #0
80000208:	0a00000a 	beq	80000238 <__umodsi3+0xb8>
8000020c:	e3720002 	cmn	r2, #2
80000210:	ba000006 	blt	80000230 <__umodsi3+0xb0>
80000214:	0a000002 	beq	80000224 <__umodsi3+0xa4>
80000218:	e1500001 	cmp	r0, r1
8000021c:	20400001 	subcs	r0, r0, r1
80000220:	e1a010a1 	lsr	r1, r1, #1
80000224:	e1500001 	cmp	r0, r1
80000228:	20400001 	subcs	r0, r0, r1
8000022c:	e1a010a1 	lsr	r1, r1, #1
80000230:	e1500001 	cmp	r0, r1
80000234:	20400001 	subcs	r0, r0, r1
80000238:	e1a0f00e 	mov	pc, lr
8000023c:	90909090 	umullsls	r9, r0, r0, r0

80000240 <__modsi3>:
80000240:	e3510000 	cmp	r1, #0
80000244:	0a000032 	beq	80000314 <Ldiv0>
80000248:	42611000 	rsbmi	r1, r1, #0
8000024c:	e1b0c000 	movs	ip, r0
80000250:	42600000 	rsbmi	r0, r0, #0
80000254:	e2512001 	subs	r2, r1, #1
80000258:	11500001 	cmpne	r0, r1
8000025c:	03a00000 	moveq	r0, #0
80000260:	81110002 	tsthi	r1, r2
80000264:	00000002 	andeq	r0, r0, r2
80000268:	9a000026 	bls	80000308 <__modsi3+0xc8>
8000026c:	e3a02000 	mov	r2, #0
80000270:	e3510201 	cmp	r1, #268435456	; 0x10000000
80000274:	31510000 	cmpcc	r1, r0
80000278:	31a01201 	lslcc	r1, r1, #4
8000027c:	32822004 	addcc	r2, r2, #4
80000280:	3afffffa 	bcc	80000270 <__modsi3+0x30>
80000284:	e3510102 	cmp	r1, #-2147483648	; 0x80000000
80000288:	31510000 	cmpcc	r1, r0
8000028c:	31a01081 	lslcc	r1, r1, #1
80000290:	32822001 	addcc	r2, r2, #1
80000294:	3afffffa 	bcc	80000284 <__modsi3+0x44>
80000298:	e2522003 	subs	r2, r2, #3
8000029c:	ba00000e 	blt	800002dc <__modsi3+0x9c>
800002a0:	e1500001 	cmp	r0, r1
800002a4:	20400001 	subcs	r0, r0, r1
800002a8:	e15000a1 	cmp	r0, r1, lsr #1
800002ac:	204000a1 	subcs	r0, r0, r1, lsr #1
800002b0:	e1500121 	cmp	r0, r1, lsr #2
800002b4:	20400121 	subcs	r0, r0, r1, lsr #2
800002b8:	e15001a1 	cmp	r0, r1, lsr #3
800002bc:	204001a1 	subcs	r0, r0, r1, lsr #3
800002c0:	e3500001 	cmp	r0, #1
800002c4:	e1a01221 	lsr	r1, r1, #4
800002c8:	a2522004 	subsge	r2, r2, #4
800002cc:	aafffff3 	bge	800002a0 <__modsi3+0x60>
800002d0:	e3120003 	tst	r2, #3
800002d4:	13300000 	teqne	r0, #0
800002d8:	0a00000a 	beq	80000308 <__modsi3+0xc8>
800002dc:	e3720002 	cmn	r2, #2
800002e0:	ba000006 	blt	80000300 <__modsi3+0xc0>
800002e4:	0a000002 	beq	800002f4 <__modsi3+0xb4>
800002e8:	e1500001 	cmp	r0, r1
800002ec:	20400001 	subcs	r0, r0, r1
800002f0:	e1a010a1 	lsr	r1, r1, #1
800002f4:	e1500001 	cmp	r0, r1
800002f8:	20400001 	subcs	r0, r0, r1
800002fc:	e1a010a1 	lsr	r1, r1, #1
80000300:	e1500001 	cmp	r0, r1
80000304:	20400001 	subcs	r0, r0, r1
80000308:	e35c0000 	cmp	ip, #0
8000030c:	42600000 	rsbmi	r0, r0, #0
80000310:	e1a0f00e 	mov	pc, lr

80000314 <Ldiv0>:
80000314:	e52de004 	push	{lr}		; (str lr, [sp, #-4]!)
80000318:	e3a00000 	mov	r0, #0
8000031c:	e49df004 	pop	{pc}		; (ldr pc, [sp], #4)

80000320 <main>:
80000320:	b580      	push	{r7, lr}
80000322:	af00      	add	r7, sp, #0
80000324:	f000 fdba 	bl	80000e9c <int_init>
80000328:	f000 f852 	bl	800003d0 <iimx6ul_clk_init>
8000032c:	f000 f818 	bl	80000360 <clk_enable>
80000330:	f000 f9f0 	bl	80000714 <delay_init>
80000334:	f000 ffcc 	bl	800012d0 <uart_init>
80000338:	f44f 51a4 	mov.w	r1, #5248	; 0x1480
8000033c:	f2c0 31ef 	movt	r1, #1007	; 0x3ef
80000340:	2003      	movs	r0, #3
80000342:	f000 ff1b 	bl	8000117c <epit1_init>
80000346:	f44f 707a 	mov.w	r0, #1000	; 0x3e8
8000034a:	f000 fa56 	bl	800007fa <delayms>
8000034e:	4b03      	ldr	r3, [pc, #12]	; (8000035c <main+0x3c>)
80000350:	447b      	add	r3, pc
80000352:	4618      	mov	r0, r3
80000354:	f001 fba0 	bl	80001a98 <printf>
80000358:	e7f5      	b.n	80000346 <main+0x26>
8000035a:	bf00      	nop
8000035c:	00003c54 	andeq	r3, r0, r4, asr ip

80000360 <clk_enable>:
80000360:	b480      	push	{r7}
80000362:	af00      	add	r7, sp, #0
80000364:	f244 0368 	movw	r3, #16488	; 0x4068
80000368:	f2c0 230c 	movt	r3, #524	; 0x20c
8000036c:	f04f 32ff 	mov.w	r2, #4294967295	; 0xffffffff
80000370:	601a      	str	r2, [r3, #0]
80000372:	f244 036c 	movw	r3, #16492	; 0x406c
80000376:	f2c0 230c 	movt	r3, #524	; 0x20c
8000037a:	f04f 32ff 	mov.w	r2, #4294967295	; 0xffffffff
8000037e:	601a      	str	r2, [r3, #0]
80000380:	f244 0370 	movw	r3, #16496	; 0x4070
80000384:	f2c0 230c 	movt	r3, #524	; 0x20c
80000388:	f04f 32ff 	mov.w	r2, #4294967295	; 0xffffffff
8000038c:	601a      	str	r2, [r3, #0]
8000038e:	f244 0374 	movw	r3, #16500	; 0x4074
80000392:	f2c0 230c 	movt	r3, #524	; 0x20c
80000396:	f04f 32ff 	mov.w	r2, #4294967295	; 0xffffffff
8000039a:	601a      	str	r2, [r3, #0]
8000039c:	f244 0378 	movw	r3, #16504	; 0x4078
800003a0:	f2c0 230c 	movt	r3, #524	; 0x20c
800003a4:	f04f 32ff 	mov.w	r2, #4294967295	; 0xffffffff
800003a8:	601a      	str	r2, [r3, #0]
800003aa:	f244 037c 	movw	r3, #16508	; 0x407c
800003ae:	f2c0 230c 	movt	r3, #524	; 0x20c
800003b2:	f04f 32ff 	mov.w	r2, #4294967295	; 0xffffffff
800003b6:	601a      	str	r2, [r3, #0]
800003b8:	f44f 4381 	mov.w	r3, #16512	; 0x4080
800003bc:	f2c0 230c 	movt	r3, #524	; 0x20c
800003c0:	f04f 32ff 	mov.w	r2, #4294967295	; 0xffffffff
800003c4:	601a      	str	r2, [r3, #0]
800003c6:	bf00      	nop
800003c8:	46bd      	mov	sp, r7
800003ca:	f85d 7b04 	ldr.w	r7, [sp], #4
800003ce:	4770      	bx	lr

800003d0 <iimx6ul_clk_init>:
800003d0:	b480      	push	{r7}
800003d2:	b083      	sub	sp, #12
800003d4:	af00      	add	r7, sp, #0
800003d6:	2300      	movs	r3, #0
800003d8:	607b      	str	r3, [r7, #4]
800003da:	f44f 4380 	mov.w	r3, #16384	; 0x4000
800003de:	f2c0 230c 	movt	r3, #524	; 0x20c
800003e2:	68db      	ldr	r3, [r3, #12]
800003e4:	f003 0304 	and.w	r3, r3, #4
800003e8:	2b00      	cmp	r3, #0
800003ea:	d117      	bne.n	8000041c <iimx6ul_clk_init+0x4c>
800003ec:	f44f 4380 	mov.w	r3, #16384	; 0x4000
800003f0:	f2c0 230c 	movt	r3, #524	; 0x20c
800003f4:	68da      	ldr	r2, [r3, #12]
800003f6:	f44f 4380 	mov.w	r3, #16384	; 0x4000
800003fa:	f2c0 230c 	movt	r3, #524	; 0x20c
800003fe:	f422 7280 	bic.w	r2, r2, #256	; 0x100
80000402:	60da      	str	r2, [r3, #12]
80000404:	f44f 4380 	mov.w	r3, #16384	; 0x4000
80000408:	f2c0 230c 	movt	r3, #524	; 0x20c
8000040c:	68da      	ldr	r2, [r3, #12]
8000040e:	f44f 4380 	mov.w	r3, #16384	; 0x4000
80000412:	f2c0 230c 	movt	r3, #524	; 0x20c
80000416:	f042 0204 	orr.w	r2, r2, #4
8000041a:	60da      	str	r2, [r3, #12]
8000041c:	f44f 4300 	mov.w	r3, #32768	; 0x8000
80000420:	f2c0 230c 	movt	r3, #524	; 0x20c
80000424:	f242 0258 	movw	r2, #8280	; 0x2058
80000428:	601a      	str	r2, [r3, #0]
8000042a:	f44f 4380 	mov.w	r3, #16384	; 0x4000
8000042e:	f2c0 230c 	movt	r3, #524	; 0x20c
80000432:	68da      	ldr	r2, [r3, #12]
80000434:	f44f 4380 	mov.w	r3, #16384	; 0x4000
80000438:	f2c0 230c 	movt	r3, #524	; 0x20c
8000043c:	f022 0204 	bic.w	r2, r2, #4
80000440:	60da      	str	r2, [r3, #12]
80000442:	f44f 4380 	mov.w	r3, #16384	; 0x4000
80000446:	f2c0 230c 	movt	r3, #524	; 0x20c
8000044a:	2201      	movs	r2, #1
8000044c:	611a      	str	r2, [r3, #16]
8000044e:	f44f 4300 	mov.w	r3, #32768	; 0x8000
80000452:	f2c0 230c 	movt	r3, #524	; 0x20c
80000456:	f8d3 3100 	ldr.w	r3, [r3, #256]	; 0x100
8000045a:	607b      	str	r3, [r7, #4]
8000045c:	687b      	ldr	r3, [r7, #4]
8000045e:	f003 33c0 	and.w	r3, r3, #3233857728	; 0xc0c0c0c0
80000462:	607b      	str	r3, [r7, #4]
80000464:	687b      	ldr	r3, [r7, #4]
80000466:	f043 5300 	orr.w	r3, r3, #536870912	; 0x20000000
8000046a:	607b      	str	r3, [r7, #4]
8000046c:	687b      	ldr	r3, [r7, #4]
8000046e:	f443 13c0 	orr.w	r3, r3, #1572864	; 0x180000
80000472:	607b      	str	r3, [r7, #4]
80000474:	687b      	ldr	r3, [r7, #4]
80000476:	f443 5380 	orr.w	r3, r3, #4096	; 0x1000
8000047a:	607b      	str	r3, [r7, #4]
8000047c:	687b      	ldr	r3, [r7, #4]
8000047e:	f043 031b 	orr.w	r3, r3, #27
80000482:	607b      	str	r3, [r7, #4]
80000484:	f44f 4300 	mov.w	r3, #32768	; 0x8000
80000488:	f2c0 230c 	movt	r3, #524	; 0x20c
8000048c:	687a      	ldr	r2, [r7, #4]
8000048e:	f8c3 2100 	str.w	r2, [r3, #256]	; 0x100
80000492:	2300      	movs	r3, #0
80000494:	607b      	str	r3, [r7, #4]
80000496:	f44f 4300 	mov.w	r3, #32768	; 0x8000
8000049a:	f2c0 230c 	movt	r3, #524	; 0x20c
8000049e:	f8d3 30f0 	ldr.w	r3, [r3, #240]	; 0xf0
800004a2:	607b      	str	r3, [r7, #4]
800004a4:	687b      	ldr	r3, [r7, #4]
800004a6:	f003 33c0 	and.w	r3, r3, #3233857728	; 0xc0c0c0c0
800004aa:	607b      	str	r3, [r7, #4]
800004ac:	687b      	ldr	r3, [r7, #4]
800004ae:	f043 5398 	orr.w	r3, r3, #318767104	; 0x13000000
800004b2:	607b      	str	r3, [r7, #4]
800004b4:	687b      	ldr	r3, [r7, #4]
800004b6:	f443 1388 	orr.w	r3, r3, #1114112	; 0x110000
800004ba:	607b      	str	r3, [r7, #4]
800004bc:	687b      	ldr	r3, [r7, #4]
800004be:	f443 5380 	orr.w	r3, r3, #4096	; 0x1000
800004c2:	607b      	str	r3, [r7, #4]
800004c4:	687b      	ldr	r3, [r7, #4]
800004c6:	f043 030c 	orr.w	r3, r3, #12
800004ca:	607b      	str	r3, [r7, #4]
800004cc:	f44f 4300 	mov.w	r3, #32768	; 0x8000
800004d0:	f2c0 230c 	movt	r3, #524	; 0x20c
800004d4:	687a      	ldr	r2, [r7, #4]
800004d6:	f8c3 20f0 	str.w	r2, [r3, #240]	; 0xf0
800004da:	f44f 4380 	mov.w	r3, #16384	; 0x4000
800004de:	f2c0 230c 	movt	r3, #524	; 0x20c
800004e2:	699a      	ldr	r2, [r3, #24]
800004e4:	f44f 4380 	mov.w	r3, #16384	; 0x4000
800004e8:	f2c0 230c 	movt	r3, #524	; 0x20c
800004ec:	f422 2240 	bic.w	r2, r2, #786432	; 0xc0000
800004f0:	619a      	str	r2, [r3, #24]
800004f2:	f44f 4380 	mov.w	r3, #16384	; 0x4000
800004f6:	f2c0 230c 	movt	r3, #524	; 0x20c
800004fa:	699a      	ldr	r2, [r3, #24]
800004fc:	f44f 4380 	mov.w	r3, #16384	; 0x4000
80000500:	f2c0 230c 	movt	r3, #524	; 0x20c
80000504:	f442 2280 	orr.w	r2, r2, #262144	; 0x40000
80000508:	619a      	str	r2, [r3, #24]
8000050a:	f44f 4380 	mov.w	r3, #16384	; 0x4000
8000050e:	f2c0 230c 	movt	r3, #524	; 0x20c
80000512:	695a      	ldr	r2, [r3, #20]
80000514:	f44f 4380 	mov.w	r3, #16384	; 0x4000
80000518:	f2c0 230c 	movt	r3, #524	; 0x20c
8000051c:	f022 7200 	bic.w	r2, r2, #33554432	; 0x2000000
80000520:	615a      	str	r2, [r3, #20]
80000522:	bf00      	nop
80000524:	f44f 4380 	mov.w	r3, #16384	; 0x4000
80000528:	f2c0 230c 	movt	r3, #524	; 0x20c
8000052c:	6c9b      	ldr	r3, [r3, #72]	; 0x48
8000052e:	f003 0320 	and.w	r3, r3, #32
80000532:	2b00      	cmp	r3, #0
80000534:	d1f6      	bne.n	80000524 <iimx6ul_clk_init+0x154>
80000536:	f44f 4380 	mov.w	r3, #16384	; 0x4000
8000053a:	f2c0 230c 	movt	r3, #524	; 0x20c
8000053e:	695a      	ldr	r2, [r3, #20]
80000540:	f44f 4380 	mov.w	r3, #16384	; 0x4000
80000544:	f2c0 230c 	movt	r3, #524	; 0x20c
80000548:	f422 7240 	bic.w	r2, r2, #768	; 0x300
8000054c:	615a      	str	r2, [r3, #20]
8000054e:	f44f 4380 	mov.w	r3, #16384	; 0x4000
80000552:	f2c0 230c 	movt	r3, #524	; 0x20c
80000556:	695a      	ldr	r2, [r3, #20]
80000558:	f44f 4380 	mov.w	r3, #16384	; 0x4000
8000055c:	f2c0 230c 	movt	r3, #524	; 0x20c
80000560:	f442 7280 	orr.w	r2, r2, #256	; 0x100
80000564:	615a      	str	r2, [r3, #20]
80000566:	f44f 4380 	mov.w	r3, #16384	; 0x4000
8000056a:	f2c0 230c 	movt	r3, #524	; 0x20c
8000056e:	69da      	ldr	r2, [r3, #28]
80000570:	f44f 4380 	mov.w	r3, #16384	; 0x4000
80000574:	f2c0 230c 	movt	r3, #524	; 0x20c
80000578:	f022 0240 	bic.w	r2, r2, #64	; 0x40
8000057c:	61da      	str	r2, [r3, #28]
8000057e:	f44f 4380 	mov.w	r3, #16384	; 0x4000
80000582:	f2c0 230c 	movt	r3, #524	; 0x20c
80000586:	69da      	ldr	r2, [r3, #28]
80000588:	f44f 4380 	mov.w	r3, #16384	; 0x4000
8000058c:	f2c0 230c 	movt	r3, #524	; 0x20c
80000590:	f022 0207 	bic.w	r2, r2, #7
80000594:	61da      	str	r2, [r3, #28]
80000596:	bf00      	nop
80000598:	370c      	adds	r7, #12
8000059a:	46bd      	mov	sp, r7
8000059c:	f85d 7b04 	ldr.w	r7, [sp], #4
800005a0:	4770      	bx	lr

800005a2 <IOMUXC_SetPinMux>:
800005a2:	b480      	push	{r7}
800005a4:	b085      	sub	sp, #20
800005a6:	af00      	add	r7, sp, #0
800005a8:	60f8      	str	r0, [r7, #12]
800005aa:	60b9      	str	r1, [r7, #8]
800005ac:	607a      	str	r2, [r7, #4]
800005ae:	603b      	str	r3, [r7, #0]
800005b0:	68bb      	ldr	r3, [r7, #8]
800005b2:	f003 010f 	and.w	r1, r3, #15
800005b6:	69fb      	ldr	r3, [r7, #28]
800005b8:	011b      	lsls	r3, r3, #4
800005ba:	f003 0210 	and.w	r2, r3, #16
800005be:	68fb      	ldr	r3, [r7, #12]
800005c0:	430a      	orrs	r2, r1
800005c2:	601a      	str	r2, [r3, #0]
800005c4:	687b      	ldr	r3, [r7, #4]
800005c6:	2b00      	cmp	r3, #0
800005c8:	d004      	beq.n	800005d4 <IOMUXC_SetPinMux+0x32>
800005ca:	687b      	ldr	r3, [r7, #4]
800005cc:	683a      	ldr	r2, [r7, #0]
800005ce:	f002 0207 	and.w	r2, r2, #7
800005d2:	601a      	str	r2, [r3, #0]
800005d4:	bf00      	nop
800005d6:	3714      	adds	r7, #20
800005d8:	46bd      	mov	sp, r7
800005da:	f85d 7b04 	ldr.w	r7, [sp], #4
800005de:	4770      	bx	lr

800005e0 <IOMUXC_SetPinConfig>:
800005e0:	b480      	push	{r7}
800005e2:	b085      	sub	sp, #20
800005e4:	af00      	add	r7, sp, #0
800005e6:	60f8      	str	r0, [r7, #12]
800005e8:	60b9      	str	r1, [r7, #8]
800005ea:	607a      	str	r2, [r7, #4]
800005ec:	603b      	str	r3, [r7, #0]
800005ee:	69bb      	ldr	r3, [r7, #24]
800005f0:	2b00      	cmp	r3, #0
800005f2:	d002      	beq.n	800005fa <IOMUXC_SetPinConfig+0x1a>
800005f4:	69bb      	ldr	r3, [r7, #24]
800005f6:	69fa      	ldr	r2, [r7, #28]
800005f8:	601a      	str	r2, [r3, #0]
800005fa:	bf00      	nop
800005fc:	3714      	adds	r7, #20
800005fe:	46bd      	mov	sp, r7
80000600:	f85d 7b04 	ldr.w	r7, [sp], #4
80000604:	4770      	bx	lr

80000606 <led_init>:
80000606:	b580      	push	{r7, lr}
80000608:	b082      	sub	sp, #8
8000060a:	af02      	add	r7, sp, #8
8000060c:	2300      	movs	r3, #0
8000060e:	9301      	str	r3, [sp, #4]
80000610:	f44f 733d 	mov.w	r3, #756	; 0x2f4
80000614:	f2c0 230e 	movt	r3, #526	; 0x20e
80000618:	9300      	str	r3, [sp, #0]
8000061a:	2300      	movs	r3, #0
8000061c:	2200      	movs	r2, #0
8000061e:	2105      	movs	r1, #5
80000620:	2068      	movs	r0, #104	; 0x68
80000622:	f2c0 200e 	movt	r0, #526	; 0x20e
80000626:	f7ff ffbc 	bl	800005a2 <IOMUXC_SetPinMux>
8000062a:	f241 03b0 	movw	r3, #4272	; 0x10b0
8000062e:	9301      	str	r3, [sp, #4]
80000630:	f44f 733d 	mov.w	r3, #756	; 0x2f4
80000634:	f2c0 230e 	movt	r3, #526	; 0x20e
80000638:	9300      	str	r3, [sp, #0]
8000063a:	2300      	movs	r3, #0
8000063c:	2200      	movs	r2, #0
8000063e:	2105      	movs	r1, #5
80000640:	2068      	movs	r0, #104	; 0x68
80000642:	f2c0 200e 	movt	r0, #526	; 0x20e
80000646:	f7ff ffcb 	bl	800005e0 <IOMUXC_SetPinConfig>
8000064a:	f44f 4340 	mov.w	r3, #49152	; 0xc000
8000064e:	f2c0 2309 	movt	r3, #521	; 0x209
80000652:	685a      	ldr	r2, [r3, #4]
80000654:	f44f 4340 	mov.w	r3, #49152	; 0xc000
80000658:	f2c0 2309 	movt	r3, #521	; 0x209
8000065c:	f042 0208 	orr.w	r2, r2, #8
80000660:	605a      	str	r2, [r3, #4]
80000662:	f44f 4340 	mov.w	r3, #49152	; 0xc000
80000666:	f2c0 2309 	movt	r3, #521	; 0x209
8000066a:	681a      	ldr	r2, [r3, #0]
8000066c:	f44f 4340 	mov.w	r3, #49152	; 0xc000
80000670:	f2c0 2309 	movt	r3, #521	; 0x209
80000674:	f022 0208 	bic.w	r2, r2, #8
80000678:	601a      	str	r2, [r3, #0]
8000067a:	bf00      	nop
8000067c:	46bd      	mov	sp, r7
8000067e:	bd80      	pop	{r7, pc}

80000680 <led_on>:
80000680:	b480      	push	{r7}
80000682:	af00      	add	r7, sp, #0
80000684:	f44f 4340 	mov.w	r3, #49152	; 0xc000
80000688:	f2c0 2309 	movt	r3, #521	; 0x209
8000068c:	681a      	ldr	r2, [r3, #0]
8000068e:	f44f 4340 	mov.w	r3, #49152	; 0xc000
80000692:	f2c0 2309 	movt	r3, #521	; 0x209
80000696:	f022 0208 	bic.w	r2, r2, #8
8000069a:	601a      	str	r2, [r3, #0]
8000069c:	bf00      	nop
8000069e:	46bd      	mov	sp, r7
800006a0:	f85d 7b04 	ldr.w	r7, [sp], #4
800006a4:	4770      	bx	lr

800006a6 <led_off>:
800006a6:	b480      	push	{r7}
800006a8:	af00      	add	r7, sp, #0
800006aa:	f44f 4340 	mov.w	r3, #49152	; 0xc000
800006ae:	f2c0 2309 	movt	r3, #521	; 0x209
800006b2:	681a      	ldr	r2, [r3, #0]
800006b4:	f44f 4340 	mov.w	r3, #49152	; 0xc000
800006b8:	f2c0 2309 	movt	r3, #521	; 0x209
800006bc:	f042 0208 	orr.w	r2, r2, #8
800006c0:	601a      	str	r2, [r3, #0]
800006c2:	bf00      	nop
800006c4:	46bd      	mov	sp, r7
800006c6:	f85d 7b04 	ldr.w	r7, [sp], #4
800006ca:	4770      	bx	lr

800006cc <led_switch>:
800006cc:	b580      	push	{r7, lr}
800006ce:	b082      	sub	sp, #8
800006d0:	af00      	add	r7, sp, #0
800006d2:	6078      	str	r0, [r7, #4]
800006d4:	6039      	str	r1, [r7, #0]
800006d6:	2103      	movs	r1, #3
800006d8:	f44f 4040 	mov.w	r0, #49152	; 0xc000
800006dc:	f2c0 2009 	movt	r0, #521	; 0x209
800006e0:	f000 f9fa 	bl	80000ad8 <gpio_pinread>
800006e4:	4603      	mov	r3, r0
800006e6:	2b00      	cmp	r3, #0
800006e8:	d008      	beq.n	800006fc <led_switch+0x30>
800006ea:	2200      	movs	r2, #0
800006ec:	2103      	movs	r1, #3
800006ee:	f44f 4040 	mov.w	r0, #49152	; 0xc000
800006f2:	f2c0 2009 	movt	r0, #521	; 0x209
800006f6:	f000 fa01 	bl	80000afc <gpio_pinwrite>
800006fa:	e007      	b.n	8000070c <led_switch+0x40>
800006fc:	2201      	movs	r2, #1
800006fe:	2103      	movs	r1, #3
80000700:	f44f 4040 	mov.w	r0, #49152	; 0xc000
80000704:	f2c0 2009 	movt	r0, #521	; 0x209
80000708:	f000 f9f8 	bl	80000afc <gpio_pinwrite>
8000070c:	bf00      	nop
8000070e:	3708      	adds	r7, #8
80000710:	46bd      	mov	sp, r7
80000712:	bd80      	pop	{r7, pc}

80000714 <delay_init>:
80000714:	b480      	push	{r7}
80000716:	af00      	add	r7, sp, #0
80000718:	f44f 4300 	mov.w	r3, #32768	; 0x8000
8000071c:	f2c0 230e 	movt	r3, #526	; 0x20e
80000720:	2200      	movs	r2, #0
80000722:	601a      	str	r2, [r3, #0]
80000724:	f44f 4300 	mov.w	r3, #32768	; 0x8000
80000728:	f2c0 230e 	movt	r3, #526	; 0x20e
8000072c:	f44f 4200 	mov.w	r2, #32768	; 0x8000
80000730:	601a      	str	r2, [r3, #0]
80000732:	bf00      	nop
80000734:	f44f 4300 	mov.w	r3, #32768	; 0x8000
80000738:	f2c0 230e 	movt	r3, #526	; 0x20e
8000073c:	681b      	ldr	r3, [r3, #0]
8000073e:	f403 4300 	and.w	r3, r3, #32768	; 0x8000
80000742:	2b00      	cmp	r3, #0
80000744:	d1f6      	bne.n	80000734 <delay_init+0x20>
80000746:	f44f 4300 	mov.w	r3, #32768	; 0x8000
8000074a:	f2c0 230e 	movt	r3, #526	; 0x20e
8000074e:	2240      	movs	r2, #64	; 0x40
80000750:	601a      	str	r2, [r3, #0]
80000752:	f44f 4300 	mov.w	r3, #32768	; 0x8000
80000756:	f2c0 230e 	movt	r3, #526	; 0x20e
8000075a:	2241      	movs	r2, #65	; 0x41
8000075c:	605a      	str	r2, [r3, #4]
8000075e:	f44f 4300 	mov.w	r3, #32768	; 0x8000
80000762:	f2c0 230e 	movt	r3, #526	; 0x20e
80000766:	f04f 32ff 	mov.w	r2, #4294967295	; 0xffffffff
8000076a:	611a      	str	r2, [r3, #16]
8000076c:	f44f 4300 	mov.w	r3, #32768	; 0x8000
80000770:	f2c0 230e 	movt	r3, #526	; 0x20e
80000774:	681a      	ldr	r2, [r3, #0]
80000776:	f44f 4300 	mov.w	r3, #32768	; 0x8000
8000077a:	f2c0 230e 	movt	r3, #526	; 0x20e
8000077e:	f042 0201 	orr.w	r2, r2, #1
80000782:	601a      	str	r2, [r3, #0]
80000784:	bf00      	nop
80000786:	46bd      	mov	sp, r7
80000788:	f85d 7b04 	ldr.w	r7, [sp], #4
8000078c:	4770      	bx	lr

8000078e <delayus>:
8000078e:	b480      	push	{r7}
80000790:	b087      	sub	sp, #28
80000792:	af00      	add	r7, sp, #0
80000794:	6078      	str	r0, [r7, #4]
80000796:	2300      	movs	r3, #0
80000798:	613b      	str	r3, [r7, #16]
8000079a:	f44f 4300 	mov.w	r3, #32768	; 0x8000
8000079e:	f2c0 230e 	movt	r3, #526	; 0x20e
800007a2:	6a5b      	ldr	r3, [r3, #36]	; 0x24
800007a4:	617b      	str	r3, [r7, #20]
800007a6:	f44f 4300 	mov.w	r3, #32768	; 0x8000
800007aa:	f2c0 230e 	movt	r3, #526	; 0x20e
800007ae:	6a5b      	ldr	r3, [r3, #36]	; 0x24
800007b0:	60fb      	str	r3, [r7, #12]
800007b2:	68fa      	ldr	r2, [r7, #12]
800007b4:	697b      	ldr	r3, [r7, #20]
800007b6:	429a      	cmp	r2, r3
800007b8:	d0f5      	beq.n	800007a6 <delayus+0x18>
800007ba:	68fa      	ldr	r2, [r7, #12]
800007bc:	697b      	ldr	r3, [r7, #20]
800007be:	429a      	cmp	r2, r3
800007c0:	d906      	bls.n	800007d0 <delayus+0x42>
800007c2:	68fa      	ldr	r2, [r7, #12]
800007c4:	697b      	ldr	r3, [r7, #20]
800007c6:	1ad3      	subs	r3, r2, r3
800007c8:	693a      	ldr	r2, [r7, #16]
800007ca:	4413      	add	r3, r2
800007cc:	613b      	str	r3, [r7, #16]
800007ce:	e006      	b.n	800007de <delayus+0x50>
800007d0:	68fa      	ldr	r2, [r7, #12]
800007d2:	697b      	ldr	r3, [r7, #20]
800007d4:	1ad2      	subs	r2, r2, r3
800007d6:	693b      	ldr	r3, [r7, #16]
800007d8:	4413      	add	r3, r2
800007da:	3b01      	subs	r3, #1
800007dc:	613b      	str	r3, [r7, #16]
800007de:	68fb      	ldr	r3, [r7, #12]
800007e0:	617b      	str	r3, [r7, #20]
800007e2:	693a      	ldr	r2, [r7, #16]
800007e4:	687b      	ldr	r3, [r7, #4]
800007e6:	429a      	cmp	r2, r3
800007e8:	d200      	bcs.n	800007ec <delayus+0x5e>
800007ea:	e7dc      	b.n	800007a6 <delayus+0x18>
800007ec:	bf00      	nop
800007ee:	bf00      	nop
800007f0:	371c      	adds	r7, #28
800007f2:	46bd      	mov	sp, r7
800007f4:	f85d 7b04 	ldr.w	r7, [sp], #4
800007f8:	4770      	bx	lr

800007fa <delayms>:
800007fa:	b580      	push	{r7, lr}
800007fc:	b084      	sub	sp, #16
800007fe:	af00      	add	r7, sp, #0
80000800:	6078      	str	r0, [r7, #4]
80000802:	2300      	movs	r3, #0
80000804:	60fb      	str	r3, [r7, #12]
80000806:	2300      	movs	r3, #0
80000808:	60fb      	str	r3, [r7, #12]
8000080a:	e006      	b.n	8000081a <delayms+0x20>
8000080c:	f44f 707a 	mov.w	r0, #1000	; 0x3e8
80000810:	f7ff ffbd 	bl	8000078e <delayus>
80000814:	68fb      	ldr	r3, [r7, #12]
80000816:	3301      	adds	r3, #1
80000818:	60fb      	str	r3, [r7, #12]
8000081a:	68fb      	ldr	r3, [r7, #12]
8000081c:	687a      	ldr	r2, [r7, #4]
8000081e:	429a      	cmp	r2, r3
80000820:	d8f4      	bhi.n	8000080c <delayms+0x12>
80000822:	bf00      	nop
80000824:	bf00      	nop
80000826:	3710      	adds	r7, #16
80000828:	46bd      	mov	sp, r7
8000082a:	bd80      	pop	{r7, pc}

8000082c <delay_short>:
8000082c:	b480      	push	{r7}
8000082e:	b083      	sub	sp, #12
80000830:	af00      	add	r7, sp, #0
80000832:	6078      	str	r0, [r7, #4]
80000834:	bf00      	nop
80000836:	687b      	ldr	r3, [r7, #4]
80000838:	1e5a      	subs	r2, r3, #1
8000083a:	607a      	str	r2, [r7, #4]
8000083c:	2b00      	cmp	r3, #0
8000083e:	d1fa      	bne.n	80000836 <delay_short+0xa>
80000840:	bf00      	nop
80000842:	bf00      	nop
80000844:	370c      	adds	r7, #12
80000846:	46bd      	mov	sp, r7
80000848:	f85d 7b04 	ldr.w	r7, [sp], #4
8000084c:	4770      	bx	lr

8000084e <delay>:
8000084e:	b580      	push	{r7, lr}
80000850:	b082      	sub	sp, #8
80000852:	af00      	add	r7, sp, #0
80000854:	6078      	str	r0, [r7, #4]
80000856:	e003      	b.n	80000860 <delay+0x12>
80000858:	f240 70ff 	movw	r0, #2047	; 0x7ff
8000085c:	f7ff ffe6 	bl	8000082c <delay_short>
80000860:	687b      	ldr	r3, [r7, #4]
80000862:	1e5a      	subs	r2, r3, #1
80000864:	607a      	str	r2, [r7, #4]
80000866:	2b00      	cmp	r3, #0
80000868:	d1f6      	bne.n	80000858 <delay+0xa>
8000086a:	bf00      	nop
8000086c:	bf00      	nop
8000086e:	3708      	adds	r7, #8
80000870:	46bd      	mov	sp, r7
80000872:	bd80      	pop	{r7, pc}

80000874 <gpt1_init>:
80000874:	b580      	push	{r7, lr}
80000876:	b088      	sub	sp, #32
80000878:	af00      	add	r7, sp, #0
8000087a:	6078      	str	r0, [r7, #4]
8000087c:	f44f 4300 	mov.w	r3, #32768	; 0x8000
80000880:	f2c0 2309 	movt	r3, #521	; 0x209
80000884:	2200      	movs	r2, #0
80000886:	601a      	str	r2, [r3, #0]
80000888:	f44f 4300 	mov.w	r3, #32768	; 0x8000
8000088c:	f2c0 2309 	movt	r3, #521	; 0x209
80000890:	f44f 4200 	mov.w	r2, #32768	; 0x8000
80000894:	601a      	str	r2, [r3, #0]
80000896:	bf00      	nop
80000898:	f44f 4300 	mov.w	r3, #32768	; 0x8000
8000089c:	f2c0 2309 	movt	r3, #521	; 0x209
800008a0:	681b      	ldr	r3, [r3, #0]
800008a2:	f403 4300 	and.w	r3, r3, #32768	; 0x8000
800008a6:	2b00      	cmp	r3, #0
800008a8:	d1f6      	bne.n	80000898 <gpt1_init+0x24>
800008aa:	f44f 4300 	mov.w	r3, #32768	; 0x8000
800008ae:	f2c0 2309 	movt	r3, #521	; 0x209
800008b2:	2240      	movs	r2, #64	; 0x40
800008b4:	601a      	str	r2, [r3, #0]
800008b6:	f44f 4300 	mov.w	r3, #32768	; 0x8000
800008ba:	f2c0 2309 	movt	r3, #521	; 0x209
800008be:	2241      	movs	r2, #65	; 0x41
800008c0:	605a      	str	r2, [r3, #4]
800008c2:	f44f 4300 	mov.w	r3, #32768	; 0x8000
800008c6:	f2c0 2309 	movt	r3, #521	; 0x209
800008ca:	681a      	ldr	r2, [r3, #0]
800008cc:	f44f 4300 	mov.w	r3, #32768	; 0x8000
800008d0:	f2c0 2309 	movt	r3, #521	; 0x209
800008d4:	f042 0201 	orr.w	r2, r2, #1
800008d8:	601a      	str	r2, [r3, #0]
800008da:	f44f 4300 	mov.w	r3, #32768	; 0x8000
800008de:	f2c0 2309 	movt	r3, #521	; 0x209
800008e2:	687a      	ldr	r2, [r7, #4]
800008e4:	611a      	str	r2, [r3, #16]
800008e6:	f44f 4300 	mov.w	r3, #32768	; 0x8000
800008ea:	f2c0 2309 	movt	r3, #521	; 0x209
800008ee:	68da      	ldr	r2, [r3, #12]
800008f0:	f44f 4300 	mov.w	r3, #32768	; 0x8000
800008f4:	f2c0 2309 	movt	r3, #521	; 0x209
800008f8:	f042 0201 	orr.w	r2, r2, #1
800008fc:	60da      	str	r2, [r3, #12]
800008fe:	2357      	movs	r3, #87	; 0x57
80000900:	613b      	str	r3, [r7, #16]
80000902:	f44f 0320 	mov.w	r3, #10485760	; 0xa00000
80000906:	0c1b      	lsrs	r3, r3, #16
80000908:	041b      	lsls	r3, r3, #16
8000090a:	60fb      	str	r3, [r7, #12]
8000090c:	693b      	ldr	r3, [r7, #16]
8000090e:	f003 031f 	and.w	r3, r3, #31
80000912:	693a      	ldr	r2, [r7, #16]
80000914:	0952      	lsrs	r2, r2, #5
80000916:	2101      	movs	r1, #1
80000918:	4099      	lsls	r1, r3
8000091a:	68fb      	ldr	r3, [r7, #12]
8000091c:	f502 6288 	add.w	r2, r2, #1088	; 0x440
80000920:	f843 1022 	str.w	r1, [r3, r2, lsl #2]
80000924:	bf00      	nop
80000926:	2357      	movs	r3, #87	; 0x57
80000928:	61fb      	str	r3, [r7, #28]
8000092a:	2340      	movs	r3, #64	; 0x40
8000092c:	61bb      	str	r3, [r7, #24]
8000092e:	f44f 0320 	mov.w	r3, #10485760	; 0xa00000
80000932:	0c1b      	lsrs	r3, r3, #16
80000934:	041b      	lsls	r3, r3, #16
80000936:	617b      	str	r3, [r7, #20]
80000938:	69bb      	ldr	r3, [r7, #24]
8000093a:	b2da      	uxtb	r2, r3
8000093c:	69fb      	ldr	r3, [r7, #28]
8000093e:	00d2      	lsls	r2, r2, #3
80000940:	b2d1      	uxtb	r1, r2
80000942:	697a      	ldr	r2, [r7, #20]
80000944:	4413      	add	r3, r2
80000946:	f503 53a0 	add.w	r3, r3, #5120	; 0x1400
8000094a:	460a      	mov	r2, r1
8000094c:	701a      	strb	r2, [r3, #0]
8000094e:	bf00      	nop
80000950:	b662      	cpsie	i
80000952:	2200      	movs	r2, #0
80000954:	4b04      	ldr	r3, [pc, #16]	; (80000968 <gpt1_init+0xf4>)
80000956:	447b      	add	r3, pc
80000958:	4619      	mov	r1, r3
8000095a:	2057      	movs	r0, #87	; 0x57
8000095c:	f000 fb08 	bl	80000f70 <system_register_irqhandler>
80000960:	bf00      	nop
80000962:	3720      	adds	r7, #32
80000964:	46bd      	mov	sp, r7
80000966:	bd80      	pop	{r7, pc}
80000968:	00000013 	andeq	r0, r0, r3, lsl r0

8000096c <gpt1_irqhandler>:
8000096c:	b580      	push	{r7, lr}
8000096e:	af00      	add	r7, sp, #0
80000970:	f44f 4300 	mov.w	r3, #32768	; 0x8000
80000974:	f2c0 2309 	movt	r3, #521	; 0x209
80000978:	689b      	ldr	r3, [r3, #8]
8000097a:	f003 0301 	and.w	r3, r3, #1
8000097e:	2b00      	cmp	r3, #0
80000980:	d004      	beq.n	8000098c <gpt1_irqhandler+0x20>
80000982:	4b09      	ldr	r3, [pc, #36]	; (800009a8 <gpt1_irqhandler+0x3c>)
80000984:	447b      	add	r3, pc
80000986:	4618      	mov	r0, r3
80000988:	f000 ff4c 	bl	80001824 <puts>
8000098c:	f44f 4300 	mov.w	r3, #32768	; 0x8000
80000990:	f2c0 2309 	movt	r3, #521	; 0x209
80000994:	689a      	ldr	r2, [r3, #8]
80000996:	f44f 4300 	mov.w	r3, #32768	; 0x8000
8000099a:	f2c0 2309 	movt	r3, #521	; 0x209
8000099e:	f042 0201 	orr.w	r2, r2, #1
800009a2:	609a      	str	r2, [r3, #8]
800009a4:	bf00      	nop
800009a6:	bd80      	pop	{r7, pc}
800009a8:	00003624 	andeq	r3, r0, r4, lsr #12

800009ac <IOMUXC_SetPinMux>:
800009ac:	b480      	push	{r7}
800009ae:	b085      	sub	sp, #20
800009b0:	af00      	add	r7, sp, #0
800009b2:	60f8      	str	r0, [r7, #12]
800009b4:	60b9      	str	r1, [r7, #8]
800009b6:	607a      	str	r2, [r7, #4]
800009b8:	603b      	str	r3, [r7, #0]
800009ba:	68bb      	ldr	r3, [r7, #8]
800009bc:	f003 010f 	and.w	r1, r3, #15
800009c0:	69fb      	ldr	r3, [r7, #28]
800009c2:	011b      	lsls	r3, r3, #4
800009c4:	f003 0210 	and.w	r2, r3, #16
800009c8:	68fb      	ldr	r3, [r7, #12]
800009ca:	430a      	orrs	r2, r1
800009cc:	601a      	str	r2, [r3, #0]
800009ce:	687b      	ldr	r3, [r7, #4]
800009d0:	2b00      	cmp	r3, #0
800009d2:	d004      	beq.n	800009de <IOMUXC_SetPinMux+0x32>
800009d4:	687b      	ldr	r3, [r7, #4]
800009d6:	683a      	ldr	r2, [r7, #0]
800009d8:	f002 0207 	and.w	r2, r2, #7
800009dc:	601a      	str	r2, [r3, #0]
800009de:	bf00      	nop
800009e0:	3714      	adds	r7, #20
800009e2:	46bd      	mov	sp, r7
800009e4:	f85d 7b04 	ldr.w	r7, [sp], #4
800009e8:	4770      	bx	lr

800009ea <IOMUXC_SetPinConfig>:
800009ea:	b480      	push	{r7}
800009ec:	b085      	sub	sp, #20
800009ee:	af00      	add	r7, sp, #0
800009f0:	60f8      	str	r0, [r7, #12]
800009f2:	60b9      	str	r1, [r7, #8]
800009f4:	607a      	str	r2, [r7, #4]
800009f6:	603b      	str	r3, [r7, #0]
800009f8:	69bb      	ldr	r3, [r7, #24]
800009fa:	2b00      	cmp	r3, #0
800009fc:	d002      	beq.n	80000a04 <IOMUXC_SetPinConfig+0x1a>
800009fe:	69bb      	ldr	r3, [r7, #24]
80000a00:	69fa      	ldr	r2, [r7, #28]
80000a02:	601a      	str	r2, [r3, #0]
80000a04:	bf00      	nop
80000a06:	3714      	adds	r7, #20
80000a08:	46bd      	mov	sp, r7
80000a0a:	f85d 7b04 	ldr.w	r7, [sp], #4
80000a0e:	4770      	bx	lr

80000a10 <beep_init>:
80000a10:	b580      	push	{r7, lr}
80000a12:	b082      	sub	sp, #8
80000a14:	af02      	add	r7, sp, #8
80000a16:	2300      	movs	r3, #0
80000a18:	9301      	str	r3, [sp, #4]
80000a1a:	2350      	movs	r3, #80	; 0x50
80000a1c:	f2c0 2329 	movt	r3, #553	; 0x229
80000a20:	9300      	str	r3, [sp, #0]
80000a22:	2300      	movs	r3, #0
80000a24:	2200      	movs	r2, #0
80000a26:	2105      	movs	r1, #5
80000a28:	200c      	movs	r0, #12
80000a2a:	f2c0 2029 	movt	r0, #553	; 0x229
80000a2e:	f7ff ffbd 	bl	800009ac <IOMUXC_SetPinMux>
80000a32:	f241 03b0 	movw	r3, #4272	; 0x10b0
80000a36:	9301      	str	r3, [sp, #4]
80000a38:	2350      	movs	r3, #80	; 0x50
80000a3a:	f2c0 2329 	movt	r3, #553	; 0x229
80000a3e:	9300      	str	r3, [sp, #0]
80000a40:	2300      	movs	r3, #0
80000a42:	2200      	movs	r2, #0
80000a44:	2105      	movs	r1, #5
80000a46:	200c      	movs	r0, #12
80000a48:	f2c0 2029 	movt	r0, #553	; 0x229
80000a4c:	f7ff ffcd 	bl	800009ea <IOMUXC_SetPinConfig>
80000a50:	f44f 4340 	mov.w	r3, #49152	; 0xc000
80000a54:	f2c0 230a 	movt	r3, #522	; 0x20a
80000a58:	685a      	ldr	r2, [r3, #4]
80000a5a:	f44f 4340 	mov.w	r3, #49152	; 0xc000
80000a5e:	f2c0 230a 	movt	r3, #522	; 0x20a
80000a62:	f042 0202 	orr.w	r2, r2, #2
80000a66:	605a      	str	r2, [r3, #4]
80000a68:	f44f 4340 	mov.w	r3, #49152	; 0xc000
80000a6c:	f2c0 230a 	movt	r3, #522	; 0x20a
80000a70:	681a      	ldr	r2, [r3, #0]
80000a72:	f44f 4340 	mov.w	r3, #49152	; 0xc000
80000a76:	f2c0 230a 	movt	r3, #522	; 0x20a
80000a7a:	f042 0202 	orr.w	r2, r2, #2
80000a7e:	601a      	str	r2, [r3, #0]
80000a80:	bf00      	nop
80000a82:	46bd      	mov	sp, r7
80000a84:	bd80      	pop	{r7, pc}

80000a86 <beep_switch>:
80000a86:	b480      	push	{r7}
80000a88:	b083      	sub	sp, #12
80000a8a:	af00      	add	r7, sp, #0
80000a8c:	6078      	str	r0, [r7, #4]
80000a8e:	687b      	ldr	r3, [r7, #4]
80000a90:	2b01      	cmp	r3, #1
80000a92:	d10c      	bne.n	80000aae <beep_switch+0x28>
80000a94:	f44f 4340 	mov.w	r3, #49152	; 0xc000
80000a98:	f2c0 230a 	movt	r3, #522	; 0x20a
80000a9c:	681a      	ldr	r2, [r3, #0]
80000a9e:	f44f 4340 	mov.w	r3, #49152	; 0xc000
80000aa2:	f2c0 230a 	movt	r3, #522	; 0x20a
80000aa6:	f022 0202 	bic.w	r2, r2, #2
80000aaa:	601a      	str	r2, [r3, #0]
80000aac:	e00e      	b.n	80000acc <beep_switch+0x46>
80000aae:	687b      	ldr	r3, [r7, #4]
80000ab0:	2b00      	cmp	r3, #0
80000ab2:	d10b      	bne.n	80000acc <beep_switch+0x46>
80000ab4:	f44f 4340 	mov.w	r3, #49152	; 0xc000
80000ab8:	f2c0 230a 	movt	r3, #522	; 0x20a
80000abc:	681a      	ldr	r2, [r3, #0]
80000abe:	f44f 4340 	mov.w	r3, #49152	; 0xc000
80000ac2:	f2c0 230a 	movt	r3, #522	; 0x20a
80000ac6:	f042 0202 	orr.w	r2, r2, #2
80000aca:	601a      	str	r2, [r3, #0]
80000acc:	bf00      	nop
80000ace:	370c      	adds	r7, #12
80000ad0:	46bd      	mov	sp, r7
80000ad2:	f85d 7b04 	ldr.w	r7, [sp], #4
80000ad6:	4770      	bx	lr

80000ad8 <gpio_pinread>:
80000ad8:	b480      	push	{r7}
80000ada:	b083      	sub	sp, #12
80000adc:	af00      	add	r7, sp, #0
80000ade:	6078      	str	r0, [r7, #4]
80000ae0:	6039      	str	r1, [r7, #0]
80000ae2:	687b      	ldr	r3, [r7, #4]
80000ae4:	681a      	ldr	r2, [r3, #0]
80000ae6:	683b      	ldr	r3, [r7, #0]
80000ae8:	fa22 f303 	lsr.w	r3, r2, r3
80000aec:	f003 0301 	and.w	r3, r3, #1
80000af0:	4618      	mov	r0, r3
80000af2:	370c      	adds	r7, #12
80000af4:	46bd      	mov	sp, r7
80000af6:	f85d 7b04 	ldr.w	r7, [sp], #4
80000afa:	4770      	bx	lr

80000afc <gpio_pinwrite>:
80000afc:	b480      	push	{r7}
80000afe:	b085      	sub	sp, #20
80000b00:	af00      	add	r7, sp, #0
80000b02:	60f8      	str	r0, [r7, #12]
80000b04:	60b9      	str	r1, [r7, #8]
80000b06:	607a      	str	r2, [r7, #4]
80000b08:	687b      	ldr	r3, [r7, #4]
80000b0a:	2b00      	cmp	r3, #0
80000b0c:	d10a      	bne.n	80000b24 <gpio_pinwrite+0x28>
80000b0e:	68fb      	ldr	r3, [r7, #12]
80000b10:	681b      	ldr	r3, [r3, #0]
80000b12:	2101      	movs	r1, #1
80000b14:	68ba      	ldr	r2, [r7, #8]
80000b16:	fa01 f202 	lsl.w	r2, r1, r2
80000b1a:	43d2      	mvns	r2, r2
80000b1c:	401a      	ands	r2, r3
80000b1e:	68fb      	ldr	r3, [r7, #12]
80000b20:	601a      	str	r2, [r3, #0]
80000b22:	e008      	b.n	80000b36 <gpio_pinwrite+0x3a>
80000b24:	68fb      	ldr	r3, [r7, #12]
80000b26:	681b      	ldr	r3, [r3, #0]
80000b28:	2101      	movs	r1, #1
80000b2a:	68ba      	ldr	r2, [r7, #8]
80000b2c:	fa01 f202 	lsl.w	r2, r1, r2
80000b30:	431a      	orrs	r2, r3
80000b32:	68fb      	ldr	r3, [r7, #12]
80000b34:	601a      	str	r2, [r3, #0]
80000b36:	bf00      	nop
80000b38:	3714      	adds	r7, #20
80000b3a:	46bd      	mov	sp, r7
80000b3c:	f85d 7b04 	ldr.w	r7, [sp], #4
80000b40:	4770      	bx	lr

80000b42 <gpio_init>:
80000b42:	b580      	push	{r7, lr}
80000b44:	b084      	sub	sp, #16
80000b46:	af00      	add	r7, sp, #0
80000b48:	60f8      	str	r0, [r7, #12]
80000b4a:	60b9      	str	r1, [r7, #8]
80000b4c:	607a      	str	r2, [r7, #4]
80000b4e:	687b      	ldr	r3, [r7, #4]
80000b50:	681b      	ldr	r3, [r3, #0]
80000b52:	2b00      	cmp	r3, #0
80000b54:	d10a      	bne.n	80000b6c <gpio_init+0x2a>
80000b56:	68fb      	ldr	r3, [r7, #12]
80000b58:	685b      	ldr	r3, [r3, #4]
80000b5a:	2101      	movs	r1, #1
80000b5c:	68ba      	ldr	r2, [r7, #8]
80000b5e:	fa01 f202 	lsl.w	r2, r1, r2
80000b62:	43d2      	mvns	r2, r2
80000b64:	401a      	ands	r2, r3
80000b66:	68fb      	ldr	r3, [r7, #12]
80000b68:	605a      	str	r2, [r3, #4]
80000b6a:	e00f      	b.n	80000b8c <gpio_init+0x4a>
80000b6c:	68fb      	ldr	r3, [r7, #12]
80000b6e:	685b      	ldr	r3, [r3, #4]
80000b70:	2101      	movs	r1, #1
80000b72:	68ba      	ldr	r2, [r7, #8]
80000b74:	fa01 f202 	lsl.w	r2, r1, r2
80000b78:	431a      	orrs	r2, r3
80000b7a:	68fb      	ldr	r3, [r7, #12]
80000b7c:	605a      	str	r2, [r3, #4]
80000b7e:	687b      	ldr	r3, [r7, #4]
80000b80:	791b      	ldrb	r3, [r3, #4]
80000b82:	461a      	mov	r2, r3
80000b84:	68b9      	ldr	r1, [r7, #8]
80000b86:	68f8      	ldr	r0, [r7, #12]
80000b88:	f7ff ffb8 	bl	80000afc <gpio_pinwrite>
80000b8c:	687b      	ldr	r3, [r7, #4]
80000b8e:	689b      	ldr	r3, [r3, #8]
80000b90:	2b00      	cmp	r3, #0
80000b92:	d006      	beq.n	80000ba2 <gpio_init+0x60>
80000b94:	68b9      	ldr	r1, [r7, #8]
80000b96:	687b      	ldr	r3, [r7, #4]
80000b98:	689b      	ldr	r3, [r3, #8]
80000b9a:	461a      	mov	r2, r3
80000b9c:	68f8      	ldr	r0, [r7, #12]
80000b9e:	f000 f804 	bl	80000baa <gpio_intconfig>
80000ba2:	bf00      	nop
80000ba4:	3710      	adds	r7, #16
80000ba6:	46bd      	mov	sp, r7
80000ba8:	bd80      	pop	{r7, pc}

80000baa <gpio_intconfig>:
80000baa:	b480      	push	{r7}
80000bac:	b087      	sub	sp, #28
80000bae:	af00      	add	r7, sp, #0
80000bb0:	60f8      	str	r0, [r7, #12]
80000bb2:	60b9      	str	r1, [r7, #8]
80000bb4:	607a      	str	r2, [r7, #4]
80000bb6:	68bb      	ldr	r3, [r7, #8]
80000bb8:	613b      	str	r3, [r7, #16]
80000bba:	68fb      	ldr	r3, [r7, #12]
80000bbc:	69da      	ldr	r2, [r3, #28]
80000bbe:	2101      	movs	r1, #1
80000bc0:	68bb      	ldr	r3, [r7, #8]
80000bc2:	fa01 f303 	lsl.w	r3, r1, r3
80000bc6:	43db      	mvns	r3, r3
80000bc8:	401a      	ands	r2, r3
80000bca:	68fb      	ldr	r3, [r7, #12]
80000bcc:	61da      	str	r2, [r3, #28]
80000bce:	68bb      	ldr	r3, [r7, #8]
80000bd0:	2b0f      	cmp	r3, #15
80000bd2:	d803      	bhi.n	80000bdc <gpio_intconfig+0x32>
80000bd4:	68fb      	ldr	r3, [r7, #12]
80000bd6:	330c      	adds	r3, #12
80000bd8:	617b      	str	r3, [r7, #20]
80000bda:	e005      	b.n	80000be8 <gpio_intconfig+0x3e>
80000bdc:	68fb      	ldr	r3, [r7, #12]
80000bde:	3310      	adds	r3, #16
80000be0:	617b      	str	r3, [r7, #20]
80000be2:	693b      	ldr	r3, [r7, #16]
80000be4:	3b10      	subs	r3, #16
80000be6:	613b      	str	r3, [r7, #16]
80000be8:	687b      	ldr	r3, [r7, #4]
80000bea:	3b01      	subs	r3, #1
80000bec:	2b04      	cmp	r3, #4
80000bee:	d854      	bhi.n	80000c9a <gpio_intconfig+0xf0>
80000bf0:	a202      	add	r2, pc, #8	; (adr r2, 80000bfc <gpio_intconfig+0x52>)
80000bf2:	f852 3023 	ldr.w	r3, [r2, r3, lsl #2]
80000bf6:	441a      	add	r2, r3
80000bf8:	4710      	bx	r2
80000bfa:	bf00      	nop
80000bfc:	00000015 	andeq	r0, r0, r5, lsl r0
80000c00:	0000002d 	andeq	r0, r0, sp, lsr #32
80000c04:	00000051 	andeq	r0, r0, r1, asr r0
80000c08:	00000075 	andeq	r0, r0, r5, ror r0
80000c0c:	0000008b 	andeq	r0, r0, fp, lsl #1
80000c10:	697b      	ldr	r3, [r7, #20]
80000c12:	681a      	ldr	r2, [r3, #0]
80000c14:	693b      	ldr	r3, [r7, #16]
80000c16:	005b      	lsls	r3, r3, #1
80000c18:	2103      	movs	r1, #3
80000c1a:	fa01 f303 	lsl.w	r3, r1, r3
80000c1e:	43db      	mvns	r3, r3
80000c20:	401a      	ands	r2, r3
80000c22:	697b      	ldr	r3, [r7, #20]
80000c24:	601a      	str	r2, [r3, #0]
80000c26:	e039      	b.n	80000c9c <gpio_intconfig+0xf2>
80000c28:	697b      	ldr	r3, [r7, #20]
80000c2a:	681a      	ldr	r2, [r3, #0]
80000c2c:	693b      	ldr	r3, [r7, #16]
80000c2e:	005b      	lsls	r3, r3, #1
80000c30:	2103      	movs	r1, #3
80000c32:	fa01 f303 	lsl.w	r3, r1, r3
80000c36:	43db      	mvns	r3, r3
80000c38:	401a      	ands	r2, r3
80000c3a:	693b      	ldr	r3, [r7, #16]
80000c3c:	005b      	lsls	r3, r3, #1
80000c3e:	2101      	movs	r1, #1
80000c40:	fa01 f303 	lsl.w	r3, r1, r3
80000c44:	431a      	orrs	r2, r3
80000c46:	697b      	ldr	r3, [r7, #20]
80000c48:	601a      	str	r2, [r3, #0]
80000c4a:	e027      	b.n	80000c9c <gpio_intconfig+0xf2>
80000c4c:	697b      	ldr	r3, [r7, #20]
80000c4e:	681a      	ldr	r2, [r3, #0]
80000c50:	693b      	ldr	r3, [r7, #16]
80000c52:	005b      	lsls	r3, r3, #1
80000c54:	2103      	movs	r1, #3
80000c56:	fa01 f303 	lsl.w	r3, r1, r3
80000c5a:	43db      	mvns	r3, r3
80000c5c:	401a      	ands	r2, r3
80000c5e:	693b      	ldr	r3, [r7, #16]
80000c60:	005b      	lsls	r3, r3, #1
80000c62:	2102      	movs	r1, #2
80000c64:	fa01 f303 	lsl.w	r3, r1, r3
80000c68:	431a      	orrs	r2, r3
80000c6a:	697b      	ldr	r3, [r7, #20]
80000c6c:	601a      	str	r2, [r3, #0]
80000c6e:	e015      	b.n	80000c9c <gpio_intconfig+0xf2>
80000c70:	697b      	ldr	r3, [r7, #20]
80000c72:	681a      	ldr	r2, [r3, #0]
80000c74:	693b      	ldr	r3, [r7, #16]
80000c76:	005b      	lsls	r3, r3, #1
80000c78:	2103      	movs	r1, #3
80000c7a:	fa01 f303 	lsl.w	r3, r1, r3
80000c7e:	431a      	orrs	r2, r3
80000c80:	697b      	ldr	r3, [r7, #20]
80000c82:	601a      	str	r2, [r3, #0]
80000c84:	e00a      	b.n	80000c9c <gpio_intconfig+0xf2>
80000c86:	68fb      	ldr	r3, [r7, #12]
80000c88:	69da      	ldr	r2, [r3, #28]
80000c8a:	2101      	movs	r1, #1
80000c8c:	68bb      	ldr	r3, [r7, #8]
80000c8e:	fa01 f303 	lsl.w	r3, r1, r3
80000c92:	431a      	orrs	r2, r3
80000c94:	68fb      	ldr	r3, [r7, #12]
80000c96:	61da      	str	r2, [r3, #28]
80000c98:	e000      	b.n	80000c9c <gpio_intconfig+0xf2>
80000c9a:	bf00      	nop
80000c9c:	bf00      	nop
80000c9e:	371c      	adds	r7, #28
80000ca0:	46bd      	mov	sp, r7
80000ca2:	f85d 7b04 	ldr.w	r7, [sp], #4
80000ca6:	4770      	bx	lr

80000ca8 <gpio_enableint>:
80000ca8:	b480      	push	{r7}
80000caa:	b083      	sub	sp, #12
80000cac:	af00      	add	r7, sp, #0
80000cae:	6078      	str	r0, [r7, #4]
80000cb0:	6039      	str	r1, [r7, #0]
80000cb2:	687b      	ldr	r3, [r7, #4]
80000cb4:	695b      	ldr	r3, [r3, #20]
80000cb6:	2101      	movs	r1, #1
80000cb8:	683a      	ldr	r2, [r7, #0]
80000cba:	fa01 f202 	lsl.w	r2, r1, r2
80000cbe:	431a      	orrs	r2, r3
80000cc0:	687b      	ldr	r3, [r7, #4]
80000cc2:	615a      	str	r2, [r3, #20]
80000cc4:	bf00      	nop
80000cc6:	370c      	adds	r7, #12
80000cc8:	46bd      	mov	sp, r7
80000cca:	f85d 7b04 	ldr.w	r7, [sp], #4
80000cce:	4770      	bx	lr

80000cd0 <gpio_disableint>:
80000cd0:	b480      	push	{r7}
80000cd2:	b083      	sub	sp, #12
80000cd4:	af00      	add	r7, sp, #0
80000cd6:	6078      	str	r0, [r7, #4]
80000cd8:	6039      	str	r1, [r7, #0]
80000cda:	687b      	ldr	r3, [r7, #4]
80000cdc:	695b      	ldr	r3, [r3, #20]
80000cde:	2101      	movs	r1, #1
80000ce0:	683a      	ldr	r2, [r7, #0]
80000ce2:	fa01 f202 	lsl.w	r2, r1, r2
80000ce6:	43d2      	mvns	r2, r2
80000ce8:	401a      	ands	r2, r3
80000cea:	687b      	ldr	r3, [r7, #4]
80000cec:	615a      	str	r2, [r3, #20]
80000cee:	bf00      	nop
80000cf0:	370c      	adds	r7, #12
80000cf2:	46bd      	mov	sp, r7
80000cf4:	f85d 7b04 	ldr.w	r7, [sp], #4
80000cf8:	4770      	bx	lr

80000cfa <gpio_clearintflags>:
80000cfa:	b480      	push	{r7}
80000cfc:	b083      	sub	sp, #12
80000cfe:	af00      	add	r7, sp, #0
80000d00:	6078      	str	r0, [r7, #4]
80000d02:	6039      	str	r1, [r7, #0]
80000d04:	687b      	ldr	r3, [r7, #4]
80000d06:	699b      	ldr	r3, [r3, #24]
80000d08:	2101      	movs	r1, #1
80000d0a:	683a      	ldr	r2, [r7, #0]
80000d0c:	fa01 f202 	lsl.w	r2, r1, r2
80000d10:	431a      	orrs	r2, r3
80000d12:	687b      	ldr	r3, [r7, #4]
80000d14:	619a      	str	r2, [r3, #24]
80000d16:	bf00      	nop
80000d18:	370c      	adds	r7, #12
80000d1a:	46bd      	mov	sp, r7
80000d1c:	f85d 7b04 	ldr.w	r7, [sp], #4
80000d20:	4770      	bx	lr

80000d22 <gpio_softint>:
80000d22:	b480      	push	{r7}
80000d24:	b083      	sub	sp, #12
80000d26:	af00      	add	r7, sp, #0
80000d28:	6078      	str	r0, [r7, #4]
80000d2a:	6039      	str	r1, [r7, #0]
80000d2c:	687b      	ldr	r3, [r7, #4]
80000d2e:	699b      	ldr	r3, [r3, #24]
80000d30:	2101      	movs	r1, #1
80000d32:	683a      	ldr	r2, [r7, #0]
80000d34:	fa01 f202 	lsl.w	r2, r1, r2
80000d38:	43d2      	mvns	r2, r2
80000d3a:	401a      	ands	r2, r3
80000d3c:	687b      	ldr	r3, [r7, #4]
80000d3e:	619a      	str	r2, [r3, #24]
80000d40:	bf00      	nop
80000d42:	370c      	adds	r7, #12
80000d44:	46bd      	mov	sp, r7
80000d46:	f85d 7b04 	ldr.w	r7, [sp], #4
80000d4a:	4770      	bx	lr

80000d4c <IOMUXC_SetPinMux>:
80000d4c:	b480      	push	{r7}
80000d4e:	b085      	sub	sp, #20
80000d50:	af00      	add	r7, sp, #0
80000d52:	60f8      	str	r0, [r7, #12]
80000d54:	60b9      	str	r1, [r7, #8]
80000d56:	607a      	str	r2, [r7, #4]
80000d58:	603b      	str	r3, [r7, #0]
80000d5a:	68bb      	ldr	r3, [r7, #8]
80000d5c:	f003 010f 	and.w	r1, r3, #15
80000d60:	69fb      	ldr	r3, [r7, #28]
80000d62:	011b      	lsls	r3, r3, #4
80000d64:	f003 0210 	and.w	r2, r3, #16
80000d68:	68fb      	ldr	r3, [r7, #12]
80000d6a:	430a      	orrs	r2, r1
80000d6c:	601a      	str	r2, [r3, #0]
80000d6e:	687b      	ldr	r3, [r7, #4]
80000d70:	2b00      	cmp	r3, #0
80000d72:	d004      	beq.n	80000d7e <IOMUXC_SetPinMux+0x32>
80000d74:	687b      	ldr	r3, [r7, #4]
80000d76:	683a      	ldr	r2, [r7, #0]
80000d78:	f002 0207 	and.w	r2, r2, #7
80000d7c:	601a      	str	r2, [r3, #0]
80000d7e:	bf00      	nop
80000d80:	3714      	adds	r7, #20
80000d82:	46bd      	mov	sp, r7
80000d84:	f85d 7b04 	ldr.w	r7, [sp], #4
80000d88:	4770      	bx	lr

80000d8a <IOMUXC_SetPinConfig>:
80000d8a:	b480      	push	{r7}
80000d8c:	b085      	sub	sp, #20
80000d8e:	af00      	add	r7, sp, #0
80000d90:	60f8      	str	r0, [r7, #12]
80000d92:	60b9      	str	r1, [r7, #8]
80000d94:	607a      	str	r2, [r7, #4]
80000d96:	603b      	str	r3, [r7, #0]
80000d98:	69bb      	ldr	r3, [r7, #24]
80000d9a:	2b00      	cmp	r3, #0
80000d9c:	d002      	beq.n	80000da4 <IOMUXC_SetPinConfig+0x1a>
80000d9e:	69bb      	ldr	r3, [r7, #24]
80000da0:	69fa      	ldr	r2, [r7, #28]
80000da2:	601a      	str	r2, [r3, #0]
80000da4:	bf00      	nop
80000da6:	3714      	adds	r7, #20
80000da8:	46bd      	mov	sp, r7
80000daa:	f85d 7b04 	ldr.w	r7, [sp], #4
80000dae:	4770      	bx	lr

80000db0 <key_init>:
80000db0:	b580      	push	{r7, lr}
80000db2:	b086      	sub	sp, #24
80000db4:	af02      	add	r7, sp, #8
80000db6:	2300      	movs	r3, #0
80000db8:	9301      	str	r3, [sp, #4]
80000dba:	f44f 7346 	mov.w	r3, #792	; 0x318
80000dbe:	f2c0 230e 	movt	r3, #526	; 0x20e
80000dc2:	9300      	str	r3, [sp, #0]
80000dc4:	2300      	movs	r3, #0
80000dc6:	2200      	movs	r2, #0
80000dc8:	2105      	movs	r1, #5
80000dca:	208c      	movs	r0, #140	; 0x8c
80000dcc:	f2c0 200e 	movt	r0, #526	; 0x20e
80000dd0:	f7ff ffbc 	bl	80000d4c <IOMUXC_SetPinMux>
80000dd4:	f24f 0380 	movw	r3, #61568	; 0xf080
80000dd8:	9301      	str	r3, [sp, #4]
80000dda:	f44f 7346 	mov.w	r3, #792	; 0x318
80000dde:	f2c0 230e 	movt	r3, #526	; 0x20e
80000de2:	9300      	str	r3, [sp, #0]
80000de4:	2300      	movs	r3, #0
80000de6:	2200      	movs	r2, #0
80000de8:	2105      	movs	r1, #5
80000dea:	208c      	movs	r0, #140	; 0x8c
80000dec:	f2c0 200e 	movt	r0, #526	; 0x20e
80000df0:	f7ff ffcb 	bl	80000d8a <IOMUXC_SetPinConfig>
80000df4:	2300      	movs	r3, #0
80000df6:	607b      	str	r3, [r7, #4]
80000df8:	2300      	movs	r3, #0
80000dfa:	60fb      	str	r3, [r7, #12]
80000dfc:	1d3b      	adds	r3, r7, #4
80000dfe:	461a      	mov	r2, r3
80000e00:	2112      	movs	r1, #18
80000e02:	f44f 4040 	mov.w	r0, #49152	; 0xc000
80000e06:	f2c0 2009 	movt	r0, #521	; 0x209
80000e0a:	f7ff fe9a 	bl	80000b42 <gpio_init>
80000e0e:	bf00      	nop
80000e10:	3710      	adds	r7, #16
80000e12:	46bd      	mov	sp, r7
80000e14:	bd80      	pop	{r7, pc}

80000e16 <key_getvalue>:
80000e16:	b580      	push	{r7, lr}
80000e18:	b082      	sub	sp, #8
80000e1a:	af00      	add	r7, sp, #0
80000e1c:	2300      	movs	r3, #0
80000e1e:	607b      	str	r3, [r7, #4]
80000e20:	4b1b      	ldr	r3, [pc, #108]	; (80000e90 <key_getvalue+0x7a>)
80000e22:	447b      	add	r3, pc
80000e24:	781b      	ldrb	r3, [r3, #0]
80000e26:	2b00      	cmp	r3, #0
80000e28:	d01d      	beq.n	80000e66 <key_getvalue+0x50>
80000e2a:	2112      	movs	r1, #18
80000e2c:	f44f 4040 	mov.w	r0, #49152	; 0xc000
80000e30:	f2c0 2009 	movt	r0, #521	; 0x209
80000e34:	f7ff fe50 	bl	80000ad8 <gpio_pinread>
80000e38:	4603      	mov	r3, r0
80000e3a:	2b00      	cmp	r3, #0
80000e3c:	d113      	bne.n	80000e66 <key_getvalue+0x50>
80000e3e:	200a      	movs	r0, #10
80000e40:	f7ff fd05 	bl	8000084e <delay>
80000e44:	2112      	movs	r1, #18
80000e46:	f44f 4040 	mov.w	r0, #49152	; 0xc000
80000e4a:	f2c0 2009 	movt	r0, #521	; 0x209
80000e4e:	f7ff fe43 	bl	80000ad8 <gpio_pinread>
80000e52:	4603      	mov	r3, r0
80000e54:	2b00      	cmp	r3, #0
80000e56:	d116      	bne.n	80000e86 <key_getvalue+0x70>
80000e58:	4b0e      	ldr	r3, [pc, #56]	; (80000e94 <key_getvalue+0x7e>)
80000e5a:	447b      	add	r3, pc
80000e5c:	2200      	movs	r2, #0
80000e5e:	701a      	strb	r2, [r3, #0]
80000e60:	2301      	movs	r3, #1
80000e62:	607b      	str	r3, [r7, #4]
80000e64:	e00f      	b.n	80000e86 <key_getvalue+0x70>
80000e66:	2112      	movs	r1, #18
80000e68:	f44f 4040 	mov.w	r0, #49152	; 0xc000
80000e6c:	f2c0 2009 	movt	r0, #521	; 0x209
80000e70:	f7ff fe32 	bl	80000ad8 <gpio_pinread>
80000e74:	4603      	mov	r3, r0
80000e76:	2b00      	cmp	r3, #0
80000e78:	d005      	beq.n	80000e86 <key_getvalue+0x70>
80000e7a:	4b07      	ldr	r3, [pc, #28]	; (80000e98 <key_getvalue+0x82>)
80000e7c:	447b      	add	r3, pc
80000e7e:	2200      	movs	r2, #0
80000e80:	701a      	strb	r2, [r3, #0]
80000e82:	2300      	movs	r3, #0
80000e84:	607b      	str	r3, [r7, #4]
80000e86:	687b      	ldr	r3, [r7, #4]
80000e88:	4618      	mov	r0, r3
80000e8a:	3708      	adds	r7, #8
80000e8c:	46bd      	mov	sp, r7
80000e8e:	bd80      	pop	{r7, pc}
80000e90:	000031de 	ldrdeq	r3, [r0], -lr
80000e94:	000031a6 	andeq	r3, r0, r6, lsr #3
80000e98:	00003184 	andeq	r3, r0, r4, lsl #3

80000e9c <int_init>:
80000e9c:	b580      	push	{r7, lr}
80000e9e:	b084      	sub	sp, #16
80000ea0:	af00      	add	r7, sp, #0
80000ea2:	f44f 0320 	mov.w	r3, #10485760	; 0xa00000
80000ea6:	0c1b      	lsrs	r3, r3, #16
80000ea8:	041b      	lsls	r3, r3, #16
80000eaa:	60bb      	str	r3, [r7, #8]
80000eac:	68bb      	ldr	r3, [r7, #8]
80000eae:	f503 5380 	add.w	r3, r3, #4096	; 0x1000
80000eb2:	685b      	ldr	r3, [r3, #4]
80000eb4:	f003 031f 	and.w	r3, r3, #31
80000eb8:	3301      	adds	r3, #1
80000eba:	607b      	str	r3, [r7, #4]
80000ebc:	2300      	movs	r3, #0
80000ebe:	603b      	str	r3, [r7, #0]
80000ec0:	e00a      	b.n	80000ed8 <int_init+0x3c>
80000ec2:	68bb      	ldr	r3, [r7, #8]
80000ec4:	683a      	ldr	r2, [r7, #0]
80000ec6:	f502 628c 	add.w	r2, r2, #1120	; 0x460
80000eca:	f04f 31ff 	mov.w	r1, #4294967295	; 0xffffffff
80000ece:	f843 1022 	str.w	r1, [r3, r2, lsl #2]
80000ed2:	683b      	ldr	r3, [r7, #0]
80000ed4:	3301      	adds	r3, #1
80000ed6:	603b      	str	r3, [r7, #0]
80000ed8:	687a      	ldr	r2, [r7, #4]
80000eda:	683b      	ldr	r3, [r7, #0]
80000edc:	429a      	cmp	r2, r3
80000ede:	d8f0      	bhi.n	80000ec2 <int_init+0x26>
80000ee0:	68bb      	ldr	r3, [r7, #8]
80000ee2:	f503 5300 	add.w	r3, r3, #8192	; 0x2000
80000ee6:	461a      	mov	r2, r3
80000ee8:	23f8      	movs	r3, #248	; 0xf8
80000eea:	6053      	str	r3, [r2, #4]
80000eec:	68bb      	ldr	r3, [r7, #8]
80000eee:	f503 5300 	add.w	r3, r3, #8192	; 0x2000
80000ef2:	461a      	mov	r2, r3
80000ef4:	2302      	movs	r3, #2
80000ef6:	6093      	str	r3, [r2, #8]
80000ef8:	68bb      	ldr	r3, [r7, #8]
80000efa:	f503 5380 	add.w	r3, r3, #4096	; 0x1000
80000efe:	461a      	mov	r2, r3
80000f00:	2301      	movs	r3, #1
80000f02:	6013      	str	r3, [r2, #0]
80000f04:	68bb      	ldr	r3, [r7, #8]
80000f06:	f503 5300 	add.w	r3, r3, #8192	; 0x2000
80000f0a:	461a      	mov	r2, r3
80000f0c:	2301      	movs	r3, #1
80000f0e:	6013      	str	r3, [r2, #0]
80000f10:	bf00      	nop
80000f12:	f000 f80b 	bl	80000f2c <system_irqtable_init>
80000f16:	f04f 4300 	mov.w	r3, #2147483648	; 0x80000000
80000f1a:	60fb      	str	r3, [r7, #12]
80000f1c:	68fb      	ldr	r3, [r7, #12]
80000f1e:	ee0c 3f10 	mcr	15, 0, r3, cr12, cr0, {0}
80000f22:	bf00      	nop
80000f24:	bf00      	nop
80000f26:	3710      	adds	r7, #16
80000f28:	46bd      	mov	sp, r7
80000f2a:	bd80      	pop	{r7, pc}

80000f2c <system_irqtable_init>:
80000f2c:	b580      	push	{r7, lr}
80000f2e:	b082      	sub	sp, #8
80000f30:	af00      	add	r7, sp, #0
80000f32:	2300      	movs	r3, #0
80000f34:	607b      	str	r3, [r7, #4]
80000f36:	4b0c      	ldr	r3, [pc, #48]	; (80000f68 <system_irqtable_init+0x3c>)
80000f38:	447b      	add	r3, pc
80000f3a:	2200      	movs	r2, #0
80000f3c:	601a      	str	r2, [r3, #0]
80000f3e:	2300      	movs	r3, #0
80000f40:	607b      	str	r3, [r7, #4]
80000f42:	e009      	b.n	80000f58 <system_irqtable_init+0x2c>
80000f44:	687b      	ldr	r3, [r7, #4]
80000f46:	2200      	movs	r2, #0
80000f48:	4908      	ldr	r1, [pc, #32]	; (80000f6c <system_irqtable_init+0x40>)
80000f4a:	4479      	add	r1, pc
80000f4c:	4618      	mov	r0, r3
80000f4e:	f000 f80f 	bl	80000f70 <system_register_irqhandler>
80000f52:	687b      	ldr	r3, [r7, #4]
80000f54:	3301      	adds	r3, #1
80000f56:	607b      	str	r3, [r7, #4]
80000f58:	687b      	ldr	r3, [r7, #4]
80000f5a:	2b9f      	cmp	r3, #159	; 0x9f
80000f5c:	d9f2      	bls.n	80000f44 <system_irqtable_init+0x18>
80000f5e:	bf00      	nop
80000f60:	bf00      	nop
80000f62:	3708      	adds	r7, #8
80000f64:	46bd      	mov	sp, r7
80000f66:	bd80      	pop	{r7, pc}
80000f68:	000031dc 	ldrdeq	r3, [r0], -ip
80000f6c:	000000df 	ldrdeq	r0, [r0], -pc	; <UNPREDICTABLE>

80000f70 <system_register_irqhandler>:
80000f70:	b480      	push	{r7}
80000f72:	b085      	sub	sp, #20
80000f74:	af00      	add	r7, sp, #0
80000f76:	60f8      	str	r0, [r7, #12]
80000f78:	60b9      	str	r1, [r7, #8]
80000f7a:	607a      	str	r2, [r7, #4]
80000f7c:	4b09      	ldr	r3, [pc, #36]	; (80000fa4 <system_register_irqhandler+0x34>)
80000f7e:	447b      	add	r3, pc
80000f80:	68fa      	ldr	r2, [r7, #12]
80000f82:	68b9      	ldr	r1, [r7, #8]
80000f84:	f843 1032 	str.w	r1, [r3, r2, lsl #3]
80000f88:	4a07      	ldr	r2, [pc, #28]	; (80000fa8 <system_register_irqhandler+0x38>)
80000f8a:	447a      	add	r2, pc
80000f8c:	68fb      	ldr	r3, [r7, #12]
80000f8e:	00db      	lsls	r3, r3, #3
80000f90:	4413      	add	r3, r2
80000f92:	687a      	ldr	r2, [r7, #4]
80000f94:	605a      	str	r2, [r3, #4]
80000f96:	bf00      	nop
80000f98:	3714      	adds	r7, #20
80000f9a:	46bd      	mov	sp, r7
80000f9c:	f85d 7b04 	ldr.w	r7, [sp], #4
80000fa0:	4770      	bx	lr
80000fa2:	bf00      	nop
80000fa4:	0000319a 	muleq	r0, sl, r1
80000fa8:	0000318e 	andeq	r3, r0, lr, lsl #3

80000fac <system_irqhandler>:
80000fac:	b580      	push	{r7, lr}
80000fae:	b084      	sub	sp, #16
80000fb0:	af00      	add	r7, sp, #0
80000fb2:	6078      	str	r0, [r7, #4]
80000fb4:	687b      	ldr	r3, [r7, #4]
80000fb6:	f3c3 0309 	ubfx	r3, r3, #0, #10
80000fba:	60fb      	str	r3, [r7, #12]
80000fbc:	6879      	ldr	r1, [r7, #4]
80000fbe:	4b14      	ldr	r3, [pc, #80]	; (80001010 <system_irqhandler+0x64>)
80000fc0:	447b      	add	r3, pc
80000fc2:	4618      	mov	r0, r3
80000fc4:	f000 fd68 	bl	80001a98 <printf>
80000fc8:	68fb      	ldr	r3, [r7, #12]
80000fca:	2b9f      	cmp	r3, #159	; 0x9f
80000fcc:	d81c      	bhi.n	80001008 <system_irqhandler+0x5c>
80000fce:	4b11      	ldr	r3, [pc, #68]	; (80001014 <system_irqhandler+0x68>)
80000fd0:	447b      	add	r3, pc
80000fd2:	681b      	ldr	r3, [r3, #0]
80000fd4:	1c5a      	adds	r2, r3, #1
80000fd6:	4b10      	ldr	r3, [pc, #64]	; (80001018 <system_irqhandler+0x6c>)
80000fd8:	447b      	add	r3, pc
80000fda:	601a      	str	r2, [r3, #0]
80000fdc:	4b0f      	ldr	r3, [pc, #60]	; (8000101c <system_irqhandler+0x70>)
80000fde:	447b      	add	r3, pc
80000fe0:	68fa      	ldr	r2, [r7, #12]
80000fe2:	f853 2032 	ldr.w	r2, [r3, r2, lsl #3]
80000fe6:	490e      	ldr	r1, [pc, #56]	; (80001020 <system_irqhandler+0x74>)
80000fe8:	4479      	add	r1, pc
80000fea:	68fb      	ldr	r3, [r7, #12]
80000fec:	00db      	lsls	r3, r3, #3
80000fee:	440b      	add	r3, r1
80000ff0:	685b      	ldr	r3, [r3, #4]
80000ff2:	4619      	mov	r1, r3
80000ff4:	68f8      	ldr	r0, [r7, #12]
80000ff6:	4790      	blx	r2
80000ff8:	4b0a      	ldr	r3, [pc, #40]	; (80001024 <system_irqhandler+0x78>)
80000ffa:	447b      	add	r3, pc
80000ffc:	681b      	ldr	r3, [r3, #0]
80000ffe:	1e5a      	subs	r2, r3, #1
80001000:	4b09      	ldr	r3, [pc, #36]	; (80001028 <system_irqhandler+0x7c>)
80001002:	447b      	add	r3, pc
80001004:	601a      	str	r2, [r3, #0]
80001006:	e000      	b.n	8000100a <system_irqhandler+0x5e>
80001008:	bf00      	nop
8000100a:	3710      	adds	r7, #16
8000100c:	46bd      	mov	sp, r7
8000100e:	bd80      	pop	{r7, pc}
80001010:	00002fec 	andeq	r2, r0, ip, ror #31
80001014:	00003144 	andeq	r3, r0, r4, asr #2
80001018:	0000313c 	andeq	r3, r0, ip, lsr r1
8000101c:	0000313a 	andeq	r3, r0, sl, lsr r1
80001020:	00003130 	andeq	r3, r0, r0, lsr r1
80001024:	0000311a 	andeq	r3, r0, sl, lsl r1
80001028:	00003112 	andeq	r3, r0, r2, lsl r1

8000102c <default_irqhandler>:
8000102c:	b580      	push	{r7, lr}
8000102e:	b082      	sub	sp, #8
80001030:	af00      	add	r7, sp, #0
80001032:	6078      	str	r0, [r7, #4]
80001034:	6039      	str	r1, [r7, #0]
80001036:	4b04      	ldr	r3, [pc, #16]	; (80001048 <default_irqhandler+0x1c>)
80001038:	447b      	add	r3, pc
8000103a:	4618      	mov	r0, r3
8000103c:	f000 fd2c 	bl	80001a98 <printf>
80001040:	bf00      	nop
80001042:	3708      	adds	r7, #8
80001044:	46bd      	mov	sp, r7
80001046:	bd80      	pop	{r7, pc}
80001048:	00002f8c 	andeq	r2, r0, ip, lsl #31

8000104c <IOMUXC_SetPinMux>:
8000104c:	b480      	push	{r7}
8000104e:	b085      	sub	sp, #20
80001050:	af00      	add	r7, sp, #0
80001052:	60f8      	str	r0, [r7, #12]
80001054:	60b9      	str	r1, [r7, #8]
80001056:	607a      	str	r2, [r7, #4]
80001058:	603b      	str	r3, [r7, #0]
8000105a:	68bb      	ldr	r3, [r7, #8]
8000105c:	f003 010f 	and.w	r1, r3, #15
80001060:	69fb      	ldr	r3, [r7, #28]
80001062:	011b      	lsls	r3, r3, #4
80001064:	f003 0210 	and.w	r2, r3, #16
80001068:	68fb      	ldr	r3, [r7, #12]
8000106a:	430a      	orrs	r2, r1
8000106c:	601a      	str	r2, [r3, #0]
8000106e:	687b      	ldr	r3, [r7, #4]
80001070:	2b00      	cmp	r3, #0
80001072:	d004      	beq.n	8000107e <IOMUXC_SetPinMux+0x32>
80001074:	687b      	ldr	r3, [r7, #4]
80001076:	683a      	ldr	r2, [r7, #0]
80001078:	f002 0207 	and.w	r2, r2, #7
8000107c:	601a      	str	r2, [r3, #0]
8000107e:	bf00      	nop
80001080:	3714      	adds	r7, #20
80001082:	46bd      	mov	sp, r7
80001084:	f85d 7b04 	ldr.w	r7, [sp], #4
80001088:	4770      	bx	lr

8000108a <IOMUXC_SetPinConfig>:
8000108a:	b480      	push	{r7}
8000108c:	b085      	sub	sp, #20
8000108e:	af00      	add	r7, sp, #0
80001090:	60f8      	str	r0, [r7, #12]
80001092:	60b9      	str	r1, [r7, #8]
80001094:	607a      	str	r2, [r7, #4]
80001096:	603b      	str	r3, [r7, #0]
80001098:	69bb      	ldr	r3, [r7, #24]
8000109a:	2b00      	cmp	r3, #0
8000109c:	d002      	beq.n	800010a4 <IOMUXC_SetPinConfig+0x1a>
8000109e:	69bb      	ldr	r3, [r7, #24]
800010a0:	69fa      	ldr	r2, [r7, #28]
800010a2:	601a      	str	r2, [r3, #0]
800010a4:	bf00      	nop
800010a6:	3714      	adds	r7, #20
800010a8:	46bd      	mov	sp, r7
800010aa:	f85d 7b04 	ldr.w	r7, [sp], #4
800010ae:	4770      	bx	lr

800010b0 <exti_init>:
800010b0:	b580      	push	{r7, lr}
800010b2:	b088      	sub	sp, #32
800010b4:	af02      	add	r7, sp, #8
800010b6:	2300      	movs	r3, #0
800010b8:	9301      	str	r3, [sp, #4]
800010ba:	f44f 7346 	mov.w	r3, #792	; 0x318
800010be:	f2c0 230e 	movt	r3, #526	; 0x20e
800010c2:	9300      	str	r3, [sp, #0]
800010c4:	2300      	movs	r3, #0
800010c6:	2200      	movs	r2, #0
800010c8:	2105      	movs	r1, #5
800010ca:	208c      	movs	r0, #140	; 0x8c
800010cc:	f2c0 200e 	movt	r0, #526	; 0x20e
800010d0:	f7ff ffbc 	bl	8000104c <IOMUXC_SetPinMux>
800010d4:	f24f 0380 	movw	r3, #61568	; 0xf080
800010d8:	9301      	str	r3, [sp, #4]
800010da:	f44f 7346 	mov.w	r3, #792	; 0x318
800010de:	f2c0 230e 	movt	r3, #526	; 0x20e
800010e2:	9300      	str	r3, [sp, #0]
800010e4:	2300      	movs	r3, #0
800010e6:	2200      	movs	r2, #0
800010e8:	2105      	movs	r1, #5
800010ea:	208c      	movs	r0, #140	; 0x8c
800010ec:	f2c0 200e 	movt	r0, #526	; 0x20e
800010f0:	f7ff ffcb 	bl	8000108a <IOMUXC_SetPinConfig>
800010f4:	2300      	movs	r3, #0
800010f6:	607b      	str	r3, [r7, #4]
800010f8:	2304      	movs	r3, #4
800010fa:	60fb      	str	r3, [r7, #12]
800010fc:	2301      	movs	r3, #1
800010fe:	723b      	strb	r3, [r7, #8]
80001100:	1d3b      	adds	r3, r7, #4
80001102:	461a      	mov	r2, r3
80001104:	2112      	movs	r1, #18
80001106:	f44f 4040 	mov.w	r0, #49152	; 0xc000
8000110a:	f2c0 2009 	movt	r0, #521	; 0x209
8000110e:	f7ff fd18 	bl	80000b42 <gpio_init>
80001112:	2363      	movs	r3, #99	; 0x63
80001114:	617b      	str	r3, [r7, #20]
80001116:	f44f 0320 	mov.w	r3, #10485760	; 0xa00000
8000111a:	0c1b      	lsrs	r3, r3, #16
8000111c:	041b      	lsls	r3, r3, #16
8000111e:	613b      	str	r3, [r7, #16]
80001120:	697b      	ldr	r3, [r7, #20]
80001122:	f003 031f 	and.w	r3, r3, #31
80001126:	697a      	ldr	r2, [r7, #20]
80001128:	0952      	lsrs	r2, r2, #5
8000112a:	2101      	movs	r1, #1
8000112c:	4099      	lsls	r1, r3
8000112e:	693b      	ldr	r3, [r7, #16]
80001130:	f502 6288 	add.w	r2, r2, #1088	; 0x440
80001134:	f843 1022 	str.w	r1, [r3, r2, lsl #2]
80001138:	bf00      	nop
8000113a:	2200      	movs	r2, #0
8000113c:	4b08      	ldr	r3, [pc, #32]	; (80001160 <exti_init+0xb0>)
8000113e:	447b      	add	r3, pc
80001140:	4619      	mov	r1, r3
80001142:	2063      	movs	r0, #99	; 0x63
80001144:	f7ff ff14 	bl	80000f70 <system_register_irqhandler>
80001148:	2112      	movs	r1, #18
8000114a:	f44f 4040 	mov.w	r0, #49152	; 0xc000
8000114e:	f2c0 2009 	movt	r0, #521	; 0x209
80001152:	f7ff fda9 	bl	80000ca8 <gpio_enableint>
80001156:	bf00      	nop
80001158:	3718      	adds	r7, #24
8000115a:	46bd      	mov	sp, r7
8000115c:	bd80      	pop	{r7, pc}
8000115e:	bf00      	nop
80001160:	00000023 	andeq	r0, r0, r3, lsr #32

80001164 <gpio1_io18_irqhandler>:
80001164:	b580      	push	{r7, lr}
80001166:	af00      	add	r7, sp, #0
80001168:	2112      	movs	r1, #18
8000116a:	f44f 4040 	mov.w	r0, #49152	; 0xc000
8000116e:	f2c0 2009 	movt	r0, #521	; 0x209
80001172:	f7ff fdc2 	bl	80000cfa <gpio_clearintflags>
80001176:	bf00      	nop
80001178:	bd80      	pop	{r7, pc}
8000117a:	bf00      	nop

8000117c <epit1_init>:
8000117c:	b580      	push	{r7, lr}
8000117e:	b088      	sub	sp, #32
80001180:	af00      	add	r7, sp, #0
80001182:	6078      	str	r0, [r7, #4]
80001184:	6039      	str	r1, [r7, #0]
80001186:	687b      	ldr	r3, [r7, #4]
80001188:	f5b3 5f80 	cmp.w	r3, #4096	; 0x1000
8000118c:	d302      	bcc.n	80001194 <epit1_init+0x18>
8000118e:	f640 73ff 	movw	r3, #4095	; 0xfff
80001192:	607b      	str	r3, [r7, #4]
80001194:	2300      	movs	r3, #0
80001196:	f2c0 230d 	movt	r3, #525	; 0x20d
8000119a:	2200      	movs	r2, #0
8000119c:	601a      	str	r2, [r3, #0]
8000119e:	687b      	ldr	r3, [r7, #4]
800011a0:	011b      	lsls	r3, r3, #4
800011a2:	2200      	movs	r2, #0
800011a4:	f2c0 220d 	movt	r2, #525	; 0x20d
800011a8:	f043 7380 	orr.w	r3, r3, #16777216	; 0x1000000
800011ac:	f043 030e 	orr.w	r3, r3, #14
800011b0:	6013      	str	r3, [r2, #0]
800011b2:	2300      	movs	r3, #0
800011b4:	f2c0 230d 	movt	r3, #525	; 0x20d
800011b8:	683a      	ldr	r2, [r7, #0]
800011ba:	609a      	str	r2, [r3, #8]
800011bc:	2300      	movs	r3, #0
800011be:	f2c0 230d 	movt	r3, #525	; 0x20d
800011c2:	2200      	movs	r2, #0
800011c4:	60da      	str	r2, [r3, #12]
800011c6:	2358      	movs	r3, #88	; 0x58
800011c8:	613b      	str	r3, [r7, #16]
800011ca:	f44f 0320 	mov.w	r3, #10485760	; 0xa00000
800011ce:	0c1b      	lsrs	r3, r3, #16
800011d0:	041b      	lsls	r3, r3, #16
800011d2:	60fb      	str	r3, [r7, #12]
800011d4:	693b      	ldr	r3, [r7, #16]
800011d6:	f003 031f 	and.w	r3, r3, #31
800011da:	693a      	ldr	r2, [r7, #16]
800011dc:	0952      	lsrs	r2, r2, #5
800011de:	2101      	movs	r1, #1
800011e0:	4099      	lsls	r1, r3
800011e2:	68fb      	ldr	r3, [r7, #12]
800011e4:	f502 6288 	add.w	r2, r2, #1088	; 0x440
800011e8:	f843 1022 	str.w	r1, [r3, r2, lsl #2]
800011ec:	bf00      	nop
800011ee:	238d      	movs	r3, #141	; 0x8d
800011f0:	61fb      	str	r3, [r7, #28]
800011f2:	2340      	movs	r3, #64	; 0x40
800011f4:	61bb      	str	r3, [r7, #24]
800011f6:	f44f 0320 	mov.w	r3, #10485760	; 0xa00000
800011fa:	0c1b      	lsrs	r3, r3, #16
800011fc:	041b      	lsls	r3, r3, #16
800011fe:	617b      	str	r3, [r7, #20]
80001200:	69bb      	ldr	r3, [r7, #24]
80001202:	b2da      	uxtb	r2, r3
80001204:	69fb      	ldr	r3, [r7, #28]
80001206:	00d2      	lsls	r2, r2, #3
80001208:	b2d1      	uxtb	r1, r2
8000120a:	697a      	ldr	r2, [r7, #20]
8000120c:	4413      	add	r3, r2
8000120e:	f503 53a0 	add.w	r3, r3, #5120	; 0x1400
80001212:	460a      	mov	r2, r1
80001214:	701a      	strb	r2, [r3, #0]
80001216:	bf00      	nop
80001218:	2200      	movs	r2, #0
8000121a:	4b0a      	ldr	r3, [pc, #40]	; (80001244 <epit1_init+0xc8>)
8000121c:	447b      	add	r3, pc
8000121e:	4619      	mov	r1, r3
80001220:	2058      	movs	r0, #88	; 0x58
80001222:	f7ff fea5 	bl	80000f70 <system_register_irqhandler>
80001226:	2300      	movs	r3, #0
80001228:	f2c0 230d 	movt	r3, #525	; 0x20d
8000122c:	681a      	ldr	r2, [r3, #0]
8000122e:	2300      	movs	r3, #0
80001230:	f2c0 230d 	movt	r3, #525	; 0x20d
80001234:	f042 0201 	orr.w	r2, r2, #1
80001238:	601a      	str	r2, [r3, #0]
8000123a:	bf00      	nop
8000123c:	3720      	adds	r7, #32
8000123e:	46bd      	mov	sp, r7
80001240:	bd80      	pop	{r7, pc}
80001242:	bf00      	nop
80001244:	00000029 	andeq	r0, r0, r9, lsr #32

80001248 <epit1_irqhandler>:
80001248:	b580      	push	{r7, lr}
8000124a:	af00      	add	r7, sp, #0
8000124c:	2068      	movs	r0, #104	; 0x68
8000124e:	f000 facf 	bl	800017f0 <putc>
80001252:	2300      	movs	r3, #0
80001254:	f2c0 230d 	movt	r3, #525	; 0x20d
80001258:	685a      	ldr	r2, [r3, #4]
8000125a:	2300      	movs	r3, #0
8000125c:	f2c0 230d 	movt	r3, #525	; 0x20d
80001260:	f042 0201 	orr.w	r2, r2, #1
80001264:	605a      	str	r2, [r3, #4]
80001266:	bf00      	nop
80001268:	bd80      	pop	{r7, pc}
8000126a:	bf00      	nop

8000126c <IOMUXC_SetPinMux>:
8000126c:	b480      	push	{r7}
8000126e:	b085      	sub	sp, #20
80001270:	af00      	add	r7, sp, #0
80001272:	60f8      	str	r0, [r7, #12]
80001274:	60b9      	str	r1, [r7, #8]
80001276:	607a      	str	r2, [r7, #4]
80001278:	603b      	str	r3, [r7, #0]
8000127a:	68bb      	ldr	r3, [r7, #8]
8000127c:	f003 010f 	and.w	r1, r3, #15
80001280:	69fb      	ldr	r3, [r7, #28]
80001282:	011b      	lsls	r3, r3, #4
80001284:	f003 0210 	and.w	r2, r3, #16
80001288:	68fb      	ldr	r3, [r7, #12]
8000128a:	430a      	orrs	r2, r1
8000128c:	601a      	str	r2, [r3, #0]
8000128e:	687b      	ldr	r3, [r7, #4]
80001290:	2b00      	cmp	r3, #0
80001292:	d004      	beq.n	8000129e <IOMUXC_SetPinMux+0x32>
80001294:	687b      	ldr	r3, [r7, #4]
80001296:	683a      	ldr	r2, [r7, #0]
80001298:	f002 0207 	and.w	r2, r2, #7
8000129c:	601a      	str	r2, [r3, #0]
8000129e:	bf00      	nop
800012a0:	3714      	adds	r7, #20
800012a2:	46bd      	mov	sp, r7
800012a4:	f85d 7b04 	ldr.w	r7, [sp], #4
800012a8:	4770      	bx	lr

800012aa <IOMUXC_SetPinConfig>:
800012aa:	b480      	push	{r7}
800012ac:	b085      	sub	sp, #20
800012ae:	af00      	add	r7, sp, #0
800012b0:	60f8      	str	r0, [r7, #12]
800012b2:	60b9      	str	r1, [r7, #8]
800012b4:	607a      	str	r2, [r7, #4]
800012b6:	603b      	str	r3, [r7, #0]
800012b8:	69bb      	ldr	r3, [r7, #24]
800012ba:	2b00      	cmp	r3, #0
800012bc:	d002      	beq.n	800012c4 <IOMUXC_SetPinConfig+0x1a>
800012be:	69bb      	ldr	r3, [r7, #24]
800012c0:	69fa      	ldr	r2, [r7, #28]
800012c2:	601a      	str	r2, [r3, #0]
800012c4:	bf00      	nop
800012c6:	3714      	adds	r7, #20
800012c8:	46bd      	mov	sp, r7
800012ca:	f85d 7b04 	ldr.w	r7, [sp], #4
800012ce:	4770      	bx	lr

800012d0 <uart_init>:
800012d0:	b580      	push	{r7, lr}
800012d2:	af00      	add	r7, sp, #0
800012d4:	2000      	movs	r0, #0
800012d6:	f2c0 2002 	movt	r0, #514	; 0x202
800012da:	f000 fa4a 	bl	80001772 <uart_disable>
800012de:	2000      	movs	r0, #0
800012e0:	f2c0 2002 	movt	r0, #514	; 0x202
800012e4:	f000 fa69 	bl	800017ba <uart_softreset>
800012e8:	2300      	movs	r3, #0
800012ea:	f2c0 2302 	movt	r3, #514	; 0x202
800012ee:	2200      	movs	r2, #0
800012f0:	f8c3 2080 	str.w	r2, [r3, #128]	; 0x80
800012f4:	2300      	movs	r3, #0
800012f6:	f2c0 2302 	movt	r3, #514	; 0x202
800012fa:	f8d3 2080 	ldr.w	r2, [r3, #128]	; 0x80
800012fe:	2300      	movs	r3, #0
80001300:	f2c0 2302 	movt	r3, #514	; 0x202
80001304:	f422 4280 	bic.w	r2, r2, #16384	; 0x4000
80001308:	f8c3 2080 	str.w	r2, [r3, #128]	; 0x80
8000130c:	2300      	movs	r3, #0
8000130e:	f2c0 2302 	movt	r3, #514	; 0x202
80001312:	f8d3 3084 	ldr.w	r3, [r3, #132]	; 0x84
80001316:	2200      	movs	r2, #0
80001318:	f2c0 2202 	movt	r2, #514	; 0x202
8000131c:	f443 4380 	orr.w	r3, r3, #16384	; 0x4000
80001320:	f043 0326 	orr.w	r3, r3, #38	; 0x26
80001324:	f8c2 3084 	str.w	r3, [r2, #132]	; 0x84
80001328:	2300      	movs	r3, #0
8000132a:	f2c0 2302 	movt	r3, #514	; 0x202
8000132e:	f8d3 2088 	ldr.w	r2, [r3, #136]	; 0x88
80001332:	2300      	movs	r3, #0
80001334:	f2c0 2302 	movt	r3, #514	; 0x202
80001338:	f042 0204 	orr.w	r2, r2, #4
8000133c:	f8c3 2088 	str.w	r2, [r3, #136]	; 0x88
80001340:	2300      	movs	r3, #0
80001342:	f2c0 2302 	movt	r3, #514	; 0x202
80001346:	f44f 7220 	mov.w	r2, #640	; 0x280
8000134a:	f8c3 2090 	str.w	r2, [r3, #144]	; 0x90
8000134e:	2300      	movs	r3, #0
80001350:	f2c0 2302 	movt	r3, #514	; 0x202
80001354:	2247      	movs	r2, #71	; 0x47
80001356:	f8c3 20a4 	str.w	r2, [r3, #164]	; 0xa4
8000135a:	2300      	movs	r3, #0
8000135c:	f2c0 2302 	movt	r3, #514	; 0x202
80001360:	f640 4234 	movw	r2, #3124	; 0xc34
80001364:	f8c3 20a8 	str.w	r2, [r3, #168]	; 0xa8
80001368:	2000      	movs	r0, #0
8000136a:	f2c0 2002 	movt	r0, #514	; 0x202
8000136e:	f000 fa12 	bl	80001796 <uart_enable>
80001372:	bf00      	nop
80001374:	bd80      	pop	{r7, pc}

80001376 <uart_io_init>:
80001376:	b580      	push	{r7, lr}
80001378:	b082      	sub	sp, #8
8000137a:	af02      	add	r7, sp, #8
8000137c:	2300      	movs	r3, #0
8000137e:	9301      	str	r3, [sp, #4]
80001380:	f44f 7344 	mov.w	r3, #784	; 0x310
80001384:	f2c0 230e 	movt	r3, #526	; 0x20e
80001388:	9300      	str	r3, [sp, #0]
8000138a:	2300      	movs	r3, #0
8000138c:	2200      	movs	r2, #0
8000138e:	2100      	movs	r1, #0
80001390:	2084      	movs	r0, #132	; 0x84
80001392:	f2c0 200e 	movt	r0, #526	; 0x20e
80001396:	f7ff ff69 	bl	8000126c <IOMUXC_SetPinMux>
8000139a:	2300      	movs	r3, #0
8000139c:	9301      	str	r3, [sp, #4]
8000139e:	f44f 7345 	mov.w	r3, #788	; 0x314
800013a2:	f2c0 230e 	movt	r3, #526	; 0x20e
800013a6:	9300      	str	r3, [sp, #0]
800013a8:	2303      	movs	r3, #3
800013aa:	f240 6224 	movw	r2, #1572	; 0x624
800013ae:	f2c0 220e 	movt	r2, #526	; 0x20e
800013b2:	2100      	movs	r1, #0
800013b4:	2088      	movs	r0, #136	; 0x88
800013b6:	f2c0 200e 	movt	r0, #526	; 0x20e
800013ba:	f7ff ff57 	bl	8000126c <IOMUXC_SetPinMux>
800013be:	f241 03b0 	movw	r3, #4272	; 0x10b0
800013c2:	9301      	str	r3, [sp, #4]
800013c4:	f44f 7344 	mov.w	r3, #784	; 0x310
800013c8:	f2c0 230e 	movt	r3, #526	; 0x20e
800013cc:	9300      	str	r3, [sp, #0]
800013ce:	2300      	movs	r3, #0
800013d0:	2200      	movs	r2, #0
800013d2:	2100      	movs	r1, #0
800013d4:	2084      	movs	r0, #132	; 0x84
800013d6:	f2c0 200e 	movt	r0, #526	; 0x20e
800013da:	f7ff ff66 	bl	800012aa <IOMUXC_SetPinConfig>
800013de:	f241 03b0 	movw	r3, #4272	; 0x10b0
800013e2:	9301      	str	r3, [sp, #4]
800013e4:	f44f 7345 	mov.w	r3, #788	; 0x314
800013e8:	f2c0 230e 	movt	r3, #526	; 0x20e
800013ec:	9300      	str	r3, [sp, #0]
800013ee:	2303      	movs	r3, #3
800013f0:	f240 6224 	movw	r2, #1572	; 0x624
800013f4:	f2c0 220e 	movt	r2, #526	; 0x20e
800013f8:	2100      	movs	r1, #0
800013fa:	2088      	movs	r0, #136	; 0x88
800013fc:	f2c0 200e 	movt	r0, #526	; 0x20e
80001400:	f7ff ff53 	bl	800012aa <IOMUXC_SetPinConfig>
80001404:	bf00      	nop
80001406:	46bd      	mov	sp, r7
80001408:	bd80      	pop	{r7, pc}

8000140a <uart_setbaudrate>:
8000140a:	e92d 4fb0 	stmdb	sp!, {r4, r5, r7, r8, r9, sl, fp, lr}
8000140e:	b0a4      	sub	sp, #144	; 0x90
80001410:	af00      	add	r7, sp, #0
80001412:	6578      	str	r0, [r7, #84]	; 0x54
80001414:	6539      	str	r1, [r7, #80]	; 0x50
80001416:	64fa      	str	r2, [r7, #76]	; 0x4c
80001418:	2300      	movs	r3, #0
8000141a:	f8c7 308c 	str.w	r3, [r7, #140]	; 0x8c
8000141e:	2300      	movs	r3, #0
80001420:	f8c7 3088 	str.w	r3, [r7, #136]	; 0x88
80001424:	2300      	movs	r3, #0
80001426:	f8c7 3084 	str.w	r3, [r7, #132]	; 0x84
8000142a:	2300      	movs	r3, #0
8000142c:	f8c7 3080 	str.w	r3, [r7, #128]	; 0x80
80001430:	2301      	movs	r3, #1
80001432:	673b      	str	r3, [r7, #112]	; 0x70
80001434:	f04f 0200 	mov.w	r2, #0
80001438:	f04f 0300 	mov.w	r3, #0
8000143c:	e9c7 231a 	strd	r2, r3, [r7, #104]	; 0x68
80001440:	f04f 0200 	mov.w	r2, #0
80001444:	f04f 0300 	mov.w	r3, #0
80001448:	e9c7 231e 	strd	r2, r3, [r7, #120]	; 0x78
8000144c:	2300      	movs	r3, #0
8000144e:	677b      	str	r3, [r7, #116]	; 0x74
80001450:	6cfb      	ldr	r3, [r7, #76]	; 0x4c
80001452:	f8c7 308c 	str.w	r3, [r7, #140]	; 0x8c
80001456:	6d3b      	ldr	r3, [r7, #80]	; 0x50
80001458:	011b      	lsls	r3, r3, #4
8000145a:	f8c7 3088 	str.w	r3, [r7, #136]	; 0x88
8000145e:	2301      	movs	r3, #1
80001460:	f8c7 3084 	str.w	r3, [r7, #132]	; 0x84
80001464:	e011      	b.n	8000148a <uart_setbaudrate+0x80>
80001466:	f8d7 3088 	ldr.w	r3, [r7, #136]	; 0x88
8000146a:	f8c7 3084 	str.w	r3, [r7, #132]	; 0x84
8000146e:	f8d7 308c 	ldr.w	r3, [r7, #140]	; 0x8c
80001472:	f8d7 1088 	ldr.w	r1, [r7, #136]	; 0x88
80001476:	4618      	mov	r0, r3
80001478:	f002 fcd8 	bl	80003e2c <__aeabi_uidivmod>
8000147c:	460b      	mov	r3, r1
8000147e:	f8c7 3088 	str.w	r3, [r7, #136]	; 0x88
80001482:	f8d7 3084 	ldr.w	r3, [r7, #132]	; 0x84
80001486:	f8c7 308c 	str.w	r3, [r7, #140]	; 0x8c
8000148a:	f8d7 3088 	ldr.w	r3, [r7, #136]	; 0x88
8000148e:	2b00      	cmp	r3, #0
80001490:	d1e9      	bne.n	80001466 <uart_setbaudrate+0x5c>
80001492:	f8d7 1084 	ldr.w	r1, [r7, #132]	; 0x84
80001496:	6cf8      	ldr	r0, [r7, #76]	; 0x4c
80001498:	f002 fb9a 	bl	80003bd0 <__udivsi3>
8000149c:	4603      	mov	r3, r0
8000149e:	f8c7 308c 	str.w	r3, [r7, #140]	; 0x8c
800014a2:	6d3b      	ldr	r3, [r7, #80]	; 0x50
800014a4:	011b      	lsls	r3, r3, #4
800014a6:	f8d7 1084 	ldr.w	r1, [r7, #132]	; 0x84
800014aa:	4618      	mov	r0, r3
800014ac:	f002 fb90 	bl	80003bd0 <__udivsi3>
800014b0:	4603      	mov	r3, r0
800014b2:	f8c7 3088 	str.w	r3, [r7, #136]	; 0x88
800014b6:	f8d7 208c 	ldr.w	r2, [r7, #140]	; 0x8c
800014ba:	f64f 73f9 	movw	r3, #65529	; 0xfff9
800014be:	f2c0 0306 	movt	r3, #6
800014c2:	429a      	cmp	r2, r3
800014c4:	d804      	bhi.n	800014d0 <uart_setbaudrate+0xc6>
800014c6:	f8d7 3088 	ldr.w	r3, [r7, #136]	; 0x88
800014ca:	f5b3 3f80 	cmp.w	r3, #65536	; 0x10000
800014ce:	d33e      	bcc.n	8000154e <uart_setbaudrate+0x144>
800014d0:	f8d7 308c 	ldr.w	r3, [r7, #140]	; 0x8c
800014d4:	1e59      	subs	r1, r3, #1
800014d6:	f646 53b9 	movw	r3, #28089	; 0x6db9
800014da:	f2c2 4393 	movt	r3, #9363	; 0x2493
800014de:	fba3 3201 	umull	r3, r2, r3, r1
800014e2:	1a8b      	subs	r3, r1, r2
800014e4:	085b      	lsrs	r3, r3, #1
800014e6:	4413      	add	r3, r2
800014e8:	0c9b      	lsrs	r3, r3, #18
800014ea:	3301      	adds	r3, #1
800014ec:	667b      	str	r3, [r7, #100]	; 0x64
800014ee:	f8d7 3088 	ldr.w	r3, [r7, #136]	; 0x88
800014f2:	1e5a      	subs	r2, r3, #1
800014f4:	f248 0301 	movw	r3, #32769	; 0x8001
800014f8:	f2c8 0300 	movt	r3, #32768	; 0x8000
800014fc:	fba3 2302 	umull	r2, r3, r3, r2
80001500:	0bdb      	lsrs	r3, r3, #15
80001502:	3301      	adds	r3, #1
80001504:	663b      	str	r3, [r7, #96]	; 0x60
80001506:	6e3a      	ldr	r2, [r7, #96]	; 0x60
80001508:	6e7b      	ldr	r3, [r7, #100]	; 0x64
8000150a:	4293      	cmp	r3, r2
8000150c:	bf38      	it	cc
8000150e:	4613      	movcc	r3, r2
80001510:	65fb      	str	r3, [r7, #92]	; 0x5c
80001512:	6df9      	ldr	r1, [r7, #92]	; 0x5c
80001514:	f8d7 008c 	ldr.w	r0, [r7, #140]	; 0x8c
80001518:	f002 fb5a 	bl	80003bd0 <__udivsi3>
8000151c:	4603      	mov	r3, r0
8000151e:	f8c7 308c 	str.w	r3, [r7, #140]	; 0x8c
80001522:	6df9      	ldr	r1, [r7, #92]	; 0x5c
80001524:	f8d7 0088 	ldr.w	r0, [r7, #136]	; 0x88
80001528:	f002 fb52 	bl	80003bd0 <__udivsi3>
8000152c:	4603      	mov	r3, r0
8000152e:	f8c7 3088 	str.w	r3, [r7, #136]	; 0x88
80001532:	f8d7 308c 	ldr.w	r3, [r7, #140]	; 0x8c
80001536:	2b00      	cmp	r3, #0
80001538:	d102      	bne.n	80001540 <uart_setbaudrate+0x136>
8000153a:	2301      	movs	r3, #1
8000153c:	f8c7 308c 	str.w	r3, [r7, #140]	; 0x8c
80001540:	f8d7 3088 	ldr.w	r3, [r7, #136]	; 0x88
80001544:	2b00      	cmp	r3, #0
80001546:	d102      	bne.n	8000154e <uart_setbaudrate+0x144>
80001548:	2301      	movs	r3, #1
8000154a:	f8c7 3088 	str.w	r3, [r7, #136]	; 0x88
8000154e:	f8d7 308c 	ldr.w	r3, [r7, #140]	; 0x8c
80001552:	1e5a      	subs	r2, r3, #1
80001554:	f248 0301 	movw	r3, #32769	; 0x8001
80001558:	f2c8 0300 	movt	r3, #32768	; 0x8000
8000155c:	fba3 2302 	umull	r2, r3, r3, r2
80001560:	0bdb      	lsrs	r3, r3, #15
80001562:	3301      	adds	r3, #1
80001564:	673b      	str	r3, [r7, #112]	; 0x70
80001566:	6f3b      	ldr	r3, [r7, #112]	; 0x70
80001568:	3b01      	subs	r3, #1
8000156a:	2b06      	cmp	r3, #6
8000156c:	d82e      	bhi.n	800015cc <uart_setbaudrate+0x1c2>
8000156e:	a202      	add	r2, pc, #8	; (adr r2, 80001578 <uart_setbaudrate+0x16e>)
80001570:	f852 3023 	ldr.w	r3, [r2, r3, lsl #2]
80001574:	441a      	add	r2, r3
80001576:	4710      	bx	r2
80001578:	0000001d 	andeq	r0, r0, sp, lsl r0
8000157c:	00000025 	andeq	r0, r0, r5, lsr #32
80001580:	0000002d 	andeq	r0, r0, sp, lsr #32
80001584:	00000035 	andeq	r0, r0, r5, lsr r0
80001588:	0000003d 	andeq	r0, r0, sp, lsr r0
8000158c:	00000045 	andeq	r0, r0, r5, asr #32
80001590:	0000004d 	andeq	r0, r0, sp, asr #32
80001594:	2305      	movs	r3, #5
80001596:	f8c7 3080 	str.w	r3, [r7, #128]	; 0x80
8000159a:	e01b      	b.n	800015d4 <uart_setbaudrate+0x1ca>
8000159c:	2304      	movs	r3, #4
8000159e:	f8c7 3080 	str.w	r3, [r7, #128]	; 0x80
800015a2:	e017      	b.n	800015d4 <uart_setbaudrate+0x1ca>
800015a4:	2303      	movs	r3, #3
800015a6:	f8c7 3080 	str.w	r3, [r7, #128]	; 0x80
800015aa:	e013      	b.n	800015d4 <uart_setbaudrate+0x1ca>
800015ac:	2302      	movs	r3, #2
800015ae:	f8c7 3080 	str.w	r3, [r7, #128]	; 0x80
800015b2:	e00f      	b.n	800015d4 <uart_setbaudrate+0x1ca>
800015b4:	2301      	movs	r3, #1
800015b6:	f8c7 3080 	str.w	r3, [r7, #128]	; 0x80
800015ba:	e00b      	b.n	800015d4 <uart_setbaudrate+0x1ca>
800015bc:	2300      	movs	r3, #0
800015be:	f8c7 3080 	str.w	r3, [r7, #128]	; 0x80
800015c2:	e007      	b.n	800015d4 <uart_setbaudrate+0x1ca>
800015c4:	2306      	movs	r3, #6
800015c6:	f8c7 3080 	str.w	r3, [r7, #128]	; 0x80
800015ca:	e003      	b.n	800015d4 <uart_setbaudrate+0x1ca>
800015cc:	2305      	movs	r3, #5
800015ce:	f8c7 3080 	str.w	r3, [r7, #128]	; 0x80
800015d2:	bf00      	nop
800015d4:	6cfb      	ldr	r3, [r7, #76]	; 0x4c
800015d6:	2200      	movs	r2, #0
800015d8:	613b      	str	r3, [r7, #16]
800015da:	617a      	str	r2, [r7, #20]
800015dc:	e9d7 2304 	ldrd	r2, r3, [r7, #16]
800015e0:	e9c7 231e 	strd	r2, r3, [r7, #120]	; 0x78
800015e4:	f8d7 308c 	ldr.w	r3, [r7, #140]	; 0x8c
800015e8:	011b      	lsls	r3, r3, #4
800015ea:	677b      	str	r3, [r7, #116]	; 0x74
800015ec:	2301      	movs	r3, #1
800015ee:	f8c7 3084 	str.w	r3, [r7, #132]	; 0x84
800015f2:	e017      	b.n	80001624 <uart_setbaudrate+0x21a>
800015f4:	6f7b      	ldr	r3, [r7, #116]	; 0x74
800015f6:	f8c7 3084 	str.w	r3, [r7, #132]	; 0x84
800015fa:	6f7b      	ldr	r3, [r7, #116]	; 0x74
800015fc:	2200      	movs	r2, #0
800015fe:	643b      	str	r3, [r7, #64]	; 0x40
80001600:	647a      	str	r2, [r7, #68]	; 0x44
80001602:	e9d7 011e 	ldrd	r0, r1, [r7, #120]	; 0x78
80001606:	e9d7 2310 	ldrd	r2, r3, [r7, #64]	; 0x40
8000160a:	f002 fc1d 	bl	80003e48 <__aeabi_uldivmod>
8000160e:	4613      	mov	r3, r2
80001610:	677b      	str	r3, [r7, #116]	; 0x74
80001612:	f8d7 3084 	ldr.w	r3, [r7, #132]	; 0x84
80001616:	2200      	movs	r2, #0
80001618:	60bb      	str	r3, [r7, #8]
8000161a:	60fa      	str	r2, [r7, #12]
8000161c:	e9d7 2302 	ldrd	r2, r3, [r7, #8]
80001620:	e9c7 231e 	strd	r2, r3, [r7, #120]	; 0x78
80001624:	6f7b      	ldr	r3, [r7, #116]	; 0x74
80001626:	2b00      	cmp	r3, #0
80001628:	d1e4      	bne.n	800015f4 <uart_setbaudrate+0x1ea>
8000162a:	f8d7 1084 	ldr.w	r1, [r7, #132]	; 0x84
8000162e:	6cf8      	ldr	r0, [r7, #76]	; 0x4c
80001630:	f002 face 	bl	80003bd0 <__udivsi3>
80001634:	4603      	mov	r3, r0
80001636:	461a      	mov	r2, r3
80001638:	2300      	movs	r3, #0
8000163a:	603a      	str	r2, [r7, #0]
8000163c:	607b      	str	r3, [r7, #4]
8000163e:	e9d7 2300 	ldrd	r2, r3, [r7]
80001642:	e9c7 231e 	strd	r2, r3, [r7, #120]	; 0x78
80001646:	f8d7 308c 	ldr.w	r3, [r7, #140]	; 0x8c
8000164a:	011b      	lsls	r3, r3, #4
8000164c:	f8d7 1084 	ldr.w	r1, [r7, #132]	; 0x84
80001650:	4618      	mov	r0, r3
80001652:	f002 fabd 	bl	80003bd0 <__udivsi3>
80001656:	4603      	mov	r3, r0
80001658:	677b      	str	r3, [r7, #116]	; 0x74
8000165a:	f8d7 3088 	ldr.w	r3, [r7, #136]	; 0x88
8000165e:	2200      	movs	r2, #0
80001660:	469a      	mov	sl, r3
80001662:	4693      	mov	fp, r2
80001664:	6fbb      	ldr	r3, [r7, #120]	; 0x78
80001666:	fb0b f203 	mul.w	r2, fp, r3
8000166a:	6ffb      	ldr	r3, [r7, #124]	; 0x7c
8000166c:	fb0a f303 	mul.w	r3, sl, r3
80001670:	441a      	add	r2, r3
80001672:	6fbb      	ldr	r3, [r7, #120]	; 0x78
80001674:	fba3 890a 	umull	r8, r9, r3, sl
80001678:	eb02 0309 	add.w	r3, r2, r9
8000167c:	4699      	mov	r9, r3
8000167e:	6f7b      	ldr	r3, [r7, #116]	; 0x74
80001680:	2200      	movs	r2, #0
80001682:	63bb      	str	r3, [r7, #56]	; 0x38
80001684:	63fa      	str	r2, [r7, #60]	; 0x3c
80001686:	e9d7 230e 	ldrd	r2, r3, [r7, #56]	; 0x38
8000168a:	4640      	mov	r0, r8
8000168c:	4649      	mov	r1, r9
8000168e:	f002 fbdb 	bl	80003e48 <__aeabi_uldivmod>
80001692:	4602      	mov	r2, r0
80001694:	460b      	mov	r3, r1
80001696:	e9c7 231a 	strd	r2, r3, [r7, #104]	; 0x68
8000169a:	6d3b      	ldr	r3, [r7, #80]	; 0x50
8000169c:	2200      	movs	r2, #0
8000169e:	633b      	str	r3, [r7, #48]	; 0x30
800016a0:	637a      	str	r2, [r7, #52]	; 0x34
800016a2:	e9d7 231a 	ldrd	r2, r3, [r7, #104]	; 0x68
800016a6:	e9d7 890c 	ldrd	r8, r9, [r7, #48]	; 0x30
800016aa:	4641      	mov	r1, r8
800016ac:	428a      	cmp	r2, r1
800016ae:	4649      	mov	r1, r9
800016b0:	418b      	sbcs	r3, r1
800016b2:	d30d      	bcc.n	800016d0 <uart_setbaudrate+0x2c6>
800016b4:	6d3b      	ldr	r3, [r7, #80]	; 0x50
800016b6:	2200      	movs	r2, #0
800016b8:	62bb      	str	r3, [r7, #40]	; 0x28
800016ba:	62fa      	str	r2, [r7, #44]	; 0x2c
800016bc:	e9d7 231a 	ldrd	r2, r3, [r7, #104]	; 0x68
800016c0:	e9d7 890a 	ldrd	r8, r9, [r7, #40]	; 0x28
800016c4:	4641      	mov	r1, r8
800016c6:	1a54      	subs	r4, r2, r1
800016c8:	4649      	mov	r1, r9
800016ca:	eb63 0501 	sbc.w	r5, r3, r1
800016ce:	e00c      	b.n	800016ea <uart_setbaudrate+0x2e0>
800016d0:	6d3b      	ldr	r3, [r7, #80]	; 0x50
800016d2:	2200      	movs	r2, #0
800016d4:	623b      	str	r3, [r7, #32]
800016d6:	627a      	str	r2, [r7, #36]	; 0x24
800016d8:	e9d7 231a 	ldrd	r2, r3, [r7, #104]	; 0x68
800016dc:	e9d7 8908 	ldrd	r8, r9, [r7, #32]
800016e0:	4641      	mov	r1, r8
800016e2:	1a8c      	subs	r4, r1, r2
800016e4:	4649      	mov	r1, r9
800016e6:	eb61 0503 	sbc.w	r5, r1, r3
800016ea:	e9c7 451a 	strd	r4, r5, [r7, #104]	; 0x68
800016ee:	6d3a      	ldr	r2, [r7, #80]	; 0x50
800016f0:	f248 531f 	movw	r3, #34079	; 0x851f
800016f4:	f2c5 13eb 	movt	r3, #20971	; 0x51eb
800016f8:	fba3 2302 	umull	r2, r3, r3, r2
800016fc:	095a      	lsrs	r2, r3, #5
800016fe:	4613      	mov	r3, r2
80001700:	005b      	lsls	r3, r3, #1
80001702:	4413      	add	r3, r2
80001704:	2200      	movs	r2, #0
80001706:	61bb      	str	r3, [r7, #24]
80001708:	61fa      	str	r2, [r7, #28]
8000170a:	e9d7 231a 	ldrd	r2, r3, [r7, #104]	; 0x68
8000170e:	e9d7 4506 	ldrd	r4, r5, [r7, #24]
80001712:	4621      	mov	r1, r4
80001714:	428a      	cmp	r2, r1
80001716:	4629      	mov	r1, r5
80001718:	418b      	sbcs	r3, r1
8000171a:	d225      	bcs.n	80001768 <uart_setbaudrate+0x35e>
8000171c:	6d7b      	ldr	r3, [r7, #84]	; 0x54
8000171e:	f8d3 3090 	ldr.w	r3, [r3, #144]	; 0x90
80001722:	f423 7260 	bic.w	r2, r3, #896	; 0x380
80001726:	6d7b      	ldr	r3, [r7, #84]	; 0x54
80001728:	f8c3 2090 	str.w	r2, [r3, #144]	; 0x90
8000172c:	6d7b      	ldr	r3, [r7, #84]	; 0x54
8000172e:	f8d3 2090 	ldr.w	r2, [r3, #144]	; 0x90
80001732:	f8d7 3080 	ldr.w	r3, [r7, #128]	; 0x80
80001736:	01db      	lsls	r3, r3, #7
80001738:	f403 7360 	and.w	r3, r3, #896	; 0x380
8000173c:	431a      	orrs	r2, r3
8000173e:	6d7b      	ldr	r3, [r7, #84]	; 0x54
80001740:	f8c3 2090 	str.w	r2, [r3, #144]	; 0x90
80001744:	f8d7 3088 	ldr.w	r3, [r7, #136]	; 0x88
80001748:	3b01      	subs	r3, #1
8000174a:	b29a      	uxth	r2, r3
8000174c:	6d7b      	ldr	r3, [r7, #84]	; 0x54
8000174e:	f8c3 20a4 	str.w	r2, [r3, #164]	; 0xa4
80001752:	6f39      	ldr	r1, [r7, #112]	; 0x70
80001754:	f8d7 008c 	ldr.w	r0, [r7, #140]	; 0x8c
80001758:	f002 fa3a 	bl	80003bd0 <__udivsi3>
8000175c:	4603      	mov	r3, r0
8000175e:	3b01      	subs	r3, #1
80001760:	b29a      	uxth	r2, r3
80001762:	6d7b      	ldr	r3, [r7, #84]	; 0x54
80001764:	f8c3 20a8 	str.w	r2, [r3, #168]	; 0xa8
80001768:	bf00      	nop
8000176a:	3790      	adds	r7, #144	; 0x90
8000176c:	46bd      	mov	sp, r7
8000176e:	e8bd 8fb0 	ldmia.w	sp!, {r4, r5, r7, r8, r9, sl, fp, pc}

80001772 <uart_disable>:
80001772:	b480      	push	{r7}
80001774:	b083      	sub	sp, #12
80001776:	af00      	add	r7, sp, #0
80001778:	6078      	str	r0, [r7, #4]
8000177a:	687b      	ldr	r3, [r7, #4]
8000177c:	f8d3 3080 	ldr.w	r3, [r3, #128]	; 0x80
80001780:	f023 0201 	bic.w	r2, r3, #1
80001784:	687b      	ldr	r3, [r7, #4]
80001786:	f8c3 2080 	str.w	r2, [r3, #128]	; 0x80
8000178a:	bf00      	nop
8000178c:	370c      	adds	r7, #12
8000178e:	46bd      	mov	sp, r7
80001790:	f85d 7b04 	ldr.w	r7, [sp], #4
80001794:	4770      	bx	lr

80001796 <uart_enable>:
80001796:	b480      	push	{r7}
80001798:	b083      	sub	sp, #12
8000179a:	af00      	add	r7, sp, #0
8000179c:	6078      	str	r0, [r7, #4]
8000179e:	687b      	ldr	r3, [r7, #4]
800017a0:	f8d3 3080 	ldr.w	r3, [r3, #128]	; 0x80
800017a4:	f043 0201 	orr.w	r2, r3, #1
800017a8:	687b      	ldr	r3, [r7, #4]
800017aa:	f8c3 2080 	str.w	r2, [r3, #128]	; 0x80
800017ae:	bf00      	nop
800017b0:	370c      	adds	r7, #12
800017b2:	46bd      	mov	sp, r7
800017b4:	f85d 7b04 	ldr.w	r7, [sp], #4
800017b8:	4770      	bx	lr

800017ba <uart_softreset>:
800017ba:	b480      	push	{r7}
800017bc:	b083      	sub	sp, #12
800017be:	af00      	add	r7, sp, #0
800017c0:	6078      	str	r0, [r7, #4]
800017c2:	687b      	ldr	r3, [r7, #4]
800017c4:	f8d3 3084 	ldr.w	r3, [r3, #132]	; 0x84
800017c8:	f023 0201 	bic.w	r2, r3, #1
800017cc:	687b      	ldr	r3, [r7, #4]
800017ce:	f8c3 2084 	str.w	r2, [r3, #132]	; 0x84
800017d2:	bf00      	nop
800017d4:	687b      	ldr	r3, [r7, #4]
800017d6:	f8d3 3084 	ldr.w	r3, [r3, #132]	; 0x84
800017da:	f003 0301 	and.w	r3, r3, #1
800017de:	2b00      	cmp	r3, #0
800017e0:	d0f8      	beq.n	800017d4 <uart_softreset+0x1a>
800017e2:	bf00      	nop
800017e4:	bf00      	nop
800017e6:	370c      	adds	r7, #12
800017e8:	46bd      	mov	sp, r7
800017ea:	f85d 7b04 	ldr.w	r7, [sp], #4
800017ee:	4770      	bx	lr

800017f0 <putc>:
800017f0:	b480      	push	{r7}
800017f2:	b083      	sub	sp, #12
800017f4:	af00      	add	r7, sp, #0
800017f6:	4603      	mov	r3, r0
800017f8:	71fb      	strb	r3, [r7, #7]
800017fa:	bf00      	nop
800017fc:	2300      	movs	r3, #0
800017fe:	f2c0 2302 	movt	r3, #514	; 0x202
80001802:	f8d3 3098 	ldr.w	r3, [r3, #152]	; 0x98
80001806:	f003 0308 	and.w	r3, r3, #8
8000180a:	2b00      	cmp	r3, #0
8000180c:	d0f6      	beq.n	800017fc <putc+0xc>
8000180e:	2300      	movs	r3, #0
80001810:	f2c0 2302 	movt	r3, #514	; 0x202
80001814:	79fa      	ldrb	r2, [r7, #7]
80001816:	641a      	str	r2, [r3, #64]	; 0x40
80001818:	bf00      	nop
8000181a:	370c      	adds	r7, #12
8000181c:	46bd      	mov	sp, r7
8000181e:	f85d 7b04 	ldr.w	r7, [sp], #4
80001822:	4770      	bx	lr

80001824 <puts>:
80001824:	b580      	push	{r7, lr}
80001826:	b084      	sub	sp, #16
80001828:	af00      	add	r7, sp, #0
8000182a:	6078      	str	r0, [r7, #4]
8000182c:	687b      	ldr	r3, [r7, #4]
8000182e:	60fb      	str	r3, [r7, #12]
80001830:	e006      	b.n	80001840 <puts+0x1c>
80001832:	68fb      	ldr	r3, [r7, #12]
80001834:	1c5a      	adds	r2, r3, #1
80001836:	60fa      	str	r2, [r7, #12]
80001838:	781b      	ldrb	r3, [r3, #0]
8000183a:	4618      	mov	r0, r3
8000183c:	f7ff ffd8 	bl	800017f0 <putc>
80001840:	68fb      	ldr	r3, [r7, #12]
80001842:	781b      	ldrb	r3, [r3, #0]
80001844:	2b00      	cmp	r3, #0
80001846:	d1f4      	bne.n	80001832 <puts+0xe>
80001848:	bf00      	nop
8000184a:	bf00      	nop
8000184c:	3710      	adds	r7, #16
8000184e:	46bd      	mov	sp, r7
80001850:	bd80      	pop	{r7, pc}

80001852 <getc>:
80001852:	b480      	push	{r7}
80001854:	af00      	add	r7, sp, #0
80001856:	bf00      	nop
80001858:	2300      	movs	r3, #0
8000185a:	f2c0 2302 	movt	r3, #514	; 0x202
8000185e:	f8d3 3098 	ldr.w	r3, [r3, #152]	; 0x98
80001862:	f003 0301 	and.w	r3, r3, #1
80001866:	2b00      	cmp	r3, #0
80001868:	d0f6      	beq.n	80001858 <getc+0x6>
8000186a:	2300      	movs	r3, #0
8000186c:	f2c0 2302 	movt	r3, #514	; 0x202
80001870:	681b      	ldr	r3, [r3, #0]
80001872:	b2db      	uxtb	r3, r3
80001874:	4618      	mov	r0, r3
80001876:	46bd      	mov	sp, r7
80001878:	f85d 7b04 	ldr.w	r7, [sp], #4
8000187c:	4770      	bx	lr

8000187e <raise>:
8000187e:	b480      	push	{r7}
80001880:	b083      	sub	sp, #12
80001882:	af00      	add	r7, sp, #0
80001884:	6078      	str	r0, [r7, #4]
80001886:	bf00      	nop
80001888:	370c      	adds	r7, #12
8000188a:	46bd      	mov	sp, r7
8000188c:	f85d 7b04 	ldr.w	r7, [sp], #4
80001890:	4770      	bx	lr
80001892:	bf00      	nop

80001894 <__div64_32>:
80001894:	e92d 4fb0 	stmdb	sp!, {r4, r5, r7, r8, r9, sl, fp, lr}
80001898:	b096      	sub	sp, #88	; 0x58
8000189a:	af00      	add	r7, sp, #0
8000189c:	62f8      	str	r0, [r7, #44]	; 0x2c
8000189e:	62b9      	str	r1, [r7, #40]	; 0x28
800018a0:	6afb      	ldr	r3, [r7, #44]	; 0x2c
800018a2:	e9d3 2300 	ldrd	r2, r3, [r3]
800018a6:	e9c7 2314 	strd	r2, r3, [r7, #80]	; 0x50
800018aa:	6abb      	ldr	r3, [r7, #40]	; 0x28
800018ac:	2200      	movs	r2, #0
800018ae:	461c      	mov	r4, r3
800018b0:	4615      	mov	r5, r2
800018b2:	e9c7 4512 	strd	r4, r5, [r7, #72]	; 0x48
800018b6:	f04f 0201 	mov.w	r2, #1
800018ba:	f04f 0300 	mov.w	r3, #0
800018be:	e9c7 230e 	strd	r2, r3, [r7, #56]	; 0x38
800018c2:	e9d7 2314 	ldrd	r2, r3, [r7, #80]	; 0x50
800018c6:	f04f 0000 	mov.w	r0, #0
800018ca:	f04f 0100 	mov.w	r1, #0
800018ce:	0018      	movs	r0, r3
800018d0:	2100      	movs	r1, #0
800018d2:	4603      	mov	r3, r0
800018d4:	637b      	str	r3, [r7, #52]	; 0x34
800018d6:	f04f 0200 	mov.w	r2, #0
800018da:	f04f 0300 	mov.w	r3, #0
800018de:	e9c7 2310 	strd	r2, r3, [r7, #64]	; 0x40
800018e2:	6b7a      	ldr	r2, [r7, #52]	; 0x34
800018e4:	6abb      	ldr	r3, [r7, #40]	; 0x28
800018e6:	429a      	cmp	r2, r3
800018e8:	d340      	bcc.n	8000196c <__div64_32+0xd8>
800018ea:	6ab9      	ldr	r1, [r7, #40]	; 0x28
800018ec:	6b78      	ldr	r0, [r7, #52]	; 0x34
800018ee:	f002 f96f 	bl	80003bd0 <__udivsi3>
800018f2:	4603      	mov	r3, r0
800018f4:	637b      	str	r3, [r7, #52]	; 0x34
800018f6:	6b7b      	ldr	r3, [r7, #52]	; 0x34
800018f8:	2200      	movs	r2, #0
800018fa:	623b      	str	r3, [r7, #32]
800018fc:	627a      	str	r2, [r7, #36]	; 0x24
800018fe:	f04f 0200 	mov.w	r2, #0
80001902:	f04f 0300 	mov.w	r3, #0
80001906:	6a39      	ldr	r1, [r7, #32]
80001908:	000b      	movs	r3, r1
8000190a:	2200      	movs	r2, #0
8000190c:	e9c7 2310 	strd	r2, r3, [r7, #64]	; 0x40
80001910:	6b7b      	ldr	r3, [r7, #52]	; 0x34
80001912:	6aba      	ldr	r2, [r7, #40]	; 0x28
80001914:	fb02 f303 	mul.w	r3, r2, r3
80001918:	2200      	movs	r2, #0
8000191a:	61bb      	str	r3, [r7, #24]
8000191c:	61fa      	str	r2, [r7, #28]
8000191e:	f04f 0200 	mov.w	r2, #0
80001922:	f04f 0300 	mov.w	r3, #0
80001926:	69b9      	ldr	r1, [r7, #24]
80001928:	000b      	movs	r3, r1
8000192a:	2200      	movs	r2, #0
8000192c:	e9d7 0114 	ldrd	r0, r1, [r7, #80]	; 0x50
80001930:	1a84      	subs	r4, r0, r2
80001932:	613c      	str	r4, [r7, #16]
80001934:	eb61 0303 	sbc.w	r3, r1, r3
80001938:	617b      	str	r3, [r7, #20]
8000193a:	e9d7 3404 	ldrd	r3, r4, [r7, #16]
8000193e:	e9c7 3414 	strd	r3, r4, [r7, #80]	; 0x50
80001942:	e013      	b.n	8000196c <__div64_32+0xd8>
80001944:	e9d7 2312 	ldrd	r2, r3, [r7, #72]	; 0x48
80001948:	1891      	adds	r1, r2, r2
8000194a:	60b9      	str	r1, [r7, #8]
8000194c:	415b      	adcs	r3, r3
8000194e:	60fb      	str	r3, [r7, #12]
80001950:	e9d7 3402 	ldrd	r3, r4, [r7, #8]
80001954:	e9c7 3412 	strd	r3, r4, [r7, #72]	; 0x48
80001958:	e9d7 230e 	ldrd	r2, r3, [r7, #56]	; 0x38
8000195c:	1891      	adds	r1, r2, r2
8000195e:	6039      	str	r1, [r7, #0]
80001960:	415b      	adcs	r3, r3
80001962:	607b      	str	r3, [r7, #4]
80001964:	e9d7 3400 	ldrd	r3, r4, [r7]
80001968:	e9c7 340e 	strd	r3, r4, [r7, #56]	; 0x38
8000196c:	e9d7 2312 	ldrd	r2, r3, [r7, #72]	; 0x48
80001970:	2a01      	cmp	r2, #1
80001972:	f173 0300 	sbcs.w	r3, r3, #0
80001976:	db07      	blt.n	80001988 <__div64_32+0xf4>
80001978:	e9d7 0112 	ldrd	r0, r1, [r7, #72]	; 0x48
8000197c:	e9d7 2314 	ldrd	r2, r3, [r7, #80]	; 0x50
80001980:	4290      	cmp	r0, r2
80001982:	eb71 0303 	sbcs.w	r3, r1, r3
80001986:	d3dd      	bcc.n	80001944 <__div64_32+0xb0>
80001988:	e9d7 0114 	ldrd	r0, r1, [r7, #80]	; 0x50
8000198c:	e9d7 2312 	ldrd	r2, r3, [r7, #72]	; 0x48
80001990:	4290      	cmp	r0, r2
80001992:	eb71 0303 	sbcs.w	r3, r1, r3
80001996:	d313      	bcc.n	800019c0 <__div64_32+0x12c>
80001998:	e9d7 0114 	ldrd	r0, r1, [r7, #80]	; 0x50
8000199c:	e9d7 2312 	ldrd	r2, r3, [r7, #72]	; 0x48
800019a0:	ebb0 0802 	subs.w	r8, r0, r2
800019a4:	eb61 0903 	sbc.w	r9, r1, r3
800019a8:	e9c7 8914 	strd	r8, r9, [r7, #80]	; 0x50
800019ac:	e9d7 0110 	ldrd	r0, r1, [r7, #64]	; 0x40
800019b0:	e9d7 230e 	ldrd	r2, r3, [r7, #56]	; 0x38
800019b4:	eb10 0a02 	adds.w	sl, r0, r2
800019b8:	eb41 0b03 	adc.w	fp, r1, r3
800019bc:	e9c7 ab10 	strd	sl, fp, [r7, #64]	; 0x40
800019c0:	e9d7 0112 	ldrd	r0, r1, [r7, #72]	; 0x48
800019c4:	f04f 0200 	mov.w	r2, #0
800019c8:	f04f 0300 	mov.w	r3, #0
800019cc:	0842      	lsrs	r2, r0, #1
800019ce:	ea42 72c1 	orr.w	r2, r2, r1, lsl #31
800019d2:	084b      	lsrs	r3, r1, #1
800019d4:	e9c7 2312 	strd	r2, r3, [r7, #72]	; 0x48
800019d8:	e9d7 010e 	ldrd	r0, r1, [r7, #56]	; 0x38
800019dc:	f04f 0200 	mov.w	r2, #0
800019e0:	f04f 0300 	mov.w	r3, #0
800019e4:	0842      	lsrs	r2, r0, #1
800019e6:	ea42 72c1 	orr.w	r2, r2, r1, lsl #31
800019ea:	084b      	lsrs	r3, r1, #1
800019ec:	e9c7 230e 	strd	r2, r3, [r7, #56]	; 0x38
800019f0:	e9d7 230e 	ldrd	r2, r3, [r7, #56]	; 0x38
800019f4:	4313      	orrs	r3, r2
800019f6:	d1c7      	bne.n	80001988 <__div64_32+0xf4>
800019f8:	6af9      	ldr	r1, [r7, #44]	; 0x2c
800019fa:	e9d7 2310 	ldrd	r2, r3, [r7, #64]	; 0x40
800019fe:	e9c1 2300 	strd	r2, r3, [r1]
80001a02:	6d3b      	ldr	r3, [r7, #80]	; 0x50
80001a04:	4618      	mov	r0, r3
80001a06:	3758      	adds	r7, #88	; 0x58
80001a08:	46bd      	mov	sp, r7
80001a0a:	e8bd 8fb0 	ldmia.w	sp!, {r4, r5, r7, r8, r9, sl, fp, pc}

80001a0e <__muldi3>:
80001a0e:	b490      	push	{r4, r7}
80001a10:	b08c      	sub	sp, #48	; 0x30
80001a12:	af00      	add	r7, sp, #0
80001a14:	e9c7 0102 	strd	r0, r1, [r7, #8]
80001a18:	e9c7 2300 	strd	r2, r3, [r7]
80001a1c:	e9d7 2302 	ldrd	r2, r3, [r7, #8]
80001a20:	e9c7 2308 	strd	r2, r3, [r7, #32]
80001a24:	e9d7 2300 	ldrd	r2, r3, [r7]
80001a28:	e9c7 2306 	strd	r2, r3, [r7, #24]
80001a2c:	6a3b      	ldr	r3, [r7, #32]
80001a2e:	69ba      	ldr	r2, [r7, #24]
80001a30:	4611      	mov	r1, r2
80001a32:	ea4f 4013 	mov.w	r0, r3, lsr #16
80001a36:	ea4f 4211 	mov.w	r2, r1, lsr #16
80001a3a:	ea23 4400 	bic.w	r4, r3, r0, lsl #16
80001a3e:	ea21 4102 	bic.w	r1, r1, r2, lsl #16
80001a42:	fb04 f301 	mul.w	r3, r4, r1
80001a46:	fb00 f101 	mul.w	r1, r0, r1
80001a4a:	fb02 f404 	mul.w	r4, r2, r4
80001a4e:	fb00 f202 	mul.w	r2, r0, r2
80001a52:	190c      	adds	r4, r1, r4
80001a54:	bf28      	it	cs
80001a56:	f502 3280 	addcs.w	r2, r2, #65536	; 0x10000
80001a5a:	eb13 4304 	adds.w	r3, r3, r4, lsl #16
80001a5e:	eb42 4214 	adc.w	r2, r2, r4, lsr #16
80001a62:	617a      	str	r2, [r7, #20]
80001a64:	613b      	str	r3, [r7, #16]
80001a66:	e9d7 2304 	ldrd	r2, r3, [r7, #16]
80001a6a:	e9c7 230a 	strd	r2, r3, [r7, #40]	; 0x28
80001a6e:	6afb      	ldr	r3, [r7, #44]	; 0x2c
80001a70:	4619      	mov	r1, r3
80001a72:	6a3b      	ldr	r3, [r7, #32]
80001a74:	69fa      	ldr	r2, [r7, #28]
80001a76:	fb03 f202 	mul.w	r2, r3, r2
80001a7a:	6a7b      	ldr	r3, [r7, #36]	; 0x24
80001a7c:	69b8      	ldr	r0, [r7, #24]
80001a7e:	fb00 f303 	mul.w	r3, r0, r3
80001a82:	4413      	add	r3, r2
80001a84:	440b      	add	r3, r1
80001a86:	62fb      	str	r3, [r7, #44]	; 0x2c
80001a88:	e9d7 230a 	ldrd	r2, r3, [r7, #40]	; 0x28
80001a8c:	4610      	mov	r0, r2
80001a8e:	4619      	mov	r1, r3
80001a90:	3730      	adds	r7, #48	; 0x30
80001a92:	46bd      	mov	sp, r7
80001a94:	bc90      	pop	{r4, r7}
80001a96:	4770      	bx	lr

80001a98 <printf>:
80001a98:	b40f      	push	{r0, r1, r2, r3}
80001a9a:	b580      	push	{r7, lr}
80001a9c:	b084      	sub	sp, #16
80001a9e:	af00      	add	r7, sp, #0
80001aa0:	f107 031c 	add.w	r3, r7, #28
80001aa4:	60bb      	str	r3, [r7, #8]
80001aa6:	69bb      	ldr	r3, [r7, #24]
80001aa8:	68ba      	ldr	r2, [r7, #8]
80001aaa:	4619      	mov	r1, r3
80001aac:	4b12      	ldr	r3, [pc, #72]	; (80001af8 <printf+0x60>)
80001aae:	447b      	add	r3, pc
80001ab0:	4618      	mov	r0, r3
80001ab2:	f001 fcd4 	bl	8000345e <vsprintf>
80001ab6:	6078      	str	r0, [r7, #4]
80001ab8:	2300      	movs	r3, #0
80001aba:	60fb      	str	r3, [r7, #12]
80001abc:	e00a      	b.n	80001ad4 <printf+0x3c>
80001abe:	4a0f      	ldr	r2, [pc, #60]	; (80001afc <printf+0x64>)
80001ac0:	447a      	add	r2, pc
80001ac2:	68fb      	ldr	r3, [r7, #12]
80001ac4:	4413      	add	r3, r2
80001ac6:	781b      	ldrb	r3, [r3, #0]
80001ac8:	4618      	mov	r0, r3
80001aca:	f7ff fe91 	bl	800017f0 <putc>
80001ace:	68fb      	ldr	r3, [r7, #12]
80001ad0:	3301      	adds	r3, #1
80001ad2:	60fb      	str	r3, [r7, #12]
80001ad4:	4b0a      	ldr	r3, [pc, #40]	; (80001b00 <printf+0x68>)
80001ad6:	447b      	add	r3, pc
80001ad8:	4618      	mov	r0, r3
80001ada:	f000 f9c1 	bl	80001e60 <strlen>
80001ade:	4602      	mov	r2, r0
80001ae0:	68fb      	ldr	r3, [r7, #12]
80001ae2:	429a      	cmp	r2, r3
80001ae4:	d8eb      	bhi.n	80001abe <printf+0x26>
80001ae6:	687b      	ldr	r3, [r7, #4]
80001ae8:	4618      	mov	r0, r3
80001aea:	3710      	adds	r7, #16
80001aec:	46bd      	mov	sp, r7
80001aee:	e8bd 4080 	ldmia.w	sp!, {r7, lr}
80001af2:	b004      	add	sp, #16
80001af4:	4770      	bx	lr
80001af6:	bf00      	nop
80001af8:	00002b6a 	andeq	r2, r0, sl, ror #22
80001afc:	00002b58 	andeq	r2, r0, r8, asr fp
80001b00:	00002b42 	andeq	r2, r0, r2, asr #22

80001b04 <scanf>:
80001b04:	b40f      	push	{r0, r1, r2, r3}
80001b06:	b580      	push	{r7, lr}
80001b08:	b084      	sub	sp, #16
80001b0a:	af00      	add	r7, sp, #0
80001b0c:	2300      	movs	r3, #0
80001b0e:	60fb      	str	r3, [r7, #12]
80001b10:	f7ff fe9f 	bl	80001852 <getc>
80001b14:	4603      	mov	r3, r0
80001b16:	72fb      	strb	r3, [r7, #11]
80001b18:	7afb      	ldrb	r3, [r7, #11]
80001b1a:	4618      	mov	r0, r3
80001b1c:	f7ff fe68 	bl	800017f0 <putc>
80001b20:	7afb      	ldrb	r3, [r7, #11]
80001b22:	2b0d      	cmp	r3, #13
80001b24:	d002      	beq.n	80001b2c <scanf+0x28>
80001b26:	7afb      	ldrb	r3, [r7, #11]
80001b28:	2b0a      	cmp	r3, #10
80001b2a:	d106      	bne.n	80001b3a <scanf+0x36>
80001b2c:	4a11      	ldr	r2, [pc, #68]	; (80001b74 <scanf+0x70>)
80001b2e:	447a      	add	r2, pc
80001b30:	68fb      	ldr	r3, [r7, #12]
80001b32:	4413      	add	r3, r2
80001b34:	2200      	movs	r2, #0
80001b36:	701a      	strb	r2, [r3, #0]
80001b38:	e007      	b.n	80001b4a <scanf+0x46>
80001b3a:	68fb      	ldr	r3, [r7, #12]
80001b3c:	1c5a      	adds	r2, r3, #1
80001b3e:	60fa      	str	r2, [r7, #12]
80001b40:	4a0d      	ldr	r2, [pc, #52]	; (80001b78 <scanf+0x74>)
80001b42:	447a      	add	r2, pc
80001b44:	7af9      	ldrb	r1, [r7, #11]
80001b46:	54d1      	strb	r1, [r2, r3]
80001b48:	e7e2      	b.n	80001b10 <scanf+0xc>
80001b4a:	f107 031c 	add.w	r3, r7, #28
80001b4e:	607b      	str	r3, [r7, #4]
80001b50:	69bb      	ldr	r3, [r7, #24]
80001b52:	687a      	ldr	r2, [r7, #4]
80001b54:	4619      	mov	r1, r3
80001b56:	4b09      	ldr	r3, [pc, #36]	; (80001b7c <scanf+0x78>)
80001b58:	447b      	add	r3, pc
80001b5a:	4618      	mov	r0, r3
80001b5c:	f001 fca8 	bl	800034b0 <vsscanf>
80001b60:	60f8      	str	r0, [r7, #12]
80001b62:	68fb      	ldr	r3, [r7, #12]
80001b64:	4618      	mov	r0, r3
80001b66:	3710      	adds	r7, #16
80001b68:	46bd      	mov	sp, r7
80001b6a:	e8bd 4080 	ldmia.w	sp!, {r7, lr}
80001b6e:	b004      	add	sp, #16
80001b70:	4770      	bx	lr
80001b72:	bf00      	nop
80001b74:	00002eea 	andeq	r2, r0, sl, ror #29
80001b78:	00002ed6 	ldrdeq	r2, [r0], -r6
80001b7c:	00002ec0 	andeq	r2, r0, r0, asr #29

80001b80 <__tolower>:
80001b80:	b480      	push	{r7}
80001b82:	b083      	sub	sp, #12
80001b84:	af00      	add	r7, sp, #0
80001b86:	4603      	mov	r3, r0
80001b88:	71fb      	strb	r3, [r7, #7]
80001b8a:	490a      	ldr	r1, [pc, #40]	; (80001bb4 <__tolower+0x34>)
80001b8c:	4479      	add	r1, pc
80001b8e:	79fb      	ldrb	r3, [r7, #7]
80001b90:	4a09      	ldr	r2, [pc, #36]	; (80001bb8 <__tolower+0x38>)
80001b92:	588a      	ldr	r2, [r1, r2]
80001b94:	5cd3      	ldrb	r3, [r2, r3]
80001b96:	f003 0301 	and.w	r3, r3, #1
80001b9a:	2b00      	cmp	r3, #0
80001b9c:	d002      	beq.n	80001ba4 <__tolower+0x24>
80001b9e:	79fb      	ldrb	r3, [r7, #7]
80001ba0:	3320      	adds	r3, #32
80001ba2:	71fb      	strb	r3, [r7, #7]
80001ba4:	79fb      	ldrb	r3, [r7, #7]
80001ba6:	4618      	mov	r0, r3
80001ba8:	370c      	adds	r7, #12
80001baa:	46bd      	mov	sp, r7
80001bac:	f85d 7b04 	ldr.w	r7, [sp], #4
80001bb0:	4770      	bx	lr
80001bb2:	bf00      	nop
80001bb4:	00002578 	andeq	r2, r0, r8, ror r5
80001bb8:	00000000 	andeq	r0, r0, r0

80001bbc <strnicmp>:
80001bbc:	b580      	push	{r7, lr}
80001bbe:	b086      	sub	sp, #24
80001bc0:	af00      	add	r7, sp, #0
80001bc2:	60f8      	str	r0, [r7, #12]
80001bc4:	60b9      	str	r1, [r7, #8]
80001bc6:	607a      	str	r2, [r7, #4]
80001bc8:	2300      	movs	r3, #0
80001bca:	75fb      	strb	r3, [r7, #23]
80001bcc:	2300      	movs	r3, #0
80001bce:	75bb      	strb	r3, [r7, #22]
80001bd0:	687b      	ldr	r3, [r7, #4]
80001bd2:	2b00      	cmp	r3, #0
80001bd4:	d033      	beq.n	80001c3e <strnicmp+0x82>
80001bd6:	68fb      	ldr	r3, [r7, #12]
80001bd8:	781b      	ldrb	r3, [r3, #0]
80001bda:	75fb      	strb	r3, [r7, #23]
80001bdc:	68bb      	ldr	r3, [r7, #8]
80001bde:	781b      	ldrb	r3, [r3, #0]
80001be0:	75bb      	strb	r3, [r7, #22]
80001be2:	68fb      	ldr	r3, [r7, #12]
80001be4:	3301      	adds	r3, #1
80001be6:	60fb      	str	r3, [r7, #12]
80001be8:	68bb      	ldr	r3, [r7, #8]
80001bea:	3301      	adds	r3, #1
80001bec:	60bb      	str	r3, [r7, #8]
80001bee:	7dfb      	ldrb	r3, [r7, #23]
80001bf0:	2b00      	cmp	r3, #0
80001bf2:	d01f      	beq.n	80001c34 <strnicmp+0x78>
80001bf4:	7dbb      	ldrb	r3, [r7, #22]
80001bf6:	2b00      	cmp	r3, #0
80001bf8:	d01e      	beq.n	80001c38 <strnicmp+0x7c>
80001bfa:	7dfa      	ldrb	r2, [r7, #23]
80001bfc:	7dbb      	ldrb	r3, [r7, #22]
80001bfe:	429a      	cmp	r2, r3
80001c00:	d010      	beq.n	80001c24 <strnicmp+0x68>
80001c02:	7dfb      	ldrb	r3, [r7, #23]
80001c04:	4618      	mov	r0, r3
80001c06:	f7ff ffbb 	bl	80001b80 <__tolower>
80001c0a:	4603      	mov	r3, r0
80001c0c:	75fb      	strb	r3, [r7, #23]
80001c0e:	7dbb      	ldrb	r3, [r7, #22]
80001c10:	4618      	mov	r0, r3
80001c12:	f7ff ffb5 	bl	80001b80 <__tolower>
80001c16:	4603      	mov	r3, r0
80001c18:	75bb      	strb	r3, [r7, #22]
80001c1a:	7dfa      	ldrb	r2, [r7, #23]
80001c1c:	7dbb      	ldrb	r3, [r7, #22]
80001c1e:	429a      	cmp	r2, r3
80001c20:	d10c      	bne.n	80001c3c <strnicmp+0x80>
80001c22:	e000      	b.n	80001c26 <strnicmp+0x6a>
80001c24:	bf00      	nop
80001c26:	687b      	ldr	r3, [r7, #4]
80001c28:	3b01      	subs	r3, #1
80001c2a:	607b      	str	r3, [r7, #4]
80001c2c:	687b      	ldr	r3, [r7, #4]
80001c2e:	2b00      	cmp	r3, #0
80001c30:	d1d1      	bne.n	80001bd6 <strnicmp+0x1a>
80001c32:	e004      	b.n	80001c3e <strnicmp+0x82>
80001c34:	bf00      	nop
80001c36:	e002      	b.n	80001c3e <strnicmp+0x82>
80001c38:	bf00      	nop
80001c3a:	e000      	b.n	80001c3e <strnicmp+0x82>
80001c3c:	bf00      	nop
80001c3e:	7dfa      	ldrb	r2, [r7, #23]
80001c40:	7dbb      	ldrb	r3, [r7, #22]
80001c42:	1ad3      	subs	r3, r2, r3
80001c44:	4618      	mov	r0, r3
80001c46:	3718      	adds	r7, #24
80001c48:	46bd      	mov	sp, r7
80001c4a:	bd80      	pop	{r7, pc}

80001c4c <strcpy>:
80001c4c:	b480      	push	{r7}
80001c4e:	b085      	sub	sp, #20
80001c50:	af00      	add	r7, sp, #0
80001c52:	6078      	str	r0, [r7, #4]
80001c54:	6039      	str	r1, [r7, #0]
80001c56:	687b      	ldr	r3, [r7, #4]
80001c58:	60fb      	str	r3, [r7, #12]
80001c5a:	bf00      	nop
80001c5c:	683a      	ldr	r2, [r7, #0]
80001c5e:	1c53      	adds	r3, r2, #1
80001c60:	603b      	str	r3, [r7, #0]
80001c62:	687b      	ldr	r3, [r7, #4]
80001c64:	1c59      	adds	r1, r3, #1
80001c66:	6079      	str	r1, [r7, #4]
80001c68:	7812      	ldrb	r2, [r2, #0]
80001c6a:	701a      	strb	r2, [r3, #0]
80001c6c:	781b      	ldrb	r3, [r3, #0]
80001c6e:	2b00      	cmp	r3, #0
80001c70:	d1f4      	bne.n	80001c5c <strcpy+0x10>
80001c72:	68fb      	ldr	r3, [r7, #12]
80001c74:	4618      	mov	r0, r3
80001c76:	3714      	adds	r7, #20
80001c78:	46bd      	mov	sp, r7
80001c7a:	f85d 7b04 	ldr.w	r7, [sp], #4
80001c7e:	4770      	bx	lr

80001c80 <strncpy>:
80001c80:	b480      	push	{r7}
80001c82:	b087      	sub	sp, #28
80001c84:	af00      	add	r7, sp, #0
80001c86:	60f8      	str	r0, [r7, #12]
80001c88:	60b9      	str	r1, [r7, #8]
80001c8a:	607a      	str	r2, [r7, #4]
80001c8c:	68fb      	ldr	r3, [r7, #12]
80001c8e:	617b      	str	r3, [r7, #20]
80001c90:	bf00      	nop
80001c92:	687b      	ldr	r3, [r7, #4]
80001c94:	1e5a      	subs	r2, r3, #1
80001c96:	607a      	str	r2, [r7, #4]
80001c98:	2b00      	cmp	r3, #0
80001c9a:	d00a      	beq.n	80001cb2 <strncpy+0x32>
80001c9c:	68ba      	ldr	r2, [r7, #8]
80001c9e:	1c53      	adds	r3, r2, #1
80001ca0:	60bb      	str	r3, [r7, #8]
80001ca2:	68fb      	ldr	r3, [r7, #12]
80001ca4:	1c59      	adds	r1, r3, #1
80001ca6:	60f9      	str	r1, [r7, #12]
80001ca8:	7812      	ldrb	r2, [r2, #0]
80001caa:	701a      	strb	r2, [r3, #0]
80001cac:	781b      	ldrb	r3, [r3, #0]
80001cae:	2b00      	cmp	r3, #0
80001cb0:	d1ef      	bne.n	80001c92 <strncpy+0x12>
80001cb2:	697b      	ldr	r3, [r7, #20]
80001cb4:	4618      	mov	r0, r3
80001cb6:	371c      	adds	r7, #28
80001cb8:	46bd      	mov	sp, r7
80001cba:	f85d 7b04 	ldr.w	r7, [sp], #4
80001cbe:	4770      	bx	lr

80001cc0 <strcat>:
80001cc0:	b480      	push	{r7}
80001cc2:	b085      	sub	sp, #20
80001cc4:	af00      	add	r7, sp, #0
80001cc6:	6078      	str	r0, [r7, #4]
80001cc8:	6039      	str	r1, [r7, #0]
80001cca:	687b      	ldr	r3, [r7, #4]
80001ccc:	60fb      	str	r3, [r7, #12]
80001cce:	e002      	b.n	80001cd6 <strcat+0x16>
80001cd0:	687b      	ldr	r3, [r7, #4]
80001cd2:	3301      	adds	r3, #1
80001cd4:	607b      	str	r3, [r7, #4]
80001cd6:	687b      	ldr	r3, [r7, #4]
80001cd8:	781b      	ldrb	r3, [r3, #0]
80001cda:	2b00      	cmp	r3, #0
80001cdc:	d1f8      	bne.n	80001cd0 <strcat+0x10>
80001cde:	bf00      	nop
80001ce0:	683a      	ldr	r2, [r7, #0]
80001ce2:	1c53      	adds	r3, r2, #1
80001ce4:	603b      	str	r3, [r7, #0]
80001ce6:	687b      	ldr	r3, [r7, #4]
80001ce8:	1c59      	adds	r1, r3, #1
80001cea:	6079      	str	r1, [r7, #4]
80001cec:	7812      	ldrb	r2, [r2, #0]
80001cee:	701a      	strb	r2, [r3, #0]
80001cf0:	781b      	ldrb	r3, [r3, #0]
80001cf2:	2b00      	cmp	r3, #0
80001cf4:	d1f4      	bne.n	80001ce0 <strcat+0x20>
80001cf6:	68fb      	ldr	r3, [r7, #12]
80001cf8:	4618      	mov	r0, r3
80001cfa:	3714      	adds	r7, #20
80001cfc:	46bd      	mov	sp, r7
80001cfe:	f85d 7b04 	ldr.w	r7, [sp], #4
80001d02:	4770      	bx	lr

80001d04 <strncat>:
80001d04:	b480      	push	{r7}
80001d06:	b087      	sub	sp, #28
80001d08:	af00      	add	r7, sp, #0
80001d0a:	60f8      	str	r0, [r7, #12]
80001d0c:	60b9      	str	r1, [r7, #8]
80001d0e:	607a      	str	r2, [r7, #4]
80001d10:	68fb      	ldr	r3, [r7, #12]
80001d12:	617b      	str	r3, [r7, #20]
80001d14:	687b      	ldr	r3, [r7, #4]
80001d16:	2b00      	cmp	r3, #0
80001d18:	d01d      	beq.n	80001d56 <strncat+0x52>
80001d1a:	e002      	b.n	80001d22 <strncat+0x1e>
80001d1c:	68fb      	ldr	r3, [r7, #12]
80001d1e:	3301      	adds	r3, #1
80001d20:	60fb      	str	r3, [r7, #12]
80001d22:	68fb      	ldr	r3, [r7, #12]
80001d24:	781b      	ldrb	r3, [r3, #0]
80001d26:	2b00      	cmp	r3, #0
80001d28:	d1f8      	bne.n	80001d1c <strncat+0x18>
80001d2a:	e009      	b.n	80001d40 <strncat+0x3c>
80001d2c:	687b      	ldr	r3, [r7, #4]
80001d2e:	3b01      	subs	r3, #1
80001d30:	607b      	str	r3, [r7, #4]
80001d32:	687b      	ldr	r3, [r7, #4]
80001d34:	2b00      	cmp	r3, #0
80001d36:	d103      	bne.n	80001d40 <strncat+0x3c>
80001d38:	68fb      	ldr	r3, [r7, #12]
80001d3a:	2200      	movs	r2, #0
80001d3c:	701a      	strb	r2, [r3, #0]
80001d3e:	e00a      	b.n	80001d56 <strncat+0x52>
80001d40:	68ba      	ldr	r2, [r7, #8]
80001d42:	1c53      	adds	r3, r2, #1
80001d44:	60bb      	str	r3, [r7, #8]
80001d46:	68fb      	ldr	r3, [r7, #12]
80001d48:	1c59      	adds	r1, r3, #1
80001d4a:	60f9      	str	r1, [r7, #12]
80001d4c:	7812      	ldrb	r2, [r2, #0]
80001d4e:	701a      	strb	r2, [r3, #0]
80001d50:	781b      	ldrb	r3, [r3, #0]
80001d52:	2b00      	cmp	r3, #0
80001d54:	d1ea      	bne.n	80001d2c <strncat+0x28>
80001d56:	697b      	ldr	r3, [r7, #20]
80001d58:	4618      	mov	r0, r3
80001d5a:	371c      	adds	r7, #28
80001d5c:	46bd      	mov	sp, r7
80001d5e:	f85d 7b04 	ldr.w	r7, [sp], #4
80001d62:	4770      	bx	lr

80001d64 <strcmp>:
80001d64:	b490      	push	{r4, r7}
80001d66:	b082      	sub	sp, #8
80001d68:	af00      	add	r7, sp, #0
80001d6a:	6078      	str	r0, [r7, #4]
80001d6c:	6039      	str	r1, [r7, #0]
80001d6e:	687b      	ldr	r3, [r7, #4]
80001d70:	781a      	ldrb	r2, [r3, #0]
80001d72:	683b      	ldr	r3, [r7, #0]
80001d74:	1c59      	adds	r1, r3, #1
80001d76:	6039      	str	r1, [r7, #0]
80001d78:	781b      	ldrb	r3, [r3, #0]
80001d7a:	1ad3      	subs	r3, r2, r3
80001d7c:	b2db      	uxtb	r3, r3
80001d7e:	b25c      	sxtb	r4, r3
80001d80:	2c00      	cmp	r4, #0
80001d82:	d106      	bne.n	80001d92 <strcmp+0x2e>
80001d84:	687b      	ldr	r3, [r7, #4]
80001d86:	1c5a      	adds	r2, r3, #1
80001d88:	607a      	str	r2, [r7, #4]
80001d8a:	781b      	ldrb	r3, [r3, #0]
80001d8c:	2b00      	cmp	r3, #0
80001d8e:	d000      	beq.n	80001d92 <strcmp+0x2e>
80001d90:	e7ed      	b.n	80001d6e <strcmp+0xa>
80001d92:	4623      	mov	r3, r4
80001d94:	4618      	mov	r0, r3
80001d96:	3708      	adds	r7, #8
80001d98:	46bd      	mov	sp, r7
80001d9a:	bc90      	pop	{r4, r7}
80001d9c:	4770      	bx	lr

80001d9e <strncmp>:
80001d9e:	b490      	push	{r4, r7}
80001da0:	b084      	sub	sp, #16
80001da2:	af00      	add	r7, sp, #0
80001da4:	60f8      	str	r0, [r7, #12]
80001da6:	60b9      	str	r1, [r7, #8]
80001da8:	607a      	str	r2, [r7, #4]
80001daa:	2400      	movs	r4, #0
80001dac:	e013      	b.n	80001dd6 <strncmp+0x38>
80001dae:	68fb      	ldr	r3, [r7, #12]
80001db0:	781a      	ldrb	r2, [r3, #0]
80001db2:	68bb      	ldr	r3, [r7, #8]
80001db4:	1c59      	adds	r1, r3, #1
80001db6:	60b9      	str	r1, [r7, #8]
80001db8:	781b      	ldrb	r3, [r3, #0]
80001dba:	1ad3      	subs	r3, r2, r3
80001dbc:	b2db      	uxtb	r3, r3
80001dbe:	b25c      	sxtb	r4, r3
80001dc0:	2c00      	cmp	r4, #0
80001dc2:	d10b      	bne.n	80001ddc <strncmp+0x3e>
80001dc4:	68fb      	ldr	r3, [r7, #12]
80001dc6:	1c5a      	adds	r2, r3, #1
80001dc8:	60fa      	str	r2, [r7, #12]
80001dca:	781b      	ldrb	r3, [r3, #0]
80001dcc:	2b00      	cmp	r3, #0
80001dce:	d005      	beq.n	80001ddc <strncmp+0x3e>
80001dd0:	687b      	ldr	r3, [r7, #4]
80001dd2:	3b01      	subs	r3, #1
80001dd4:	607b      	str	r3, [r7, #4]
80001dd6:	687b      	ldr	r3, [r7, #4]
80001dd8:	2b00      	cmp	r3, #0
80001dda:	d1e8      	bne.n	80001dae <strncmp+0x10>
80001ddc:	4623      	mov	r3, r4
80001dde:	4618      	mov	r0, r3
80001de0:	3710      	adds	r7, #16
80001de2:	46bd      	mov	sp, r7
80001de4:	bc90      	pop	{r4, r7}
80001de6:	4770      	bx	lr

80001de8 <strchr>:
80001de8:	b480      	push	{r7}
80001dea:	b083      	sub	sp, #12
80001dec:	af00      	add	r7, sp, #0
80001dee:	6078      	str	r0, [r7, #4]
80001df0:	6039      	str	r1, [r7, #0]
80001df2:	e008      	b.n	80001e06 <strchr+0x1e>
80001df4:	687b      	ldr	r3, [r7, #4]
80001df6:	781b      	ldrb	r3, [r3, #0]
80001df8:	2b00      	cmp	r3, #0
80001dfa:	d101      	bne.n	80001e00 <strchr+0x18>
80001dfc:	2300      	movs	r3, #0
80001dfe:	e009      	b.n	80001e14 <strchr+0x2c>
80001e00:	687b      	ldr	r3, [r7, #4]
80001e02:	3301      	adds	r3, #1
80001e04:	607b      	str	r3, [r7, #4]
80001e06:	687b      	ldr	r3, [r7, #4]
80001e08:	781a      	ldrb	r2, [r3, #0]
80001e0a:	683b      	ldr	r3, [r7, #0]
80001e0c:	b2db      	uxtb	r3, r3
80001e0e:	429a      	cmp	r2, r3
80001e10:	d1f0      	bne.n	80001df4 <strchr+0xc>
80001e12:	687b      	ldr	r3, [r7, #4]
80001e14:	4618      	mov	r0, r3
80001e16:	370c      	adds	r7, #12
80001e18:	46bd      	mov	sp, r7
80001e1a:	f85d 7b04 	ldr.w	r7, [sp], #4
80001e1e:	4770      	bx	lr

80001e20 <strrchr>:
80001e20:	b580      	push	{r7, lr}
80001e22:	b084      	sub	sp, #16
80001e24:	af00      	add	r7, sp, #0
80001e26:	6078      	str	r0, [r7, #4]
80001e28:	6039      	str	r1, [r7, #0]
80001e2a:	6878      	ldr	r0, [r7, #4]
80001e2c:	f000 f818 	bl	80001e60 <strlen>
80001e30:	4602      	mov	r2, r0
80001e32:	687b      	ldr	r3, [r7, #4]
80001e34:	4413      	add	r3, r2
80001e36:	60fb      	str	r3, [r7, #12]
80001e38:	68fb      	ldr	r3, [r7, #12]
80001e3a:	781a      	ldrb	r2, [r3, #0]
80001e3c:	683b      	ldr	r3, [r7, #0]
80001e3e:	b2db      	uxtb	r3, r3
80001e40:	429a      	cmp	r2, r3
80001e42:	d101      	bne.n	80001e48 <strrchr+0x28>
80001e44:	68fb      	ldr	r3, [r7, #12]
80001e46:	e007      	b.n	80001e58 <strrchr+0x38>
80001e48:	68fb      	ldr	r3, [r7, #12]
80001e4a:	3b01      	subs	r3, #1
80001e4c:	60fb      	str	r3, [r7, #12]
80001e4e:	68fa      	ldr	r2, [r7, #12]
80001e50:	687b      	ldr	r3, [r7, #4]
80001e52:	429a      	cmp	r2, r3
80001e54:	d2f0      	bcs.n	80001e38 <strrchr+0x18>
80001e56:	2300      	movs	r3, #0
80001e58:	4618      	mov	r0, r3
80001e5a:	3710      	adds	r7, #16
80001e5c:	46bd      	mov	sp, r7
80001e5e:	bd80      	pop	{r7, pc}

80001e60 <strlen>:
80001e60:	b480      	push	{r7}
80001e62:	b085      	sub	sp, #20
80001e64:	af00      	add	r7, sp, #0
80001e66:	6078      	str	r0, [r7, #4]
80001e68:	687b      	ldr	r3, [r7, #4]
80001e6a:	60fb      	str	r3, [r7, #12]
80001e6c:	e002      	b.n	80001e74 <strlen+0x14>
80001e6e:	68fb      	ldr	r3, [r7, #12]
80001e70:	3301      	adds	r3, #1
80001e72:	60fb      	str	r3, [r7, #12]
80001e74:	68fb      	ldr	r3, [r7, #12]
80001e76:	781b      	ldrb	r3, [r3, #0]
80001e78:	2b00      	cmp	r3, #0
80001e7a:	d1f8      	bne.n	80001e6e <strlen+0xe>
80001e7c:	68fa      	ldr	r2, [r7, #12]
80001e7e:	687b      	ldr	r3, [r7, #4]
80001e80:	1ad3      	subs	r3, r2, r3
80001e82:	4618      	mov	r0, r3
80001e84:	3714      	adds	r7, #20
80001e86:	46bd      	mov	sp, r7
80001e88:	f85d 7b04 	ldr.w	r7, [sp], #4
80001e8c:	4770      	bx	lr

80001e8e <strnlen>:
80001e8e:	b480      	push	{r7}
80001e90:	b085      	sub	sp, #20
80001e92:	af00      	add	r7, sp, #0
80001e94:	6078      	str	r0, [r7, #4]
80001e96:	6039      	str	r1, [r7, #0]
80001e98:	687b      	ldr	r3, [r7, #4]
80001e9a:	60fb      	str	r3, [r7, #12]
80001e9c:	e002      	b.n	80001ea4 <strnlen+0x16>
80001e9e:	68fb      	ldr	r3, [r7, #12]
80001ea0:	3301      	adds	r3, #1
80001ea2:	60fb      	str	r3, [r7, #12]
80001ea4:	683b      	ldr	r3, [r7, #0]
80001ea6:	1e5a      	subs	r2, r3, #1
80001ea8:	603a      	str	r2, [r7, #0]
80001eaa:	2b00      	cmp	r3, #0
80001eac:	d003      	beq.n	80001eb6 <strnlen+0x28>
80001eae:	68fb      	ldr	r3, [r7, #12]
80001eb0:	781b      	ldrb	r3, [r3, #0]
80001eb2:	2b00      	cmp	r3, #0
80001eb4:	d1f3      	bne.n	80001e9e <strnlen+0x10>
80001eb6:	68fa      	ldr	r2, [r7, #12]
80001eb8:	687b      	ldr	r3, [r7, #4]
80001eba:	1ad3      	subs	r3, r2, r3
80001ebc:	4618      	mov	r0, r3
80001ebe:	3714      	adds	r7, #20
80001ec0:	46bd      	mov	sp, r7
80001ec2:	f85d 7b04 	ldr.w	r7, [sp], #4
80001ec6:	4770      	bx	lr

80001ec8 <strspn>:
80001ec8:	b480      	push	{r7}
80001eca:	b087      	sub	sp, #28
80001ecc:	af00      	add	r7, sp, #0
80001ece:	6078      	str	r0, [r7, #4]
80001ed0:	6039      	str	r1, [r7, #0]
80001ed2:	2300      	movs	r3, #0
80001ed4:	60fb      	str	r3, [r7, #12]
80001ed6:	687b      	ldr	r3, [r7, #4]
80001ed8:	617b      	str	r3, [r7, #20]
80001eda:	e01d      	b.n	80001f18 <strspn+0x50>
80001edc:	683b      	ldr	r3, [r7, #0]
80001ede:	613b      	str	r3, [r7, #16]
80001ee0:	e008      	b.n	80001ef4 <strspn+0x2c>
80001ee2:	697b      	ldr	r3, [r7, #20]
80001ee4:	781a      	ldrb	r2, [r3, #0]
80001ee6:	693b      	ldr	r3, [r7, #16]
80001ee8:	781b      	ldrb	r3, [r3, #0]
80001eea:	429a      	cmp	r2, r3
80001eec:	d007      	beq.n	80001efe <strspn+0x36>
80001eee:	693b      	ldr	r3, [r7, #16]
80001ef0:	3301      	adds	r3, #1
80001ef2:	613b      	str	r3, [r7, #16]
80001ef4:	693b      	ldr	r3, [r7, #16]
80001ef6:	781b      	ldrb	r3, [r3, #0]
80001ef8:	2b00      	cmp	r3, #0
80001efa:	d1f2      	bne.n	80001ee2 <strspn+0x1a>
80001efc:	e000      	b.n	80001f00 <strspn+0x38>
80001efe:	bf00      	nop
80001f00:	693b      	ldr	r3, [r7, #16]
80001f02:	781b      	ldrb	r3, [r3, #0]
80001f04:	2b00      	cmp	r3, #0
80001f06:	d101      	bne.n	80001f0c <strspn+0x44>
80001f08:	68fb      	ldr	r3, [r7, #12]
80001f0a:	e00a      	b.n	80001f22 <strspn+0x5a>
80001f0c:	68fb      	ldr	r3, [r7, #12]
80001f0e:	3301      	adds	r3, #1
80001f10:	60fb      	str	r3, [r7, #12]
80001f12:	697b      	ldr	r3, [r7, #20]
80001f14:	3301      	adds	r3, #1
80001f16:	617b      	str	r3, [r7, #20]
80001f18:	697b      	ldr	r3, [r7, #20]
80001f1a:	781b      	ldrb	r3, [r3, #0]
80001f1c:	2b00      	cmp	r3, #0
80001f1e:	d1dd      	bne.n	80001edc <strspn+0x14>
80001f20:	68fb      	ldr	r3, [r7, #12]
80001f22:	4618      	mov	r0, r3
80001f24:	371c      	adds	r7, #28
80001f26:	46bd      	mov	sp, r7
80001f28:	f85d 7b04 	ldr.w	r7, [sp], #4
80001f2c:	4770      	bx	lr

80001f2e <strpbrk>:
80001f2e:	b480      	push	{r7}
80001f30:	b085      	sub	sp, #20
80001f32:	af00      	add	r7, sp, #0
80001f34:	6078      	str	r0, [r7, #4]
80001f36:	6039      	str	r1, [r7, #0]
80001f38:	687b      	ldr	r3, [r7, #4]
80001f3a:	60fb      	str	r3, [r7, #12]
80001f3c:	e014      	b.n	80001f68 <strpbrk+0x3a>
80001f3e:	683b      	ldr	r3, [r7, #0]
80001f40:	60bb      	str	r3, [r7, #8]
80001f42:	e00a      	b.n	80001f5a <strpbrk+0x2c>
80001f44:	68fb      	ldr	r3, [r7, #12]
80001f46:	781a      	ldrb	r2, [r3, #0]
80001f48:	68bb      	ldr	r3, [r7, #8]
80001f4a:	781b      	ldrb	r3, [r3, #0]
80001f4c:	429a      	cmp	r2, r3
80001f4e:	d101      	bne.n	80001f54 <strpbrk+0x26>
80001f50:	68fb      	ldr	r3, [r7, #12]
80001f52:	e00e      	b.n	80001f72 <strpbrk+0x44>
80001f54:	68bb      	ldr	r3, [r7, #8]
80001f56:	3301      	adds	r3, #1
80001f58:	60bb      	str	r3, [r7, #8]
80001f5a:	68bb      	ldr	r3, [r7, #8]
80001f5c:	781b      	ldrb	r3, [r3, #0]
80001f5e:	2b00      	cmp	r3, #0
80001f60:	d1f0      	bne.n	80001f44 <strpbrk+0x16>
80001f62:	68fb      	ldr	r3, [r7, #12]
80001f64:	3301      	adds	r3, #1
80001f66:	60fb      	str	r3, [r7, #12]
80001f68:	68fb      	ldr	r3, [r7, #12]
80001f6a:	781b      	ldrb	r3, [r3, #0]
80001f6c:	2b00      	cmp	r3, #0
80001f6e:	d1e6      	bne.n	80001f3e <strpbrk+0x10>
80001f70:	2300      	movs	r3, #0
80001f72:	4618      	mov	r0, r3
80001f74:	3714      	adds	r7, #20
80001f76:	46bd      	mov	sp, r7
80001f78:	f85d 7b04 	ldr.w	r7, [sp], #4
80001f7c:	4770      	bx	lr

80001f7e <strtok>:
80001f7e:	b580      	push	{r7, lr}
80001f80:	b084      	sub	sp, #16
80001f82:	af00      	add	r7, sp, #0
80001f84:	6078      	str	r0, [r7, #4]
80001f86:	6039      	str	r1, [r7, #0]
80001f88:	687b      	ldr	r3, [r7, #4]
80001f8a:	2b00      	cmp	r3, #0
80001f8c:	d001      	beq.n	80001f92 <strtok+0x14>
80001f8e:	687b      	ldr	r3, [r7, #4]
80001f90:	e002      	b.n	80001f98 <strtok+0x1a>
80001f92:	4b1a      	ldr	r3, [pc, #104]	; (80001ffc <strtok+0x7e>)
80001f94:	447b      	add	r3, pc
80001f96:	681b      	ldr	r3, [r3, #0]
80001f98:	60bb      	str	r3, [r7, #8]
80001f9a:	68bb      	ldr	r3, [r7, #8]
80001f9c:	2b00      	cmp	r3, #0
80001f9e:	d101      	bne.n	80001fa4 <strtok+0x26>
80001fa0:	2300      	movs	r3, #0
80001fa2:	e027      	b.n	80001ff4 <strtok+0x76>
80001fa4:	6839      	ldr	r1, [r7, #0]
80001fa6:	68b8      	ldr	r0, [r7, #8]
80001fa8:	f7ff ff8e 	bl	80001ec8 <strspn>
80001fac:	4602      	mov	r2, r0
80001fae:	68bb      	ldr	r3, [r7, #8]
80001fb0:	4413      	add	r3, r2
80001fb2:	60bb      	str	r3, [r7, #8]
80001fb4:	68bb      	ldr	r3, [r7, #8]
80001fb6:	781b      	ldrb	r3, [r3, #0]
80001fb8:	2b00      	cmp	r3, #0
80001fba:	d105      	bne.n	80001fc8 <strtok+0x4a>
80001fbc:	4b10      	ldr	r3, [pc, #64]	; (80002000 <strtok+0x82>)
80001fbe:	447b      	add	r3, pc
80001fc0:	2200      	movs	r2, #0
80001fc2:	601a      	str	r2, [r3, #0]
80001fc4:	2300      	movs	r3, #0
80001fc6:	e015      	b.n	80001ff4 <strtok+0x76>
80001fc8:	6839      	ldr	r1, [r7, #0]
80001fca:	68b8      	ldr	r0, [r7, #8]
80001fcc:	f7ff ffaf 	bl	80001f2e <strpbrk>
80001fd0:	60f8      	str	r0, [r7, #12]
80001fd2:	68fb      	ldr	r3, [r7, #12]
80001fd4:	2b00      	cmp	r3, #0
80001fd6:	d008      	beq.n	80001fea <strtok+0x6c>
80001fd8:	68fb      	ldr	r3, [r7, #12]
80001fda:	781b      	ldrb	r3, [r3, #0]
80001fdc:	2b00      	cmp	r3, #0
80001fde:	d004      	beq.n	80001fea <strtok+0x6c>
80001fe0:	68fb      	ldr	r3, [r7, #12]
80001fe2:	1c5a      	adds	r2, r3, #1
80001fe4:	60fa      	str	r2, [r7, #12]
80001fe6:	2200      	movs	r2, #0
80001fe8:	701a      	strb	r2, [r3, #0]
80001fea:	4b06      	ldr	r3, [pc, #24]	; (80002004 <strtok+0x86>)
80001fec:	447b      	add	r3, pc
80001fee:	68fa      	ldr	r2, [r7, #12]
80001ff0:	601a      	str	r2, [r3, #0]
80001ff2:	68bb      	ldr	r3, [r7, #8]
80001ff4:	4618      	mov	r0, r3
80001ff6:	3710      	adds	r7, #16
80001ff8:	46bd      	mov	sp, r7
80001ffa:	bd80      	pop	{r7, pc}
80001ffc:	00002e84 	andeq	r2, r0, r4, lsl #29
80002000:	00002e5a 	andeq	r2, r0, sl, asr lr
80002004:	00002e2c 	andeq	r2, r0, ip, lsr #28

80002008 <strsep>:
80002008:	b580      	push	{r7, lr}
8000200a:	b084      	sub	sp, #16
8000200c:	af00      	add	r7, sp, #0
8000200e:	6078      	str	r0, [r7, #4]
80002010:	6039      	str	r1, [r7, #0]
80002012:	687b      	ldr	r3, [r7, #4]
80002014:	681b      	ldr	r3, [r3, #0]
80002016:	60bb      	str	r3, [r7, #8]
80002018:	68bb      	ldr	r3, [r7, #8]
8000201a:	2b00      	cmp	r3, #0
8000201c:	d101      	bne.n	80002022 <strsep+0x1a>
8000201e:	2300      	movs	r3, #0
80002020:	e010      	b.n	80002044 <strsep+0x3c>
80002022:	6839      	ldr	r1, [r7, #0]
80002024:	68b8      	ldr	r0, [r7, #8]
80002026:	f7ff ff82 	bl	80001f2e <strpbrk>
8000202a:	60f8      	str	r0, [r7, #12]
8000202c:	68fb      	ldr	r3, [r7, #12]
8000202e:	2b00      	cmp	r3, #0
80002030:	d004      	beq.n	8000203c <strsep+0x34>
80002032:	68fb      	ldr	r3, [r7, #12]
80002034:	1c5a      	adds	r2, r3, #1
80002036:	60fa      	str	r2, [r7, #12]
80002038:	2200      	movs	r2, #0
8000203a:	701a      	strb	r2, [r3, #0]
8000203c:	687b      	ldr	r3, [r7, #4]
8000203e:	68fa      	ldr	r2, [r7, #12]
80002040:	601a      	str	r2, [r3, #0]
80002042:	68bb      	ldr	r3, [r7, #8]
80002044:	4618      	mov	r0, r3
80002046:	3710      	adds	r7, #16
80002048:	46bd      	mov	sp, r7
8000204a:	bd80      	pop	{r7, pc}

8000204c <memset>:
8000204c:	b480      	push	{r7}
8000204e:	b087      	sub	sp, #28
80002050:	af00      	add	r7, sp, #0
80002052:	60f8      	str	r0, [r7, #12]
80002054:	60b9      	str	r1, [r7, #8]
80002056:	607a      	str	r2, [r7, #4]
80002058:	68fb      	ldr	r3, [r7, #12]
8000205a:	617b      	str	r3, [r7, #20]
8000205c:	e005      	b.n	8000206a <memset+0x1e>
8000205e:	697b      	ldr	r3, [r7, #20]
80002060:	1c5a      	adds	r2, r3, #1
80002062:	617a      	str	r2, [r7, #20]
80002064:	68ba      	ldr	r2, [r7, #8]
80002066:	b2d2      	uxtb	r2, r2
80002068:	701a      	strb	r2, [r3, #0]
8000206a:	687b      	ldr	r3, [r7, #4]
8000206c:	1e5a      	subs	r2, r3, #1
8000206e:	607a      	str	r2, [r7, #4]
80002070:	2b00      	cmp	r3, #0
80002072:	d1f4      	bne.n	8000205e <memset+0x12>
80002074:	68fb      	ldr	r3, [r7, #12]
80002076:	4618      	mov	r0, r3
80002078:	371c      	adds	r7, #28
8000207a:	46bd      	mov	sp, r7
8000207c:	f85d 7b04 	ldr.w	r7, [sp], #4
80002080:	4770      	bx	lr

80002082 <bcopy>:
80002082:	b480      	push	{r7}
80002084:	b087      	sub	sp, #28
80002086:	af00      	add	r7, sp, #0
80002088:	60f8      	str	r0, [r7, #12]
8000208a:	60b9      	str	r1, [r7, #8]
8000208c:	607a      	str	r2, [r7, #4]
8000208e:	68bb      	ldr	r3, [r7, #8]
80002090:	617b      	str	r3, [r7, #20]
80002092:	68fb      	ldr	r3, [r7, #12]
80002094:	613b      	str	r3, [r7, #16]
80002096:	e007      	b.n	800020a8 <bcopy+0x26>
80002098:	693a      	ldr	r2, [r7, #16]
8000209a:	1c53      	adds	r3, r2, #1
8000209c:	613b      	str	r3, [r7, #16]
8000209e:	697b      	ldr	r3, [r7, #20]
800020a0:	1c59      	adds	r1, r3, #1
800020a2:	6179      	str	r1, [r7, #20]
800020a4:	7812      	ldrb	r2, [r2, #0]
800020a6:	701a      	strb	r2, [r3, #0]
800020a8:	687b      	ldr	r3, [r7, #4]
800020aa:	1e5a      	subs	r2, r3, #1
800020ac:	607a      	str	r2, [r7, #4]
800020ae:	2b00      	cmp	r3, #0
800020b0:	d1f2      	bne.n	80002098 <bcopy+0x16>
800020b2:	bf00      	nop
800020b4:	bf00      	nop
800020b6:	371c      	adds	r7, #28
800020b8:	46bd      	mov	sp, r7
800020ba:	f85d 7b04 	ldr.w	r7, [sp], #4
800020be:	4770      	bx	lr

800020c0 <memcpy>:
800020c0:	b480      	push	{r7}
800020c2:	b087      	sub	sp, #28
800020c4:	af00      	add	r7, sp, #0
800020c6:	60f8      	str	r0, [r7, #12]
800020c8:	60b9      	str	r1, [r7, #8]
800020ca:	607a      	str	r2, [r7, #4]
800020cc:	68fb      	ldr	r3, [r7, #12]
800020ce:	617b      	str	r3, [r7, #20]
800020d0:	68bb      	ldr	r3, [r7, #8]
800020d2:	613b      	str	r3, [r7, #16]
800020d4:	e007      	b.n	800020e6 <memcpy+0x26>
800020d6:	693a      	ldr	r2, [r7, #16]
800020d8:	1c53      	adds	r3, r2, #1
800020da:	613b      	str	r3, [r7, #16]
800020dc:	697b      	ldr	r3, [r7, #20]
800020de:	1c59      	adds	r1, r3, #1
800020e0:	6179      	str	r1, [r7, #20]
800020e2:	7812      	ldrb	r2, [r2, #0]
800020e4:	701a      	strb	r2, [r3, #0]
800020e6:	687b      	ldr	r3, [r7, #4]
800020e8:	1e5a      	subs	r2, r3, #1
800020ea:	607a      	str	r2, [r7, #4]
800020ec:	2b00      	cmp	r3, #0
800020ee:	d1f2      	bne.n	800020d6 <memcpy+0x16>
800020f0:	68fb      	ldr	r3, [r7, #12]
800020f2:	4618      	mov	r0, r3
800020f4:	371c      	adds	r7, #28
800020f6:	46bd      	mov	sp, r7
800020f8:	f85d 7b04 	ldr.w	r7, [sp], #4
800020fc:	4770      	bx	lr

800020fe <memmove>:
800020fe:	b480      	push	{r7}
80002100:	b087      	sub	sp, #28
80002102:	af00      	add	r7, sp, #0
80002104:	60f8      	str	r0, [r7, #12]
80002106:	60b9      	str	r1, [r7, #8]
80002108:	607a      	str	r2, [r7, #4]
8000210a:	68fa      	ldr	r2, [r7, #12]
8000210c:	68bb      	ldr	r3, [r7, #8]
8000210e:	429a      	cmp	r2, r3
80002110:	d812      	bhi.n	80002138 <memmove+0x3a>
80002112:	68fb      	ldr	r3, [r7, #12]
80002114:	617b      	str	r3, [r7, #20]
80002116:	68bb      	ldr	r3, [r7, #8]
80002118:	613b      	str	r3, [r7, #16]
8000211a:	e007      	b.n	8000212c <memmove+0x2e>
8000211c:	693a      	ldr	r2, [r7, #16]
8000211e:	1c53      	adds	r3, r2, #1
80002120:	613b      	str	r3, [r7, #16]
80002122:	697b      	ldr	r3, [r7, #20]
80002124:	1c59      	adds	r1, r3, #1
80002126:	6179      	str	r1, [r7, #20]
80002128:	7812      	ldrb	r2, [r2, #0]
8000212a:	701a      	strb	r2, [r3, #0]
8000212c:	687b      	ldr	r3, [r7, #4]
8000212e:	1e5a      	subs	r2, r3, #1
80002130:	607a      	str	r2, [r7, #4]
80002132:	2b00      	cmp	r3, #0
80002134:	d1f2      	bne.n	8000211c <memmove+0x1e>
80002136:	e017      	b.n	80002168 <memmove+0x6a>
80002138:	68fa      	ldr	r2, [r7, #12]
8000213a:	687b      	ldr	r3, [r7, #4]
8000213c:	4413      	add	r3, r2
8000213e:	617b      	str	r3, [r7, #20]
80002140:	68ba      	ldr	r2, [r7, #8]
80002142:	687b      	ldr	r3, [r7, #4]
80002144:	4413      	add	r3, r2
80002146:	613b      	str	r3, [r7, #16]
80002148:	e009      	b.n	8000215e <memmove+0x60>
8000214a:	693b      	ldr	r3, [r7, #16]
8000214c:	3b01      	subs	r3, #1
8000214e:	613b      	str	r3, [r7, #16]
80002150:	697b      	ldr	r3, [r7, #20]
80002152:	3b01      	subs	r3, #1
80002154:	617b      	str	r3, [r7, #20]
80002156:	693b      	ldr	r3, [r7, #16]
80002158:	781a      	ldrb	r2, [r3, #0]
8000215a:	697b      	ldr	r3, [r7, #20]
8000215c:	701a      	strb	r2, [r3, #0]
8000215e:	687b      	ldr	r3, [r7, #4]
80002160:	1e5a      	subs	r2, r3, #1
80002162:	607a      	str	r2, [r7, #4]
80002164:	2b00      	cmp	r3, #0
80002166:	d1f0      	bne.n	8000214a <memmove+0x4c>
80002168:	68fb      	ldr	r3, [r7, #12]
8000216a:	4618      	mov	r0, r3
8000216c:	371c      	adds	r7, #28
8000216e:	46bd      	mov	sp, r7
80002170:	f85d 7b04 	ldr.w	r7, [sp], #4
80002174:	4770      	bx	lr

80002176 <memcmp>:
80002176:	b480      	push	{r7}
80002178:	b089      	sub	sp, #36	; 0x24
8000217a:	af00      	add	r7, sp, #0
8000217c:	60f8      	str	r0, [r7, #12]
8000217e:	60b9      	str	r1, [r7, #8]
80002180:	607a      	str	r2, [r7, #4]
80002182:	2300      	movs	r3, #0
80002184:	617b      	str	r3, [r7, #20]
80002186:	68fb      	ldr	r3, [r7, #12]
80002188:	61fb      	str	r3, [r7, #28]
8000218a:	68bb      	ldr	r3, [r7, #8]
8000218c:	61bb      	str	r3, [r7, #24]
8000218e:	e012      	b.n	800021b6 <memcmp+0x40>
80002190:	69fb      	ldr	r3, [r7, #28]
80002192:	781b      	ldrb	r3, [r3, #0]
80002194:	461a      	mov	r2, r3
80002196:	69bb      	ldr	r3, [r7, #24]
80002198:	781b      	ldrb	r3, [r3, #0]
8000219a:	1ad3      	subs	r3, r2, r3
8000219c:	617b      	str	r3, [r7, #20]
8000219e:	697b      	ldr	r3, [r7, #20]
800021a0:	2b00      	cmp	r3, #0
800021a2:	d10c      	bne.n	800021be <memcmp+0x48>
800021a4:	69fb      	ldr	r3, [r7, #28]
800021a6:	3301      	adds	r3, #1
800021a8:	61fb      	str	r3, [r7, #28]
800021aa:	69bb      	ldr	r3, [r7, #24]
800021ac:	3301      	adds	r3, #1
800021ae:	61bb      	str	r3, [r7, #24]
800021b0:	687b      	ldr	r3, [r7, #4]
800021b2:	3b01      	subs	r3, #1
800021b4:	607b      	str	r3, [r7, #4]
800021b6:	687b      	ldr	r3, [r7, #4]
800021b8:	2b00      	cmp	r3, #0
800021ba:	d1e9      	bne.n	80002190 <memcmp+0x1a>
800021bc:	e000      	b.n	800021c0 <memcmp+0x4a>
800021be:	bf00      	nop
800021c0:	697b      	ldr	r3, [r7, #20]
800021c2:	4618      	mov	r0, r3
800021c4:	3724      	adds	r7, #36	; 0x24
800021c6:	46bd      	mov	sp, r7
800021c8:	f85d 7b04 	ldr.w	r7, [sp], #4
800021cc:	4770      	bx	lr

800021ce <memscan>:
800021ce:	b480      	push	{r7}
800021d0:	b087      	sub	sp, #28
800021d2:	af00      	add	r7, sp, #0
800021d4:	60f8      	str	r0, [r7, #12]
800021d6:	60b9      	str	r1, [r7, #8]
800021d8:	607a      	str	r2, [r7, #4]
800021da:	68fb      	ldr	r3, [r7, #12]
800021dc:	617b      	str	r3, [r7, #20]
800021de:	e00d      	b.n	800021fc <memscan+0x2e>
800021e0:	697b      	ldr	r3, [r7, #20]
800021e2:	781b      	ldrb	r3, [r3, #0]
800021e4:	461a      	mov	r2, r3
800021e6:	68bb      	ldr	r3, [r7, #8]
800021e8:	4293      	cmp	r3, r2
800021ea:	d101      	bne.n	800021f0 <memscan+0x22>
800021ec:	697b      	ldr	r3, [r7, #20]
800021ee:	e009      	b.n	80002204 <memscan+0x36>
800021f0:	697b      	ldr	r3, [r7, #20]
800021f2:	3301      	adds	r3, #1
800021f4:	617b      	str	r3, [r7, #20]
800021f6:	687b      	ldr	r3, [r7, #4]
800021f8:	3b01      	subs	r3, #1
800021fa:	607b      	str	r3, [r7, #4]
800021fc:	687b      	ldr	r3, [r7, #4]
800021fe:	2b00      	cmp	r3, #0
80002200:	d1ee      	bne.n	800021e0 <memscan+0x12>
80002202:	697b      	ldr	r3, [r7, #20]
80002204:	4618      	mov	r0, r3
80002206:	371c      	adds	r7, #28
80002208:	46bd      	mov	sp, r7
8000220a:	f85d 7b04 	ldr.w	r7, [sp], #4
8000220e:	4770      	bx	lr

80002210 <strstr>:
80002210:	b580      	push	{r7, lr}
80002212:	b084      	sub	sp, #16
80002214:	af00      	add	r7, sp, #0
80002216:	6078      	str	r0, [r7, #4]
80002218:	6039      	str	r1, [r7, #0]
8000221a:	6838      	ldr	r0, [r7, #0]
8000221c:	f7ff fe20 	bl	80001e60 <strlen>
80002220:	4603      	mov	r3, r0
80002222:	60bb      	str	r3, [r7, #8]
80002224:	68bb      	ldr	r3, [r7, #8]
80002226:	2b00      	cmp	r3, #0
80002228:	d101      	bne.n	8000222e <strstr+0x1e>
8000222a:	687b      	ldr	r3, [r7, #4]
8000222c:	e01b      	b.n	80002266 <strstr+0x56>
8000222e:	6878      	ldr	r0, [r7, #4]
80002230:	f7ff fe16 	bl	80001e60 <strlen>
80002234:	4603      	mov	r3, r0
80002236:	60fb      	str	r3, [r7, #12]
80002238:	e010      	b.n	8000225c <strstr+0x4c>
8000223a:	68fb      	ldr	r3, [r7, #12]
8000223c:	3b01      	subs	r3, #1
8000223e:	60fb      	str	r3, [r7, #12]
80002240:	68bb      	ldr	r3, [r7, #8]
80002242:	461a      	mov	r2, r3
80002244:	6839      	ldr	r1, [r7, #0]
80002246:	6878      	ldr	r0, [r7, #4]
80002248:	f7ff ff95 	bl	80002176 <memcmp>
8000224c:	4603      	mov	r3, r0
8000224e:	2b00      	cmp	r3, #0
80002250:	d101      	bne.n	80002256 <strstr+0x46>
80002252:	687b      	ldr	r3, [r7, #4]
80002254:	e007      	b.n	80002266 <strstr+0x56>
80002256:	687b      	ldr	r3, [r7, #4]
80002258:	3301      	adds	r3, #1
8000225a:	607b      	str	r3, [r7, #4]
8000225c:	68fa      	ldr	r2, [r7, #12]
8000225e:	68bb      	ldr	r3, [r7, #8]
80002260:	429a      	cmp	r2, r3
80002262:	daea      	bge.n	8000223a <strstr+0x2a>
80002264:	2300      	movs	r3, #0
80002266:	4618      	mov	r0, r3
80002268:	3710      	adds	r7, #16
8000226a:	46bd      	mov	sp, r7
8000226c:	bd80      	pop	{r7, pc}

8000226e <memchr>:
8000226e:	b480      	push	{r7}
80002270:	b087      	sub	sp, #28
80002272:	af00      	add	r7, sp, #0
80002274:	60f8      	str	r0, [r7, #12]
80002276:	60b9      	str	r1, [r7, #8]
80002278:	607a      	str	r2, [r7, #4]
8000227a:	68fb      	ldr	r3, [r7, #12]
8000227c:	617b      	str	r3, [r7, #20]
8000227e:	e00a      	b.n	80002296 <memchr+0x28>
80002280:	68bb      	ldr	r3, [r7, #8]
80002282:	b2da      	uxtb	r2, r3
80002284:	697b      	ldr	r3, [r7, #20]
80002286:	1c59      	adds	r1, r3, #1
80002288:	6179      	str	r1, [r7, #20]
8000228a:	781b      	ldrb	r3, [r3, #0]
8000228c:	429a      	cmp	r2, r3
8000228e:	d102      	bne.n	80002296 <memchr+0x28>
80002290:	697b      	ldr	r3, [r7, #20]
80002292:	3b01      	subs	r3, #1
80002294:	e005      	b.n	800022a2 <memchr+0x34>
80002296:	687b      	ldr	r3, [r7, #4]
80002298:	1e5a      	subs	r2, r3, #1
8000229a:	607a      	str	r2, [r7, #4]
8000229c:	2b00      	cmp	r3, #0
8000229e:	d1ef      	bne.n	80002280 <memchr+0x12>
800022a0:	2300      	movs	r3, #0
800022a2:	4618      	mov	r0, r3
800022a4:	371c      	adds	r7, #28
800022a6:	46bd      	mov	sp, r7
800022a8:	f85d 7b04 	ldr.w	r7, [sp], #4
800022ac:	4770      	bx	lr
800022ae:	bf00      	nop

800022b0 <__toupper>:
800022b0:	b480      	push	{r7}
800022b2:	b083      	sub	sp, #12
800022b4:	af00      	add	r7, sp, #0
800022b6:	4603      	mov	r3, r0
800022b8:	71fb      	strb	r3, [r7, #7]
800022ba:	490a      	ldr	r1, [pc, #40]	; (800022e4 <__toupper+0x34>)
800022bc:	4479      	add	r1, pc
800022be:	79fb      	ldrb	r3, [r7, #7]
800022c0:	4a09      	ldr	r2, [pc, #36]	; (800022e8 <__toupper+0x38>)
800022c2:	588a      	ldr	r2, [r1, r2]
800022c4:	5cd3      	ldrb	r3, [r2, r3]
800022c6:	f003 0302 	and.w	r3, r3, #2
800022ca:	2b00      	cmp	r3, #0
800022cc:	d002      	beq.n	800022d4 <__toupper+0x24>
800022ce:	79fb      	ldrb	r3, [r7, #7]
800022d0:	3b20      	subs	r3, #32
800022d2:	71fb      	strb	r3, [r7, #7]
800022d4:	79fb      	ldrb	r3, [r7, #7]
800022d6:	4618      	mov	r0, r3
800022d8:	370c      	adds	r7, #12
800022da:	46bd      	mov	sp, r7
800022dc:	f85d 7b04 	ldr.w	r7, [sp], #4
800022e0:	4770      	bx	lr
800022e2:	bf00      	nop
800022e4:	00001e48 	andeq	r1, r0, r8, asr #28
800022e8:	00000000 	andeq	r0, r0, r0

800022ec <simple_strtoul>:
800022ec:	b590      	push	{r4, r7, lr}
800022ee:	b087      	sub	sp, #28
800022f0:	af00      	add	r7, sp, #0
800022f2:	60f8      	str	r0, [r7, #12]
800022f4:	60b9      	str	r1, [r7, #8]
800022f6:	607a      	str	r2, [r7, #4]
800022f8:	4c3b      	ldr	r4, [pc, #236]	; (800023e8 <simple_strtoul+0xfc>)
800022fa:	447c      	add	r4, pc
800022fc:	2300      	movs	r3, #0
800022fe:	617b      	str	r3, [r7, #20]
80002300:	687b      	ldr	r3, [r7, #4]
80002302:	2b00      	cmp	r3, #0
80002304:	d123      	bne.n	8000234e <simple_strtoul+0x62>
80002306:	230a      	movs	r3, #10
80002308:	607b      	str	r3, [r7, #4]
8000230a:	68fb      	ldr	r3, [r7, #12]
8000230c:	781b      	ldrb	r3, [r3, #0]
8000230e:	2b30      	cmp	r3, #48	; 0x30
80002310:	d13b      	bne.n	8000238a <simple_strtoul+0x9e>
80002312:	2308      	movs	r3, #8
80002314:	607b      	str	r3, [r7, #4]
80002316:	68fb      	ldr	r3, [r7, #12]
80002318:	3301      	adds	r3, #1
8000231a:	60fb      	str	r3, [r7, #12]
8000231c:	68fb      	ldr	r3, [r7, #12]
8000231e:	781b      	ldrb	r3, [r3, #0]
80002320:	4618      	mov	r0, r3
80002322:	f7ff ffc5 	bl	800022b0 <__toupper>
80002326:	4603      	mov	r3, r0
80002328:	2b58      	cmp	r3, #88	; 0x58
8000232a:	d12e      	bne.n	8000238a <simple_strtoul+0x9e>
8000232c:	68fb      	ldr	r3, [r7, #12]
8000232e:	3301      	adds	r3, #1
80002330:	781b      	ldrb	r3, [r3, #0]
80002332:	461a      	mov	r2, r3
80002334:	4b2d      	ldr	r3, [pc, #180]	; (800023ec <simple_strtoul+0x100>)
80002336:	58e3      	ldr	r3, [r4, r3]
80002338:	5c9b      	ldrb	r3, [r3, r2]
8000233a:	f003 0344 	and.w	r3, r3, #68	; 0x44
8000233e:	2b00      	cmp	r3, #0
80002340:	d023      	beq.n	8000238a <simple_strtoul+0x9e>
80002342:	68fb      	ldr	r3, [r7, #12]
80002344:	3301      	adds	r3, #1
80002346:	60fb      	str	r3, [r7, #12]
80002348:	2310      	movs	r3, #16
8000234a:	607b      	str	r3, [r7, #4]
8000234c:	e01d      	b.n	8000238a <simple_strtoul+0x9e>
8000234e:	687b      	ldr	r3, [r7, #4]
80002350:	2b10      	cmp	r3, #16
80002352:	d11a      	bne.n	8000238a <simple_strtoul+0x9e>
80002354:	68fb      	ldr	r3, [r7, #12]
80002356:	781b      	ldrb	r3, [r3, #0]
80002358:	2b30      	cmp	r3, #48	; 0x30
8000235a:	d116      	bne.n	8000238a <simple_strtoul+0x9e>
8000235c:	68fb      	ldr	r3, [r7, #12]
8000235e:	3301      	adds	r3, #1
80002360:	781b      	ldrb	r3, [r3, #0]
80002362:	4618      	mov	r0, r3
80002364:	f7ff ffa4 	bl	800022b0 <__toupper>
80002368:	4603      	mov	r3, r0
8000236a:	2b58      	cmp	r3, #88	; 0x58
8000236c:	d10d      	bne.n	8000238a <simple_strtoul+0x9e>
8000236e:	68fb      	ldr	r3, [r7, #12]
80002370:	3302      	adds	r3, #2
80002372:	60fb      	str	r3, [r7, #12]
80002374:	e009      	b.n	8000238a <simple_strtoul+0x9e>
80002376:	697b      	ldr	r3, [r7, #20]
80002378:	687a      	ldr	r2, [r7, #4]
8000237a:	fb02 f303 	mul.w	r3, r2, r3
8000237e:	693a      	ldr	r2, [r7, #16]
80002380:	4413      	add	r3, r2
80002382:	617b      	str	r3, [r7, #20]
80002384:	68fb      	ldr	r3, [r7, #12]
80002386:	3301      	adds	r3, #1
80002388:	60fb      	str	r3, [r7, #12]
8000238a:	68fb      	ldr	r3, [r7, #12]
8000238c:	781b      	ldrb	r3, [r3, #0]
8000238e:	461a      	mov	r2, r3
80002390:	4b16      	ldr	r3, [pc, #88]	; (800023ec <simple_strtoul+0x100>)
80002392:	58e3      	ldr	r3, [r4, r3]
80002394:	5c9b      	ldrb	r3, [r3, r2]
80002396:	f003 0344 	and.w	r3, r3, #68	; 0x44
8000239a:	2b00      	cmp	r3, #0
8000239c:	d019      	beq.n	800023d2 <simple_strtoul+0xe6>
8000239e:	68fb      	ldr	r3, [r7, #12]
800023a0:	781b      	ldrb	r3, [r3, #0]
800023a2:	461a      	mov	r2, r3
800023a4:	4b11      	ldr	r3, [pc, #68]	; (800023ec <simple_strtoul+0x100>)
800023a6:	58e3      	ldr	r3, [r4, r3]
800023a8:	5c9b      	ldrb	r3, [r3, r2]
800023aa:	f003 0304 	and.w	r3, r3, #4
800023ae:	2b00      	cmp	r3, #0
800023b0:	d003      	beq.n	800023ba <simple_strtoul+0xce>
800023b2:	68fb      	ldr	r3, [r7, #12]
800023b4:	781b      	ldrb	r3, [r3, #0]
800023b6:	3b30      	subs	r3, #48	; 0x30
800023b8:	e006      	b.n	800023c8 <simple_strtoul+0xdc>
800023ba:	68fb      	ldr	r3, [r7, #12]
800023bc:	781b      	ldrb	r3, [r3, #0]
800023be:	4618      	mov	r0, r3
800023c0:	f7ff ff76 	bl	800022b0 <__toupper>
800023c4:	4603      	mov	r3, r0
800023c6:	3b37      	subs	r3, #55	; 0x37
800023c8:	613b      	str	r3, [r7, #16]
800023ca:	693a      	ldr	r2, [r7, #16]
800023cc:	687b      	ldr	r3, [r7, #4]
800023ce:	429a      	cmp	r2, r3
800023d0:	d3d1      	bcc.n	80002376 <simple_strtoul+0x8a>
800023d2:	68bb      	ldr	r3, [r7, #8]
800023d4:	2b00      	cmp	r3, #0
800023d6:	d002      	beq.n	800023de <simple_strtoul+0xf2>
800023d8:	68bb      	ldr	r3, [r7, #8]
800023da:	68fa      	ldr	r2, [r7, #12]
800023dc:	601a      	str	r2, [r3, #0]
800023de:	697b      	ldr	r3, [r7, #20]
800023e0:	4618      	mov	r0, r3
800023e2:	371c      	adds	r7, #28
800023e4:	46bd      	mov	sp, r7
800023e6:	bd90      	pop	{r4, r7, pc}
800023e8:	00001e0a 	andeq	r1, r0, sl, lsl #28
800023ec:	00000000 	andeq	r0, r0, r0

800023f0 <simple_strtol>:
800023f0:	b580      	push	{r7, lr}
800023f2:	b084      	sub	sp, #16
800023f4:	af00      	add	r7, sp, #0
800023f6:	60f8      	str	r0, [r7, #12]
800023f8:	60b9      	str	r1, [r7, #8]
800023fa:	607a      	str	r2, [r7, #4]
800023fc:	68fb      	ldr	r3, [r7, #12]
800023fe:	781b      	ldrb	r3, [r3, #0]
80002400:	2b2d      	cmp	r3, #45	; 0x2d
80002402:	d109      	bne.n	80002418 <simple_strtol+0x28>
80002404:	68fb      	ldr	r3, [r7, #12]
80002406:	3301      	adds	r3, #1
80002408:	687a      	ldr	r2, [r7, #4]
8000240a:	68b9      	ldr	r1, [r7, #8]
8000240c:	4618      	mov	r0, r3
8000240e:	f7ff ff6d 	bl	800022ec <simple_strtoul>
80002412:	4603      	mov	r3, r0
80002414:	425b      	negs	r3, r3
80002416:	e005      	b.n	80002424 <simple_strtol+0x34>
80002418:	687a      	ldr	r2, [r7, #4]
8000241a:	68b9      	ldr	r1, [r7, #8]
8000241c:	68f8      	ldr	r0, [r7, #12]
8000241e:	f7ff ff65 	bl	800022ec <simple_strtoul>
80002422:	4603      	mov	r3, r0
80002424:	4618      	mov	r0, r3
80002426:	3710      	adds	r7, #16
80002428:	46bd      	mov	sp, r7
8000242a:	bd80      	pop	{r7, pc}

8000242c <simple_strtoull>:
8000242c:	e92d 4ff0 	stmdb	sp!, {r4, r5, r6, r7, r8, r9, sl, fp, lr}
80002430:	b08d      	sub	sp, #52	; 0x34
80002432:	af00      	add	r7, sp, #0
80002434:	61f8      	str	r0, [r7, #28]
80002436:	61b9      	str	r1, [r7, #24]
80002438:	617a      	str	r2, [r7, #20]
8000243a:	4e56      	ldr	r6, [pc, #344]	; (80002594 <simple_strtoull+0x168>)
8000243c:	447e      	add	r6, pc
8000243e:	f04f 0200 	mov.w	r2, #0
80002442:	f04f 0300 	mov.w	r3, #0
80002446:	e9c7 230a 	strd	r2, r3, [r7, #40]	; 0x28
8000244a:	697b      	ldr	r3, [r7, #20]
8000244c:	2b00      	cmp	r3, #0
8000244e:	d123      	bne.n	80002498 <simple_strtoull+0x6c>
80002450:	230a      	movs	r3, #10
80002452:	617b      	str	r3, [r7, #20]
80002454:	69fb      	ldr	r3, [r7, #28]
80002456:	781b      	ldrb	r3, [r3, #0]
80002458:	2b30      	cmp	r3, #48	; 0x30
8000245a:	d14e      	bne.n	800024fa <simple_strtoull+0xce>
8000245c:	2308      	movs	r3, #8
8000245e:	617b      	str	r3, [r7, #20]
80002460:	69fb      	ldr	r3, [r7, #28]
80002462:	3301      	adds	r3, #1
80002464:	61fb      	str	r3, [r7, #28]
80002466:	69fb      	ldr	r3, [r7, #28]
80002468:	781b      	ldrb	r3, [r3, #0]
8000246a:	4618      	mov	r0, r3
8000246c:	f7ff ff20 	bl	800022b0 <__toupper>
80002470:	4603      	mov	r3, r0
80002472:	2b58      	cmp	r3, #88	; 0x58
80002474:	d141      	bne.n	800024fa <simple_strtoull+0xce>
80002476:	69fb      	ldr	r3, [r7, #28]
80002478:	3301      	adds	r3, #1
8000247a:	781b      	ldrb	r3, [r3, #0]
8000247c:	461a      	mov	r2, r3
8000247e:	4b46      	ldr	r3, [pc, #280]	; (80002598 <simple_strtoull+0x16c>)
80002480:	58f3      	ldr	r3, [r6, r3]
80002482:	5c9b      	ldrb	r3, [r3, r2]
80002484:	f003 0344 	and.w	r3, r3, #68	; 0x44
80002488:	2b00      	cmp	r3, #0
8000248a:	d036      	beq.n	800024fa <simple_strtoull+0xce>
8000248c:	69fb      	ldr	r3, [r7, #28]
8000248e:	3301      	adds	r3, #1
80002490:	61fb      	str	r3, [r7, #28]
80002492:	2310      	movs	r3, #16
80002494:	617b      	str	r3, [r7, #20]
80002496:	e030      	b.n	800024fa <simple_strtoull+0xce>
80002498:	697b      	ldr	r3, [r7, #20]
8000249a:	2b10      	cmp	r3, #16
8000249c:	d12d      	bne.n	800024fa <simple_strtoull+0xce>
8000249e:	69fb      	ldr	r3, [r7, #28]
800024a0:	781b      	ldrb	r3, [r3, #0]
800024a2:	2b30      	cmp	r3, #48	; 0x30
800024a4:	d129      	bne.n	800024fa <simple_strtoull+0xce>
800024a6:	69fb      	ldr	r3, [r7, #28]
800024a8:	3301      	adds	r3, #1
800024aa:	781b      	ldrb	r3, [r3, #0]
800024ac:	4618      	mov	r0, r3
800024ae:	f7ff feff 	bl	800022b0 <__toupper>
800024b2:	4603      	mov	r3, r0
800024b4:	2b58      	cmp	r3, #88	; 0x58
800024b6:	d120      	bne.n	800024fa <simple_strtoull+0xce>
800024b8:	69fb      	ldr	r3, [r7, #28]
800024ba:	3302      	adds	r3, #2
800024bc:	61fb      	str	r3, [r7, #28]
800024be:	e01c      	b.n	800024fa <simple_strtoull+0xce>
800024c0:	697b      	ldr	r3, [r7, #20]
800024c2:	2200      	movs	r2, #0
800024c4:	4698      	mov	r8, r3
800024c6:	4691      	mov	r9, r2
800024c8:	6abb      	ldr	r3, [r7, #40]	; 0x28
800024ca:	fb09 f203 	mul.w	r2, r9, r3
800024ce:	6afb      	ldr	r3, [r7, #44]	; 0x2c
800024d0:	fb08 f303 	mul.w	r3, r8, r3
800024d4:	4413      	add	r3, r2
800024d6:	6aba      	ldr	r2, [r7, #40]	; 0x28
800024d8:	fba2 4508 	umull	r4, r5, r2, r8
800024dc:	442b      	add	r3, r5
800024de:	461d      	mov	r5, r3
800024e0:	e9d7 2308 	ldrd	r2, r3, [r7, #32]
800024e4:	1911      	adds	r1, r2, r4
800024e6:	60b9      	str	r1, [r7, #8]
800024e8:	416b      	adcs	r3, r5
800024ea:	60fb      	str	r3, [r7, #12]
800024ec:	e9d7 2302 	ldrd	r2, r3, [r7, #8]
800024f0:	e9c7 230a 	strd	r2, r3, [r7, #40]	; 0x28
800024f4:	69fb      	ldr	r3, [r7, #28]
800024f6:	3301      	adds	r3, #1
800024f8:	61fb      	str	r3, [r7, #28]
800024fa:	69fb      	ldr	r3, [r7, #28]
800024fc:	781b      	ldrb	r3, [r3, #0]
800024fe:	461a      	mov	r2, r3
80002500:	4b25      	ldr	r3, [pc, #148]	; (80002598 <simple_strtoull+0x16c>)
80002502:	58f3      	ldr	r3, [r6, r3]
80002504:	5c9b      	ldrb	r3, [r3, r2]
80002506:	f003 0344 	and.w	r3, r3, #68	; 0x44
8000250a:	2b00      	cmp	r3, #0
8000250c:	d033      	beq.n	80002576 <simple_strtoull+0x14a>
8000250e:	69fb      	ldr	r3, [r7, #28]
80002510:	781b      	ldrb	r3, [r3, #0]
80002512:	461a      	mov	r2, r3
80002514:	4b20      	ldr	r3, [pc, #128]	; (80002598 <simple_strtoull+0x16c>)
80002516:	58f3      	ldr	r3, [r6, r3]
80002518:	5c9b      	ldrb	r3, [r3, r2]
8000251a:	f003 0304 	and.w	r3, r3, #4
8000251e:	2b00      	cmp	r3, #0
80002520:	d003      	beq.n	8000252a <simple_strtoull+0xfe>
80002522:	69fb      	ldr	r3, [r7, #28]
80002524:	781b      	ldrb	r3, [r3, #0]
80002526:	3b30      	subs	r3, #48	; 0x30
80002528:	e014      	b.n	80002554 <simple_strtoull+0x128>
8000252a:	69fb      	ldr	r3, [r7, #28]
8000252c:	781b      	ldrb	r3, [r3, #0]
8000252e:	461a      	mov	r2, r3
80002530:	4b19      	ldr	r3, [pc, #100]	; (80002598 <simple_strtoull+0x16c>)
80002532:	58f3      	ldr	r3, [r6, r3]
80002534:	5c9b      	ldrb	r3, [r3, r2]
80002536:	f003 0302 	and.w	r3, r3, #2
8000253a:	2b00      	cmp	r3, #0
8000253c:	d007      	beq.n	8000254e <simple_strtoull+0x122>
8000253e:	69fb      	ldr	r3, [r7, #28]
80002540:	781b      	ldrb	r3, [r3, #0]
80002542:	4618      	mov	r0, r3
80002544:	f7ff feb4 	bl	800022b0 <__toupper>
80002548:	4603      	mov	r3, r0
8000254a:	3b37      	subs	r3, #55	; 0x37
8000254c:	e002      	b.n	80002554 <simple_strtoull+0x128>
8000254e:	69fb      	ldr	r3, [r7, #28]
80002550:	781b      	ldrb	r3, [r3, #0]
80002552:	3b37      	subs	r3, #55	; 0x37
80002554:	17da      	asrs	r2, r3, #31
80002556:	603b      	str	r3, [r7, #0]
80002558:	607a      	str	r2, [r7, #4]
8000255a:	e9d7 2300 	ldrd	r2, r3, [r7]
8000255e:	e9c7 2308 	strd	r2, r3, [r7, #32]
80002562:	697b      	ldr	r3, [r7, #20]
80002564:	2200      	movs	r2, #0
80002566:	469a      	mov	sl, r3
80002568:	4693      	mov	fp, r2
8000256a:	e9d7 2308 	ldrd	r2, r3, [r7, #32]
8000256e:	4552      	cmp	r2, sl
80002570:	eb73 030b 	sbcs.w	r3, r3, fp
80002574:	d3a4      	bcc.n	800024c0 <simple_strtoull+0x94>
80002576:	69bb      	ldr	r3, [r7, #24]
80002578:	2b00      	cmp	r3, #0
8000257a:	d002      	beq.n	80002582 <simple_strtoull+0x156>
8000257c:	69bb      	ldr	r3, [r7, #24]
8000257e:	69fa      	ldr	r2, [r7, #28]
80002580:	601a      	str	r2, [r3, #0]
80002582:	e9d7 230a 	ldrd	r2, r3, [r7, #40]	; 0x28
80002586:	4610      	mov	r0, r2
80002588:	4619      	mov	r1, r3
8000258a:	3734      	adds	r7, #52	; 0x34
8000258c:	46bd      	mov	sp, r7
8000258e:	e8bd 8ff0 	ldmia.w	sp!, {r4, r5, r6, r7, r8, r9, sl, fp, pc}
80002592:	bf00      	nop
80002594:	00001cc8 	andeq	r1, r0, r8, asr #25
80002598:	00000000 	andeq	r0, r0, r0

8000259c <simple_strtoll>:
8000259c:	b5b0      	push	{r4, r5, r7, lr}
8000259e:	b084      	sub	sp, #16
800025a0:	af00      	add	r7, sp, #0
800025a2:	60f8      	str	r0, [r7, #12]
800025a4:	60b9      	str	r1, [r7, #8]
800025a6:	607a      	str	r2, [r7, #4]
800025a8:	68fb      	ldr	r3, [r7, #12]
800025aa:	781b      	ldrb	r3, [r3, #0]
800025ac:	2b2d      	cmp	r3, #45	; 0x2d
800025ae:	d10f      	bne.n	800025d0 <simple_strtoll+0x34>
800025b0:	68fb      	ldr	r3, [r7, #12]
800025b2:	3301      	adds	r3, #1
800025b4:	687a      	ldr	r2, [r7, #4]
800025b6:	68b9      	ldr	r1, [r7, #8]
800025b8:	4618      	mov	r0, r3
800025ba:	f7ff ff37 	bl	8000242c <simple_strtoull>
800025be:	4602      	mov	r2, r0
800025c0:	460b      	mov	r3, r1
800025c2:	2100      	movs	r1, #0
800025c4:	4254      	negs	r4, r2
800025c6:	eb61 0503 	sbc.w	r5, r1, r3
800025ca:	4622      	mov	r2, r4
800025cc:	462b      	mov	r3, r5
800025ce:	e006      	b.n	800025de <simple_strtoll+0x42>
800025d0:	687a      	ldr	r2, [r7, #4]
800025d2:	68b9      	ldr	r1, [r7, #8]
800025d4:	68f8      	ldr	r0, [r7, #12]
800025d6:	f7ff ff29 	bl	8000242c <simple_strtoull>
800025da:	4602      	mov	r2, r0
800025dc:	460b      	mov	r3, r1
800025de:	4610      	mov	r0, r2
800025e0:	4619      	mov	r1, r3
800025e2:	3710      	adds	r7, #16
800025e4:	46bd      	mov	sp, r7
800025e6:	bdb0      	pop	{r4, r5, r7, pc}

800025e8 <skip_atoi>:
800025e8:	b490      	push	{r4, r7}
800025ea:	b084      	sub	sp, #16
800025ec:	af00      	add	r7, sp, #0
800025ee:	6078      	str	r0, [r7, #4]
800025f0:	4a11      	ldr	r2, [pc, #68]	; (80002638 <skip_atoi+0x50>)
800025f2:	447a      	add	r2, pc
800025f4:	2300      	movs	r3, #0
800025f6:	60fb      	str	r3, [r7, #12]
800025f8:	e00c      	b.n	80002614 <skip_atoi+0x2c>
800025fa:	68fb      	ldr	r3, [r7, #12]
800025fc:	210a      	movs	r1, #10
800025fe:	fb03 f101 	mul.w	r1, r3, r1
80002602:	687b      	ldr	r3, [r7, #4]
80002604:	681b      	ldr	r3, [r3, #0]
80002606:	1c5c      	adds	r4, r3, #1
80002608:	6878      	ldr	r0, [r7, #4]
8000260a:	6004      	str	r4, [r0, #0]
8000260c:	781b      	ldrb	r3, [r3, #0]
8000260e:	440b      	add	r3, r1
80002610:	3b30      	subs	r3, #48	; 0x30
80002612:	60fb      	str	r3, [r7, #12]
80002614:	687b      	ldr	r3, [r7, #4]
80002616:	681b      	ldr	r3, [r3, #0]
80002618:	781b      	ldrb	r3, [r3, #0]
8000261a:	4619      	mov	r1, r3
8000261c:	4b07      	ldr	r3, [pc, #28]	; (8000263c <skip_atoi+0x54>)
8000261e:	58d3      	ldr	r3, [r2, r3]
80002620:	5c5b      	ldrb	r3, [r3, r1]
80002622:	f003 0304 	and.w	r3, r3, #4
80002626:	2b00      	cmp	r3, #0
80002628:	d1e7      	bne.n	800025fa <skip_atoi+0x12>
8000262a:	68fb      	ldr	r3, [r7, #12]
8000262c:	4618      	mov	r0, r3
8000262e:	3710      	adds	r7, #16
80002630:	46bd      	mov	sp, r7
80002632:	bc90      	pop	{r4, r7}
80002634:	4770      	bx	lr
80002636:	bf00      	nop
80002638:	00001b12 	andeq	r1, r0, r2, lsl fp
8000263c:	00000000 	andeq	r0, r0, r0

80002640 <put_dec_trunc>:
80002640:	b480      	push	{r7}
80002642:	b087      	sub	sp, #28
80002644:	af00      	add	r7, sp, #0
80002646:	6078      	str	r0, [r7, #4]
80002648:	6039      	str	r1, [r7, #0]
8000264a:	683b      	ldr	r3, [r7, #0]
8000264c:	091b      	lsrs	r3, r3, #4
8000264e:	f003 030f 	and.w	r3, r3, #15
80002652:	617b      	str	r3, [r7, #20]
80002654:	683b      	ldr	r3, [r7, #0]
80002656:	0a1b      	lsrs	r3, r3, #8
80002658:	f003 030f 	and.w	r3, r3, #15
8000265c:	613b      	str	r3, [r7, #16]
8000265e:	683b      	ldr	r3, [r7, #0]
80002660:	0b1b      	lsrs	r3, r3, #12
80002662:	60fb      	str	r3, [r7, #12]
80002664:	68fa      	ldr	r2, [r7, #12]
80002666:	693b      	ldr	r3, [r7, #16]
80002668:	441a      	add	r2, r3
8000266a:	697b      	ldr	r3, [r7, #20]
8000266c:	4413      	add	r3, r2
8000266e:	2206      	movs	r2, #6
80002670:	fb03 f202 	mul.w	r2, r3, r2
80002674:	683b      	ldr	r3, [r7, #0]
80002676:	f003 030f 	and.w	r3, r3, #15
8000267a:	4413      	add	r3, r2
8000267c:	60bb      	str	r3, [r7, #8]
8000267e:	68bb      	ldr	r3, [r7, #8]
80002680:	22cd      	movs	r2, #205	; 0xcd
80002682:	fb02 f303 	mul.w	r3, r2, r3
80002686:	0adb      	lsrs	r3, r3, #11
80002688:	603b      	str	r3, [r7, #0]
8000268a:	683b      	ldr	r3, [r7, #0]
8000268c:	220a      	movs	r2, #10
8000268e:	fb02 f303 	mul.w	r3, r2, r3
80002692:	68ba      	ldr	r2, [r7, #8]
80002694:	1ad3      	subs	r3, r2, r3
80002696:	60bb      	str	r3, [r7, #8]
80002698:	68bb      	ldr	r3, [r7, #8]
8000269a:	b2da      	uxtb	r2, r3
8000269c:	687b      	ldr	r3, [r7, #4]
8000269e:	1c59      	adds	r1, r3, #1
800026a0:	6079      	str	r1, [r7, #4]
800026a2:	3230      	adds	r2, #48	; 0x30
800026a4:	b2d2      	uxtb	r2, r2
800026a6:	701a      	strb	r2, [r3, #0]
800026a8:	68fa      	ldr	r2, [r7, #12]
800026aa:	4613      	mov	r3, r2
800026ac:	00db      	lsls	r3, r3, #3
800026ae:	1899      	adds	r1, r3, r2
800026b0:	693a      	ldr	r2, [r7, #16]
800026b2:	4613      	mov	r3, r2
800026b4:	009b      	lsls	r3, r3, #2
800026b6:	4413      	add	r3, r2
800026b8:	18ca      	adds	r2, r1, r3
800026ba:	683b      	ldr	r3, [r7, #0]
800026bc:	4413      	add	r3, r2
800026be:	697a      	ldr	r2, [r7, #20]
800026c0:	4413      	add	r3, r2
800026c2:	617b      	str	r3, [r7, #20]
800026c4:	697b      	ldr	r3, [r7, #20]
800026c6:	2b00      	cmp	r3, #0
800026c8:	d05c      	beq.n	80002784 <put_dec_trunc+0x144>
800026ca:	697b      	ldr	r3, [r7, #20]
800026cc:	22cd      	movs	r2, #205	; 0xcd
800026ce:	fb02 f303 	mul.w	r3, r2, r3
800026d2:	0adb      	lsrs	r3, r3, #11
800026d4:	603b      	str	r3, [r7, #0]
800026d6:	683b      	ldr	r3, [r7, #0]
800026d8:	220a      	movs	r2, #10
800026da:	fb02 f303 	mul.w	r3, r2, r3
800026de:	697a      	ldr	r2, [r7, #20]
800026e0:	1ad3      	subs	r3, r2, r3
800026e2:	617b      	str	r3, [r7, #20]
800026e4:	697b      	ldr	r3, [r7, #20]
800026e6:	b2da      	uxtb	r2, r3
800026e8:	687b      	ldr	r3, [r7, #4]
800026ea:	1c59      	adds	r1, r3, #1
800026ec:	6079      	str	r1, [r7, #4]
800026ee:	3230      	adds	r2, #48	; 0x30
800026f0:	b2d2      	uxtb	r2, r2
800026f2:	701a      	strb	r2, [r3, #0]
800026f4:	693b      	ldr	r3, [r7, #16]
800026f6:	005b      	lsls	r3, r3, #1
800026f8:	683a      	ldr	r2, [r7, #0]
800026fa:	4413      	add	r3, r2
800026fc:	613b      	str	r3, [r7, #16]
800026fe:	693b      	ldr	r3, [r7, #16]
80002700:	2b00      	cmp	r3, #0
80002702:	d102      	bne.n	8000270a <put_dec_trunc+0xca>
80002704:	68fb      	ldr	r3, [r7, #12]
80002706:	2b00      	cmp	r3, #0
80002708:	d03c      	beq.n	80002784 <put_dec_trunc+0x144>
8000270a:	693b      	ldr	r3, [r7, #16]
8000270c:	220d      	movs	r2, #13
8000270e:	fb02 f303 	mul.w	r3, r2, r3
80002712:	09db      	lsrs	r3, r3, #7
80002714:	603b      	str	r3, [r7, #0]
80002716:	683b      	ldr	r3, [r7, #0]
80002718:	220a      	movs	r2, #10
8000271a:	fb02 f303 	mul.w	r3, r2, r3
8000271e:	693a      	ldr	r2, [r7, #16]
80002720:	1ad3      	subs	r3, r2, r3
80002722:	613b      	str	r3, [r7, #16]
80002724:	693b      	ldr	r3, [r7, #16]
80002726:	b2da      	uxtb	r2, r3
80002728:	687b      	ldr	r3, [r7, #4]
8000272a:	1c59      	adds	r1, r3, #1
8000272c:	6079      	str	r1, [r7, #4]
8000272e:	3230      	adds	r2, #48	; 0x30
80002730:	b2d2      	uxtb	r2, r2
80002732:	701a      	strb	r2, [r3, #0]
80002734:	68fb      	ldr	r3, [r7, #12]
80002736:	009b      	lsls	r3, r3, #2
80002738:	683a      	ldr	r2, [r7, #0]
8000273a:	4413      	add	r3, r2
8000273c:	60fb      	str	r3, [r7, #12]
8000273e:	68fb      	ldr	r3, [r7, #12]
80002740:	2b00      	cmp	r3, #0
80002742:	d01f      	beq.n	80002784 <put_dec_trunc+0x144>
80002744:	68fb      	ldr	r3, [r7, #12]
80002746:	22cd      	movs	r2, #205	; 0xcd
80002748:	fb02 f303 	mul.w	r3, r2, r3
8000274c:	0adb      	lsrs	r3, r3, #11
8000274e:	603b      	str	r3, [r7, #0]
80002750:	683b      	ldr	r3, [r7, #0]
80002752:	220a      	movs	r2, #10
80002754:	fb02 f303 	mul.w	r3, r2, r3
80002758:	68fa      	ldr	r2, [r7, #12]
8000275a:	1ad3      	subs	r3, r2, r3
8000275c:	60fb      	str	r3, [r7, #12]
8000275e:	68fb      	ldr	r3, [r7, #12]
80002760:	b2da      	uxtb	r2, r3
80002762:	687b      	ldr	r3, [r7, #4]
80002764:	1c59      	adds	r1, r3, #1
80002766:	6079      	str	r1, [r7, #4]
80002768:	3230      	adds	r2, #48	; 0x30
8000276a:	b2d2      	uxtb	r2, r2
8000276c:	701a      	strb	r2, [r3, #0]
8000276e:	683b      	ldr	r3, [r7, #0]
80002770:	2b00      	cmp	r3, #0
80002772:	d007      	beq.n	80002784 <put_dec_trunc+0x144>
80002774:	683b      	ldr	r3, [r7, #0]
80002776:	b2da      	uxtb	r2, r3
80002778:	687b      	ldr	r3, [r7, #4]
8000277a:	1c59      	adds	r1, r3, #1
8000277c:	6079      	str	r1, [r7, #4]
8000277e:	3230      	adds	r2, #48	; 0x30
80002780:	b2d2      	uxtb	r2, r2
80002782:	701a      	strb	r2, [r3, #0]
80002784:	687b      	ldr	r3, [r7, #4]
80002786:	4618      	mov	r0, r3
80002788:	371c      	adds	r7, #28
8000278a:	46bd      	mov	sp, r7
8000278c:	f85d 7b04 	ldr.w	r7, [sp], #4
80002790:	4770      	bx	lr

80002792 <put_dec_full>:
80002792:	b480      	push	{r7}
80002794:	b087      	sub	sp, #28
80002796:	af00      	add	r7, sp, #0
80002798:	6078      	str	r0, [r7, #4]
8000279a:	6039      	str	r1, [r7, #0]
8000279c:	683b      	ldr	r3, [r7, #0]
8000279e:	091b      	lsrs	r3, r3, #4
800027a0:	f003 030f 	and.w	r3, r3, #15
800027a4:	617b      	str	r3, [r7, #20]
800027a6:	683b      	ldr	r3, [r7, #0]
800027a8:	0a1b      	lsrs	r3, r3, #8
800027aa:	f003 030f 	and.w	r3, r3, #15
800027ae:	613b      	str	r3, [r7, #16]
800027b0:	683b      	ldr	r3, [r7, #0]
800027b2:	0b1b      	lsrs	r3, r3, #12
800027b4:	60fb      	str	r3, [r7, #12]
800027b6:	68fa      	ldr	r2, [r7, #12]
800027b8:	693b      	ldr	r3, [r7, #16]
800027ba:	441a      	add	r2, r3
800027bc:	697b      	ldr	r3, [r7, #20]
800027be:	4413      	add	r3, r2
800027c0:	2206      	movs	r2, #6
800027c2:	fb03 f202 	mul.w	r2, r3, r2
800027c6:	683b      	ldr	r3, [r7, #0]
800027c8:	f003 030f 	and.w	r3, r3, #15
800027cc:	4413      	add	r3, r2
800027ce:	60bb      	str	r3, [r7, #8]
800027d0:	68bb      	ldr	r3, [r7, #8]
800027d2:	22cd      	movs	r2, #205	; 0xcd
800027d4:	fb02 f303 	mul.w	r3, r2, r3
800027d8:	0adb      	lsrs	r3, r3, #11
800027da:	603b      	str	r3, [r7, #0]
800027dc:	683b      	ldr	r3, [r7, #0]
800027de:	220a      	movs	r2, #10
800027e0:	fb02 f303 	mul.w	r3, r2, r3
800027e4:	68ba      	ldr	r2, [r7, #8]
800027e6:	1ad3      	subs	r3, r2, r3
800027e8:	60bb      	str	r3, [r7, #8]
800027ea:	68bb      	ldr	r3, [r7, #8]
800027ec:	b2da      	uxtb	r2, r3
800027ee:	687b      	ldr	r3, [r7, #4]
800027f0:	1c59      	adds	r1, r3, #1
800027f2:	6079      	str	r1, [r7, #4]
800027f4:	3230      	adds	r2, #48	; 0x30
800027f6:	b2d2      	uxtb	r2, r2
800027f8:	701a      	strb	r2, [r3, #0]
800027fa:	68fa      	ldr	r2, [r7, #12]
800027fc:	4613      	mov	r3, r2
800027fe:	00db      	lsls	r3, r3, #3
80002800:	1899      	adds	r1, r3, r2
80002802:	693a      	ldr	r2, [r7, #16]
80002804:	4613      	mov	r3, r2
80002806:	009b      	lsls	r3, r3, #2
80002808:	4413      	add	r3, r2
8000280a:	18ca      	adds	r2, r1, r3
8000280c:	683b      	ldr	r3, [r7, #0]
8000280e:	4413      	add	r3, r2
80002810:	697a      	ldr	r2, [r7, #20]
80002812:	4413      	add	r3, r2
80002814:	617b      	str	r3, [r7, #20]
80002816:	697b      	ldr	r3, [r7, #20]
80002818:	22cd      	movs	r2, #205	; 0xcd
8000281a:	fb02 f303 	mul.w	r3, r2, r3
8000281e:	0adb      	lsrs	r3, r3, #11
80002820:	603b      	str	r3, [r7, #0]
80002822:	683b      	ldr	r3, [r7, #0]
80002824:	220a      	movs	r2, #10
80002826:	fb02 f303 	mul.w	r3, r2, r3
8000282a:	697a      	ldr	r2, [r7, #20]
8000282c:	1ad3      	subs	r3, r2, r3
8000282e:	617b      	str	r3, [r7, #20]
80002830:	697b      	ldr	r3, [r7, #20]
80002832:	b2da      	uxtb	r2, r3
80002834:	687b      	ldr	r3, [r7, #4]
80002836:	1c59      	adds	r1, r3, #1
80002838:	6079      	str	r1, [r7, #4]
8000283a:	3230      	adds	r2, #48	; 0x30
8000283c:	b2d2      	uxtb	r2, r2
8000283e:	701a      	strb	r2, [r3, #0]
80002840:	693b      	ldr	r3, [r7, #16]
80002842:	005b      	lsls	r3, r3, #1
80002844:	683a      	ldr	r2, [r7, #0]
80002846:	4413      	add	r3, r2
80002848:	613b      	str	r3, [r7, #16]
8000284a:	693b      	ldr	r3, [r7, #16]
8000284c:	220d      	movs	r2, #13
8000284e:	fb02 f303 	mul.w	r3, r2, r3
80002852:	09db      	lsrs	r3, r3, #7
80002854:	603b      	str	r3, [r7, #0]
80002856:	683b      	ldr	r3, [r7, #0]
80002858:	220a      	movs	r2, #10
8000285a:	fb02 f303 	mul.w	r3, r2, r3
8000285e:	693a      	ldr	r2, [r7, #16]
80002860:	1ad3      	subs	r3, r2, r3
80002862:	613b      	str	r3, [r7, #16]
80002864:	693b      	ldr	r3, [r7, #16]
80002866:	b2da      	uxtb	r2, r3
80002868:	687b      	ldr	r3, [r7, #4]
8000286a:	1c59      	adds	r1, r3, #1
8000286c:	6079      	str	r1, [r7, #4]
8000286e:	3230      	adds	r2, #48	; 0x30
80002870:	b2d2      	uxtb	r2, r2
80002872:	701a      	strb	r2, [r3, #0]
80002874:	68fb      	ldr	r3, [r7, #12]
80002876:	009b      	lsls	r3, r3, #2
80002878:	683a      	ldr	r2, [r7, #0]
8000287a:	4413      	add	r3, r2
8000287c:	60fb      	str	r3, [r7, #12]
8000287e:	68fb      	ldr	r3, [r7, #12]
80002880:	22cd      	movs	r2, #205	; 0xcd
80002882:	fb02 f303 	mul.w	r3, r2, r3
80002886:	0adb      	lsrs	r3, r3, #11
80002888:	603b      	str	r3, [r7, #0]
8000288a:	683b      	ldr	r3, [r7, #0]
8000288c:	220a      	movs	r2, #10
8000288e:	fb02 f303 	mul.w	r3, r2, r3
80002892:	68fa      	ldr	r2, [r7, #12]
80002894:	1ad3      	subs	r3, r2, r3
80002896:	60fb      	str	r3, [r7, #12]
80002898:	68fb      	ldr	r3, [r7, #12]
8000289a:	b2da      	uxtb	r2, r3
8000289c:	687b      	ldr	r3, [r7, #4]
8000289e:	1c59      	adds	r1, r3, #1
800028a0:	6079      	str	r1, [r7, #4]
800028a2:	3230      	adds	r2, #48	; 0x30
800028a4:	b2d2      	uxtb	r2, r2
800028a6:	701a      	strb	r2, [r3, #0]
800028a8:	683b      	ldr	r3, [r7, #0]
800028aa:	b2da      	uxtb	r2, r3
800028ac:	687b      	ldr	r3, [r7, #4]
800028ae:	1c59      	adds	r1, r3, #1
800028b0:	6079      	str	r1, [r7, #4]
800028b2:	3230      	adds	r2, #48	; 0x30
800028b4:	b2d2      	uxtb	r2, r2
800028b6:	701a      	strb	r2, [r3, #0]
800028b8:	687b      	ldr	r3, [r7, #4]
800028ba:	4618      	mov	r0, r3
800028bc:	371c      	adds	r7, #28
800028be:	46bd      	mov	sp, r7
800028c0:	f85d 7b04 	ldr.w	r7, [sp], #4
800028c4:	4770      	bx	lr

800028c6 <put_dec>:
800028c6:	b5b0      	push	{r4, r5, r7, lr}
800028c8:	b088      	sub	sp, #32
800028ca:	af00      	add	r7, sp, #0
800028cc:	60f8      	str	r0, [r7, #12]
800028ce:	e9c7 2300 	strd	r2, r3, [r7]
800028d2:	e9d7 2300 	ldrd	r2, r3, [r7]
800028d6:	f248 61a0 	movw	r1, #34464	; 0x86a0
800028da:	f2c0 0101 	movt	r1, #1
800028de:	428a      	cmp	r2, r1
800028e0:	f173 0300 	sbcs.w	r3, r3, #0
800028e4:	d208      	bcs.n	800028f8 <put_dec+0x32>
800028e6:	e9d7 2300 	ldrd	r2, r3, [r7]
800028ea:	4613      	mov	r3, r2
800028ec:	4619      	mov	r1, r3
800028ee:	68f8      	ldr	r0, [r7, #12]
800028f0:	f7ff fea6 	bl	80002640 <put_dec_trunc>
800028f4:	4603      	mov	r3, r0
800028f6:	e034      	b.n	80002962 <put_dec+0x9c>
800028f8:	f248 63a0 	movw	r3, #34464	; 0x86a0
800028fc:	f2c0 0301 	movt	r3, #1
80002900:	61bb      	str	r3, [r7, #24]
80002902:	e9d7 0100 	ldrd	r0, r1, [r7]
80002906:	f04f 0200 	mov.w	r2, #0
8000290a:	f04f 0300 	mov.w	r3, #0
8000290e:	000a      	movs	r2, r1
80002910:	2300      	movs	r3, #0
80002912:	4313      	orrs	r3, r2
80002914:	d117      	bne.n	80002946 <put_dec+0x80>
80002916:	e9d7 2300 	ldrd	r2, r3, [r7]
8000291a:	4613      	mov	r3, r2
8000291c:	69b9      	ldr	r1, [r7, #24]
8000291e:	4618      	mov	r0, r3
80002920:	f001 fa84 	bl	80003e2c <__aeabi_uidivmod>
80002924:	460b      	mov	r3, r1
80002926:	61fb      	str	r3, [r7, #28]
80002928:	e9d7 2300 	ldrd	r2, r3, [r7]
8000292c:	4613      	mov	r3, r2
8000292e:	69b9      	ldr	r1, [r7, #24]
80002930:	4618      	mov	r0, r3
80002932:	f001 f94d 	bl	80003bd0 <__udivsi3>
80002936:	4603      	mov	r3, r0
80002938:	461a      	mov	r2, r3
8000293a:	2300      	movs	r3, #0
8000293c:	4614      	mov	r4, r2
8000293e:	461d      	mov	r5, r3
80002940:	e9c7 4500 	strd	r4, r5, [r7]
80002944:	e005      	b.n	80002952 <put_dec+0x8c>
80002946:	463b      	mov	r3, r7
80002948:	69b9      	ldr	r1, [r7, #24]
8000294a:	4618      	mov	r0, r3
8000294c:	f7fe ffa2 	bl	80001894 <__div64_32>
80002950:	61f8      	str	r0, [r7, #28]
80002952:	69fb      	ldr	r3, [r7, #28]
80002954:	617b      	str	r3, [r7, #20]
80002956:	6979      	ldr	r1, [r7, #20]
80002958:	68f8      	ldr	r0, [r7, #12]
8000295a:	f7ff ff1a 	bl	80002792 <put_dec_full>
8000295e:	60f8      	str	r0, [r7, #12]
80002960:	e7b7      	b.n	800028d2 <put_dec+0xc>
80002962:	4618      	mov	r0, r3
80002964:	3720      	adds	r7, #32
80002966:	46bd      	mov	sp, r7
80002968:	bdb0      	pop	{r4, r5, r7, pc}

8000296a <number>:
8000296a:	e92d 43f0 	stmdb	sp!, {r4, r5, r6, r7, r8, r9, lr}
8000296e:	b0a5      	sub	sp, #148	; 0x94
80002970:	af00      	add	r7, sp, #0
80002972:	60f8      	str	r0, [r7, #12]
80002974:	60b9      	str	r1, [r7, #8]
80002976:	e9c7 2300 	strd	r2, r3, [r7]
8000297a:	f8d7 30bc 	ldr.w	r3, [r7, #188]	; 0xbc
8000297e:	f003 0320 	and.w	r3, r3, #32
80002982:	2b00      	cmp	r3, #0
80002984:	d005      	beq.n	80002992 <number+0x28>
80002986:	f8d7 30b0 	ldr.w	r3, [r7, #176]	; 0xb0
8000298a:	2b0a      	cmp	r3, #10
8000298c:	d001      	beq.n	80002992 <number+0x28>
8000298e:	2301      	movs	r3, #1
80002990:	e000      	b.n	80002994 <number+0x2a>
80002992:	2300      	movs	r3, #0
80002994:	f8c7 3080 	str.w	r3, [r7, #128]	; 0x80
80002998:	f8d7 30bc 	ldr.w	r3, [r7, #188]	; 0xbc
8000299c:	b2db      	uxtb	r3, r3
8000299e:	f003 0320 	and.w	r3, r3, #32
800029a2:	f887 307f 	strb.w	r3, [r7, #127]	; 0x7f
800029a6:	f8d7 30bc 	ldr.w	r3, [r7, #188]	; 0xbc
800029aa:	f003 0310 	and.w	r3, r3, #16
800029ae:	2b00      	cmp	r3, #0
800029b0:	d005      	beq.n	800029be <number+0x54>
800029b2:	f8d7 30bc 	ldr.w	r3, [r7, #188]	; 0xbc
800029b6:	f023 0301 	bic.w	r3, r3, #1
800029ba:	f8c7 30bc 	str.w	r3, [r7, #188]	; 0xbc
800029be:	2300      	movs	r3, #0
800029c0:	f887 308f 	strb.w	r3, [r7, #143]	; 0x8f
800029c4:	f8d7 30bc 	ldr.w	r3, [r7, #188]	; 0xbc
800029c8:	f003 0302 	and.w	r3, r3, #2
800029cc:	2b00      	cmp	r3, #0
800029ce:	d032      	beq.n	80002a36 <number+0xcc>
800029d0:	e9d7 2300 	ldrd	r2, r3, [r7]
800029d4:	2b00      	cmp	r3, #0
800029d6:	da11      	bge.n	800029fc <number+0x92>
800029d8:	232d      	movs	r3, #45	; 0x2d
800029da:	f887 308f 	strb.w	r3, [r7, #143]	; 0x8f
800029de:	e9d7 2300 	ldrd	r2, r3, [r7]
800029e2:	2100      	movs	r1, #0
800029e4:	f1d2 0800 	rsbs	r8, r2, #0
800029e8:	eb61 0903 	sbc.w	r9, r1, r3
800029ec:	e9c7 8900 	strd	r8, r9, [r7]
800029f0:	f8d7 30b4 	ldr.w	r3, [r7, #180]	; 0xb4
800029f4:	3b01      	subs	r3, #1
800029f6:	f8c7 30b4 	str.w	r3, [r7, #180]	; 0xb4
800029fa:	e01c      	b.n	80002a36 <number+0xcc>
800029fc:	f8d7 30bc 	ldr.w	r3, [r7, #188]	; 0xbc
80002a00:	f003 0304 	and.w	r3, r3, #4
80002a04:	2b00      	cmp	r3, #0
80002a06:	d008      	beq.n	80002a1a <number+0xb0>
80002a08:	232b      	movs	r3, #43	; 0x2b
80002a0a:	f887 308f 	strb.w	r3, [r7, #143]	; 0x8f
80002a0e:	f8d7 30b4 	ldr.w	r3, [r7, #180]	; 0xb4
80002a12:	3b01      	subs	r3, #1
80002a14:	f8c7 30b4 	str.w	r3, [r7, #180]	; 0xb4
80002a18:	e00d      	b.n	80002a36 <number+0xcc>
80002a1a:	f8d7 30bc 	ldr.w	r3, [r7, #188]	; 0xbc
80002a1e:	f003 0308 	and.w	r3, r3, #8
80002a22:	2b00      	cmp	r3, #0
80002a24:	d007      	beq.n	80002a36 <number+0xcc>
80002a26:	2320      	movs	r3, #32
80002a28:	f887 308f 	strb.w	r3, [r7, #143]	; 0x8f
80002a2c:	f8d7 30b4 	ldr.w	r3, [r7, #180]	; 0xb4
80002a30:	3b01      	subs	r3, #1
80002a32:	f8c7 30b4 	str.w	r3, [r7, #180]	; 0xb4
80002a36:	f8d7 3080 	ldr.w	r3, [r7, #128]	; 0x80
80002a3a:	2b00      	cmp	r3, #0
80002a3c:	d00d      	beq.n	80002a5a <number+0xf0>
80002a3e:	f8d7 30b4 	ldr.w	r3, [r7, #180]	; 0xb4
80002a42:	3b01      	subs	r3, #1
80002a44:	f8c7 30b4 	str.w	r3, [r7, #180]	; 0xb4
80002a48:	f8d7 30b0 	ldr.w	r3, [r7, #176]	; 0xb0
80002a4c:	2b10      	cmp	r3, #16
80002a4e:	d104      	bne.n	80002a5a <number+0xf0>
80002a50:	f8d7 30b4 	ldr.w	r3, [r7, #180]	; 0xb4
80002a54:	3b01      	subs	r3, #1
80002a56:	f8c7 30b4 	str.w	r3, [r7, #180]	; 0xb4
80002a5a:	2300      	movs	r3, #0
80002a5c:	f8c7 3088 	str.w	r3, [r7, #136]	; 0x88
80002a60:	e9d7 2300 	ldrd	r2, r3, [r7]
80002a64:	4313      	orrs	r3, r2
80002a66:	d10a      	bne.n	80002a7e <number+0x114>
80002a68:	f8d7 3088 	ldr.w	r3, [r7, #136]	; 0x88
80002a6c:	1c5a      	adds	r2, r3, #1
80002a6e:	f8c7 2088 	str.w	r2, [r7, #136]	; 0x88
80002a72:	3390      	adds	r3, #144	; 0x90
80002a74:	443b      	add	r3, r7
80002a76:	2230      	movs	r2, #48	; 0x30
80002a78:	f803 2c80 	strb.w	r2, [r3, #-128]
80002a7c:	e04d      	b.n	80002b1a <number+0x1b0>
80002a7e:	f8d7 30b0 	ldr.w	r3, [r7, #176]	; 0xb0
80002a82:	2b0a      	cmp	r3, #10
80002a84:	d03c      	beq.n	80002b00 <number+0x196>
80002a86:	f8d7 30b0 	ldr.w	r3, [r7, #176]	; 0xb0
80002a8a:	3b01      	subs	r3, #1
80002a8c:	67bb      	str	r3, [r7, #120]	; 0x78
80002a8e:	2303      	movs	r3, #3
80002a90:	f8c7 3084 	str.w	r3, [r7, #132]	; 0x84
80002a94:	f8d7 30b0 	ldr.w	r3, [r7, #176]	; 0xb0
80002a98:	2b10      	cmp	r3, #16
80002a9a:	d102      	bne.n	80002aa2 <number+0x138>
80002a9c:	2304      	movs	r3, #4
80002a9e:	f8c7 3084 	str.w	r3, [r7, #132]	; 0x84
80002aa2:	783b      	ldrb	r3, [r7, #0]
80002aa4:	461a      	mov	r2, r3
80002aa6:	6fbb      	ldr	r3, [r7, #120]	; 0x78
80002aa8:	4013      	ands	r3, r2
80002aaa:	4a80      	ldr	r2, [pc, #512]	; (80002cac <number+0x342>)
80002aac:	447a      	add	r2, pc
80002aae:	5cd1      	ldrb	r1, [r2, r3]
80002ab0:	f8d7 3088 	ldr.w	r3, [r7, #136]	; 0x88
80002ab4:	1c5a      	adds	r2, r3, #1
80002ab6:	f8c7 2088 	str.w	r2, [r7, #136]	; 0x88
80002aba:	f897 207f 	ldrb.w	r2, [r7, #127]	; 0x7f
80002abe:	430a      	orrs	r2, r1
80002ac0:	b2d2      	uxtb	r2, r2
80002ac2:	3390      	adds	r3, #144	; 0x90
80002ac4:	443b      	add	r3, r7
80002ac6:	f803 2c80 	strb.w	r2, [r3, #-128]
80002aca:	e9d7 2300 	ldrd	r2, r3, [r7]
80002ace:	f8d7 1084 	ldr.w	r1, [r7, #132]	; 0x84
80002ad2:	f1c1 0620 	rsb	r6, r1, #32
80002ad6:	f1b1 0020 	subs.w	r0, r1, #32
80002ada:	fa22 f401 	lsr.w	r4, r2, r1
80002ade:	fa03 f606 	lsl.w	r6, r3, r6
80002ae2:	ea44 0406 	orr.w	r4, r4, r6
80002ae6:	d402      	bmi.n	80002aee <number+0x184>
80002ae8:	fa43 f000 	asr.w	r0, r3, r0
80002aec:	4304      	orrs	r4, r0
80002aee:	fa43 f501 	asr.w	r5, r3, r1
80002af2:	e9c7 4500 	strd	r4, r5, [r7]
80002af6:	e9d7 2300 	ldrd	r2, r3, [r7]
80002afa:	4313      	orrs	r3, r2
80002afc:	d1d1      	bne.n	80002aa2 <number+0x138>
80002afe:	e00c      	b.n	80002b1a <number+0x1b0>
80002b00:	e9d7 2300 	ldrd	r2, r3, [r7]
80002b04:	f107 0110 	add.w	r1, r7, #16
80002b08:	4608      	mov	r0, r1
80002b0a:	f7ff fedc 	bl	800028c6 <put_dec>
80002b0e:	4602      	mov	r2, r0
80002b10:	f107 0310 	add.w	r3, r7, #16
80002b14:	1ad3      	subs	r3, r2, r3
80002b16:	f8c7 3088 	str.w	r3, [r7, #136]	; 0x88
80002b1a:	f8d7 2088 	ldr.w	r2, [r7, #136]	; 0x88
80002b1e:	f8d7 30b8 	ldr.w	r3, [r7, #184]	; 0xb8
80002b22:	429a      	cmp	r2, r3
80002b24:	dd03      	ble.n	80002b2e <number+0x1c4>
80002b26:	f8d7 3088 	ldr.w	r3, [r7, #136]	; 0x88
80002b2a:	f8c7 30b8 	str.w	r3, [r7, #184]	; 0xb8
80002b2e:	f8d7 20b4 	ldr.w	r2, [r7, #180]	; 0xb4
80002b32:	f8d7 30b8 	ldr.w	r3, [r7, #184]	; 0xb8
80002b36:	1ad3      	subs	r3, r2, r3
80002b38:	f8c7 30b4 	str.w	r3, [r7, #180]	; 0xb4
80002b3c:	f8d7 30bc 	ldr.w	r3, [r7, #188]	; 0xbc
80002b40:	f003 0311 	and.w	r3, r3, #17
80002b44:	2b00      	cmp	r3, #0
80002b46:	d113      	bne.n	80002b70 <number+0x206>
80002b48:	e009      	b.n	80002b5e <number+0x1f4>
80002b4a:	68fa      	ldr	r2, [r7, #12]
80002b4c:	68bb      	ldr	r3, [r7, #8]
80002b4e:	429a      	cmp	r2, r3
80002b50:	d202      	bcs.n	80002b58 <number+0x1ee>
80002b52:	68fb      	ldr	r3, [r7, #12]
80002b54:	2220      	movs	r2, #32
80002b56:	701a      	strb	r2, [r3, #0]
80002b58:	68fb      	ldr	r3, [r7, #12]
80002b5a:	3301      	adds	r3, #1
80002b5c:	60fb      	str	r3, [r7, #12]
80002b5e:	f8d7 30b4 	ldr.w	r3, [r7, #180]	; 0xb4
80002b62:	3b01      	subs	r3, #1
80002b64:	f8c7 30b4 	str.w	r3, [r7, #180]	; 0xb4
80002b68:	f8d7 30b4 	ldr.w	r3, [r7, #180]	; 0xb4
80002b6c:	2b00      	cmp	r3, #0
80002b6e:	daec      	bge.n	80002b4a <number+0x1e0>
80002b70:	f897 308f 	ldrb.w	r3, [r7, #143]	; 0x8f
80002b74:	2b00      	cmp	r3, #0
80002b76:	d00a      	beq.n	80002b8e <number+0x224>
80002b78:	68fa      	ldr	r2, [r7, #12]
80002b7a:	68bb      	ldr	r3, [r7, #8]
80002b7c:	429a      	cmp	r2, r3
80002b7e:	d203      	bcs.n	80002b88 <number+0x21e>
80002b80:	68fb      	ldr	r3, [r7, #12]
80002b82:	f897 208f 	ldrb.w	r2, [r7, #143]	; 0x8f
80002b86:	701a      	strb	r2, [r3, #0]
80002b88:	68fb      	ldr	r3, [r7, #12]
80002b8a:	3301      	adds	r3, #1
80002b8c:	60fb      	str	r3, [r7, #12]
80002b8e:	f8d7 3080 	ldr.w	r3, [r7, #128]	; 0x80
80002b92:	2b00      	cmp	r3, #0
80002b94:	d01b      	beq.n	80002bce <number+0x264>
80002b96:	68fa      	ldr	r2, [r7, #12]
80002b98:	68bb      	ldr	r3, [r7, #8]
80002b9a:	429a      	cmp	r2, r3
80002b9c:	d202      	bcs.n	80002ba4 <number+0x23a>
80002b9e:	68fb      	ldr	r3, [r7, #12]
80002ba0:	2230      	movs	r2, #48	; 0x30
80002ba2:	701a      	strb	r2, [r3, #0]
80002ba4:	68fb      	ldr	r3, [r7, #12]
80002ba6:	3301      	adds	r3, #1
80002ba8:	60fb      	str	r3, [r7, #12]
80002baa:	f8d7 30b0 	ldr.w	r3, [r7, #176]	; 0xb0
80002bae:	2b10      	cmp	r3, #16
80002bb0:	d10d      	bne.n	80002bce <number+0x264>
80002bb2:	68fa      	ldr	r2, [r7, #12]
80002bb4:	68bb      	ldr	r3, [r7, #8]
80002bb6:	429a      	cmp	r2, r3
80002bb8:	d206      	bcs.n	80002bc8 <number+0x25e>
80002bba:	f897 307f 	ldrb.w	r3, [r7, #127]	; 0x7f
80002bbe:	f043 0358 	orr.w	r3, r3, #88	; 0x58
80002bc2:	b2da      	uxtb	r2, r3
80002bc4:	68fb      	ldr	r3, [r7, #12]
80002bc6:	701a      	strb	r2, [r3, #0]
80002bc8:	68fb      	ldr	r3, [r7, #12]
80002bca:	3301      	adds	r3, #1
80002bcc:	60fb      	str	r3, [r7, #12]
80002bce:	f8d7 30bc 	ldr.w	r3, [r7, #188]	; 0xbc
80002bd2:	f003 0310 	and.w	r3, r3, #16
80002bd6:	2b00      	cmp	r3, #0
80002bd8:	d12a      	bne.n	80002c30 <number+0x2c6>
80002bda:	f8d7 30bc 	ldr.w	r3, [r7, #188]	; 0xbc
80002bde:	f003 0301 	and.w	r3, r3, #1
80002be2:	2b00      	cmp	r3, #0
80002be4:	d001      	beq.n	80002bea <number+0x280>
80002be6:	2330      	movs	r3, #48	; 0x30
80002be8:	e000      	b.n	80002bec <number+0x282>
80002bea:	2320      	movs	r3, #32
80002bec:	f887 3077 	strb.w	r3, [r7, #119]	; 0x77
80002bf0:	e00a      	b.n	80002c08 <number+0x29e>
80002bf2:	68fa      	ldr	r2, [r7, #12]
80002bf4:	68bb      	ldr	r3, [r7, #8]
80002bf6:	429a      	cmp	r2, r3
80002bf8:	d203      	bcs.n	80002c02 <number+0x298>
80002bfa:	68fb      	ldr	r3, [r7, #12]
80002bfc:	f897 2077 	ldrb.w	r2, [r7, #119]	; 0x77
80002c00:	701a      	strb	r2, [r3, #0]
80002c02:	68fb      	ldr	r3, [r7, #12]
80002c04:	3301      	adds	r3, #1
80002c06:	60fb      	str	r3, [r7, #12]
80002c08:	f8d7 30b4 	ldr.w	r3, [r7, #180]	; 0xb4
80002c0c:	3b01      	subs	r3, #1
80002c0e:	f8c7 30b4 	str.w	r3, [r7, #180]	; 0xb4
80002c12:	f8d7 30b4 	ldr.w	r3, [r7, #180]	; 0xb4
80002c16:	2b00      	cmp	r3, #0
80002c18:	daeb      	bge.n	80002bf2 <number+0x288>
80002c1a:	e009      	b.n	80002c30 <number+0x2c6>
80002c1c:	68fa      	ldr	r2, [r7, #12]
80002c1e:	68bb      	ldr	r3, [r7, #8]
80002c20:	429a      	cmp	r2, r3
80002c22:	d202      	bcs.n	80002c2a <number+0x2c0>
80002c24:	68fb      	ldr	r3, [r7, #12]
80002c26:	2230      	movs	r2, #48	; 0x30
80002c28:	701a      	strb	r2, [r3, #0]
80002c2a:	68fb      	ldr	r3, [r7, #12]
80002c2c:	3301      	adds	r3, #1
80002c2e:	60fb      	str	r3, [r7, #12]
80002c30:	f8d7 30b8 	ldr.w	r3, [r7, #184]	; 0xb8
80002c34:	3b01      	subs	r3, #1
80002c36:	f8c7 30b8 	str.w	r3, [r7, #184]	; 0xb8
80002c3a:	f8d7 20b8 	ldr.w	r2, [r7, #184]	; 0xb8
80002c3e:	f8d7 3088 	ldr.w	r3, [r7, #136]	; 0x88
80002c42:	429a      	cmp	r2, r3
80002c44:	daea      	bge.n	80002c1c <number+0x2b2>
80002c46:	e00e      	b.n	80002c66 <number+0x2fc>
80002c48:	68fa      	ldr	r2, [r7, #12]
80002c4a:	68bb      	ldr	r3, [r7, #8]
80002c4c:	429a      	cmp	r2, r3
80002c4e:	d207      	bcs.n	80002c60 <number+0x2f6>
80002c50:	f107 0210 	add.w	r2, r7, #16
80002c54:	f8d7 3088 	ldr.w	r3, [r7, #136]	; 0x88
80002c58:	4413      	add	r3, r2
80002c5a:	781a      	ldrb	r2, [r3, #0]
80002c5c:	68fb      	ldr	r3, [r7, #12]
80002c5e:	701a      	strb	r2, [r3, #0]
80002c60:	68fb      	ldr	r3, [r7, #12]
80002c62:	3301      	adds	r3, #1
80002c64:	60fb      	str	r3, [r7, #12]
80002c66:	f8d7 3088 	ldr.w	r3, [r7, #136]	; 0x88
80002c6a:	3b01      	subs	r3, #1
80002c6c:	f8c7 3088 	str.w	r3, [r7, #136]	; 0x88
80002c70:	f8d7 3088 	ldr.w	r3, [r7, #136]	; 0x88
80002c74:	2b00      	cmp	r3, #0
80002c76:	dae7      	bge.n	80002c48 <number+0x2de>
80002c78:	e009      	b.n	80002c8e <number+0x324>
80002c7a:	68fa      	ldr	r2, [r7, #12]
80002c7c:	68bb      	ldr	r3, [r7, #8]
80002c7e:	429a      	cmp	r2, r3
80002c80:	d202      	bcs.n	80002c88 <number+0x31e>
80002c82:	68fb      	ldr	r3, [r7, #12]
80002c84:	2220      	movs	r2, #32
80002c86:	701a      	strb	r2, [r3, #0]
80002c88:	68fb      	ldr	r3, [r7, #12]
80002c8a:	3301      	adds	r3, #1
80002c8c:	60fb      	str	r3, [r7, #12]
80002c8e:	f8d7 30b4 	ldr.w	r3, [r7, #180]	; 0xb4
80002c92:	3b01      	subs	r3, #1
80002c94:	f8c7 30b4 	str.w	r3, [r7, #180]	; 0xb4
80002c98:	f8d7 30b4 	ldr.w	r3, [r7, #180]	; 0xb4
80002c9c:	2b00      	cmp	r3, #0
80002c9e:	daec      	bge.n	80002c7a <number+0x310>
80002ca0:	68fb      	ldr	r3, [r7, #12]
80002ca2:	4618      	mov	r0, r3
80002ca4:	3794      	adds	r7, #148	; 0x94
80002ca6:	46bd      	mov	sp, r7
80002ca8:	e8bd 83f0 	ldmia.w	sp!, {r4, r5, r6, r7, r8, r9, pc}
80002cac:	0000153c 	andeq	r1, r0, ip, lsr r5

80002cb0 <vsnprintf>:
80002cb0:	e92d 4ff0 	stmdb	sp!, {r4, r5, r6, r7, r8, r9, sl, fp, lr}
80002cb4:	b0a3      	sub	sp, #140	; 0x8c
80002cb6:	af04      	add	r7, sp, #16
80002cb8:	6378      	str	r0, [r7, #52]	; 0x34
80002cba:	6339      	str	r1, [r7, #48]	; 0x30
80002cbc:	62fa      	str	r2, [r7, #44]	; 0x2c
80002cbe:	62bb      	str	r3, [r7, #40]	; 0x28
80002cc0:	f8df 46ec 	ldr.w	r4, [pc, #1772]	; 800033b0 <vsnprintf+0x700>
80002cc4:	447c      	add	r4, pc
80002cc6:	6b3b      	ldr	r3, [r7, #48]	; 0x30
80002cc8:	0fdb      	lsrs	r3, r3, #31
80002cca:	b2db      	uxtb	r3, r3
80002ccc:	2b00      	cmp	r3, #0
80002cce:	d001      	beq.n	80002cd4 <vsnprintf+0x24>
80002cd0:	2300      	movs	r3, #0
80002cd2:	e368      	b.n	800033a6 <vsnprintf+0x6f6>
80002cd4:	6b7b      	ldr	r3, [r7, #52]	; 0x34
80002cd6:	667b      	str	r3, [r7, #100]	; 0x64
80002cd8:	6b3b      	ldr	r3, [r7, #48]	; 0x30
80002cda:	1e5a      	subs	r2, r3, #1
80002cdc:	6b7b      	ldr	r3, [r7, #52]	; 0x34
80002cde:	4413      	add	r3, r2
80002ce0:	663b      	str	r3, [r7, #96]	; 0x60
80002ce2:	6b7b      	ldr	r3, [r7, #52]	; 0x34
80002ce4:	1e5a      	subs	r2, r3, #1
80002ce6:	6e3b      	ldr	r3, [r7, #96]	; 0x60
80002ce8:	4293      	cmp	r3, r2
80002cea:	f080 8346 	bcs.w	8000337a <vsnprintf+0x6ca>
80002cee:	f04f 33ff 	mov.w	r3, #4294967295	; 0xffffffff
80002cf2:	663b      	str	r3, [r7, #96]	; 0x60
80002cf4:	6e3a      	ldr	r2, [r7, #96]	; 0x60
80002cf6:	6b7b      	ldr	r3, [r7, #52]	; 0x34
80002cf8:	1ad3      	subs	r3, r2, r3
80002cfa:	3301      	adds	r3, #1
80002cfc:	633b      	str	r3, [r7, #48]	; 0x30
80002cfe:	e33c      	b.n	8000337a <vsnprintf+0x6ca>
80002d00:	6afb      	ldr	r3, [r7, #44]	; 0x2c
80002d02:	781b      	ldrb	r3, [r3, #0]
80002d04:	2b25      	cmp	r3, #37	; 0x25
80002d06:	d00b      	beq.n	80002d20 <vsnprintf+0x70>
80002d08:	6e7a      	ldr	r2, [r7, #100]	; 0x64
80002d0a:	6e3b      	ldr	r3, [r7, #96]	; 0x60
80002d0c:	429a      	cmp	r2, r3
80002d0e:	d803      	bhi.n	80002d18 <vsnprintf+0x68>
80002d10:	6afb      	ldr	r3, [r7, #44]	; 0x2c
80002d12:	781b      	ldrb	r3, [r3, #0]
80002d14:	6e7a      	ldr	r2, [r7, #100]	; 0x64
80002d16:	7013      	strb	r3, [r2, #0]
80002d18:	6e7b      	ldr	r3, [r7, #100]	; 0x64
80002d1a:	3301      	adds	r3, #1
80002d1c:	667b      	str	r3, [r7, #100]	; 0x64
80002d1e:	e329      	b.n	80003374 <vsnprintf+0x6c4>
80002d20:	2300      	movs	r3, #0
80002d22:	65bb      	str	r3, [r7, #88]	; 0x58
80002d24:	6afb      	ldr	r3, [r7, #44]	; 0x2c
80002d26:	3301      	adds	r3, #1
80002d28:	62fb      	str	r3, [r7, #44]	; 0x2c
80002d2a:	6afb      	ldr	r3, [r7, #44]	; 0x2c
80002d2c:	781b      	ldrb	r3, [r3, #0]
80002d2e:	3b20      	subs	r3, #32
80002d30:	2b10      	cmp	r3, #16
80002d32:	d840      	bhi.n	80002db6 <vsnprintf+0x106>
80002d34:	a202      	add	r2, pc, #8	; (adr r2, 80002d40 <vsnprintf+0x90>)
80002d36:	f852 3023 	ldr.w	r3, [r2, r3, lsl #2]
80002d3a:	441a      	add	r2, r3
80002d3c:	4710      	bx	r2
80002d3e:	bf00      	nop
80002d40:	00000059 	andeq	r0, r0, r9, asr r0
80002d44:	00000077 	andeq	r0, r0, r7, ror r0
80002d48:	00000077 	andeq	r0, r0, r7, ror r0
80002d4c:	00000063 	andeq	r0, r0, r3, rrx
80002d50:	00000077 	andeq	r0, r0, r7, ror r0
80002d54:	00000077 	andeq	r0, r0, r7, ror r0
80002d58:	00000077 	andeq	r0, r0, r7, ror r0
80002d5c:	00000077 	andeq	r0, r0, r7, ror r0
80002d60:	00000077 	andeq	r0, r0, r7, ror r0
80002d64:	00000077 	andeq	r0, r0, r7, ror r0
80002d68:	00000077 	andeq	r0, r0, r7, ror r0
80002d6c:	0000004f 	andeq	r0, r0, pc, asr #32
80002d70:	00000077 	andeq	r0, r0, r7, ror r0
80002d74:	00000045 	andeq	r0, r0, r5, asr #32
80002d78:	00000077 	andeq	r0, r0, r7, ror r0
80002d7c:	00000077 	andeq	r0, r0, r7, ror r0
80002d80:	0000006d 	andeq	r0, r0, sp, rrx
80002d84:	6dbb      	ldr	r3, [r7, #88]	; 0x58
80002d86:	f043 0310 	orr.w	r3, r3, #16
80002d8a:	65bb      	str	r3, [r7, #88]	; 0x58
80002d8c:	e7ca      	b.n	80002d24 <vsnprintf+0x74>
80002d8e:	6dbb      	ldr	r3, [r7, #88]	; 0x58
80002d90:	f043 0304 	orr.w	r3, r3, #4
80002d94:	65bb      	str	r3, [r7, #88]	; 0x58
80002d96:	e7c5      	b.n	80002d24 <vsnprintf+0x74>
80002d98:	6dbb      	ldr	r3, [r7, #88]	; 0x58
80002d9a:	f043 0308 	orr.w	r3, r3, #8
80002d9e:	65bb      	str	r3, [r7, #88]	; 0x58
80002da0:	e7c0      	b.n	80002d24 <vsnprintf+0x74>
80002da2:	6dbb      	ldr	r3, [r7, #88]	; 0x58
80002da4:	f043 0320 	orr.w	r3, r3, #32
80002da8:	65bb      	str	r3, [r7, #88]	; 0x58
80002daa:	e7bb      	b.n	80002d24 <vsnprintf+0x74>
80002dac:	6dbb      	ldr	r3, [r7, #88]	; 0x58
80002dae:	f043 0301 	orr.w	r3, r3, #1
80002db2:	65bb      	str	r3, [r7, #88]	; 0x58
80002db4:	e7b6      	b.n	80002d24 <vsnprintf+0x74>
80002db6:	f04f 33ff 	mov.w	r3, #4294967295	; 0xffffffff
80002dba:	657b      	str	r3, [r7, #84]	; 0x54
80002dbc:	6afb      	ldr	r3, [r7, #44]	; 0x2c
80002dbe:	781b      	ldrb	r3, [r3, #0]
80002dc0:	461a      	mov	r2, r3
80002dc2:	f8df 35f0 	ldr.w	r3, [pc, #1520]	; 800033b4 <vsnprintf+0x704>
80002dc6:	58e3      	ldr	r3, [r4, r3]
80002dc8:	5c9b      	ldrb	r3, [r3, r2]
80002dca:	f003 0304 	and.w	r3, r3, #4
80002dce:	2b00      	cmp	r3, #0
80002dd0:	d006      	beq.n	80002de0 <vsnprintf+0x130>
80002dd2:	f107 032c 	add.w	r3, r7, #44	; 0x2c
80002dd6:	4618      	mov	r0, r3
80002dd8:	f7ff fc06 	bl	800025e8 <skip_atoi>
80002ddc:	6578      	str	r0, [r7, #84]	; 0x54
80002dde:	e017      	b.n	80002e10 <vsnprintf+0x160>
80002de0:	6afb      	ldr	r3, [r7, #44]	; 0x2c
80002de2:	781b      	ldrb	r3, [r3, #0]
80002de4:	2b2a      	cmp	r3, #42	; 0x2a
80002de6:	d113      	bne.n	80002e10 <vsnprintf+0x160>
80002de8:	6afb      	ldr	r3, [r7, #44]	; 0x2c
80002dea:	3301      	adds	r3, #1
80002dec:	62fb      	str	r3, [r7, #44]	; 0x2c
80002dee:	6abb      	ldr	r3, [r7, #40]	; 0x28
80002df0:	3304      	adds	r3, #4
80002df2:	62bb      	str	r3, [r7, #40]	; 0x28
80002df4:	6abb      	ldr	r3, [r7, #40]	; 0x28
80002df6:	f853 3c04 	ldr.w	r3, [r3, #-4]
80002dfa:	657b      	str	r3, [r7, #84]	; 0x54
80002dfc:	6d7b      	ldr	r3, [r7, #84]	; 0x54
80002dfe:	2b00      	cmp	r3, #0
80002e00:	da06      	bge.n	80002e10 <vsnprintf+0x160>
80002e02:	6d7b      	ldr	r3, [r7, #84]	; 0x54
80002e04:	425b      	negs	r3, r3
80002e06:	657b      	str	r3, [r7, #84]	; 0x54
80002e08:	6dbb      	ldr	r3, [r7, #88]	; 0x58
80002e0a:	f043 0310 	orr.w	r3, r3, #16
80002e0e:	65bb      	str	r3, [r7, #88]	; 0x58
80002e10:	f04f 33ff 	mov.w	r3, #4294967295	; 0xffffffff
80002e14:	653b      	str	r3, [r7, #80]	; 0x50
80002e16:	6afb      	ldr	r3, [r7, #44]	; 0x2c
80002e18:	781b      	ldrb	r3, [r3, #0]
80002e1a:	2b2e      	cmp	r3, #46	; 0x2e
80002e1c:	d127      	bne.n	80002e6e <vsnprintf+0x1be>
80002e1e:	6afb      	ldr	r3, [r7, #44]	; 0x2c
80002e20:	3301      	adds	r3, #1
80002e22:	62fb      	str	r3, [r7, #44]	; 0x2c
80002e24:	6afb      	ldr	r3, [r7, #44]	; 0x2c
80002e26:	781b      	ldrb	r3, [r3, #0]
80002e28:	461a      	mov	r2, r3
80002e2a:	f8df 3588 	ldr.w	r3, [pc, #1416]	; 800033b4 <vsnprintf+0x704>
80002e2e:	58e3      	ldr	r3, [r4, r3]
80002e30:	5c9b      	ldrb	r3, [r3, r2]
80002e32:	f003 0304 	and.w	r3, r3, #4
80002e36:	2b00      	cmp	r3, #0
80002e38:	d006      	beq.n	80002e48 <vsnprintf+0x198>
80002e3a:	f107 032c 	add.w	r3, r7, #44	; 0x2c
80002e3e:	4618      	mov	r0, r3
80002e40:	f7ff fbd2 	bl	800025e8 <skip_atoi>
80002e44:	6538      	str	r0, [r7, #80]	; 0x50
80002e46:	e00d      	b.n	80002e64 <vsnprintf+0x1b4>
80002e48:	6afb      	ldr	r3, [r7, #44]	; 0x2c
80002e4a:	781b      	ldrb	r3, [r3, #0]
80002e4c:	2b2a      	cmp	r3, #42	; 0x2a
80002e4e:	d109      	bne.n	80002e64 <vsnprintf+0x1b4>
80002e50:	6afb      	ldr	r3, [r7, #44]	; 0x2c
80002e52:	3301      	adds	r3, #1
80002e54:	62fb      	str	r3, [r7, #44]	; 0x2c
80002e56:	6abb      	ldr	r3, [r7, #40]	; 0x28
80002e58:	3304      	adds	r3, #4
80002e5a:	62bb      	str	r3, [r7, #40]	; 0x28
80002e5c:	6abb      	ldr	r3, [r7, #40]	; 0x28
80002e5e:	f853 3c04 	ldr.w	r3, [r3, #-4]
80002e62:	653b      	str	r3, [r7, #80]	; 0x50
80002e64:	6d3b      	ldr	r3, [r7, #80]	; 0x50
80002e66:	2b00      	cmp	r3, #0
80002e68:	da01      	bge.n	80002e6e <vsnprintf+0x1be>
80002e6a:	2300      	movs	r3, #0
80002e6c:	653b      	str	r3, [r7, #80]	; 0x50
80002e6e:	f04f 33ff 	mov.w	r3, #4294967295	; 0xffffffff
80002e72:	64fb      	str	r3, [r7, #76]	; 0x4c
80002e74:	6afb      	ldr	r3, [r7, #44]	; 0x2c
80002e76:	781b      	ldrb	r3, [r3, #0]
80002e78:	2b68      	cmp	r3, #104	; 0x68
80002e7a:	d00f      	beq.n	80002e9c <vsnprintf+0x1ec>
80002e7c:	6afb      	ldr	r3, [r7, #44]	; 0x2c
80002e7e:	781b      	ldrb	r3, [r3, #0]
80002e80:	2b6c      	cmp	r3, #108	; 0x6c
80002e82:	d00b      	beq.n	80002e9c <vsnprintf+0x1ec>
80002e84:	6afb      	ldr	r3, [r7, #44]	; 0x2c
80002e86:	781b      	ldrb	r3, [r3, #0]
80002e88:	2b4c      	cmp	r3, #76	; 0x4c
80002e8a:	d007      	beq.n	80002e9c <vsnprintf+0x1ec>
80002e8c:	6afb      	ldr	r3, [r7, #44]	; 0x2c
80002e8e:	781b      	ldrb	r3, [r3, #0]
80002e90:	2b5a      	cmp	r3, #90	; 0x5a
80002e92:	d003      	beq.n	80002e9c <vsnprintf+0x1ec>
80002e94:	6afb      	ldr	r3, [r7, #44]	; 0x2c
80002e96:	781b      	ldrb	r3, [r3, #0]
80002e98:	2b7a      	cmp	r3, #122	; 0x7a
80002e9a:	d111      	bne.n	80002ec0 <vsnprintf+0x210>
80002e9c:	6afb      	ldr	r3, [r7, #44]	; 0x2c
80002e9e:	781b      	ldrb	r3, [r3, #0]
80002ea0:	64fb      	str	r3, [r7, #76]	; 0x4c
80002ea2:	6afb      	ldr	r3, [r7, #44]	; 0x2c
80002ea4:	3301      	adds	r3, #1
80002ea6:	62fb      	str	r3, [r7, #44]	; 0x2c
80002ea8:	6cfb      	ldr	r3, [r7, #76]	; 0x4c
80002eaa:	2b6c      	cmp	r3, #108	; 0x6c
80002eac:	d108      	bne.n	80002ec0 <vsnprintf+0x210>
80002eae:	6afb      	ldr	r3, [r7, #44]	; 0x2c
80002eb0:	781b      	ldrb	r3, [r3, #0]
80002eb2:	2b6c      	cmp	r3, #108	; 0x6c
80002eb4:	d104      	bne.n	80002ec0 <vsnprintf+0x210>
80002eb6:	234c      	movs	r3, #76	; 0x4c
80002eb8:	64fb      	str	r3, [r7, #76]	; 0x4c
80002eba:	6afb      	ldr	r3, [r7, #44]	; 0x2c
80002ebc:	3301      	adds	r3, #1
80002ebe:	62fb      	str	r3, [r7, #44]	; 0x2c
80002ec0:	230a      	movs	r3, #10
80002ec2:	66bb      	str	r3, [r7, #104]	; 0x68
80002ec4:	6afb      	ldr	r3, [r7, #44]	; 0x2c
80002ec6:	781b      	ldrb	r3, [r3, #0]
80002ec8:	3b25      	subs	r3, #37	; 0x25
80002eca:	2b53      	cmp	r3, #83	; 0x53
80002ecc:	f200 81ae 	bhi.w	8000322c <vsnprintf+0x57c>
80002ed0:	a202      	add	r2, pc, #8	; (adr r2, 80002edc <vsnprintf+0x22c>)
80002ed2:	f852 3023 	ldr.w	r3, [r2, r3, lsl #2]
80002ed6:	441a      	add	r2, r3
80002ed8:	4710      	bx	r2
80002eda:	bf00      	nop
80002edc:	0000031d 	andeq	r0, r0, sp, lsl r3
80002ee0:	00000351 	andeq	r0, r0, r1, asr r3
80002ee4:	00000351 	andeq	r0, r0, r1, asr r3
80002ee8:	00000351 	andeq	r0, r0, r1, asr r3
80002eec:	00000351 	andeq	r0, r0, r1, asr r3
80002ef0:	00000351 	andeq	r0, r0, r1, asr r3
80002ef4:	00000351 	andeq	r0, r0, r1, asr r3
80002ef8:	00000351 	andeq	r0, r0, r1, asr r3
80002efc:	00000351 	andeq	r0, r0, r1, asr r3
80002f00:	00000351 	andeq	r0, r0, r1, asr r3
80002f04:	00000351 	andeq	r0, r0, r1, asr r3
80002f08:	00000351 	andeq	r0, r0, r1, asr r3
80002f0c:	00000351 	andeq	r0, r0, r1, asr r3
80002f10:	00000351 	andeq	r0, r0, r1, asr r3
80002f14:	00000351 	andeq	r0, r0, r1, asr r3
80002f18:	00000351 	andeq	r0, r0, r1, asr r3
80002f1c:	00000351 	andeq	r0, r0, r1, asr r3
80002f20:	00000351 	andeq	r0, r0, r1, asr r3
80002f24:	00000351 	andeq	r0, r0, r1, asr r3
80002f28:	00000351 	andeq	r0, r0, r1, asr r3
80002f2c:	00000351 	andeq	r0, r0, r1, asr r3
80002f30:	00000351 	andeq	r0, r0, r1, asr r3
80002f34:	00000351 	andeq	r0, r0, r1, asr r3
80002f38:	00000351 	andeq	r0, r0, r1, asr r3
80002f3c:	00000351 	andeq	r0, r0, r1, asr r3
80002f40:	00000351 	andeq	r0, r0, r1, asr r3
80002f44:	00000351 	andeq	r0, r0, r1, asr r3
80002f48:	00000351 	andeq	r0, r0, r1, asr r3
80002f4c:	00000351 	andeq	r0, r0, r1, asr r3
80002f50:	00000351 	andeq	r0, r0, r1, asr r3
80002f54:	00000351 	andeq	r0, r0, r1, asr r3
80002f58:	00000351 	andeq	r0, r0, r1, asr r3
80002f5c:	00000351 	andeq	r0, r0, r1, asr r3
80002f60:	00000351 	andeq	r0, r0, r1, asr r3
80002f64:	00000351 	andeq	r0, r0, r1, asr r3
80002f68:	00000351 	andeq	r0, r0, r1, asr r3
80002f6c:	00000351 	andeq	r0, r0, r1, asr r3
80002f70:	00000351 	andeq	r0, r0, r1, asr r3
80002f74:	00000351 	andeq	r0, r0, r1, asr r3
80002f78:	00000351 	andeq	r0, r0, r1, asr r3
80002f7c:	00000351 	andeq	r0, r0, r1, asr r3
80002f80:	00000351 	andeq	r0, r0, r1, asr r3
80002f84:	00000351 	andeq	r0, r0, r1, asr r3
80002f88:	00000351 	andeq	r0, r0, r1, asr r3
80002f8c:	00000351 	andeq	r0, r0, r1, asr r3
80002f90:	00000351 	andeq	r0, r0, r1, asr r3
80002f94:	00000351 	andeq	r0, r0, r1, asr r3
80002f98:	00000351 	andeq	r0, r0, r1, asr r3
80002f9c:	00000351 	andeq	r0, r0, r1, asr r3
80002fa0:	00000351 	andeq	r0, r0, r1, asr r3
80002fa4:	00000351 	andeq	r0, r0, r1, asr r3
80002fa8:	00000339 	andeq	r0, r0, r9, lsr r3
80002fac:	00000351 	andeq	r0, r0, r1, asr r3
80002fb0:	00000351 	andeq	r0, r0, r1, asr r3
80002fb4:	00000351 	andeq	r0, r0, r1, asr r3
80002fb8:	00000351 	andeq	r0, r0, r1, asr r3
80002fbc:	00000351 	andeq	r0, r0, r1, asr r3
80002fc0:	00000351 	andeq	r0, r0, r1, asr r3
80002fc4:	00000351 	andeq	r0, r0, r1, asr r3
80002fc8:	00000351 	andeq	r0, r0, r1, asr r3
80002fcc:	00000351 	andeq	r0, r0, r1, asr r3
80002fd0:	00000351 	andeq	r0, r0, r1, asr r3
80002fd4:	00000151 	andeq	r0, r0, r1, asr r1
80002fd8:	00000347 	andeq	r0, r0, r7, asr #6
80002fdc:	00000351 	andeq	r0, r0, r1, asr r3
80002fe0:	00000351 	andeq	r0, r0, r1, asr r3
80002fe4:	00000351 	andeq	r0, r0, r1, asr r3
80002fe8:	00000351 	andeq	r0, r0, r1, asr r3
80002fec:	00000347 	andeq	r0, r0, r7, asr #6
80002ff0:	00000351 	andeq	r0, r0, r1, asr r3
80002ff4:	00000351 	andeq	r0, r0, r1, asr r3
80002ff8:	00000351 	andeq	r0, r0, r1, asr r3
80002ffc:	00000351 	andeq	r0, r0, r1, asr r3
80003000:	000002b9 			; <UNDEFINED> instruction: 0x000002b9
80003004:	00000333 	andeq	r0, r0, r3, lsr r3
80003008:	00000271 	andeq	r0, r0, r1, ror r2
8000300c:	00000351 	andeq	r0, r0, r1, asr r3
80003010:	00000351 	andeq	r0, r0, r1, asr r3
80003014:	000001c7 	andeq	r0, r0, r7, asr #3
80003018:	00000351 	andeq	r0, r0, r1, asr r3
8000301c:	0000038d 	andeq	r0, r0, sp, lsl #7
80003020:	00000351 	andeq	r0, r0, r1, asr r3
80003024:	00000351 	andeq	r0, r0, r1, asr r3
80003028:	00000341 	andeq	r0, r0, r1, asr #6
8000302c:	6dbb      	ldr	r3, [r7, #88]	; 0x58
8000302e:	f003 0310 	and.w	r3, r3, #16
80003032:	2b00      	cmp	r3, #0
80003034:	d110      	bne.n	80003058 <vsnprintf+0x3a8>
80003036:	e009      	b.n	8000304c <vsnprintf+0x39c>
80003038:	6e7a      	ldr	r2, [r7, #100]	; 0x64
8000303a:	6e3b      	ldr	r3, [r7, #96]	; 0x60
8000303c:	429a      	cmp	r2, r3
8000303e:	d802      	bhi.n	80003046 <vsnprintf+0x396>
80003040:	6e7a      	ldr	r2, [r7, #100]	; 0x64
80003042:	2320      	movs	r3, #32
80003044:	7013      	strb	r3, [r2, #0]
80003046:	6e7b      	ldr	r3, [r7, #100]	; 0x64
80003048:	3301      	adds	r3, #1
8000304a:	667b      	str	r3, [r7, #100]	; 0x64
8000304c:	6d7b      	ldr	r3, [r7, #84]	; 0x54
8000304e:	3b01      	subs	r3, #1
80003050:	657b      	str	r3, [r7, #84]	; 0x54
80003052:	6d7b      	ldr	r3, [r7, #84]	; 0x54
80003054:	2b00      	cmp	r3, #0
80003056:	dcef      	bgt.n	80003038 <vsnprintf+0x388>
80003058:	6abb      	ldr	r3, [r7, #40]	; 0x28
8000305a:	3304      	adds	r3, #4
8000305c:	62bb      	str	r3, [r7, #40]	; 0x28
8000305e:	6abb      	ldr	r3, [r7, #40]	; 0x28
80003060:	3b04      	subs	r3, #4
80003062:	681b      	ldr	r3, [r3, #0]
80003064:	f887 303b 	strb.w	r3, [r7, #59]	; 0x3b
80003068:	6e7a      	ldr	r2, [r7, #100]	; 0x64
8000306a:	6e3b      	ldr	r3, [r7, #96]	; 0x60
8000306c:	429a      	cmp	r2, r3
8000306e:	d803      	bhi.n	80003078 <vsnprintf+0x3c8>
80003070:	6e7a      	ldr	r2, [r7, #100]	; 0x64
80003072:	f897 303b 	ldrb.w	r3, [r7, #59]	; 0x3b
80003076:	7013      	strb	r3, [r2, #0]
80003078:	6e7b      	ldr	r3, [r7, #100]	; 0x64
8000307a:	3301      	adds	r3, #1
8000307c:	667b      	str	r3, [r7, #100]	; 0x64
8000307e:	e009      	b.n	80003094 <vsnprintf+0x3e4>
80003080:	6e7a      	ldr	r2, [r7, #100]	; 0x64
80003082:	6e3b      	ldr	r3, [r7, #96]	; 0x60
80003084:	429a      	cmp	r2, r3
80003086:	d802      	bhi.n	8000308e <vsnprintf+0x3de>
80003088:	6e7a      	ldr	r2, [r7, #100]	; 0x64
8000308a:	2320      	movs	r3, #32
8000308c:	7013      	strb	r3, [r2, #0]
8000308e:	6e7b      	ldr	r3, [r7, #100]	; 0x64
80003090:	3301      	adds	r3, #1
80003092:	667b      	str	r3, [r7, #100]	; 0x64
80003094:	6d7b      	ldr	r3, [r7, #84]	; 0x54
80003096:	3b01      	subs	r3, #1
80003098:	657b      	str	r3, [r7, #84]	; 0x54
8000309a:	6d7b      	ldr	r3, [r7, #84]	; 0x54
8000309c:	2b00      	cmp	r3, #0
8000309e:	dcef      	bgt.n	80003080 <vsnprintf+0x3d0>
800030a0:	e168      	b.n	80003374 <vsnprintf+0x6c4>
800030a2:	6abb      	ldr	r3, [r7, #40]	; 0x28
800030a4:	3304      	adds	r3, #4
800030a6:	62bb      	str	r3, [r7, #40]	; 0x28
800030a8:	6abb      	ldr	r3, [r7, #40]	; 0x28
800030aa:	f853 3c04 	ldr.w	r3, [r3, #-4]
800030ae:	65fb      	str	r3, [r7, #92]	; 0x5c
800030b0:	6dfb      	ldr	r3, [r7, #92]	; 0x5c
800030b2:	f5b3 6f80 	cmp.w	r3, #1024	; 0x400
800030b6:	d202      	bcs.n	800030be <vsnprintf+0x40e>
800030b8:	4bbf      	ldr	r3, [pc, #764]	; (800033b8 <vsnprintf+0x708>)
800030ba:	447b      	add	r3, pc
800030bc:	65fb      	str	r3, [r7, #92]	; 0x5c
800030be:	6d3b      	ldr	r3, [r7, #80]	; 0x50
800030c0:	4619      	mov	r1, r3
800030c2:	6df8      	ldr	r0, [r7, #92]	; 0x5c
800030c4:	f7fe fee3 	bl	80001e8e <strnlen>
800030c8:	4603      	mov	r3, r0
800030ca:	64bb      	str	r3, [r7, #72]	; 0x48
800030cc:	6dbb      	ldr	r3, [r7, #88]	; 0x58
800030ce:	f003 0310 	and.w	r3, r3, #16
800030d2:	2b00      	cmp	r3, #0
800030d4:	d110      	bne.n	800030f8 <vsnprintf+0x448>
800030d6:	e009      	b.n	800030ec <vsnprintf+0x43c>
800030d8:	6e7a      	ldr	r2, [r7, #100]	; 0x64
800030da:	6e3b      	ldr	r3, [r7, #96]	; 0x60
800030dc:	429a      	cmp	r2, r3
800030de:	d802      	bhi.n	800030e6 <vsnprintf+0x436>
800030e0:	6e7a      	ldr	r2, [r7, #100]	; 0x64
800030e2:	2320      	movs	r3, #32
800030e4:	7013      	strb	r3, [r2, #0]
800030e6:	6e7b      	ldr	r3, [r7, #100]	; 0x64
800030e8:	3301      	adds	r3, #1
800030ea:	667b      	str	r3, [r7, #100]	; 0x64
800030ec:	6d7a      	ldr	r2, [r7, #84]	; 0x54
800030ee:	1e53      	subs	r3, r2, #1
800030f0:	657b      	str	r3, [r7, #84]	; 0x54
800030f2:	6cbb      	ldr	r3, [r7, #72]	; 0x48
800030f4:	4293      	cmp	r3, r2
800030f6:	dbef      	blt.n	800030d8 <vsnprintf+0x428>
800030f8:	2300      	movs	r3, #0
800030fa:	66fb      	str	r3, [r7, #108]	; 0x6c
800030fc:	e010      	b.n	80003120 <vsnprintf+0x470>
800030fe:	6e7a      	ldr	r2, [r7, #100]	; 0x64
80003100:	6e3b      	ldr	r3, [r7, #96]	; 0x60
80003102:	429a      	cmp	r2, r3
80003104:	d803      	bhi.n	8000310e <vsnprintf+0x45e>
80003106:	6dfb      	ldr	r3, [r7, #92]	; 0x5c
80003108:	781b      	ldrb	r3, [r3, #0]
8000310a:	6e7a      	ldr	r2, [r7, #100]	; 0x64
8000310c:	7013      	strb	r3, [r2, #0]
8000310e:	6e7b      	ldr	r3, [r7, #100]	; 0x64
80003110:	3301      	adds	r3, #1
80003112:	667b      	str	r3, [r7, #100]	; 0x64
80003114:	6dfb      	ldr	r3, [r7, #92]	; 0x5c
80003116:	3301      	adds	r3, #1
80003118:	65fb      	str	r3, [r7, #92]	; 0x5c
8000311a:	6efb      	ldr	r3, [r7, #108]	; 0x6c
8000311c:	3301      	adds	r3, #1
8000311e:	66fb      	str	r3, [r7, #108]	; 0x6c
80003120:	6efa      	ldr	r2, [r7, #108]	; 0x6c
80003122:	6cbb      	ldr	r3, [r7, #72]	; 0x48
80003124:	429a      	cmp	r2, r3
80003126:	dbea      	blt.n	800030fe <vsnprintf+0x44e>
80003128:	e009      	b.n	8000313e <vsnprintf+0x48e>
8000312a:	6e7a      	ldr	r2, [r7, #100]	; 0x64
8000312c:	6e3b      	ldr	r3, [r7, #96]	; 0x60
8000312e:	429a      	cmp	r2, r3
80003130:	d802      	bhi.n	80003138 <vsnprintf+0x488>
80003132:	6e7a      	ldr	r2, [r7, #100]	; 0x64
80003134:	2320      	movs	r3, #32
80003136:	7013      	strb	r3, [r2, #0]
80003138:	6e7b      	ldr	r3, [r7, #100]	; 0x64
8000313a:	3301      	adds	r3, #1
8000313c:	667b      	str	r3, [r7, #100]	; 0x64
8000313e:	6d7a      	ldr	r2, [r7, #84]	; 0x54
80003140:	1e53      	subs	r3, r2, #1
80003142:	657b      	str	r3, [r7, #84]	; 0x54
80003144:	6cbb      	ldr	r3, [r7, #72]	; 0x48
80003146:	4293      	cmp	r3, r2
80003148:	dbef      	blt.n	8000312a <vsnprintf+0x47a>
8000314a:	e113      	b.n	80003374 <vsnprintf+0x6c4>
8000314c:	6d7b      	ldr	r3, [r7, #84]	; 0x54
8000314e:	f1b3 3fff 	cmp.w	r3, #4294967295	; 0xffffffff
80003152:	d105      	bne.n	80003160 <vsnprintf+0x4b0>
80003154:	2308      	movs	r3, #8
80003156:	657b      	str	r3, [r7, #84]	; 0x54
80003158:	6dbb      	ldr	r3, [r7, #88]	; 0x58
8000315a:	f043 0301 	orr.w	r3, r3, #1
8000315e:	65bb      	str	r3, [r7, #88]	; 0x58
80003160:	6abb      	ldr	r3, [r7, #40]	; 0x28
80003162:	3304      	adds	r3, #4
80003164:	62bb      	str	r3, [r7, #40]	; 0x28
80003166:	6abb      	ldr	r3, [r7, #40]	; 0x28
80003168:	3b04      	subs	r3, #4
8000316a:	681b      	ldr	r3, [r3, #0]
8000316c:	461a      	mov	r2, r3
8000316e:	2300      	movs	r3, #0
80003170:	623a      	str	r2, [r7, #32]
80003172:	627b      	str	r3, [r7, #36]	; 0x24
80003174:	6dbb      	ldr	r3, [r7, #88]	; 0x58
80003176:	9303      	str	r3, [sp, #12]
80003178:	6d3b      	ldr	r3, [r7, #80]	; 0x50
8000317a:	9302      	str	r3, [sp, #8]
8000317c:	6d7b      	ldr	r3, [r7, #84]	; 0x54
8000317e:	9301      	str	r3, [sp, #4]
80003180:	2310      	movs	r3, #16
80003182:	9300      	str	r3, [sp, #0]
80003184:	e9d7 2308 	ldrd	r2, r3, [r7, #32]
80003188:	6e39      	ldr	r1, [r7, #96]	; 0x60
8000318a:	6e78      	ldr	r0, [r7, #100]	; 0x64
8000318c:	f7ff fbed 	bl	8000296a <number>
80003190:	6678      	str	r0, [r7, #100]	; 0x64
80003192:	e0ef      	b.n	80003374 <vsnprintf+0x6c4>
80003194:	6cfb      	ldr	r3, [r7, #76]	; 0x4c
80003196:	2b6c      	cmp	r3, #108	; 0x6c
80003198:	d10c      	bne.n	800031b4 <vsnprintf+0x504>
8000319a:	6abb      	ldr	r3, [r7, #40]	; 0x28
8000319c:	3304      	adds	r3, #4
8000319e:	62bb      	str	r3, [r7, #40]	; 0x28
800031a0:	6abb      	ldr	r3, [r7, #40]	; 0x28
800031a2:	f853 3c04 	ldr.w	r3, [r3, #-4]
800031a6:	63fb      	str	r3, [r7, #60]	; 0x3c
800031a8:	6e7a      	ldr	r2, [r7, #100]	; 0x64
800031aa:	6b7b      	ldr	r3, [r7, #52]	; 0x34
800031ac:	1ad2      	subs	r2, r2, r3
800031ae:	6bfb      	ldr	r3, [r7, #60]	; 0x3c
800031b0:	601a      	str	r2, [r3, #0]
800031b2:	e0df      	b.n	80003374 <vsnprintf+0x6c4>
800031b4:	6cfb      	ldr	r3, [r7, #76]	; 0x4c
800031b6:	2b5a      	cmp	r3, #90	; 0x5a
800031b8:	d002      	beq.n	800031c0 <vsnprintf+0x510>
800031ba:	6cfb      	ldr	r3, [r7, #76]	; 0x4c
800031bc:	2b7a      	cmp	r3, #122	; 0x7a
800031be:	d10e      	bne.n	800031de <vsnprintf+0x52e>
800031c0:	6abb      	ldr	r3, [r7, #40]	; 0x28
800031c2:	3304      	adds	r3, #4
800031c4:	62bb      	str	r3, [r7, #40]	; 0x28
800031c6:	6abb      	ldr	r3, [r7, #40]	; 0x28
800031c8:	f853 3c04 	ldr.w	r3, [r3, #-4]
800031cc:	643b      	str	r3, [r7, #64]	; 0x40
800031ce:	6e7a      	ldr	r2, [r7, #100]	; 0x64
800031d0:	6b7b      	ldr	r3, [r7, #52]	; 0x34
800031d2:	1ad3      	subs	r3, r2, r3
800031d4:	461a      	mov	r2, r3
800031d6:	6c3b      	ldr	r3, [r7, #64]	; 0x40
800031d8:	601a      	str	r2, [r3, #0]
800031da:	bf00      	nop
800031dc:	e0ca      	b.n	80003374 <vsnprintf+0x6c4>
800031de:	6abb      	ldr	r3, [r7, #40]	; 0x28
800031e0:	3304      	adds	r3, #4
800031e2:	62bb      	str	r3, [r7, #40]	; 0x28
800031e4:	6abb      	ldr	r3, [r7, #40]	; 0x28
800031e6:	f853 3c04 	ldr.w	r3, [r3, #-4]
800031ea:	647b      	str	r3, [r7, #68]	; 0x44
800031ec:	6e7a      	ldr	r2, [r7, #100]	; 0x64
800031ee:	6b7b      	ldr	r3, [r7, #52]	; 0x34
800031f0:	1ad2      	subs	r2, r2, r3
800031f2:	6c7b      	ldr	r3, [r7, #68]	; 0x44
800031f4:	601a      	str	r2, [r3, #0]
800031f6:	e0bd      	b.n	80003374 <vsnprintf+0x6c4>
800031f8:	6e7a      	ldr	r2, [r7, #100]	; 0x64
800031fa:	6e3b      	ldr	r3, [r7, #96]	; 0x60
800031fc:	429a      	cmp	r2, r3
800031fe:	d802      	bhi.n	80003206 <vsnprintf+0x556>
80003200:	6e7a      	ldr	r2, [r7, #100]	; 0x64
80003202:	2325      	movs	r3, #37	; 0x25
80003204:	7013      	strb	r3, [r2, #0]
80003206:	6e7b      	ldr	r3, [r7, #100]	; 0x64
80003208:	3301      	adds	r3, #1
8000320a:	667b      	str	r3, [r7, #100]	; 0x64
8000320c:	e0b2      	b.n	80003374 <vsnprintf+0x6c4>
8000320e:	2308      	movs	r3, #8
80003210:	66bb      	str	r3, [r7, #104]	; 0x68
80003212:	e02a      	b.n	8000326a <vsnprintf+0x5ba>
80003214:	6dbb      	ldr	r3, [r7, #88]	; 0x58
80003216:	f043 0340 	orr.w	r3, r3, #64	; 0x40
8000321a:	65bb      	str	r3, [r7, #88]	; 0x58
8000321c:	2310      	movs	r3, #16
8000321e:	66bb      	str	r3, [r7, #104]	; 0x68
80003220:	e023      	b.n	8000326a <vsnprintf+0x5ba>
80003222:	6dbb      	ldr	r3, [r7, #88]	; 0x58
80003224:	f043 0302 	orr.w	r3, r3, #2
80003228:	65bb      	str	r3, [r7, #88]	; 0x58
8000322a:	e01d      	b.n	80003268 <vsnprintf+0x5b8>
8000322c:	6e7a      	ldr	r2, [r7, #100]	; 0x64
8000322e:	6e3b      	ldr	r3, [r7, #96]	; 0x60
80003230:	429a      	cmp	r2, r3
80003232:	d802      	bhi.n	8000323a <vsnprintf+0x58a>
80003234:	6e7a      	ldr	r2, [r7, #100]	; 0x64
80003236:	2325      	movs	r3, #37	; 0x25
80003238:	7013      	strb	r3, [r2, #0]
8000323a:	6e7b      	ldr	r3, [r7, #100]	; 0x64
8000323c:	3301      	adds	r3, #1
8000323e:	667b      	str	r3, [r7, #100]	; 0x64
80003240:	6afb      	ldr	r3, [r7, #44]	; 0x2c
80003242:	781b      	ldrb	r3, [r3, #0]
80003244:	2b00      	cmp	r3, #0
80003246:	d00b      	beq.n	80003260 <vsnprintf+0x5b0>
80003248:	6e7a      	ldr	r2, [r7, #100]	; 0x64
8000324a:	6e3b      	ldr	r3, [r7, #96]	; 0x60
8000324c:	429a      	cmp	r2, r3
8000324e:	d803      	bhi.n	80003258 <vsnprintf+0x5a8>
80003250:	6afb      	ldr	r3, [r7, #44]	; 0x2c
80003252:	781b      	ldrb	r3, [r3, #0]
80003254:	6e7a      	ldr	r2, [r7, #100]	; 0x64
80003256:	7013      	strb	r3, [r2, #0]
80003258:	6e7b      	ldr	r3, [r7, #100]	; 0x64
8000325a:	3301      	adds	r3, #1
8000325c:	667b      	str	r3, [r7, #100]	; 0x64
8000325e:	e089      	b.n	80003374 <vsnprintf+0x6c4>
80003260:	6afb      	ldr	r3, [r7, #44]	; 0x2c
80003262:	3b01      	subs	r3, #1
80003264:	62fb      	str	r3, [r7, #44]	; 0x2c
80003266:	e085      	b.n	80003374 <vsnprintf+0x6c4>
80003268:	bf00      	nop
8000326a:	6cfb      	ldr	r3, [r7, #76]	; 0x4c
8000326c:	2b4c      	cmp	r3, #76	; 0x4c
8000326e:	d108      	bne.n	80003282 <vsnprintf+0x5d2>
80003270:	6abb      	ldr	r3, [r7, #40]	; 0x28
80003272:	3308      	adds	r3, #8
80003274:	62bb      	str	r3, [r7, #40]	; 0x28
80003276:	6abb      	ldr	r3, [r7, #40]	; 0x28
80003278:	e953 2302 	ldrd	r2, r3, [r3, #-8]
8000327c:	e9c7 231c 	strd	r2, r3, [r7, #112]	; 0x70
80003280:	e067      	b.n	80003352 <vsnprintf+0x6a2>
80003282:	6cfb      	ldr	r3, [r7, #76]	; 0x4c
80003284:	2b6c      	cmp	r3, #108	; 0x6c
80003286:	d118      	bne.n	800032ba <vsnprintf+0x60a>
80003288:	6abb      	ldr	r3, [r7, #40]	; 0x28
8000328a:	3304      	adds	r3, #4
8000328c:	62bb      	str	r3, [r7, #40]	; 0x28
8000328e:	6abb      	ldr	r3, [r7, #40]	; 0x28
80003290:	3b04      	subs	r3, #4
80003292:	681b      	ldr	r3, [r3, #0]
80003294:	2200      	movs	r2, #0
80003296:	61bb      	str	r3, [r7, #24]
80003298:	61fa      	str	r2, [r7, #28]
8000329a:	e9d7 2306 	ldrd	r2, r3, [r7, #24]
8000329e:	e9c7 231c 	strd	r2, r3, [r7, #112]	; 0x70
800032a2:	6dbb      	ldr	r3, [r7, #88]	; 0x58
800032a4:	f003 0302 	and.w	r3, r3, #2
800032a8:	2b00      	cmp	r3, #0
800032aa:	d052      	beq.n	80003352 <vsnprintf+0x6a2>
800032ac:	6f3b      	ldr	r3, [r7, #112]	; 0x70
800032ae:	17da      	asrs	r2, r3, #31
800032b0:	469a      	mov	sl, r3
800032b2:	4693      	mov	fp, r2
800032b4:	e9c7 ab1c 	strd	sl, fp, [r7, #112]	; 0x70
800032b8:	e04b      	b.n	80003352 <vsnprintf+0x6a2>
800032ba:	6cfb      	ldr	r3, [r7, #76]	; 0x4c
800032bc:	2b5a      	cmp	r3, #90	; 0x5a
800032be:	d002      	beq.n	800032c6 <vsnprintf+0x616>
800032c0:	6cfb      	ldr	r3, [r7, #76]	; 0x4c
800032c2:	2b7a      	cmp	r3, #122	; 0x7a
800032c4:	d10b      	bne.n	800032de <vsnprintf+0x62e>
800032c6:	6abb      	ldr	r3, [r7, #40]	; 0x28
800032c8:	3304      	adds	r3, #4
800032ca:	62bb      	str	r3, [r7, #40]	; 0x28
800032cc:	6abb      	ldr	r3, [r7, #40]	; 0x28
800032ce:	3b04      	subs	r3, #4
800032d0:	681b      	ldr	r3, [r3, #0]
800032d2:	2200      	movs	r2, #0
800032d4:	461d      	mov	r5, r3
800032d6:	4616      	mov	r6, r2
800032d8:	e9c7 561c 	strd	r5, r6, [r7, #112]	; 0x70
800032dc:	e039      	b.n	80003352 <vsnprintf+0x6a2>
800032de:	6cfb      	ldr	r3, [r7, #76]	; 0x4c
800032e0:	2b68      	cmp	r3, #104	; 0x68
800032e2:	d11e      	bne.n	80003322 <vsnprintf+0x672>
800032e4:	6abb      	ldr	r3, [r7, #40]	; 0x28
800032e6:	3304      	adds	r3, #4
800032e8:	62bb      	str	r3, [r7, #40]	; 0x28
800032ea:	6abb      	ldr	r3, [r7, #40]	; 0x28
800032ec:	3b04      	subs	r3, #4
800032ee:	681b      	ldr	r3, [r3, #0]
800032f0:	b29b      	uxth	r3, r3
800032f2:	b29b      	uxth	r3, r3
800032f4:	2200      	movs	r2, #0
800032f6:	613b      	str	r3, [r7, #16]
800032f8:	617a      	str	r2, [r7, #20]
800032fa:	e9d7 2304 	ldrd	r2, r3, [r7, #16]
800032fe:	e9c7 231c 	strd	r2, r3, [r7, #112]	; 0x70
80003302:	6dbb      	ldr	r3, [r7, #88]	; 0x58
80003304:	f003 0302 	and.w	r3, r3, #2
80003308:	2b00      	cmp	r3, #0
8000330a:	d022      	beq.n	80003352 <vsnprintf+0x6a2>
8000330c:	f9b7 3070 	ldrsh.w	r3, [r7, #112]	; 0x70
80003310:	b21b      	sxth	r3, r3
80003312:	17da      	asrs	r2, r3, #31
80003314:	60bb      	str	r3, [r7, #8]
80003316:	60fa      	str	r2, [r7, #12]
80003318:	e9d7 2302 	ldrd	r2, r3, [r7, #8]
8000331c:	e9c7 231c 	strd	r2, r3, [r7, #112]	; 0x70
80003320:	e017      	b.n	80003352 <vsnprintf+0x6a2>
80003322:	6abb      	ldr	r3, [r7, #40]	; 0x28
80003324:	3304      	adds	r3, #4
80003326:	62bb      	str	r3, [r7, #40]	; 0x28
80003328:	6abb      	ldr	r3, [r7, #40]	; 0x28
8000332a:	3b04      	subs	r3, #4
8000332c:	681b      	ldr	r3, [r3, #0]
8000332e:	2200      	movs	r2, #0
80003330:	603b      	str	r3, [r7, #0]
80003332:	607a      	str	r2, [r7, #4]
80003334:	e9d7 2300 	ldrd	r2, r3, [r7]
80003338:	e9c7 231c 	strd	r2, r3, [r7, #112]	; 0x70
8000333c:	6dbb      	ldr	r3, [r7, #88]	; 0x58
8000333e:	f003 0302 	and.w	r3, r3, #2
80003342:	2b00      	cmp	r3, #0
80003344:	d005      	beq.n	80003352 <vsnprintf+0x6a2>
80003346:	6f3b      	ldr	r3, [r7, #112]	; 0x70
80003348:	17da      	asrs	r2, r3, #31
8000334a:	4698      	mov	r8, r3
8000334c:	4691      	mov	r9, r2
8000334e:	e9c7 891c 	strd	r8, r9, [r7, #112]	; 0x70
80003352:	e9d7 011c 	ldrd	r0, r1, [r7, #112]	; 0x70
80003356:	6dbb      	ldr	r3, [r7, #88]	; 0x58
80003358:	9303      	str	r3, [sp, #12]
8000335a:	6d3b      	ldr	r3, [r7, #80]	; 0x50
8000335c:	9302      	str	r3, [sp, #8]
8000335e:	6d7b      	ldr	r3, [r7, #84]	; 0x54
80003360:	9301      	str	r3, [sp, #4]
80003362:	6ebb      	ldr	r3, [r7, #104]	; 0x68
80003364:	9300      	str	r3, [sp, #0]
80003366:	4602      	mov	r2, r0
80003368:	460b      	mov	r3, r1
8000336a:	6e39      	ldr	r1, [r7, #96]	; 0x60
8000336c:	6e78      	ldr	r0, [r7, #100]	; 0x64
8000336e:	f7ff fafc 	bl	8000296a <number>
80003372:	6678      	str	r0, [r7, #100]	; 0x64
80003374:	6afb      	ldr	r3, [r7, #44]	; 0x2c
80003376:	3301      	adds	r3, #1
80003378:	62fb      	str	r3, [r7, #44]	; 0x2c
8000337a:	6afb      	ldr	r3, [r7, #44]	; 0x2c
8000337c:	781b      	ldrb	r3, [r3, #0]
8000337e:	2b00      	cmp	r3, #0
80003380:	f47f acbe 	bne.w	80002d00 <vsnprintf+0x50>
80003384:	6e7a      	ldr	r2, [r7, #100]	; 0x64
80003386:	6e3b      	ldr	r3, [r7, #96]	; 0x60
80003388:	429a      	cmp	r2, r3
8000338a:	d803      	bhi.n	80003394 <vsnprintf+0x6e4>
8000338c:	6e7b      	ldr	r3, [r7, #100]	; 0x64
8000338e:	2200      	movs	r2, #0
80003390:	701a      	strb	r2, [r3, #0]
80003392:	e005      	b.n	800033a0 <vsnprintf+0x6f0>
80003394:	6b3b      	ldr	r3, [r7, #48]	; 0x30
80003396:	2b00      	cmp	r3, #0
80003398:	d002      	beq.n	800033a0 <vsnprintf+0x6f0>
8000339a:	6e3b      	ldr	r3, [r7, #96]	; 0x60
8000339c:	2200      	movs	r2, #0
8000339e:	701a      	strb	r2, [r3, #0]
800033a0:	6e7a      	ldr	r2, [r7, #100]	; 0x64
800033a2:	6b7b      	ldr	r3, [r7, #52]	; 0x34
800033a4:	1ad3      	subs	r3, r2, r3
800033a6:	4618      	mov	r0, r3
800033a8:	377c      	adds	r7, #124	; 0x7c
800033aa:	46bd      	mov	sp, r7
800033ac:	e8bd 8ff0 	ldmia.w	sp!, {r4, r5, r6, r7, r8, r9, sl, fp, pc}
800033b0:	00001440 	andeq	r1, r0, r0, asr #8
800033b4:	00000000 	andeq	r0, r0, r0
800033b8:	00000f26 	andeq	r0, r0, r6, lsr #30

800033bc <vscnprintf>:
800033bc:	b580      	push	{r7, lr}
800033be:	b086      	sub	sp, #24
800033c0:	af00      	add	r7, sp, #0
800033c2:	60f8      	str	r0, [r7, #12]
800033c4:	60b9      	str	r1, [r7, #8]
800033c6:	607a      	str	r2, [r7, #4]
800033c8:	603b      	str	r3, [r7, #0]
800033ca:	683b      	ldr	r3, [r7, #0]
800033cc:	687a      	ldr	r2, [r7, #4]
800033ce:	68b9      	ldr	r1, [r7, #8]
800033d0:	68f8      	ldr	r0, [r7, #12]
800033d2:	f7ff fc6d 	bl	80002cb0 <vsnprintf>
800033d6:	6178      	str	r0, [r7, #20]
800033d8:	697b      	ldr	r3, [r7, #20]
800033da:	68ba      	ldr	r2, [r7, #8]
800033dc:	429a      	cmp	r2, r3
800033de:	d802      	bhi.n	800033e6 <vscnprintf+0x2a>
800033e0:	68bb      	ldr	r3, [r7, #8]
800033e2:	3b01      	subs	r3, #1
800033e4:	e000      	b.n	800033e8 <vscnprintf+0x2c>
800033e6:	697b      	ldr	r3, [r7, #20]
800033e8:	4618      	mov	r0, r3
800033ea:	3718      	adds	r7, #24
800033ec:	46bd      	mov	sp, r7
800033ee:	bd80      	pop	{r7, pc}

800033f0 <snprintf>:
800033f0:	b40c      	push	{r2, r3}
800033f2:	b580      	push	{r7, lr}
800033f4:	b084      	sub	sp, #16
800033f6:	af00      	add	r7, sp, #0
800033f8:	6078      	str	r0, [r7, #4]
800033fa:	6039      	str	r1, [r7, #0]
800033fc:	f107 031c 	add.w	r3, r7, #28
80003400:	60fb      	str	r3, [r7, #12]
80003402:	69ba      	ldr	r2, [r7, #24]
80003404:	68fb      	ldr	r3, [r7, #12]
80003406:	6839      	ldr	r1, [r7, #0]
80003408:	6878      	ldr	r0, [r7, #4]
8000340a:	f7ff fc51 	bl	80002cb0 <vsnprintf>
8000340e:	60b8      	str	r0, [r7, #8]
80003410:	68bb      	ldr	r3, [r7, #8]
80003412:	4618      	mov	r0, r3
80003414:	3710      	adds	r7, #16
80003416:	46bd      	mov	sp, r7
80003418:	e8bd 4080 	ldmia.w	sp!, {r7, lr}
8000341c:	b002      	add	sp, #8
8000341e:	4770      	bx	lr

80003420 <scnprintf>:
80003420:	b40c      	push	{r2, r3}
80003422:	b580      	push	{r7, lr}
80003424:	b084      	sub	sp, #16
80003426:	af00      	add	r7, sp, #0
80003428:	6078      	str	r0, [r7, #4]
8000342a:	6039      	str	r1, [r7, #0]
8000342c:	f107 031c 	add.w	r3, r7, #28
80003430:	60fb      	str	r3, [r7, #12]
80003432:	69ba      	ldr	r2, [r7, #24]
80003434:	68fb      	ldr	r3, [r7, #12]
80003436:	6839      	ldr	r1, [r7, #0]
80003438:	6878      	ldr	r0, [r7, #4]
8000343a:	f7ff fc39 	bl	80002cb0 <vsnprintf>
8000343e:	60b8      	str	r0, [r7, #8]
80003440:	68bb      	ldr	r3, [r7, #8]
80003442:	683a      	ldr	r2, [r7, #0]
80003444:	429a      	cmp	r2, r3
80003446:	d802      	bhi.n	8000344e <scnprintf+0x2e>
80003448:	683b      	ldr	r3, [r7, #0]
8000344a:	3b01      	subs	r3, #1
8000344c:	e000      	b.n	80003450 <scnprintf+0x30>
8000344e:	68bb      	ldr	r3, [r7, #8]
80003450:	4618      	mov	r0, r3
80003452:	3710      	adds	r7, #16
80003454:	46bd      	mov	sp, r7
80003456:	e8bd 4080 	ldmia.w	sp!, {r7, lr}
8000345a:	b002      	add	sp, #8
8000345c:	4770      	bx	lr

8000345e <vsprintf>:
8000345e:	b580      	push	{r7, lr}
80003460:	b084      	sub	sp, #16
80003462:	af00      	add	r7, sp, #0
80003464:	60f8      	str	r0, [r7, #12]
80003466:	60b9      	str	r1, [r7, #8]
80003468:	607a      	str	r2, [r7, #4]
8000346a:	687b      	ldr	r3, [r7, #4]
8000346c:	68ba      	ldr	r2, [r7, #8]
8000346e:	f06f 4100 	mvn.w	r1, #2147483648	; 0x80000000
80003472:	68f8      	ldr	r0, [r7, #12]
80003474:	f7ff fc1c 	bl	80002cb0 <vsnprintf>
80003478:	4603      	mov	r3, r0
8000347a:	4618      	mov	r0, r3
8000347c:	3710      	adds	r7, #16
8000347e:	46bd      	mov	sp, r7
80003480:	bd80      	pop	{r7, pc}

80003482 <sprintf>:
80003482:	b40e      	push	{r1, r2, r3}
80003484:	b580      	push	{r7, lr}
80003486:	b085      	sub	sp, #20
80003488:	af00      	add	r7, sp, #0
8000348a:	6078      	str	r0, [r7, #4]
8000348c:	f107 0320 	add.w	r3, r7, #32
80003490:	60fb      	str	r3, [r7, #12]
80003492:	69fb      	ldr	r3, [r7, #28]
80003494:	68fa      	ldr	r2, [r7, #12]
80003496:	4619      	mov	r1, r3
80003498:	6878      	ldr	r0, [r7, #4]
8000349a:	f7ff ffe0 	bl	8000345e <vsprintf>
8000349e:	60b8      	str	r0, [r7, #8]
800034a0:	68bb      	ldr	r3, [r7, #8]
800034a2:	4618      	mov	r0, r3
800034a4:	3714      	adds	r7, #20
800034a6:	46bd      	mov	sp, r7
800034a8:	e8bd 4080 	ldmia.w	sp!, {r7, lr}
800034ac:	b003      	add	sp, #12
800034ae:	4770      	bx	lr

800034b0 <vsscanf>:
800034b0:	b590      	push	{r4, r7, lr}
800034b2:	b09b      	sub	sp, #108	; 0x6c
800034b4:	af00      	add	r7, sp, #0
800034b6:	60f8      	str	r0, [r7, #12]
800034b8:	60b9      	str	r1, [r7, #8]
800034ba:	607a      	str	r2, [r7, #4]
800034bc:	f8df 46d4 	ldr.w	r4, [pc, #1748]	; 80003b94 <vsscanf+0x6e4>
800034c0:	447c      	add	r4, pc
800034c2:	68fb      	ldr	r3, [r7, #12]
800034c4:	667b      	str	r3, [r7, #100]	; 0x64
800034c6:	2300      	movs	r3, #0
800034c8:	65fb      	str	r3, [r7, #92]	; 0x5c
800034ca:	2300      	movs	r3, #0
800034cc:	64fb      	str	r3, [r7, #76]	; 0x4c
800034ce:	e34d      	b.n	80003b6c <vsscanf+0x6bc>
800034d0:	68bb      	ldr	r3, [r7, #8]
800034d2:	781b      	ldrb	r3, [r3, #0]
800034d4:	461a      	mov	r2, r3
800034d6:	f8df 36c0 	ldr.w	r3, [pc, #1728]	; 80003b98 <vsscanf+0x6e8>
800034da:	58e3      	ldr	r3, [r4, r3]
800034dc:	5c9b      	ldrb	r3, [r3, r2]
800034de:	f003 0320 	and.w	r3, r3, #32
800034e2:	2b00      	cmp	r3, #0
800034e4:	d01d      	beq.n	80003522 <vsscanf+0x72>
800034e6:	e002      	b.n	800034ee <vsscanf+0x3e>
800034e8:	68bb      	ldr	r3, [r7, #8]
800034ea:	3301      	adds	r3, #1
800034ec:	60bb      	str	r3, [r7, #8]
800034ee:	68bb      	ldr	r3, [r7, #8]
800034f0:	781b      	ldrb	r3, [r3, #0]
800034f2:	461a      	mov	r2, r3
800034f4:	f8df 36a0 	ldr.w	r3, [pc, #1696]	; 80003b98 <vsscanf+0x6e8>
800034f8:	58e3      	ldr	r3, [r4, r3]
800034fa:	5c9b      	ldrb	r3, [r3, r2]
800034fc:	f003 0320 	and.w	r3, r3, #32
80003500:	2b00      	cmp	r3, #0
80003502:	d1f1      	bne.n	800034e8 <vsscanf+0x38>
80003504:	e002      	b.n	8000350c <vsscanf+0x5c>
80003506:	6e7b      	ldr	r3, [r7, #100]	; 0x64
80003508:	3301      	adds	r3, #1
8000350a:	667b      	str	r3, [r7, #100]	; 0x64
8000350c:	6e7b      	ldr	r3, [r7, #100]	; 0x64
8000350e:	781b      	ldrb	r3, [r3, #0]
80003510:	461a      	mov	r2, r3
80003512:	f8df 3684 	ldr.w	r3, [pc, #1668]	; 80003b98 <vsscanf+0x6e8>
80003516:	58e3      	ldr	r3, [r4, r3]
80003518:	5c9b      	ldrb	r3, [r3, r2]
8000351a:	f003 0320 	and.w	r3, r3, #32
8000351e:	2b00      	cmp	r3, #0
80003520:	d1f1      	bne.n	80003506 <vsscanf+0x56>
80003522:	68bb      	ldr	r3, [r7, #8]
80003524:	781b      	ldrb	r3, [r3, #0]
80003526:	2b25      	cmp	r3, #37	; 0x25
80003528:	d00f      	beq.n	8000354a <vsscanf+0x9a>
8000352a:	68bb      	ldr	r3, [r7, #8]
8000352c:	781b      	ldrb	r3, [r3, #0]
8000352e:	2b00      	cmp	r3, #0
80003530:	d00b      	beq.n	8000354a <vsscanf+0x9a>
80003532:	68bb      	ldr	r3, [r7, #8]
80003534:	1c5a      	adds	r2, r3, #1
80003536:	60ba      	str	r2, [r7, #8]
80003538:	781a      	ldrb	r2, [r3, #0]
8000353a:	6e7b      	ldr	r3, [r7, #100]	; 0x64
8000353c:	1c59      	adds	r1, r3, #1
8000353e:	6679      	str	r1, [r7, #100]	; 0x64
80003540:	781b      	ldrb	r3, [r3, #0]
80003542:	429a      	cmp	r2, r3
80003544:	f040 831c 	bne.w	80003b80 <vsscanf+0x6d0>
80003548:	e310      	b.n	80003b6c <vsscanf+0x6bc>
8000354a:	68bb      	ldr	r3, [r7, #8]
8000354c:	781b      	ldrb	r3, [r3, #0]
8000354e:	2b00      	cmp	r3, #0
80003550:	f000 8318 	beq.w	80003b84 <vsscanf+0x6d4>
80003554:	68bb      	ldr	r3, [r7, #8]
80003556:	3301      	adds	r3, #1
80003558:	60bb      	str	r3, [r7, #8]
8000355a:	68bb      	ldr	r3, [r7, #8]
8000355c:	781b      	ldrb	r3, [r3, #0]
8000355e:	2b2a      	cmp	r3, #42	; 0x2a
80003560:	d127      	bne.n	800035b2 <vsscanf+0x102>
80003562:	e002      	b.n	8000356a <vsscanf+0xba>
80003564:	68bb      	ldr	r3, [r7, #8]
80003566:	3301      	adds	r3, #1
80003568:	60bb      	str	r3, [r7, #8]
8000356a:	68bb      	ldr	r3, [r7, #8]
8000356c:	781b      	ldrb	r3, [r3, #0]
8000356e:	461a      	mov	r2, r3
80003570:	f8df 3624 	ldr.w	r3, [pc, #1572]	; 80003b98 <vsscanf+0x6e8>
80003574:	58e3      	ldr	r3, [r4, r3]
80003576:	5c9b      	ldrb	r3, [r3, r2]
80003578:	f003 0320 	and.w	r3, r3, #32
8000357c:	2b00      	cmp	r3, #0
8000357e:	d107      	bne.n	80003590 <vsscanf+0xe0>
80003580:	68bb      	ldr	r3, [r7, #8]
80003582:	781b      	ldrb	r3, [r3, #0]
80003584:	2b00      	cmp	r3, #0
80003586:	d1ed      	bne.n	80003564 <vsscanf+0xb4>
80003588:	e002      	b.n	80003590 <vsscanf+0xe0>
8000358a:	6e7b      	ldr	r3, [r7, #100]	; 0x64
8000358c:	3301      	adds	r3, #1
8000358e:	667b      	str	r3, [r7, #100]	; 0x64
80003590:	6e7b      	ldr	r3, [r7, #100]	; 0x64
80003592:	781b      	ldrb	r3, [r3, #0]
80003594:	461a      	mov	r2, r3
80003596:	f8df 3600 	ldr.w	r3, [pc, #1536]	; 80003b98 <vsscanf+0x6e8>
8000359a:	58e3      	ldr	r3, [r4, r3]
8000359c:	5c9b      	ldrb	r3, [r3, r2]
8000359e:	f003 0320 	and.w	r3, r3, #32
800035a2:	2b00      	cmp	r3, #0
800035a4:	f040 82e2 	bne.w	80003b6c <vsscanf+0x6bc>
800035a8:	6e7b      	ldr	r3, [r7, #100]	; 0x64
800035aa:	781b      	ldrb	r3, [r3, #0]
800035ac:	2b00      	cmp	r3, #0
800035ae:	d1ec      	bne.n	8000358a <vsscanf+0xda>
800035b0:	e2dc      	b.n	80003b6c <vsscanf+0x6bc>
800035b2:	f04f 33ff 	mov.w	r3, #4294967295	; 0xffffffff
800035b6:	653b      	str	r3, [r7, #80]	; 0x50
800035b8:	68bb      	ldr	r3, [r7, #8]
800035ba:	781b      	ldrb	r3, [r3, #0]
800035bc:	461a      	mov	r2, r3
800035be:	f8df 35d8 	ldr.w	r3, [pc, #1496]	; 80003b98 <vsscanf+0x6e8>
800035c2:	58e3      	ldr	r3, [r4, r3]
800035c4:	5c9b      	ldrb	r3, [r3, r2]
800035c6:	f003 0304 	and.w	r3, r3, #4
800035ca:	2b00      	cmp	r3, #0
800035cc:	d005      	beq.n	800035da <vsscanf+0x12a>
800035ce:	f107 0308 	add.w	r3, r7, #8
800035d2:	4618      	mov	r0, r3
800035d4:	f7ff f808 	bl	800025e8 <skip_atoi>
800035d8:	6538      	str	r0, [r7, #80]	; 0x50
800035da:	f04f 33ff 	mov.w	r3, #4294967295	; 0xffffffff
800035de:	65bb      	str	r3, [r7, #88]	; 0x58
800035e0:	68bb      	ldr	r3, [r7, #8]
800035e2:	781b      	ldrb	r3, [r3, #0]
800035e4:	2b68      	cmp	r3, #104	; 0x68
800035e6:	d00f      	beq.n	80003608 <vsscanf+0x158>
800035e8:	68bb      	ldr	r3, [r7, #8]
800035ea:	781b      	ldrb	r3, [r3, #0]
800035ec:	2b6c      	cmp	r3, #108	; 0x6c
800035ee:	d00b      	beq.n	80003608 <vsscanf+0x158>
800035f0:	68bb      	ldr	r3, [r7, #8]
800035f2:	781b      	ldrb	r3, [r3, #0]
800035f4:	2b4c      	cmp	r3, #76	; 0x4c
800035f6:	d007      	beq.n	80003608 <vsscanf+0x158>
800035f8:	68bb      	ldr	r3, [r7, #8]
800035fa:	781b      	ldrb	r3, [r3, #0]
800035fc:	2b5a      	cmp	r3, #90	; 0x5a
800035fe:	d003      	beq.n	80003608 <vsscanf+0x158>
80003600:	68bb      	ldr	r3, [r7, #8]
80003602:	781b      	ldrb	r3, [r3, #0]
80003604:	2b7a      	cmp	r3, #122	; 0x7a
80003606:	d120      	bne.n	8000364a <vsscanf+0x19a>
80003608:	68bb      	ldr	r3, [r7, #8]
8000360a:	1c5a      	adds	r2, r3, #1
8000360c:	60ba      	str	r2, [r7, #8]
8000360e:	781b      	ldrb	r3, [r3, #0]
80003610:	65bb      	str	r3, [r7, #88]	; 0x58
80003612:	68bb      	ldr	r3, [r7, #8]
80003614:	781b      	ldrb	r3, [r3, #0]
80003616:	461a      	mov	r2, r3
80003618:	6dbb      	ldr	r3, [r7, #88]	; 0x58
8000361a:	4293      	cmp	r3, r2
8000361c:	bf0c      	ite	eq
8000361e:	2301      	moveq	r3, #1
80003620:	2300      	movne	r3, #0
80003622:	b2db      	uxtb	r3, r3
80003624:	2b00      	cmp	r3, #0
80003626:	d010      	beq.n	8000364a <vsscanf+0x19a>
80003628:	6dbb      	ldr	r3, [r7, #88]	; 0x58
8000362a:	2b68      	cmp	r3, #104	; 0x68
8000362c:	d105      	bne.n	8000363a <vsscanf+0x18a>
8000362e:	2348      	movs	r3, #72	; 0x48
80003630:	65bb      	str	r3, [r7, #88]	; 0x58
80003632:	68bb      	ldr	r3, [r7, #8]
80003634:	3301      	adds	r3, #1
80003636:	60bb      	str	r3, [r7, #8]
80003638:	e007      	b.n	8000364a <vsscanf+0x19a>
8000363a:	6dbb      	ldr	r3, [r7, #88]	; 0x58
8000363c:	2b6c      	cmp	r3, #108	; 0x6c
8000363e:	d104      	bne.n	8000364a <vsscanf+0x19a>
80003640:	234c      	movs	r3, #76	; 0x4c
80003642:	65bb      	str	r3, [r7, #88]	; 0x58
80003644:	68bb      	ldr	r3, [r7, #8]
80003646:	3301      	adds	r3, #1
80003648:	60bb      	str	r3, [r7, #8]
8000364a:	230a      	movs	r3, #10
8000364c:	657b      	str	r3, [r7, #84]	; 0x54
8000364e:	2300      	movs	r3, #0
80003650:	64fb      	str	r3, [r7, #76]	; 0x4c
80003652:	68bb      	ldr	r3, [r7, #8]
80003654:	781b      	ldrb	r3, [r3, #0]
80003656:	2b00      	cmp	r3, #0
80003658:	f000 8297 	beq.w	80003b8a <vsscanf+0x6da>
8000365c:	6e7b      	ldr	r3, [r7, #100]	; 0x64
8000365e:	781b      	ldrb	r3, [r3, #0]
80003660:	2b00      	cmp	r3, #0
80003662:	f000 8292 	beq.w	80003b8a <vsscanf+0x6da>
80003666:	68bb      	ldr	r3, [r7, #8]
80003668:	1c5a      	adds	r2, r3, #1
8000366a:	60ba      	str	r2, [r7, #8]
8000366c:	781b      	ldrb	r3, [r3, #0]
8000366e:	2b25      	cmp	r3, #37	; 0x25
80003670:	f000 80cf 	beq.w	80003812 <vsscanf+0x362>
80003674:	2b25      	cmp	r3, #37	; 0x25
80003676:	f2c0 80d5 	blt.w	80003824 <vsscanf+0x374>
8000367a:	2b78      	cmp	r3, #120	; 0x78
8000367c:	f300 80d2 	bgt.w	80003824 <vsscanf+0x374>
80003680:	2b58      	cmp	r3, #88	; 0x58
80003682:	f2c0 80cf 	blt.w	80003824 <vsscanf+0x374>
80003686:	3b58      	subs	r3, #88	; 0x58
80003688:	2b20      	cmp	r3, #32
8000368a:	f200 80cb 	bhi.w	80003824 <vsscanf+0x374>
8000368e:	a202      	add	r2, pc, #8	; (adr r2, 80003698 <vsscanf+0x1e8>)
80003690:	f852 3023 	ldr.w	r3, [r2, r3, lsl #2]
80003694:	441a      	add	r2, r3
80003696:	4710      	bx	r2
80003698:	0000016b 	andeq	r0, r0, fp, ror #2
8000369c:	0000018d 	andeq	r0, r0, sp, lsl #3
800036a0:	0000018d 	andeq	r0, r0, sp, lsl #3
800036a4:	0000018d 	andeq	r0, r0, sp, lsl #3
800036a8:	0000018d 	andeq	r0, r0, sp, lsl #3
800036ac:	0000018d 	andeq	r0, r0, sp, lsl #3
800036b0:	0000018d 	andeq	r0, r0, sp, lsl #3
800036b4:	0000018d 	andeq	r0, r0, sp, lsl #3
800036b8:	0000018d 	andeq	r0, r0, sp, lsl #3
800036bc:	0000018d 	andeq	r0, r0, sp, lsl #3
800036c0:	0000018d 	andeq	r0, r0, sp, lsl #3
800036c4:	00000085 	andeq	r0, r0, r5, lsl #1
800036c8:	00000175 	andeq	r0, r0, r5, ror r1
800036cc:	0000018d 	andeq	r0, r0, sp, lsl #3
800036d0:	0000018d 	andeq	r0, r0, sp, lsl #3
800036d4:	0000018d 	andeq	r0, r0, sp, lsl #3
800036d8:	0000018d 	andeq	r0, r0, sp, lsl #3
800036dc:	00000171 	andeq	r0, r0, r1, ror r1
800036e0:	0000018d 	andeq	r0, r0, sp, lsl #3
800036e4:	0000018d 	andeq	r0, r0, sp, lsl #3
800036e8:	0000018d 	andeq	r0, r0, sp, lsl #3
800036ec:	0000018d 	andeq	r0, r0, sp, lsl #3
800036f0:	0000014b 	andeq	r0, r0, fp, asr #2
800036f4:	00000165 	andeq	r0, r0, r5, ror #2
800036f8:	0000018d 	andeq	r0, r0, sp, lsl #3
800036fc:	0000018d 	andeq	r0, r0, sp, lsl #3
80003700:	0000018d 	andeq	r0, r0, sp, lsl #3
80003704:	000000cb 	andeq	r0, r0, fp, asr #1
80003708:	0000018d 	andeq	r0, r0, sp, lsl #3
8000370c:	00000191 	muleq	r0, r1, r1
80003710:	0000018d 	andeq	r0, r0, sp, lsl #3
80003714:	0000018d 	andeq	r0, r0, sp, lsl #3
80003718:	0000016b 	andeq	r0, r0, fp, ror #2
8000371c:	687b      	ldr	r3, [r7, #4]
8000371e:	3304      	adds	r3, #4
80003720:	607b      	str	r3, [r7, #4]
80003722:	687b      	ldr	r3, [r7, #4]
80003724:	f853 3c04 	ldr.w	r3, [r3, #-4]
80003728:	64bb      	str	r3, [r7, #72]	; 0x48
8000372a:	6d3b      	ldr	r3, [r7, #80]	; 0x50
8000372c:	f1b3 3fff 	cmp.w	r3, #4294967295	; 0xffffffff
80003730:	d101      	bne.n	80003736 <vsscanf+0x286>
80003732:	2301      	movs	r3, #1
80003734:	653b      	str	r3, [r7, #80]	; 0x50
80003736:	6e7a      	ldr	r2, [r7, #100]	; 0x64
80003738:	1c53      	adds	r3, r2, #1
8000373a:	667b      	str	r3, [r7, #100]	; 0x64
8000373c:	6cbb      	ldr	r3, [r7, #72]	; 0x48
8000373e:	1c59      	adds	r1, r3, #1
80003740:	64b9      	str	r1, [r7, #72]	; 0x48
80003742:	7812      	ldrb	r2, [r2, #0]
80003744:	701a      	strb	r2, [r3, #0]
80003746:	6d3b      	ldr	r3, [r7, #80]	; 0x50
80003748:	3b01      	subs	r3, #1
8000374a:	653b      	str	r3, [r7, #80]	; 0x50
8000374c:	6d3b      	ldr	r3, [r7, #80]	; 0x50
8000374e:	2b00      	cmp	r3, #0
80003750:	dd03      	ble.n	8000375a <vsscanf+0x2aa>
80003752:	6e7b      	ldr	r3, [r7, #100]	; 0x64
80003754:	781b      	ldrb	r3, [r3, #0]
80003756:	2b00      	cmp	r3, #0
80003758:	d1ed      	bne.n	80003736 <vsscanf+0x286>
8000375a:	6dfb      	ldr	r3, [r7, #92]	; 0x5c
8000375c:	3301      	adds	r3, #1
8000375e:	65fb      	str	r3, [r7, #92]	; 0x5c
80003760:	e204      	b.n	80003b6c <vsscanf+0x6bc>
80003762:	687b      	ldr	r3, [r7, #4]
80003764:	3304      	adds	r3, #4
80003766:	607b      	str	r3, [r7, #4]
80003768:	687b      	ldr	r3, [r7, #4]
8000376a:	f853 3c04 	ldr.w	r3, [r3, #-4]
8000376e:	647b      	str	r3, [r7, #68]	; 0x44
80003770:	6d3b      	ldr	r3, [r7, #80]	; 0x50
80003772:	f1b3 3fff 	cmp.w	r3, #4294967295	; 0xffffffff
80003776:	d106      	bne.n	80003786 <vsscanf+0x2d6>
80003778:	f06f 4300 	mvn.w	r3, #2147483648	; 0x80000000
8000377c:	653b      	str	r3, [r7, #80]	; 0x50
8000377e:	e002      	b.n	80003786 <vsscanf+0x2d6>
80003780:	6e7b      	ldr	r3, [r7, #100]	; 0x64
80003782:	3301      	adds	r3, #1
80003784:	667b      	str	r3, [r7, #100]	; 0x64
80003786:	6e7b      	ldr	r3, [r7, #100]	; 0x64
80003788:	781b      	ldrb	r3, [r3, #0]
8000378a:	461a      	mov	r2, r3
8000378c:	f8df 3408 	ldr.w	r3, [pc, #1032]	; 80003b98 <vsscanf+0x6e8>
80003790:	58e3      	ldr	r3, [r4, r3]
80003792:	5c9b      	ldrb	r3, [r3, r2]
80003794:	f003 0320 	and.w	r3, r3, #32
80003798:	2b00      	cmp	r3, #0
8000379a:	d1f1      	bne.n	80003780 <vsscanf+0x2d0>
8000379c:	e007      	b.n	800037ae <vsscanf+0x2fe>
8000379e:	6e7a      	ldr	r2, [r7, #100]	; 0x64
800037a0:	1c53      	adds	r3, r2, #1
800037a2:	667b      	str	r3, [r7, #100]	; 0x64
800037a4:	6c7b      	ldr	r3, [r7, #68]	; 0x44
800037a6:	1c59      	adds	r1, r3, #1
800037a8:	6479      	str	r1, [r7, #68]	; 0x44
800037aa:	7812      	ldrb	r2, [r2, #0]
800037ac:	701a      	strb	r2, [r3, #0]
800037ae:	6e7b      	ldr	r3, [r7, #100]	; 0x64
800037b0:	781b      	ldrb	r3, [r3, #0]
800037b2:	2b00      	cmp	r3, #0
800037b4:	d00e      	beq.n	800037d4 <vsscanf+0x324>
800037b6:	6e7b      	ldr	r3, [r7, #100]	; 0x64
800037b8:	781b      	ldrb	r3, [r3, #0]
800037ba:	461a      	mov	r2, r3
800037bc:	4bf6      	ldr	r3, [pc, #984]	; (80003b98 <vsscanf+0x6e8>)
800037be:	58e3      	ldr	r3, [r4, r3]
800037c0:	5c9b      	ldrb	r3, [r3, r2]
800037c2:	f003 0320 	and.w	r3, r3, #32
800037c6:	2b00      	cmp	r3, #0
800037c8:	d104      	bne.n	800037d4 <vsscanf+0x324>
800037ca:	6d3b      	ldr	r3, [r7, #80]	; 0x50
800037cc:	1e5a      	subs	r2, r3, #1
800037ce:	653a      	str	r2, [r7, #80]	; 0x50
800037d0:	2b00      	cmp	r3, #0
800037d2:	d1e4      	bne.n	8000379e <vsscanf+0x2ee>
800037d4:	6c7b      	ldr	r3, [r7, #68]	; 0x44
800037d6:	2200      	movs	r2, #0
800037d8:	701a      	strb	r2, [r3, #0]
800037da:	6dfb      	ldr	r3, [r7, #92]	; 0x5c
800037dc:	3301      	adds	r3, #1
800037de:	65fb      	str	r3, [r7, #92]	; 0x5c
800037e0:	e1c4      	b.n	80003b6c <vsscanf+0x6bc>
800037e2:	687b      	ldr	r3, [r7, #4]
800037e4:	3304      	adds	r3, #4
800037e6:	607b      	str	r3, [r7, #4]
800037e8:	687b      	ldr	r3, [r7, #4]
800037ea:	f853 3c04 	ldr.w	r3, [r3, #-4]
800037ee:	643b      	str	r3, [r7, #64]	; 0x40
800037f0:	6e7a      	ldr	r2, [r7, #100]	; 0x64
800037f2:	68fb      	ldr	r3, [r7, #12]
800037f4:	1ad2      	subs	r2, r2, r3
800037f6:	6c3b      	ldr	r3, [r7, #64]	; 0x40
800037f8:	601a      	str	r2, [r3, #0]
800037fa:	e1b7      	b.n	80003b6c <vsscanf+0x6bc>
800037fc:	2308      	movs	r3, #8
800037fe:	657b      	str	r3, [r7, #84]	; 0x54
80003800:	e013      	b.n	8000382a <vsscanf+0x37a>
80003802:	2310      	movs	r3, #16
80003804:	657b      	str	r3, [r7, #84]	; 0x54
80003806:	e010      	b.n	8000382a <vsscanf+0x37a>
80003808:	2300      	movs	r3, #0
8000380a:	657b      	str	r3, [r7, #84]	; 0x54
8000380c:	2301      	movs	r3, #1
8000380e:	64fb      	str	r3, [r7, #76]	; 0x4c
80003810:	e00a      	b.n	80003828 <vsscanf+0x378>
80003812:	6e7b      	ldr	r3, [r7, #100]	; 0x64
80003814:	1c5a      	adds	r2, r3, #1
80003816:	667a      	str	r2, [r7, #100]	; 0x64
80003818:	781b      	ldrb	r3, [r3, #0]
8000381a:	2b25      	cmp	r3, #37	; 0x25
8000381c:	f000 81a6 	beq.w	80003b6c <vsscanf+0x6bc>
80003820:	6dfb      	ldr	r3, [r7, #92]	; 0x5c
80003822:	e1b3      	b.n	80003b8c <vsscanf+0x6dc>
80003824:	6dfb      	ldr	r3, [r7, #92]	; 0x5c
80003826:	e1b1      	b.n	80003b8c <vsscanf+0x6dc>
80003828:	bf00      	nop
8000382a:	e002      	b.n	80003832 <vsscanf+0x382>
8000382c:	6e7b      	ldr	r3, [r7, #100]	; 0x64
8000382e:	3301      	adds	r3, #1
80003830:	667b      	str	r3, [r7, #100]	; 0x64
80003832:	6e7b      	ldr	r3, [r7, #100]	; 0x64
80003834:	781b      	ldrb	r3, [r3, #0]
80003836:	461a      	mov	r2, r3
80003838:	4bd7      	ldr	r3, [pc, #860]	; (80003b98 <vsscanf+0x6e8>)
8000383a:	58e3      	ldr	r3, [r4, r3]
8000383c:	5c9b      	ldrb	r3, [r3, r2]
8000383e:	f003 0320 	and.w	r3, r3, #32
80003842:	2b00      	cmp	r3, #0
80003844:	d1f2      	bne.n	8000382c <vsscanf+0x37c>
80003846:	6e7b      	ldr	r3, [r7, #100]	; 0x64
80003848:	781b      	ldrb	r3, [r3, #0]
8000384a:	f887 3063 	strb.w	r3, [r7, #99]	; 0x63
8000384e:	6cfb      	ldr	r3, [r7, #76]	; 0x4c
80003850:	2b00      	cmp	r3, #0
80003852:	d008      	beq.n	80003866 <vsscanf+0x3b6>
80003854:	f897 3063 	ldrb.w	r3, [r7, #99]	; 0x63
80003858:	2b2d      	cmp	r3, #45	; 0x2d
8000385a:	d104      	bne.n	80003866 <vsscanf+0x3b6>
8000385c:	6e7b      	ldr	r3, [r7, #100]	; 0x64
8000385e:	3301      	adds	r3, #1
80003860:	781b      	ldrb	r3, [r3, #0]
80003862:	f887 3063 	strb.w	r3, [r7, #99]	; 0x63
80003866:	f897 3063 	ldrb.w	r3, [r7, #99]	; 0x63
8000386a:	2b00      	cmp	r3, #0
8000386c:	f000 818d 	beq.w	80003b8a <vsscanf+0x6da>
80003870:	6d7b      	ldr	r3, [r7, #84]	; 0x54
80003872:	2b10      	cmp	r3, #16
80003874:	d109      	bne.n	8000388a <vsscanf+0x3da>
80003876:	f897 3063 	ldrb.w	r3, [r7, #99]	; 0x63
8000387a:	4ac7      	ldr	r2, [pc, #796]	; (80003b98 <vsscanf+0x6e8>)
8000387c:	58a2      	ldr	r2, [r4, r2]
8000387e:	5cd3      	ldrb	r3, [r2, r3]
80003880:	f003 0344 	and.w	r3, r3, #68	; 0x44
80003884:	2b00      	cmp	r3, #0
80003886:	f000 8180 	beq.w	80003b8a <vsscanf+0x6da>
8000388a:	6d7b      	ldr	r3, [r7, #84]	; 0x54
8000388c:	2b0a      	cmp	r3, #10
8000388e:	d109      	bne.n	800038a4 <vsscanf+0x3f4>
80003890:	f897 3063 	ldrb.w	r3, [r7, #99]	; 0x63
80003894:	4ac0      	ldr	r2, [pc, #768]	; (80003b98 <vsscanf+0x6e8>)
80003896:	58a2      	ldr	r2, [r4, r2]
80003898:	5cd3      	ldrb	r3, [r2, r3]
8000389a:	f003 0304 	and.w	r3, r3, #4
8000389e:	2b00      	cmp	r3, #0
800038a0:	f000 8173 	beq.w	80003b8a <vsscanf+0x6da>
800038a4:	6d7b      	ldr	r3, [r7, #84]	; 0x54
800038a6:	2b08      	cmp	r3, #8
800038a8:	d10e      	bne.n	800038c8 <vsscanf+0x418>
800038aa:	f897 3063 	ldrb.w	r3, [r7, #99]	; 0x63
800038ae:	4aba      	ldr	r2, [pc, #744]	; (80003b98 <vsscanf+0x6e8>)
800038b0:	58a2      	ldr	r2, [r4, r2]
800038b2:	5cd3      	ldrb	r3, [r2, r3]
800038b4:	f003 0304 	and.w	r3, r3, #4
800038b8:	2b00      	cmp	r3, #0
800038ba:	f000 8166 	beq.w	80003b8a <vsscanf+0x6da>
800038be:	f897 3063 	ldrb.w	r3, [r7, #99]	; 0x63
800038c2:	2b37      	cmp	r3, #55	; 0x37
800038c4:	f200 8161 	bhi.w	80003b8a <vsscanf+0x6da>
800038c8:	6d7b      	ldr	r3, [r7, #84]	; 0x54
800038ca:	2b00      	cmp	r3, #0
800038cc:	d109      	bne.n	800038e2 <vsscanf+0x432>
800038ce:	f897 3063 	ldrb.w	r3, [r7, #99]	; 0x63
800038d2:	4ab1      	ldr	r2, [pc, #708]	; (80003b98 <vsscanf+0x6e8>)
800038d4:	58a2      	ldr	r2, [r4, r2]
800038d6:	5cd3      	ldrb	r3, [r2, r3]
800038d8:	f003 0304 	and.w	r3, r3, #4
800038dc:	2b00      	cmp	r3, #0
800038de:	f000 8154 	beq.w	80003b8a <vsscanf+0x6da>
800038e2:	6dbb      	ldr	r3, [r7, #88]	; 0x58
800038e4:	2b6c      	cmp	r3, #108	; 0x6c
800038e6:	dc57      	bgt.n	80003998 <vsscanf+0x4e8>
800038e8:	6dbb      	ldr	r3, [r7, #88]	; 0x58
800038ea:	2b48      	cmp	r3, #72	; 0x48
800038ec:	f2c0 810f 	blt.w	80003b0e <vsscanf+0x65e>
800038f0:	6dbb      	ldr	r3, [r7, #88]	; 0x58
800038f2:	3b48      	subs	r3, #72	; 0x48
800038f4:	2b24      	cmp	r3, #36	; 0x24
800038f6:	f200 810a 	bhi.w	80003b0e <vsscanf+0x65e>
800038fa:	a202      	add	r2, pc, #8	; (adr r2, 80003904 <vsscanf+0x454>)
800038fc:	f852 3023 	ldr.w	r3, [r2, r3, lsl #2]
80003900:	441a      	add	r2, r3
80003902:	4710      	bx	r2
80003904:	0000009f 	muleq	r0, pc, r0	; <UNPREDICTABLE>
80003908:	0000020b 	andeq	r0, r0, fp, lsl #4
8000390c:	0000020b 	andeq	r0, r0, fp, lsl #4
80003910:	0000020b 	andeq	r0, r0, fp, lsl #4
80003914:	00000191 	muleq	r0, r1, r1
80003918:	0000020b 	andeq	r0, r0, fp, lsl #4
8000391c:	0000020b 	andeq	r0, r0, fp, lsl #4
80003920:	0000020b 	andeq	r0, r0, fp, lsl #4
80003924:	0000020b 	andeq	r0, r0, fp, lsl #4
80003928:	0000020b 	andeq	r0, r0, fp, lsl #4
8000392c:	0000020b 	andeq	r0, r0, fp, lsl #4
80003930:	0000020b 	andeq	r0, r0, fp, lsl #4
80003934:	0000020b 	andeq	r0, r0, fp, lsl #4
80003938:	0000020b 	andeq	r0, r0, fp, lsl #4
8000393c:	0000020b 	andeq	r0, r0, fp, lsl #4
80003940:	0000020b 	andeq	r0, r0, fp, lsl #4
80003944:	0000020b 	andeq	r0, r0, fp, lsl #4
80003948:	0000020b 	andeq	r0, r0, fp, lsl #4
8000394c:	000001e7 	andeq	r0, r0, r7, ror #3
80003950:	0000020b 	andeq	r0, r0, fp, lsl #4
80003954:	0000020b 	andeq	r0, r0, fp, lsl #4
80003958:	0000020b 	andeq	r0, r0, fp, lsl #4
8000395c:	0000020b 	andeq	r0, r0, fp, lsl #4
80003960:	0000020b 	andeq	r0, r0, fp, lsl #4
80003964:	0000020b 	andeq	r0, r0, fp, lsl #4
80003968:	0000020b 	andeq	r0, r0, fp, lsl #4
8000396c:	0000020b 	andeq	r0, r0, fp, lsl #4
80003970:	0000020b 	andeq	r0, r0, fp, lsl #4
80003974:	0000020b 	andeq	r0, r0, fp, lsl #4
80003978:	0000020b 	andeq	r0, r0, fp, lsl #4
8000397c:	0000020b 	andeq	r0, r0, fp, lsl #4
80003980:	0000020b 	andeq	r0, r0, fp, lsl #4
80003984:	000000f1 	strdeq	r0, [r0], -r1
80003988:	0000020b 	andeq	r0, r0, fp, lsl #4
8000398c:	0000020b 	andeq	r0, r0, fp, lsl #4
80003990:	0000020b 	andeq	r0, r0, fp, lsl #4
80003994:	00000143 	andeq	r0, r0, r3, asr #2
80003998:	6dbb      	ldr	r3, [r7, #88]	; 0x58
8000399a:	2b7a      	cmp	r3, #122	; 0x7a
8000399c:	f000 80a5 	beq.w	80003aea <vsscanf+0x63a>
800039a0:	e0b5      	b.n	80003b0e <vsscanf+0x65e>
800039a2:	6cfb      	ldr	r3, [r7, #76]	; 0x4c
800039a4:	2b00      	cmp	r3, #0
800039a6:	d012      	beq.n	800039ce <vsscanf+0x51e>
800039a8:	687b      	ldr	r3, [r7, #4]
800039aa:	3304      	adds	r3, #4
800039ac:	607b      	str	r3, [r7, #4]
800039ae:	687b      	ldr	r3, [r7, #4]
800039b0:	f853 3c04 	ldr.w	r3, [r3, #-4]
800039b4:	61fb      	str	r3, [r7, #28]
800039b6:	6d7a      	ldr	r2, [r7, #84]	; 0x54
800039b8:	f107 0310 	add.w	r3, r7, #16
800039bc:	4619      	mov	r1, r3
800039be:	6e78      	ldr	r0, [r7, #100]	; 0x64
800039c0:	f7fe fd16 	bl	800023f0 <simple_strtol>
800039c4:	4603      	mov	r3, r0
800039c6:	b25a      	sxtb	r2, r3
800039c8:	69fb      	ldr	r3, [r7, #28]
800039ca:	701a      	strb	r2, [r3, #0]
800039cc:	e0c6      	b.n	80003b5c <vsscanf+0x6ac>
800039ce:	687b      	ldr	r3, [r7, #4]
800039d0:	3304      	adds	r3, #4
800039d2:	607b      	str	r3, [r7, #4]
800039d4:	687b      	ldr	r3, [r7, #4]
800039d6:	f853 3c04 	ldr.w	r3, [r3, #-4]
800039da:	623b      	str	r3, [r7, #32]
800039dc:	6d7a      	ldr	r2, [r7, #84]	; 0x54
800039de:	f107 0310 	add.w	r3, r7, #16
800039e2:	4619      	mov	r1, r3
800039e4:	6e78      	ldr	r0, [r7, #100]	; 0x64
800039e6:	f7fe fc81 	bl	800022ec <simple_strtoul>
800039ea:	4603      	mov	r3, r0
800039ec:	b2da      	uxtb	r2, r3
800039ee:	6a3b      	ldr	r3, [r7, #32]
800039f0:	701a      	strb	r2, [r3, #0]
800039f2:	e0b3      	b.n	80003b5c <vsscanf+0x6ac>
800039f4:	6cfb      	ldr	r3, [r7, #76]	; 0x4c
800039f6:	2b00      	cmp	r3, #0
800039f8:	d012      	beq.n	80003a20 <vsscanf+0x570>
800039fa:	687b      	ldr	r3, [r7, #4]
800039fc:	3304      	adds	r3, #4
800039fe:	607b      	str	r3, [r7, #4]
80003a00:	687b      	ldr	r3, [r7, #4]
80003a02:	f853 3c04 	ldr.w	r3, [r3, #-4]
80003a06:	633b      	str	r3, [r7, #48]	; 0x30
80003a08:	6d7a      	ldr	r2, [r7, #84]	; 0x54
80003a0a:	f107 0310 	add.w	r3, r7, #16
80003a0e:	4619      	mov	r1, r3
80003a10:	6e78      	ldr	r0, [r7, #100]	; 0x64
80003a12:	f7fe fced 	bl	800023f0 <simple_strtol>
80003a16:	4603      	mov	r3, r0
80003a18:	b21a      	sxth	r2, r3
80003a1a:	6b3b      	ldr	r3, [r7, #48]	; 0x30
80003a1c:	801a      	strh	r2, [r3, #0]
80003a1e:	e09d      	b.n	80003b5c <vsscanf+0x6ac>
80003a20:	687b      	ldr	r3, [r7, #4]
80003a22:	3304      	adds	r3, #4
80003a24:	607b      	str	r3, [r7, #4]
80003a26:	687b      	ldr	r3, [r7, #4]
80003a28:	f853 3c04 	ldr.w	r3, [r3, #-4]
80003a2c:	637b      	str	r3, [r7, #52]	; 0x34
80003a2e:	6d7a      	ldr	r2, [r7, #84]	; 0x54
80003a30:	f107 0310 	add.w	r3, r7, #16
80003a34:	4619      	mov	r1, r3
80003a36:	6e78      	ldr	r0, [r7, #100]	; 0x64
80003a38:	f7fe fc58 	bl	800022ec <simple_strtoul>
80003a3c:	4603      	mov	r3, r0
80003a3e:	b29a      	uxth	r2, r3
80003a40:	6b7b      	ldr	r3, [r7, #52]	; 0x34
80003a42:	801a      	strh	r2, [r3, #0]
80003a44:	e08a      	b.n	80003b5c <vsscanf+0x6ac>
80003a46:	6cfb      	ldr	r3, [r7, #76]	; 0x4c
80003a48:	2b00      	cmp	r3, #0
80003a4a:	d011      	beq.n	80003a70 <vsscanf+0x5c0>
80003a4c:	687b      	ldr	r3, [r7, #4]
80003a4e:	3304      	adds	r3, #4
80003a50:	607b      	str	r3, [r7, #4]
80003a52:	687b      	ldr	r3, [r7, #4]
80003a54:	f853 3c04 	ldr.w	r3, [r3, #-4]
80003a58:	63bb      	str	r3, [r7, #56]	; 0x38
80003a5a:	6d7a      	ldr	r2, [r7, #84]	; 0x54
80003a5c:	f107 0310 	add.w	r3, r7, #16
80003a60:	4619      	mov	r1, r3
80003a62:	6e78      	ldr	r0, [r7, #100]	; 0x64
80003a64:	f7fe fcc4 	bl	800023f0 <simple_strtol>
80003a68:	4602      	mov	r2, r0
80003a6a:	6bbb      	ldr	r3, [r7, #56]	; 0x38
80003a6c:	601a      	str	r2, [r3, #0]
80003a6e:	e075      	b.n	80003b5c <vsscanf+0x6ac>
80003a70:	687b      	ldr	r3, [r7, #4]
80003a72:	3304      	adds	r3, #4
80003a74:	607b      	str	r3, [r7, #4]
80003a76:	687b      	ldr	r3, [r7, #4]
80003a78:	f853 3c04 	ldr.w	r3, [r3, #-4]
80003a7c:	63fb      	str	r3, [r7, #60]	; 0x3c
80003a7e:	6d7a      	ldr	r2, [r7, #84]	; 0x54
80003a80:	f107 0310 	add.w	r3, r7, #16
80003a84:	4619      	mov	r1, r3
80003a86:	6e78      	ldr	r0, [r7, #100]	; 0x64
80003a88:	f7fe fc30 	bl	800022ec <simple_strtoul>
80003a8c:	4602      	mov	r2, r0
80003a8e:	6bfb      	ldr	r3, [r7, #60]	; 0x3c
80003a90:	601a      	str	r2, [r3, #0]
80003a92:	e063      	b.n	80003b5c <vsscanf+0x6ac>
80003a94:	6cfb      	ldr	r3, [r7, #76]	; 0x4c
80003a96:	2b00      	cmp	r3, #0
80003a98:	d013      	beq.n	80003ac2 <vsscanf+0x612>
80003a9a:	687b      	ldr	r3, [r7, #4]
80003a9c:	3304      	adds	r3, #4
80003a9e:	607b      	str	r3, [r7, #4]
80003aa0:	687b      	ldr	r3, [r7, #4]
80003aa2:	f853 3c04 	ldr.w	r3, [r3, #-4]
80003aa6:	627b      	str	r3, [r7, #36]	; 0x24
80003aa8:	6d7a      	ldr	r2, [r7, #84]	; 0x54
80003aaa:	f107 0310 	add.w	r3, r7, #16
80003aae:	4619      	mov	r1, r3
80003ab0:	6e78      	ldr	r0, [r7, #100]	; 0x64
80003ab2:	f7fe fd73 	bl	8000259c <simple_strtoll>
80003ab6:	4602      	mov	r2, r0
80003ab8:	460b      	mov	r3, r1
80003aba:	6a79      	ldr	r1, [r7, #36]	; 0x24
80003abc:	e9c1 2300 	strd	r2, r3, [r1]
80003ac0:	e04c      	b.n	80003b5c <vsscanf+0x6ac>
80003ac2:	687b      	ldr	r3, [r7, #4]
80003ac4:	3304      	adds	r3, #4
80003ac6:	607b      	str	r3, [r7, #4]
80003ac8:	687b      	ldr	r3, [r7, #4]
80003aca:	f853 3c04 	ldr.w	r3, [r3, #-4]
80003ace:	62bb      	str	r3, [r7, #40]	; 0x28
80003ad0:	6d7a      	ldr	r2, [r7, #84]	; 0x54
80003ad2:	f107 0310 	add.w	r3, r7, #16
80003ad6:	4619      	mov	r1, r3
80003ad8:	6e78      	ldr	r0, [r7, #100]	; 0x64
80003ada:	f7fe fca7 	bl	8000242c <simple_strtoull>
80003ade:	4602      	mov	r2, r0
80003ae0:	460b      	mov	r3, r1
80003ae2:	6ab9      	ldr	r1, [r7, #40]	; 0x28
80003ae4:	e9c1 2300 	strd	r2, r3, [r1]
80003ae8:	e038      	b.n	80003b5c <vsscanf+0x6ac>
80003aea:	687b      	ldr	r3, [r7, #4]
80003aec:	3304      	adds	r3, #4
80003aee:	607b      	str	r3, [r7, #4]
80003af0:	687b      	ldr	r3, [r7, #4]
80003af2:	f853 3c04 	ldr.w	r3, [r3, #-4]
80003af6:	62fb      	str	r3, [r7, #44]	; 0x2c
80003af8:	6d7a      	ldr	r2, [r7, #84]	; 0x54
80003afa:	f107 0310 	add.w	r3, r7, #16
80003afe:	4619      	mov	r1, r3
80003b00:	6e78      	ldr	r0, [r7, #100]	; 0x64
80003b02:	f7fe fbf3 	bl	800022ec <simple_strtoul>
80003b06:	4602      	mov	r2, r0
80003b08:	6afb      	ldr	r3, [r7, #44]	; 0x2c
80003b0a:	601a      	str	r2, [r3, #0]
80003b0c:	e026      	b.n	80003b5c <vsscanf+0x6ac>
80003b0e:	6cfb      	ldr	r3, [r7, #76]	; 0x4c
80003b10:	2b00      	cmp	r3, #0
80003b12:	d011      	beq.n	80003b38 <vsscanf+0x688>
80003b14:	687b      	ldr	r3, [r7, #4]
80003b16:	3304      	adds	r3, #4
80003b18:	607b      	str	r3, [r7, #4]
80003b1a:	687b      	ldr	r3, [r7, #4]
80003b1c:	f853 3c04 	ldr.w	r3, [r3, #-4]
80003b20:	617b      	str	r3, [r7, #20]
80003b22:	6d7a      	ldr	r2, [r7, #84]	; 0x54
80003b24:	f107 0310 	add.w	r3, r7, #16
80003b28:	4619      	mov	r1, r3
80003b2a:	6e78      	ldr	r0, [r7, #100]	; 0x64
80003b2c:	f7fe fc60 	bl	800023f0 <simple_strtol>
80003b30:	4602      	mov	r2, r0
80003b32:	697b      	ldr	r3, [r7, #20]
80003b34:	601a      	str	r2, [r3, #0]
80003b36:	e010      	b.n	80003b5a <vsscanf+0x6aa>
80003b38:	687b      	ldr	r3, [r7, #4]
80003b3a:	3304      	adds	r3, #4
80003b3c:	607b      	str	r3, [r7, #4]
80003b3e:	687b      	ldr	r3, [r7, #4]
80003b40:	f853 3c04 	ldr.w	r3, [r3, #-4]
80003b44:	61bb      	str	r3, [r7, #24]
80003b46:	6d7a      	ldr	r2, [r7, #84]	; 0x54
80003b48:	f107 0310 	add.w	r3, r7, #16
80003b4c:	4619      	mov	r1, r3
80003b4e:	6e78      	ldr	r0, [r7, #100]	; 0x64
80003b50:	f7fe fbcc 	bl	800022ec <simple_strtoul>
80003b54:	4602      	mov	r2, r0
80003b56:	69bb      	ldr	r3, [r7, #24]
80003b58:	601a      	str	r2, [r3, #0]
80003b5a:	bf00      	nop
80003b5c:	6dfb      	ldr	r3, [r7, #92]	; 0x5c
80003b5e:	3301      	adds	r3, #1
80003b60:	65fb      	str	r3, [r7, #92]	; 0x5c
80003b62:	693b      	ldr	r3, [r7, #16]
80003b64:	2b00      	cmp	r3, #0
80003b66:	d00f      	beq.n	80003b88 <vsscanf+0x6d8>
80003b68:	693b      	ldr	r3, [r7, #16]
80003b6a:	667b      	str	r3, [r7, #100]	; 0x64
80003b6c:	68bb      	ldr	r3, [r7, #8]
80003b6e:	781b      	ldrb	r3, [r3, #0]
80003b70:	2b00      	cmp	r3, #0
80003b72:	d00a      	beq.n	80003b8a <vsscanf+0x6da>
80003b74:	6e7b      	ldr	r3, [r7, #100]	; 0x64
80003b76:	781b      	ldrb	r3, [r3, #0]
80003b78:	2b00      	cmp	r3, #0
80003b7a:	f47f aca9 	bne.w	800034d0 <vsscanf+0x20>
80003b7e:	e004      	b.n	80003b8a <vsscanf+0x6da>
80003b80:	bf00      	nop
80003b82:	e002      	b.n	80003b8a <vsscanf+0x6da>
80003b84:	bf00      	nop
80003b86:	e000      	b.n	80003b8a <vsscanf+0x6da>
80003b88:	bf00      	nop
80003b8a:	6dfb      	ldr	r3, [r7, #92]	; 0x5c
80003b8c:	4618      	mov	r0, r3
80003b8e:	376c      	adds	r7, #108	; 0x6c
80003b90:	46bd      	mov	sp, r7
80003b92:	bd90      	pop	{r4, r7, pc}
80003b94:	00000c44 	andeq	r0, r0, r4, asr #24
80003b98:	00000000 	andeq	r0, r0, r0

80003b9c <sscanf>:
80003b9c:	b40e      	push	{r1, r2, r3}
80003b9e:	b580      	push	{r7, lr}
80003ba0:	b085      	sub	sp, #20
80003ba2:	af00      	add	r7, sp, #0
80003ba4:	6078      	str	r0, [r7, #4]
80003ba6:	f107 0320 	add.w	r3, r7, #32
80003baa:	60fb      	str	r3, [r7, #12]
80003bac:	69fb      	ldr	r3, [r7, #28]
80003bae:	68fa      	ldr	r2, [r7, #12]
80003bb0:	4619      	mov	r1, r3
80003bb2:	6878      	ldr	r0, [r7, #4]
80003bb4:	f7ff fc7c 	bl	800034b0 <vsscanf>
80003bb8:	60b8      	str	r0, [r7, #8]
80003bba:	68bb      	ldr	r3, [r7, #8]
80003bbc:	4618      	mov	r0, r3
80003bbe:	3714      	adds	r7, #20
80003bc0:	46bd      	mov	sp, r7
80003bc2:	e8bd 4080 	ldmia.w	sp!, {r7, lr}
80003bc6:	b003      	add	sp, #12
80003bc8:	4770      	bx	lr
80003bca:	bf00      	nop
80003bcc:	0000      	movs	r0, r0
	...

80003bd0 <__udivsi3>:
80003bd0:	1e4a      	subs	r2, r1, #1
80003bd2:	bf08      	it	eq
80003bd4:	4770      	bxeq	lr
80003bd6:	f0c0 8124 	bcc.w	80003e22 <__udivsi3+0x252>
80003bda:	4288      	cmp	r0, r1
80003bdc:	f240 8116 	bls.w	80003e0c <__udivsi3+0x23c>
80003be0:	4211      	tst	r1, r2
80003be2:	f000 8117 	beq.w	80003e14 <__udivsi3+0x244>
80003be6:	fab0 f380 	clz	r3, r0
80003bea:	fab1 f281 	clz	r2, r1
80003bee:	eba2 0303 	sub.w	r3, r2, r3
80003bf2:	f1c3 031f 	rsb	r3, r3, #31
80003bf6:	a204      	add	r2, pc, #16	; (adr r2, 80003c08 <__udivsi3+0x38>)
80003bf8:	eb02 1303 	add.w	r3, r2, r3, lsl #4
80003bfc:	f04f 0200 	mov.w	r2, #0
80003c00:	469f      	mov	pc, r3
80003c02:	bf00      	nop
80003c04:	f3af 8000 	nop.w
80003c08:	ebb0 7fc1 	cmp.w	r0, r1, lsl #31
80003c0c:	bf00      	nop
80003c0e:	eb42 0202 	adc.w	r2, r2, r2
80003c12:	bf28      	it	cs
80003c14:	eba0 70c1 	subcs.w	r0, r0, r1, lsl #31
80003c18:	ebb0 7f81 	cmp.w	r0, r1, lsl #30
80003c1c:	bf00      	nop
80003c1e:	eb42 0202 	adc.w	r2, r2, r2
80003c22:	bf28      	it	cs
80003c24:	eba0 7081 	subcs.w	r0, r0, r1, lsl #30
80003c28:	ebb0 7f41 	cmp.w	r0, r1, lsl #29
80003c2c:	bf00      	nop
80003c2e:	eb42 0202 	adc.w	r2, r2, r2
80003c32:	bf28      	it	cs
80003c34:	eba0 7041 	subcs.w	r0, r0, r1, lsl #29
80003c38:	ebb0 7f01 	cmp.w	r0, r1, lsl #28
80003c3c:	bf00      	nop
80003c3e:	eb42 0202 	adc.w	r2, r2, r2
80003c42:	bf28      	it	cs
80003c44:	eba0 7001 	subcs.w	r0, r0, r1, lsl #28
80003c48:	ebb0 6fc1 	cmp.w	r0, r1, lsl #27
80003c4c:	bf00      	nop
80003c4e:	eb42 0202 	adc.w	r2, r2, r2
80003c52:	bf28      	it	cs
80003c54:	eba0 60c1 	subcs.w	r0, r0, r1, lsl #27
80003c58:	ebb0 6f81 	cmp.w	r0, r1, lsl #26
80003c5c:	bf00      	nop
80003c5e:	eb42 0202 	adc.w	r2, r2, r2
80003c62:	bf28      	it	cs
80003c64:	eba0 6081 	subcs.w	r0, r0, r1, lsl #26
80003c68:	ebb0 6f41 	cmp.w	r0, r1, lsl #25
80003c6c:	bf00      	nop
80003c6e:	eb42 0202 	adc.w	r2, r2, r2
80003c72:	bf28      	it	cs
80003c74:	eba0 6041 	subcs.w	r0, r0, r1, lsl #25
80003c78:	ebb0 6f01 	cmp.w	r0, r1, lsl #24
80003c7c:	bf00      	nop
80003c7e:	eb42 0202 	adc.w	r2, r2, r2
80003c82:	bf28      	it	cs
80003c84:	eba0 6001 	subcs.w	r0, r0, r1, lsl #24
80003c88:	ebb0 5fc1 	cmp.w	r0, r1, lsl #23
80003c8c:	bf00      	nop
80003c8e:	eb42 0202 	adc.w	r2, r2, r2
80003c92:	bf28      	it	cs
80003c94:	eba0 50c1 	subcs.w	r0, r0, r1, lsl #23
80003c98:	ebb0 5f81 	cmp.w	r0, r1, lsl #22
80003c9c:	bf00      	nop
80003c9e:	eb42 0202 	adc.w	r2, r2, r2
80003ca2:	bf28      	it	cs
80003ca4:	eba0 5081 	subcs.w	r0, r0, r1, lsl #22
80003ca8:	ebb0 5f41 	cmp.w	r0, r1, lsl #21
80003cac:	bf00      	nop
80003cae:	eb42 0202 	adc.w	r2, r2, r2
80003cb2:	bf28      	it	cs
80003cb4:	eba0 5041 	subcs.w	r0, r0, r1, lsl #21
80003cb8:	ebb0 5f01 	cmp.w	r0, r1, lsl #20
80003cbc:	bf00      	nop
80003cbe:	eb42 0202 	adc.w	r2, r2, r2
80003cc2:	bf28      	it	cs
80003cc4:	eba0 5001 	subcs.w	r0, r0, r1, lsl #20
80003cc8:	ebb0 4fc1 	cmp.w	r0, r1, lsl #19
80003ccc:	bf00      	nop
80003cce:	eb42 0202 	adc.w	r2, r2, r2
80003cd2:	bf28      	it	cs
80003cd4:	eba0 40c1 	subcs.w	r0, r0, r1, lsl #19
80003cd8:	ebb0 4f81 	cmp.w	r0, r1, lsl #18
80003cdc:	bf00      	nop
80003cde:	eb42 0202 	adc.w	r2, r2, r2
80003ce2:	bf28      	it	cs
80003ce4:	eba0 4081 	subcs.w	r0, r0, r1, lsl #18
80003ce8:	ebb0 4f41 	cmp.w	r0, r1, lsl #17
80003cec:	bf00      	nop
80003cee:	eb42 0202 	adc.w	r2, r2, r2
80003cf2:	bf28      	it	cs
80003cf4:	eba0 4041 	subcs.w	r0, r0, r1, lsl #17
80003cf8:	ebb0 4f01 	cmp.w	r0, r1, lsl #16
80003cfc:	bf00      	nop
80003cfe:	eb42 0202 	adc.w	r2, r2, r2
80003d02:	bf28      	it	cs
80003d04:	eba0 4001 	subcs.w	r0, r0, r1, lsl #16
80003d08:	ebb0 3fc1 	cmp.w	r0, r1, lsl #15
80003d0c:	bf00      	nop
80003d0e:	eb42 0202 	adc.w	r2, r2, r2
80003d12:	bf28      	it	cs
80003d14:	eba0 30c1 	subcs.w	r0, r0, r1, lsl #15
80003d18:	ebb0 3f81 	cmp.w	r0, r1, lsl #14
80003d1c:	bf00      	nop
80003d1e:	eb42 0202 	adc.w	r2, r2, r2
80003d22:	bf28      	it	cs
80003d24:	eba0 3081 	subcs.w	r0, r0, r1, lsl #14
80003d28:	ebb0 3f41 	cmp.w	r0, r1, lsl #13
80003d2c:	bf00      	nop
80003d2e:	eb42 0202 	adc.w	r2, r2, r2
80003d32:	bf28      	it	cs
80003d34:	eba0 3041 	subcs.w	r0, r0, r1, lsl #13
80003d38:	ebb0 3f01 	cmp.w	r0, r1, lsl #12
80003d3c:	bf00      	nop
80003d3e:	eb42 0202 	adc.w	r2, r2, r2
80003d42:	bf28      	it	cs
80003d44:	eba0 3001 	subcs.w	r0, r0, r1, lsl #12
80003d48:	ebb0 2fc1 	cmp.w	r0, r1, lsl #11
80003d4c:	bf00      	nop
80003d4e:	eb42 0202 	adc.w	r2, r2, r2
80003d52:	bf28      	it	cs
80003d54:	eba0 20c1 	subcs.w	r0, r0, r1, lsl #11
80003d58:	ebb0 2f81 	cmp.w	r0, r1, lsl #10
80003d5c:	bf00      	nop
80003d5e:	eb42 0202 	adc.w	r2, r2, r2
80003d62:	bf28      	it	cs
80003d64:	eba0 2081 	subcs.w	r0, r0, r1, lsl #10
80003d68:	ebb0 2f41 	cmp.w	r0, r1, lsl #9
80003d6c:	bf00      	nop
80003d6e:	eb42 0202 	adc.w	r2, r2, r2
80003d72:	bf28      	it	cs
80003d74:	eba0 2041 	subcs.w	r0, r0, r1, lsl #9
80003d78:	ebb0 2f01 	cmp.w	r0, r1, lsl #8
80003d7c:	bf00      	nop
80003d7e:	eb42 0202 	adc.w	r2, r2, r2
80003d82:	bf28      	it	cs
80003d84:	eba0 2001 	subcs.w	r0, r0, r1, lsl #8
80003d88:	ebb0 1fc1 	cmp.w	r0, r1, lsl #7
80003d8c:	bf00      	nop
80003d8e:	eb42 0202 	adc.w	r2, r2, r2
80003d92:	bf28      	it	cs
80003d94:	eba0 10c1 	subcs.w	r0, r0, r1, lsl #7
80003d98:	ebb0 1f81 	cmp.w	r0, r1, lsl #6
80003d9c:	bf00      	nop
80003d9e:	eb42 0202 	adc.w	r2, r2, r2
80003da2:	bf28      	it	cs
80003da4:	eba0 1081 	subcs.w	r0, r0, r1, lsl #6
80003da8:	ebb0 1f41 	cmp.w	r0, r1, lsl #5
80003dac:	bf00      	nop
80003dae:	eb42 0202 	adc.w	r2, r2, r2
80003db2:	bf28      	it	cs
80003db4:	eba0 1041 	subcs.w	r0, r0, r1, lsl #5
80003db8:	ebb0 1f01 	cmp.w	r0, r1, lsl #4
80003dbc:	bf00      	nop
80003dbe:	eb42 0202 	adc.w	r2, r2, r2
80003dc2:	bf28      	it	cs
80003dc4:	eba0 1001 	subcs.w	r0, r0, r1, lsl #4
80003dc8:	ebb0 0fc1 	cmp.w	r0, r1, lsl #3
80003dcc:	bf00      	nop
80003dce:	eb42 0202 	adc.w	r2, r2, r2
80003dd2:	bf28      	it	cs
80003dd4:	eba0 00c1 	subcs.w	r0, r0, r1, lsl #3
80003dd8:	ebb0 0f81 	cmp.w	r0, r1, lsl #2
80003ddc:	bf00      	nop
80003dde:	eb42 0202 	adc.w	r2, r2, r2
80003de2:	bf28      	it	cs
80003de4:	eba0 0081 	subcs.w	r0, r0, r1, lsl #2
80003de8:	ebb0 0f41 	cmp.w	r0, r1, lsl #1
80003dec:	bf00      	nop
80003dee:	eb42 0202 	adc.w	r2, r2, r2
80003df2:	bf28      	it	cs
80003df4:	eba0 0041 	subcs.w	r0, r0, r1, lsl #1
80003df8:	ebb0 0f01 	cmp.w	r0, r1
80003dfc:	bf00      	nop
80003dfe:	eb42 0202 	adc.w	r2, r2, r2
80003e02:	bf28      	it	cs
80003e04:	eba0 0001 	subcs.w	r0, r0, r1
80003e08:	4610      	mov	r0, r2
80003e0a:	4770      	bx	lr
80003e0c:	bf0c      	ite	eq
80003e0e:	2001      	moveq	r0, #1
80003e10:	2000      	movne	r0, #0
80003e12:	4770      	bx	lr
80003e14:	fab1 f281 	clz	r2, r1
80003e18:	f1c2 021f 	rsb	r2, r2, #31
80003e1c:	fa20 f002 	lsr.w	r0, r0, r2
80003e20:	4770      	bx	lr
80003e22:	b108      	cbz	r0, 80003e28 <__udivsi3+0x258>
80003e24:	f04f 30ff 	mov.w	r0, #4294967295	; 0xffffffff
80003e28:	f000 b826 	b.w	80003e78 <__aeabi_idiv0>

80003e2c <__aeabi_uidivmod>:
80003e2c:	2900      	cmp	r1, #0
80003e2e:	d0f8      	beq.n	80003e22 <__udivsi3+0x252>
80003e30:	e92d 4003 	stmdb	sp!, {r0, r1, lr}
80003e34:	f7ff fecc 	bl	80003bd0 <__udivsi3>
80003e38:	e8bd 4006 	ldmia.w	sp!, {r1, r2, lr}
80003e3c:	fb02 f300 	mul.w	r3, r2, r0
80003e40:	eba1 0103 	sub.w	r1, r1, r3
80003e44:	4770      	bx	lr
80003e46:	bf00      	nop

80003e48 <__aeabi_uldivmod>:
80003e48:	b953      	cbnz	r3, 80003e60 <__aeabi_uldivmod+0x18>
80003e4a:	b94a      	cbnz	r2, 80003e60 <__aeabi_uldivmod+0x18>
80003e4c:	2900      	cmp	r1, #0
80003e4e:	bf08      	it	eq
80003e50:	2800      	cmpeq	r0, #0
80003e52:	bf1c      	itt	ne
80003e54:	f04f 31ff 	movne.w	r1, #4294967295	; 0xffffffff
80003e58:	f04f 30ff 	movne.w	r0, #4294967295	; 0xffffffff
80003e5c:	f000 b80c 	b.w	80003e78 <__aeabi_idiv0>
80003e60:	f1ad 0c08 	sub.w	ip, sp, #8
80003e64:	e96d ce04 	strd	ip, lr, [sp, #-16]!
80003e68:	f000 f80c 	bl	80003e84 <__udivmoddi4>
80003e6c:	f8dd e004 	ldr.w	lr, [sp, #4]
80003e70:	e9dd 2302 	ldrd	r2, r3, [sp, #8]
80003e74:	b004      	add	sp, #16
80003e76:	4770      	bx	lr

80003e78 <__aeabi_idiv0>:
80003e78:	b502      	push	{r1, lr}
80003e7a:	f04f 0008 	mov.w	r0, #8
80003e7e:	f7fd fcfe 	bl	8000187e <raise>
80003e82:	bd02      	pop	{r1, pc}

80003e84 <__udivmoddi4>:
80003e84:	e92d 43f0 	stmdb	sp!, {r4, r5, r6, r7, r8, r9, lr}
80003e88:	460d      	mov	r5, r1
80003e8a:	429d      	cmp	r5, r3
80003e8c:	4604      	mov	r4, r0
80003e8e:	4610      	mov	r0, r2
80003e90:	4619      	mov	r1, r3
80003e92:	bf08      	it	eq
80003e94:	4284      	cmpeq	r4, r0
80003e96:	9a07      	ldr	r2, [sp, #28]
80003e98:	bf3c      	itt	cc
80003e9a:	2000      	movcc	r0, #0
80003e9c:	2100      	movcc	r1, #0
80003e9e:	d36a      	bcc.n	80003f76 <__udivmoddi4+0xf2>
80003ea0:	fab1 f681 	clz	r6, r1
80003ea4:	2900      	cmp	r1, #0
80003ea6:	d06f      	beq.n	80003f88 <__udivmoddi4+0x104>
80003ea8:	fab5 f385 	clz	r3, r5
80003eac:	2d00      	cmp	r5, #0
80003eae:	d067      	beq.n	80003f80 <__udivmoddi4+0xfc>
80003eb0:	1af3      	subs	r3, r6, r3
80003eb2:	f1a3 0c20 	sub.w	ip, r3, #32
80003eb6:	fa01 f703 	lsl.w	r7, r1, r3
80003eba:	fa00 fe0c 	lsl.w	lr, r0, ip
80003ebe:	f1c3 0820 	rsb	r8, r3, #32
80003ec2:	fa20 f108 	lsr.w	r1, r0, r8
80003ec6:	fa00 f603 	lsl.w	r6, r0, r3
80003eca:	ea47 070e 	orr.w	r7, r7, lr
80003ece:	469e      	mov	lr, r3
80003ed0:	430f      	orrs	r7, r1
80003ed2:	42bd      	cmp	r5, r7
80003ed4:	bf08      	it	eq
80003ed6:	42b4      	cmpeq	r4, r6
80003ed8:	bf3c      	itt	cc
80003eda:	2000      	movcc	r0, #0
80003edc:	2100      	movcc	r1, #0
80003ede:	d30c      	bcc.n	80003efa <__udivmoddi4+0x76>
80003ee0:	f04f 0901 	mov.w	r9, #1
80003ee4:	1ba4      	subs	r4, r4, r6
80003ee6:	fa29 f808 	lsr.w	r8, r9, r8
80003eea:	fa09 f10c 	lsl.w	r1, r9, ip
80003eee:	fa09 f003 	lsl.w	r0, r9, r3
80003ef2:	ea41 0108 	orr.w	r1, r1, r8
80003ef6:	eb65 0507 	sbc.w	r5, r5, r7
80003efa:	2b00      	cmp	r3, #0
80003efc:	d03b      	beq.n	80003f76 <__udivmoddi4+0xf2>
80003efe:	087f      	lsrs	r7, r7, #1
80003f00:	ea4f 0636 	mov.w	r6, r6, rrx
80003f04:	e009      	b.n	80003f1a <__udivmoddi4+0x96>
80003f06:	1ba4      	subs	r4, r4, r6
80003f08:	eb65 0507 	sbc.w	r5, r5, r7
80003f0c:	1924      	adds	r4, r4, r4
80003f0e:	416d      	adcs	r5, r5
80003f10:	3401      	adds	r4, #1
80003f12:	f145 0500 	adc.w	r5, r5, #0
80003f16:	3b01      	subs	r3, #1
80003f18:	d007      	beq.n	80003f2a <__udivmoddi4+0xa6>
80003f1a:	42bd      	cmp	r5, r7
80003f1c:	bf08      	it	eq
80003f1e:	42b4      	cmpeq	r4, r6
80003f20:	d2f1      	bcs.n	80003f06 <__udivmoddi4+0x82>
80003f22:	1924      	adds	r4, r4, r4
80003f24:	416d      	adcs	r5, r5
80003f26:	3b01      	subs	r3, #1
80003f28:	d1f7      	bne.n	80003f1a <__udivmoddi4+0x96>
80003f2a:	f1ce 0720 	rsb	r7, lr, #32
80003f2e:	fa24 f60e 	lsr.w	r6, r4, lr
80003f32:	fa05 f707 	lsl.w	r7, r5, r7
80003f36:	f1ae 0320 	sub.w	r3, lr, #32
80003f3a:	fa25 f303 	lsr.w	r3, r5, r3
80003f3e:	fa25 fc0e 	lsr.w	ip, r5, lr
80003f42:	1900      	adds	r0, r0, r4
80003f44:	ea46 0607 	orr.w	r6, r6, r7
80003f48:	ea46 0403 	orr.w	r4, r6, r3
80003f4c:	4169      	adcs	r1, r5
80003f4e:	4665      	mov	r5, ip
80003f50:	f1ae 0c20 	sub.w	ip, lr, #32
80003f54:	fa05 f70e 	lsl.w	r7, r5, lr
80003f58:	fa04 fc0c 	lsl.w	ip, r4, ip
80003f5c:	fa04 f60e 	lsl.w	r6, r4, lr
80003f60:	f1ce 0320 	rsb	r3, lr, #32
80003f64:	fa24 f303 	lsr.w	r3, r4, r3
80003f68:	ea47 070c 	orr.w	r7, r7, ip
80003f6c:	1b80      	subs	r0, r0, r6
80003f6e:	ea47 0703 	orr.w	r7, r7, r3
80003f72:	eb61 0107 	sbc.w	r1, r1, r7
80003f76:	b10a      	cbz	r2, 80003f7c <__udivmoddi4+0xf8>
80003f78:	e9c2 4500 	strd	r4, r5, [r2]
80003f7c:	e8bd 83f0 	ldmia.w	sp!, {r4, r5, r6, r7, r8, r9, pc}
80003f80:	fab4 f384 	clz	r3, r4
80003f84:	3320      	adds	r3, #32
80003f86:	e793      	b.n	80003eb0 <__udivmoddi4+0x2c>
80003f88:	fab0 f380 	clz	r3, r0
80003f8c:	f103 0620 	add.w	r6, r3, #32
80003f90:	fab5 f385 	clz	r3, r5
80003f94:	2d00      	cmp	r5, #0
80003f96:	d18b      	bne.n	80003eb0 <__udivmoddi4+0x2c>
80003f98:	e7f2      	b.n	80003f80 <__udivmoddi4+0xfc>
80003f9a:	bf00      	nop
80003f9c:	0000      	movs	r0, r0
	...

80003fa0 <__main_from_arm>:
80003fa0:	e51ff004 	ldr	pc, [pc, #-4]	; 80003fa4 <__main_from_arm+0x4>
80003fa4:	80000321 	andhi	r0, r0, r1, lsr #6

Disassembly of section .rodata:

80003fa8 <digits.0-0x44>:
80003fa8:	00003031 	andeq	r3, r0, r1, lsr r0
80003fac:	00000068 	andeq	r0, r0, r8, rrx
80003fb0:	65746e69 	ldrbvs	r6, [r4, #-3689]!	; 0xfffff197
80003fb4:	70757272 	rsbsvc	r7, r5, r2, ror r2
80003fb8:	74732074 	ldrbtvc	r2, [r3], #-116	; 0xffffff8c
80003fbc:	2c747261 	lfmcs	f7, 2, [r4], #-388	; 0xfffffe7c
80003fc0:	253a4449 	ldrcs	r4, [sl, #-1097]!	; 0xfffffbb7
80003fc4:	00000064 	andeq	r0, r0, r4, rrx
80003fc8:	61666564 	cmnvs	r6, r4, ror #10
80003fcc:	5f746c75 	svcpl	0x00746c75
80003fd0:	68717269 	ldmdavs	r1!, {r0, r3, r5, r6, r9, ip, sp, lr}^
80003fd4:	6c646e61 	stclvs	14, cr6, [r4], #-388	; 0xfffffe7c
80003fd8:	72207265 	eorvc	r7, r0, #1342177286	; 0x50000006
80003fdc:	72757465 	rsbsvc	r7, r5, #1694498816	; 0x65000000
80003fe0:	0000216e 	andeq	r2, r0, lr, ror #2
80003fe4:	4c554e3c 	mrrcmi	14, 3, r4, r5, cr12
80003fe8:	00003e4c 	andeq	r3, r0, ip, asr #28

80003fec <digits.0>:
80003fec:	33323130 	teqcc	r2, #48, 2
80003ff0:	37363534 			; <UNDEFINED> instruction: 0x37363534
80003ff4:	42413938 	submi	r3, r1, #56, 18	; 0xe0000
80003ff8:	46454443 	strbmi	r4, [r5], -r3, asr #8

Disassembly of section .ARM.exidx:

80003ffc <.ARM.exidx>:
80003ffc:	7ffffe88 	svcvc	0x00fffe88
80004000:	00000001 	andeq	r0, r0, r1

Disassembly of section .data:

80004004 <relese.0>:
80004004:	00000001 	andeq	r0, r0, r1

80004008 <_ctype>:
80004008:	08080808 	stmdaeq	r8, {r3, fp}
8000400c:	08080808 	stmdaeq	r8, {r3, fp}
80004010:	28282808 	stmdacs	r8!, {r3, fp, sp}
80004014:	08082828 	stmdaeq	r8, {r3, r5, fp, sp}
80004018:	08080808 	stmdaeq	r8, {r3, fp}
8000401c:	08080808 	stmdaeq	r8, {r3, fp}
80004020:	08080808 	stmdaeq	r8, {r3, fp}
80004024:	08080808 	stmdaeq	r8, {r3, fp}
80004028:	101010a0 	andsne	r1, r0, r0, lsr #1
8000402c:	10101010 	andsne	r1, r0, r0, lsl r0
80004030:	10101010 	andsne	r1, r0, r0, lsl r0
80004034:	10101010 	andsne	r1, r0, r0, lsl r0
80004038:	04040404 	streq	r0, [r4], #-1028	; 0xfffffbfc
8000403c:	04040404 	streq	r0, [r4], #-1028	; 0xfffffbfc
80004040:	10100404 	andsne	r0, r0, r4, lsl #8
80004044:	10101010 	andsne	r1, r0, r0, lsl r0
80004048:	41414110 	cmpmi	r1, r0, lsl r1
8000404c:	01414141 	cmpeq	r1, r1, asr #2
80004050:	01010101 	tsteq	r1, r1, lsl #2
80004054:	01010101 	tsteq	r1, r1, lsl #2
80004058:	01010101 	tsteq	r1, r1, lsl #2
8000405c:	01010101 	tsteq	r1, r1, lsl #2
80004060:	10010101 	andne	r0, r1, r1, lsl #2
80004064:	10101010 	andsne	r1, r0, r0, lsl r0
80004068:	42424210 	submi	r4, r2, #16, 4
8000406c:	02424242 	subeq	r4, r2, #536870916	; 0x20000004
80004070:	02020202 	andeq	r0, r2, #536870912	; 0x20000000
80004074:	02020202 	andeq	r0, r2, #536870912	; 0x20000000
80004078:	02020202 	andeq	r0, r2, #536870912	; 0x20000000
8000407c:	02020202 	andeq	r0, r2, #536870912	; 0x20000000
80004080:	10020202 	andne	r0, r2, r2, lsl #4
80004084:	08101010 	ldmdaeq	r0, {r4, ip}
	...
800040a8:	101010a0 	andsne	r1, r0, r0, lsr #1
800040ac:	10101010 	andsne	r1, r0, r0, lsl r0
800040b0:	10101010 	andsne	r1, r0, r0, lsl r0
800040b4:	10101010 	andsne	r1, r0, r0, lsl r0
800040b8:	10101010 	andsne	r1, r0, r0, lsl r0
800040bc:	10101010 	andsne	r1, r0, r0, lsl r0
800040c0:	10101010 	andsne	r1, r0, r0, lsl r0
800040c4:	10101010 	andsne	r1, r0, r0, lsl r0
800040c8:	01010101 	tsteq	r1, r1, lsl #2
800040cc:	01010101 	tsteq	r1, r1, lsl #2
800040d0:	01010101 	tsteq	r1, r1, lsl #2
800040d4:	01010101 	tsteq	r1, r1, lsl #2
800040d8:	01010101 	tsteq	r1, r1, lsl #2
800040dc:	10010101 	andne	r0, r1, r1, lsl #2
800040e0:	01010101 	tsteq	r1, r1, lsl #2
800040e4:	02010101 	andeq	r0, r1, #1073741824	; 0x40000000
800040e8:	02020202 	andeq	r0, r2, #536870912	; 0x20000000
800040ec:	02020202 	andeq	r0, r2, #536870912	; 0x20000000
800040f0:	02020202 	andeq	r0, r2, #536870912	; 0x20000000
800040f4:	02020202 	andeq	r0, r2, #536870912	; 0x20000000
800040f8:	02020202 	andeq	r0, r2, #536870912	; 0x20000000
800040fc:	10020202 	andne	r0, r2, r2, lsl #4
80004100:	02020202 	andeq	r0, r2, #536870912	; 0x20000000
80004104:	02020202 	andeq	r0, r2, #536870912	; 0x20000000

Disassembly of section .got:

80004108 <.got>:
80004108:	80004008 	andhi	r4, r0, r8

Disassembly of section .got.plt:

8000410c <_GLOBAL_OFFSET_TABLE_>:
	...

Disassembly of section .bss:

80004118 <irqNesting>:
80004118:	00000000 	andeq	r0, r0, r0

8000411c <irqTable>:
	...

8000461c <g_pcOutBuf>:
	...

80004a1c <g_pcInBuf>:
	...

80004e1c <___strtok>:
80004e1c:	00000000 	andeq	r0, r0, r0

Disassembly of section .ARM.attributes:

00000000 <.ARM.attributes>:
   0:	00002e41 	andeq	r2, r0, r1, asr #28
   4:	61656100 	cmnvs	r5, r0, lsl #2
   8:	01006962 	tsteq	r0, r2, ror #18
   c:	00000024 	andeq	r0, r0, r4, lsr #32
  10:	412d3705 			; <UNDEFINED> instruction: 0x412d3705
  14:	070a0600 	streq	r0, [sl, -r0, lsl #12]
  18:	09010841 	stmdbeq	r1, {r0, r6, fp}
  1c:	12040a02 	andne	r0, r4, #8192	; 0x2000
  20:	15011404 	strne	r1, [r1, #-1028]	; 0xfffffbfc
  24:	18031701 	stmdane	r3, {r0, r8, r9, sl, ip}
  28:	1c021a01 			; <UNDEFINED> instruction: 0x1c021a01
  2c:	Address 0x000000000000002c is out of bounds.


Disassembly of section .comment:

00000000 <.comment>:
   0:	3a434347 	bcc	10d0d24 <shift+0x10d0d24>
   4:	62552820 	subsvs	r2, r5, #32, 16	; 0x200000
   8:	75746e75 	ldrbvc	r6, [r4, #-3701]!	; 0xfffff18b
   c:	2e313120 	rsfcssp	f3, f1, f0
  10:	2d302e34 	ldccs	14, cr2, [r0, #-208]!	; 0xffffff30
  14:	75627531 	strbvc	r7, [r2, #-1329]!	; 0xfffffacf
  18:	3175746e 	cmncc	r5, lr, ror #8
  1c:	2e32327e 	mrccs	2, 1, r3, cr2, cr14, {3}
  20:	20293430 	eorcs	r3, r9, r0, lsr r4
  24:	342e3131 	strtcc	r3, [lr], #-305	; 0xfffffecf
  28:	4700302e 	strmi	r3, [r0, -lr, lsr #32]
  2c:	203a4343 	eorscs	r4, sl, r3, asr #6
  30:	6e694c28 	cdpvs	12, 6, cr4, cr9, cr8, {1}
  34:	206f7261 	rsbcs	r7, pc, r1, ror #4
  38:	20434347 	subcs	r4, r3, r7, asr #6
  3c:	2d392e34 	ldccs	14, cr2, [r9, #-208]!	; 0xffffff30
  40:	37313032 			; <UNDEFINED> instruction: 0x37313032
  44:	2931302e 	ldmdbcs	r1!, {r1, r2, r3, r5, ip, sp}
  48:	392e3420 	stmdbcc	lr!, {r5, sl, ip, sp}
  4c:	Address 0x000000000000004c is out of bounds.


Disassembly of section .debug_line:

00000000 <.debug_line>:
       0:	000000a7 	andeq	r0, r0, r7, lsr #1
       4:	00040005 	andeq	r0, r4, r5
       8:	0000002e 	andeq	r0, r0, lr, lsr #32
       c:	fb010102 	blx	4041e <shift+0x4041e>
      10:	01000d0e 	tsteq	r0, lr, lsl #26
      14:	00010101 	andeq	r0, r1, r1, lsl #2
      18:	00010000 	andeq	r0, r1, r0
      1c:	01010100 	mrseq	r0, (UNDEF: 17)
      20:	0000021f 	andeq	r0, r0, pc, lsl r2
      24:	001b0000 	andseq	r0, fp, r0
      28:	01020000 	mrseq	r0, (UNDEF: 2)
      2c:	020f021f 	andeq	r0, pc, #-268435455	; 0xf0000001
      30:	00000023 	andeq	r0, r0, r3, lsr #32
      34:	00002301 	andeq	r2, r0, r1, lsl #6
      38:	05000100 	streq	r0, [r0, #-256]	; 0xffffff00
      3c:	00000002 	andeq	r0, r0, r2
      40:	2f2f1a80 	svccs	0x002f1a80
      44:	2f2f2f2f 	svccs	0x002f2f2f
      48:	2f33342f 	svccs	0x0033342f
      4c:	2f2f2f2f 	svccs	0x002f2f2f
      50:	2f2f322f 	svccs	0x002f322f
      54:	362f2f2f 	strtcc	r2, [pc], -pc, lsr #30
      58:	2f2f2f2f 	svccs	0x002f2f2f
      5c:	2f2f2f31 	svccs	0x002f2f31
      60:	2f2f312f 	svccs	0x002f312f
      64:	31302f2f 	teqcc	r0, pc, lsr #30
      68:	2f312f2f 	svccs	0x00312f2f
      6c:	2f2f302f 	svccs	0x002f302f
      70:	32302f2f 	eorscc	r2, r0, #47, 30	; 0xbc
      74:	322f322f 	eorcc	r3, pc, #-268435454	; 0xf0000002
      78:	322f322f 	eorcc	r3, pc, #-268435454	; 0xf0000002
      7c:	302f332f 	eorcc	r3, pc, pc, lsr #6
      80:	2f30342f 	svccs	0x0030342f
      84:	2f303032 	svccs	0x00303032
      88:	2f2f302f 	svccs	0x002f302f
      8c:	302f302f 	eorcc	r3, pc, pc, lsr #32
      90:	2f332f2f 	svccs	0x00332f2f
      94:	2e7eea03 	vaddcs.f32	s29, s28, s6
      98:	2f2f2f2f 	svccs	0x002f2f2f
      9c:	032f2f2f 			; <UNDEFINED> instruction: 0x032f2f2f
      a0:	032f2e3e 			; <UNDEFINED> instruction: 0x032f2e3e
      a4:	02022e3d 	andeq	r2, r2, #976	; 0x3d0
      a8:	66010100 	strvs	r0, [r1], -r0, lsl #2
      ac:	05000000 	streq	r0, [r0, #-0]
      b0:	2e000400 	cfcpyscs	mvf0, mvf0
      b4:	02000000 	andeq	r0, r0, #0
      b8:	0efb0101 	cdpeq	1, 15, cr0, cr11, cr1, {0}
      bc:	0101000d 	tsteq	r1, sp
      c0:	00000101 	andeq	r0, r0, r1, lsl #2
      c4:	00000100 	andeq	r0, r0, r0, lsl #2
      c8:	1f010101 	svcne	0x00010101
      cc:	00000002 	andeq	r0, r0, r2
      d0:	00002b00 	andeq	r2, r0, r0, lsl #22
      d4:	1f010200 	svcne	0x00010200
      d8:	35020f02 	strcc	r0, [r2, #-3842]	; 0xfffff0fe
      dc:	01000000 	mrseq	r0, (UNDEF: 0)
      e0:	00000035 	andeq	r0, r0, r5, lsr r0
      e4:	02050001 	andeq	r0, r5, #1
      e8:	80000180 	andhi	r0, r0, r0, lsl #3
      ec:	0101f403 	tsteq	r1, r3, lsl #8	; <UNPREDICTABLE>
      f0:	2f2f2f2f 	svccs	0x002f2f2f
      f4:	02302f2f 	eorseq	r2, r0, #47, 30	; 0xbc
      f8:	2b03144e 	blcs	c5238 <shift+0xc5238>
      fc:	2f2f2f4a 	svccs	0x002f2f4a
     100:	2f2f2f2f 	svccs	0x002f2f2f
     104:	302f2f2f 	eorcc	r2, pc, pc, lsr #30
     108:	2f144e02 	svccs	0x00144e02
     10c:	2f30332f 	svccs	0x0030332f
     110:	01000202 	tsteq	r0, r2, lsl #4
     114:	0000eb01 	andeq	lr, r0, r1, lsl #22
     118:	b9000300 	stmdblt	r0, {r8, r9}
     11c:	02000000 	andeq	r0, r0, #0
     120:	0d0efb01 	vstreq	d15, [lr, #-4]
     124:	01010100 	mrseq	r0, (UNDEF: 17)
     128:	00000001 	andeq	r0, r0, r1
     12c:	01000001 	tsteq	r0, r1
     130:	6a6f7270 	bvs	1bdcaf8 <shift+0x1bdcaf8>
     134:	00746365 	rsbseq	r6, r4, r5, ror #6
     138:	2f707362 	svccs	0x00707362
     13c:	616c6564 	cmnvs	ip, r4, ror #10
     140:	73620079 	cmnvc	r2, #121	; 0x79
     144:	70652f70 	rsbvc	r2, r5, r0, ror pc
     148:	69747469 	ldmdbvs	r4!, {r0, r3, r5, r6, sl, ip, sp, lr}^
     14c:	0072656d 	rsbseq	r6, r2, sp, ror #10
     150:	2f707362 	svccs	0x00707362
     154:	74726175 	ldrbtvc	r6, [r2], #-373	; 0xfffffe8b
     158:	70736200 	rsbsvc	r6, r3, r0, lsl #4
     15c:	6b6c632f 	blvs	1b18e20 <shift+0x1b18e20>
     160:	70736200 	rsbsvc	r6, r3, r0, lsl #4
     164:	746e692f 	strbtvc	r6, [lr], #-2351	; 0xfffff6d1
     168:	64747300 	ldrbtvs	r7, [r4], #-768	; 0xfffffd00
     16c:	692f6f69 	stmdbvs	pc!, {r0, r3, r5, r6, r8, r9, sl, fp, sp, lr}	; <UNPREDICTABLE>
     170:	756c636e 	strbvc	r6, [ip, #-878]!	; 0xfffffc92
     174:	00006564 	andeq	r6, r0, r4, ror #10
     178:	6e69616d 	powvsez	f6, f1, #5.0
     17c:	0100632e 	tsteq	r0, lr, lsr #6
     180:	73620000 	cmnvc	r2, #0
     184:	65645f70 	strbvs	r5, [r4, #-3952]!	; 0xfffff090
     188:	2e79616c 	rpwcsez	f6, f1, #4.0
     18c:	00020068 	andeq	r0, r2, r8, rrx
     190:	70736200 	rsbsvc	r6, r3, r0, lsl #4
     194:	6970655f 	ldmdbvs	r0!, {r0, r1, r2, r3, r4, r6, r8, sl, sp, lr}^
     198:	6d697474 	cfstrdvs	mvd7, [r9, #-464]!	; 0xfffffe30
     19c:	682e7265 	stmdavs	lr!, {r0, r2, r5, r6, r9, ip, sp, lr}
     1a0:	00000300 	andeq	r0, r0, r0, lsl #6
     1a4:	5f707362 	svcpl	0x00707362
     1a8:	74726175 	ldrbtvc	r6, [r2], #-373	; 0xfffffe8b
     1ac:	0400682e 	streq	r6, [r0], #-2094	; 0xfffff7d2
     1b0:	73620000 	cmnvc	r2, #0
     1b4:	6c635f70 	stclvs	15, cr5, [r3], #-448	; 0xfffffe40
     1b8:	00682e6b 	rsbeq	r2, r8, fp, ror #28
     1bc:	62000005 	andvs	r0, r0, #5
     1c0:	695f7073 	ldmdbvs	pc, {r0, r1, r4, r5, r6, ip, sp, lr}^	; <UNPREDICTABLE>
     1c4:	682e746e 	stmdavs	lr!, {r1, r2, r3, r5, r6, sl, ip, sp, lr}
     1c8:	00000600 	andeq	r0, r0, r0, lsl #12
     1cc:	69647473 	stmdbvs	r4!, {r0, r1, r4, r5, r6, sl, ip, sp, lr}^
     1d0:	00682e6f 	rsbeq	r2, r8, pc, ror #28
     1d4:	00000007 	andeq	r0, r0, r7
     1d8:	05000105 	streq	r0, [r0, #-261]	; 0xfffffefb
     1dc:	00032002 	andeq	r2, r3, r2
     1e0:	010f0380 	smlabbeq	pc, r0, r3, r0	; <UNPREDICTABLE>
     1e4:	2f300505 	svccs	0x00300505
     1e8:	2f2f2f2f 	svccs	0x002f2f2f
     1ec:	02000905 	andeq	r0, r0, #81920	; 0x14000
     1f0:	0a030104 	beq	c0608 <shift+0xc0608>
     1f4:	04020074 	streq	r0, [r2], #-116	; 0xffffff8c
     1f8:	02004b01 	andeq	r4, r0, #1024	; 0x400
     1fc:	02570104 	subseq	r0, r7, #4, 2
     200:	01010004 	tsteq	r1, r4
     204:	000000fb 	strdeq	r0, [r0], -fp
     208:	00460003 	subeq	r0, r6, r3
     20c:	01020000 	mrseq	r0, (UNDEF: 2)
     210:	000d0efb 	strdeq	r0, [sp], -fp
     214:	01010101 	tsteq	r1, r1, lsl #2
     218:	01000000 	mrseq	r0, (UNDEF: 0)
     21c:	62010000 	andvs	r0, r1, #0
     220:	632f7073 			; <UNDEFINED> instruction: 0x632f7073
     224:	64006b6c 	strvs	r6, [r0], #-2924	; 0xfffff494
     228:	63697665 	cmnvs	r9, #105906176	; 0x6500000
     22c:	00007365 	andeq	r7, r0, r5, ror #6
     230:	5f707362 	svcpl	0x00707362
     234:	2e6b6c63 	cdpcs	12, 6, cr6, cr11, cr3, {3}
     238:	00010063 	andeq	r0, r1, r3, rrx
     23c:	2e636300 	cdpcs	3, 6, cr6, cr3, cr0, {0}
     240:	00020068 	andeq	r0, r2, r8, rrx
     244:	49434d00 	stmdbmi	r3, {r8, sl, fp, lr}^
     248:	5936584d 	ldmdbpl	r6!, {r0, r2, r3, r6, fp, ip, lr}
     24c:	00682e32 	rsbeq	r2, r8, r2, lsr lr
     250:	00000002 	andeq	r0, r0, r2
     254:	05000105 	streq	r0, [r0, #-261]	; 0xfffffefb
     258:	00036002 	andeq	r6, r3, r2
     25c:	05051980 	streq	r1, [r5, #-2432]	; 0xfffff680
     260:	4a0f052f 	bmi	3c1724 <shift+0x3c1724>
     264:	053d0505 	ldreq	r0, [sp, #-1285]!	; 0xfffffafb
     268:	05054a0f 	streq	r4, [r5, #-2575]	; 0xfffff5f1
     26c:	4a0f053d 	bmi	3c1768 <shift+0x3c1768>
     270:	053d0505 	ldreq	r0, [sp, #-1285]!	; 0xfffffafb
     274:	05054a0f 	streq	r4, [r5, #-2575]	; 0xfffff5f1
     278:	4a0f053d 	bmi	3c1774 <shift+0x3c1774>
     27c:	053d0505 	ldreq	r0, [sp, #-1285]!	; 0xfffffafb
     280:	05054a0f 	streq	r4, [r5, #-2575]	; 0xfffff5f1
     284:	4a0f053d 	bmi	3c1780 <shift+0x3c1780>
     288:	5c3d0105 	ldfpls	f0, [sp], #-20	; 0xffffffec
     28c:	053d1205 	ldreq	r1, [sp, #-517]!	; 0xfffffdfb
     290:	2e0a030f 	cdpcs	3, 0, cr0, cr10, cr15, {0}
     294:	05582405 	ldrbeq	r2, [r8, #-1029]	; 0xfffffbfb
     298:	13052e08 	movwne	r2, #24072	; 0x5e08
     29c:	0f05bb30 	svceq	0x0005bb30
     2a0:	05ba0a03 	ldreq	r0, [sl, #2563]!	; 0xa03
     2a4:	0f054a19 	svceq	0x00054a19
     2a8:	bb08053d 	bllt	2017a4 <shift+0x2017a4>
     2ac:	054a1005 	strbeq	r1, [sl, #-5]
     2b0:	09053115 	stmdbeq	r5, {r0, r2, r4, r8, ip, sp}
     2b4:	4b4b3d4a 	blmi	12cf7e4 <shift+0x12cf7e4>
     2b8:	0f054b4b 	svceq	0x00054b4b
     2bc:	4a19054b 	bmi	6417f0 <shift+0x6417f0>
     2c0:	053f0905 	ldreq	r0, [pc, #-2309]!	; fffff9c3 <__bss_end+0x7fffaba3>
     2c4:	09052f15 	stmdbeq	r5, {r0, r2, r4, r8, r9, sl, fp, sp}
     2c8:	4b4b3d4a 	blmi	12cf7f8 <shift+0x12cf7f8>
     2cc:	0f054b4b 	svceq	0x00054b4b
     2d0:	4a19054b 	bmi	641804 <shift+0x641804>
     2d4:	bb3f1005 	bllt	fc42f0 <shift+0xfc42f0>
     2d8:	bb0b05bb 	bllt	2c19cc <shift+0x2c19cc>
     2dc:	02000f05 	andeq	r0, r0, #5, 30
     2e0:	05200104 	streq	r0, [r0, #-260]!	; 0xfffffefc
     2e4:	04020018 	streq	r0, [r2], #-24	; 0xffffffe8
     2e8:	0c055801 	stceq	8, cr5, [r5], {1}
     2ec:	01040200 	mrseq	r0, R12_usr
     2f0:	0310052e 	tsteq	r0, #192937984	; 0xb800000
     2f4:	05bb2e11 	ldreq	r2, [fp, #3601]!	; 0xe11
     2f8:	05bbbd11 	ldreq	fp, [fp, #3345]!	; 0xd11
     2fc:	0602bb01 	streq	fp, [r2], -r1, lsl #22
     300:	ea010100 	b	40708 <shift+0x40708>
     304:	03000000 	movweq	r0, #0
     308:	00006d00 	andeq	r6, r0, r0, lsl #26
     30c:	fb010200 	blx	40b16 <shift+0x40b16>
     310:	01000d0e 	tsteq	r0, lr, lsl #26
     314:	00010101 	andeq	r0, r1, r1, lsl #2
     318:	00010000 	andeq	r0, r1, r0
     31c:	65640100 	strbvs	r0, [r4, #-256]!	; 0xffffff00
     320:	65636976 	strbvs	r6, [r3, #-2422]!	; 0xfffff68a
     324:	73620073 	cmnvc	r2, #115	; 0x73
     328:	656c2f70 	strbvs	r2, [ip, #-3952]!	; 0xfffff090
     32c:	73620064 	cmnvc	r2, #100	; 0x64
     330:	70672f70 	rsbvc	r2, r7, r0, ror pc
     334:	00006f69 	andeq	r6, r0, r9, ror #30
     338:	5f6c7366 	svcpl	0x006c7366
     33c:	756d6f69 	strbvc	r6, [sp, #-3945]!	; 0xfffff097
     340:	682e6378 	stmdavs	lr!, {r3, r4, r5, r6, r8, r9, sp, lr}
     344:	00000100 	andeq	r0, r0, r0, lsl #2
     348:	5f707362 	svcpl	0x00707362
     34c:	2e64656c 	cdpcs	5, 6, cr6, cr4, cr12, {3}
     350:	00020063 	andeq	r0, r2, r3, rrx
     354:	49434d00 	stmdbmi	r3, {r8, sl, fp, lr}^
     358:	5936584d 	ldmdbpl	r6!, {r0, r2, r3, r6, fp, ip, lr}
     35c:	00682e32 	rsbeq	r2, r8, r2, lsr lr
     360:	63000001 	movwvs	r0, #1
     364:	00682e63 	rsbeq	r2, r8, r3, ror #28
     368:	62000001 	andvs	r0, r0, #1
     36c:	675f7073 			; <UNDEFINED> instruction: 0x675f7073
     370:	2e6f6970 			; <UNDEFINED> instruction: 0x2e6f6970
     374:	00030068 	andeq	r0, r3, r8, rrx
     378:	01050000 	mrseq	r0, (UNDEF: 5)
     37c:	a2020500 	andge	r0, r2, #0, 10
     380:	03800005 	orreq	r0, r0, #5
     384:	050108a9 	streq	r0, [r1, #-2217]	; 0xfffff757
     388:	33057609 	movwcc	r7, #22025	; 0x5609
     38c:	4907053c 	stmdbmi	r7, {r2, r3, r4, r5, r8, sl}
     390:	05213105 	streq	r3, [r1, #-261]!	; 0xfffffefb
     394:	08051f29 	stmdaeq	r5, {r0, r3, r5, r8, r9, sl, fp, ip}
     398:	3e0b0523 	cfsh32cc	mvfx0, mvfx11, #19
     39c:	05203105 	streq	r3, [r0, #-261]!	; 0xfffffefb
     3a0:	01053c2f 	tsteq	r5, pc, lsr #24
     3a4:	66180322 	ldrvs	r0, [r8], -r2, lsr #6
     3a8:	05750805 	ldrbeq	r0, [r5, #-2053]!	; 0xfffff7fb
     3ac:	30053e0b 	andcc	r3, r5, fp, lsl #28
     3b0:	30010520 	andcc	r0, r1, r0, lsr #10
     3b4:	b9030204 	stmdblt	r3, {r2, r9}
     3b8:	05056677 	streq	r6, [r5, #-1655]	; 0xfffff989
     3bc:	e40c033e 	str	r0, [ip], #-830	; 0xfffffcc2
     3c0:	05f41105 	ldrbeq	r1, [r4, #261]!	; 0x105
     3c4:	0105bc0f 	tsteq	r5, pc, lsl #24
     3c8:	0f0544bb 	svceq	0x000544bb
     3cc:	bb010532 	bllt	4189c <shift+0x4189c>
     3d0:	320f0560 	andcc	r0, pc, #96, 10	; 0x18000000
     3d4:	05bb0105 	ldreq	r0, [fp, #261]!	; 0x105
     3d8:	08055a2a 	stmdaeq	r5, {r1, r3, r5, r9, fp, ip, lr}
     3dc:	82070559 	andhi	r0, r7, #373293056	; 0x16400000
     3e0:	052f0905 	streq	r0, [pc, #-2309]!	; fffffae3 <__bss_end+0x7fffacc3>
     3e4:	09058601 	stmdbeq	r5, {r0, r9, sl, pc}
     3e8:	8401051e 	strhi	r0, [r1], #-1310	; 0xfffffae2
     3ec:	01000402 	tsteq	r0, r2, lsl #8
     3f0:	0001ef01 	andeq	lr, r1, r1, lsl #30
     3f4:	84000300 	strhi	r0, [r0], #-768	; 0xfffffd00
     3f8:	02000000 	andeq	r0, r0, #0
     3fc:	0d0efb01 	vstreq	d15, [lr, #-4]
     400:	01010100 	mrseq	r0, (UNDEF: 17)
     404:	00000001 	andeq	r0, r0, r1
     408:	01000001 	tsteq	r0, r1
     40c:	2f707362 	svccs	0x00707362
     410:	616c6564 	cmnvs	ip, r4, ror #10
     414:	65640079 	strbvs	r0, [r4, #-121]!	; 0xffffff87
     418:	65636976 	strbvs	r6, [r3, #-2422]!	; 0xfffff68a
     41c:	73620073 	cmnvc	r2, #115	; 0x73
     420:	6e692f70 	mcrvs	15, 3, r2, cr9, cr0, {3}
     424:	73620074 	cmnvc	r2, #116	; 0x74
     428:	61752f70 	cmnvs	r5, r0, ror pc
     42c:	00007472 	andeq	r7, r0, r2, ror r4
     430:	5f707362 	svcpl	0x00707362
     434:	616c6564 	cmnvs	ip, r4, ror #10
     438:	00632e79 	rsbeq	r2, r3, r9, ror lr
     43c:	63000001 	movwvs	r0, #1
     440:	5f65726f 	svcpl	0x0065726f
     444:	2e376163 	rsfcssz	f6, f7, f3
     448:	00020068 	andeq	r0, r2, r8, rrx
     44c:	2e636300 	cdpcs	3, 6, cr6, cr3, cr0, {0}
     450:	00020068 	andeq	r0, r2, r8, rrx
     454:	49434d00 	stmdbmi	r3, {r8, sl, fp, lr}^
     458:	5936584d 	ldmdbpl	r6!, {r0, r2, r3, r6, fp, ip, lr}
     45c:	00682e32 	rsbeq	r2, r8, r2, lsr lr
     460:	62000002 	andvs	r0, r0, #2
     464:	695f7073 	ldmdbvs	pc, {r0, r1, r4, r5, r6, ip, sp, lr}^	; <UNPREDICTABLE>
     468:	682e746e 	stmdavs	lr!, {r1, r2, r3, r5, r6, sl, ip, sp, lr}
     46c:	00000300 	andeq	r0, r0, r0, lsl #6
     470:	5f707362 	svcpl	0x00707362
     474:	74726175 	ldrbtvc	r6, [r2], #-373	; 0xfffffe8b
     478:	0400682e 	streq	r6, [r0], #-2094	; 0xfffff7d2
     47c:	05000000 	streq	r0, [r0, #-0]
     480:	02050001 	andeq	r0, r5, #1
     484:	80000714 	andhi	r0, r0, r4, lsl r7
     488:	05010903 	streq	r0, [r1, #-2307]	; 0xfffff6fd
     48c:	0b052f06 	bleq	14c0ac <shift+0x14c0ac>
     490:	3006054a 	andcc	r0, r6, sl, asr #10
     494:	054a0b05 	strbeq	r0, [sl, #-2821]	; 0xfffff4fb
     498:	0d053d07 	stceq	13, cr3, [r5, #-28]	; 0xffffffe4
     49c:	01040200 	mrseq	r0, R12_usr
     4a0:	00080520 	andeq	r0, r8, r0, lsr #10
     4a4:	58010402 	stmdapl	r1, {r1, sl}
     4a8:	09030605 	stmdbeq	r3, {r0, r2, r9, sl}
     4ac:	4a0b054a 	bmi	2c19dc <shift+0x2c19dc>
     4b0:	05350605 	ldreq	r0, [r5, #-1541]!	; 0xfffff9fb
     4b4:	06054a0b 	streq	r4, [r5], -fp, lsl #20
     4b8:	052e0903 	streq	r0, [lr, #-2307]!	; 0xfffff6fd
     4bc:	0b054a0f 	bleq	152d00 <shift+0x152d00>
     4c0:	0301053e 	movweq	r0, #5438	; 0x153e
     4c4:	1603ba22 	strne	fp, [r3], -r2, lsr #20
     4c8:	4c100558 	cfldr32mi	mvfx0, [r0], {88}	; 0x58
     4cc:	05300f05 	ldreq	r0, [r0, #-3845]!	; 0xfffff0fb
     4d0:	10054a09 	andne	r4, r5, r9, lsl #20
     4d4:	4a0a0531 	bmi	2819a0 <shift+0x2819a0>
     4d8:	052f0505 	streq	r0, [pc, #-1285]!	; ffffffdb <__bss_end+0x7fffb1bb>
     4dc:	19054c06 	stmdbne	r5, {r1, r2, sl, fp, lr}
     4e0:	3c0f054b 	cfstr32cc	mvfx0, [pc], {75}	; 0x4b
     4e4:	054c2405 	strbeq	r2, [ip, #-1029]	; 0xfffffbfb
     4e8:	0b053c0f 	bleq	14f52c <shift+0x14f52c>
     4ec:	2f06054b 	svccs	0x0006054b
     4f0:	78030a05 	stmdavc	r3, {r0, r2, r9, fp}
     4f4:	0304054a 	movweq	r0, #17738	; 0x454a
     4f8:	01052009 	tsteq	r5, r9
     4fc:	06056e23 	streq	r6, [r5], -r3, lsr #28
     500:	2f07054b 	svccs	0x0007054b
     504:	052e0205 	streq	r0, [lr, #-517]!	; 0xfffffdfb
     508:	04020003 	streq	r0, [r2], #-3
     50c:	17052203 	strne	r2, [r5, -r3, lsl #4]
     510:	03040200 	movweq	r0, #16896	; 0x4200
     514:	000c0548 	andeq	r0, ip, r8, asr #10
     518:	3c010402 	cfstrscc	mvf0, [r1], {2}
     51c:	604e0105 	subvs	r0, lr, r5, lsl #2
     520:	054b0705 	strbeq	r0, [fp, #-1797]	; 0xfffff8fb
     524:	04020009 	streq	r0, [r2], #-9
     528:	08052001 	stmdaeq	r5, {r0, sp}
     52c:	01040200 	mrseq	r0, R12_usr
     530:	2f01053c 	svccs	0x0001053c
     534:	05740903 	ldrbeq	r0, [r4, #-2307]!	; 0xfffff6fd
     538:	03054b07 	movweq	r4, #23303	; 0x5b07
     53c:	48090522 	stmdami	r9, {r1, r5, r8, sl}
     540:	053c0805 	ldreq	r0, [ip, #-2053]!	; 0xfffff7fb
     544:	055c3201 	ldrbeq	r3, [ip, #-513]	; 0xfffffdff
     548:	0b054b06 	bleq	153168 <shift+0x153168>
     54c:	3006054a 	andcc	r0, r6, sl, asr #10
     550:	054a0b05 	strbeq	r0, [sl, #-2821]	; 0xfffff4fb
     554:	0d053d07 	stceq	13, cr3, [r5, #-28]	; 0xffffffe4
     558:	01040200 	mrseq	r0, R12_usr
     55c:	00080520 	andeq	r0, r8, r0, lsr #10
     560:	58010402 	stmdapl	r1, {r1, sl}
     564:	09030605 	stmdbeq	r3, {r0, r2, r9, sl}
     568:	4a0b054a 	bmi	2c1a98 <shift+0x2c1a98>
     56c:	05350605 	ldreq	r0, [r5, #-1541]!	; 0xfffff9fb
     570:	05304a0b 	ldreq	r4, [r0, #-2571]!	; 0xfffff5f5
     574:	0f05c106 	svceq	0x0005c106
     578:	340b054a 	strcc	r0, [fp], #-1354	; 0xfffffab6
     57c:	0a050204 	beq	140d94 <shift+0x140d94>
     580:	d602d003 	strle	sp, [r2], -r3
     584:	f6032e05 			; <UNDEFINED> instruction: 0xf6032e05
     588:	0e052e00 	cdpeq	14, 0, cr2, cr5, cr0, {0}
     58c:	214b052e 	cmpcs	fp, lr, lsr #10
     590:	05206405 	streq	r6, [r0, #-1029]!	; 0xfffffbfb
     594:	2f052e16 	svccs	0x00052e16
     598:	20460520 	subcs	r0, r6, r0, lsr #10
     59c:	052e3505 	streq	r3, [lr, #-1285]!	; 0xfffffafb
     5a0:	0a055901 	beq	1569ac <shift+0x1569ac>
     5a4:	587f8803 	ldmdapl	pc!, {r0, r1, fp, pc}^	; <UNPREDICTABLE>
     5a8:	b7032e05 	strlt	r2, [r3, -r5, lsl #28]
     5ac:	0e052e01 	cdpeq	14, 0, cr2, cr5, cr1, {0}
     5b0:	2133052e 	teqcs	r3, lr, lsr #10
     5b4:	052e1705 	streq	r1, [lr, #-1797]!	; 0xfffff8fb
     5b8:	31052033 	tstcc	r5, r3, lsr r0
     5bc:	6701052e 	strvs	r0, [r1, -lr, lsr #10]
     5c0:	02050104 	andeq	r0, r5, #4, 2
     5c4:	207bfe03 	rsbscs	pc, fp, r3, lsl #28
     5c8:	77010521 	strvc	r0, [r1, -r1, lsr #10]
     5cc:	3309056b 	movwcc	r0, #38251	; 0x956b
     5d0:	05580e05 	ldrbeq	r0, [r8, #-3589]	; 0xfffff1fb
     5d4:	03052e04 	movweq	r2, #24068	; 0x5e04
     5d8:	5b0b0530 	blpl	2c1aa0 <shift+0x2c1aa0>
     5dc:	02bb0105 	adcseq	r0, fp, #1073741825	; 0x40000001
     5e0:	01010004 	tsteq	r1, r4
     5e4:	000000c3 	andeq	r0, r0, r3, asr #1
     5e8:	00580003 	subseq	r0, r8, r3
     5ec:	01020000 	mrseq	r0, (UNDEF: 2)
     5f0:	000d0efb 	strdeq	r0, [sp], -fp
     5f4:	01010101 	tsteq	r1, r1, lsl #2
     5f8:	01000000 	mrseq	r0, (UNDEF: 0)
     5fc:	64010000 	strvs	r0, [r1], #-0
     600:	63697665 	cmnvs	r9, #105906176	; 0x6500000
     604:	62007365 	andvs	r7, r0, #-1811939327	; 0x94000001
     608:	622f7073 	eorvs	r7, pc, #115	; 0x73
     60c:	00706565 	rsbseq	r6, r0, r5, ror #10
     610:	6c736600 	ldclvs	6, cr6, [r3], #-0
     614:	6d6f695f 			; <UNDEFINED> instruction: 0x6d6f695f
     618:	2e637875 	mcrcs	8, 3, r7, cr3, cr5, {3}
     61c:	00010068 	andeq	r0, r1, r8, rrx
     620:	70736200 	rsbsvc	r6, r3, r0, lsl #4
     624:	6565625f 	strbvs	r6, [r5, #-607]!	; 0xfffffda1
     628:	00632e70 	rsbeq	r2, r3, r0, ror lr
     62c:	4d000002 	stcmi	0, cr0, [r0, #-8]
     630:	584d4943 	stmdapl	sp, {r0, r1, r6, r8, fp, lr}^
     634:	2e325936 			; <UNDEFINED> instruction: 0x2e325936
     638:	00010068 	andeq	r0, r1, r8, rrx
     63c:	2e636300 	cdpcs	3, 6, cr6, cr3, cr0, {0}
     640:	00010068 	andeq	r0, r1, r8, rrx
     644:	01050000 	mrseq	r0, (UNDEF: 5)
     648:	ac020500 	cfstr32ge	mvfx0, [r2], {-0}
     64c:	03800009 	orreq	r0, r0, #9
     650:	050108a9 	streq	r0, [r1, #-2217]	; 0xfffff757
     654:	33057609 	movwcc	r7, #22025	; 0x5609
     658:	4907053c 	stmdbmi	r7, {r2, r3, r4, r5, r8, sl}
     65c:	05213105 	streq	r3, [r1, #-261]!	; 0xfffffefb
     660:	08051f29 	stmdaeq	r5, {r0, r3, r5, r8, r9, sl, fp, ip}
     664:	3e0b0523 	cfsh32cc	mvfx0, mvfx11, #19
     668:	05203105 	streq	r3, [r0, #-261]!	; 0xfffffefb
     66c:	01053c2f 	tsteq	r5, pc, lsr #24
     670:	66180322 	ldrvs	r0, [r8], -r2, lsr #6
     674:	05750805 	ldrbeq	r0, [r5, #-2053]!	; 0xfffff7fb
     678:	30053e0b 	andcc	r3, r5, fp, lsl #28
     67c:	30010520 	andcc	r0, r1, r0, lsr #10
     680:	ba030204 	blt	c0e98 <shift+0xc0e98>
     684:	05056677 	streq	r6, [r5, #-1655]	; 0xfffff989
     688:	1105d93e 	tstne	r5, lr, lsr r9
     68c:	bd0f05e7 	cfstr32lt	mvfx0, [pc, #-924]	; 2f8 <shift+0x2f8>
     690:	44bb0105 	ldrtmi	r0, [fp], #261	; 0x105
     694:	054b0705 	strbeq	r0, [fp, #-1797]	; 0xfffff8fb
     698:	01053d0f 	tsteq	r5, pc, lsl #26
     69c:	1e0c05bd 	mcrne	5, 0, r0, cr12, cr13, {5}
     6a0:	053d0f05 	ldreq	r0, [sp, #-3845]!	; 0xfffff0fb
     6a4:	0602bb01 	streq	fp, [r2], -r1, lsl #22
     6a8:	97010100 	strls	r0, [r1, -r0, lsl #2]
     6ac:	03000001 	movweq	r0, #1
     6b0:	00005600 	andeq	r5, r0, r0, lsl #12
     6b4:	fb010200 	blx	40ebe <shift+0x40ebe>
     6b8:	01000d0e 	tsteq	r0, lr, lsl #26
     6bc:	00010101 	andeq	r0, r1, r1, lsl #2
     6c0:	00010000 	andeq	r0, r1, r0
     6c4:	73620100 	cmnvc	r2, #0, 2
     6c8:	70672f70 	rsbvc	r2, r7, r0, ror pc
     6cc:	64006f69 	strvs	r6, [r0], #-3945	; 0xfffff097
     6d0:	63697665 	cmnvs	r9, #105906176	; 0x6500000
     6d4:	00007365 	andeq	r7, r0, r5, ror #6
     6d8:	5f707362 	svcpl	0x00707362
     6dc:	6f697067 	svcvs	0x00697067
     6e0:	0100632e 	tsteq	r0, lr, lsr #6
     6e4:	63630000 	cmnvs	r3, #0
     6e8:	0200682e 	andeq	r6, r0, #3014656	; 0x2e0000
     6ec:	434d0000 	movtmi	r0, #53248	; 0xd000
     6f0:	36584d49 	ldrbcc	r4, [r8], -r9, asr #26
     6f4:	682e3259 	stmdavs	lr!, {r0, r3, r4, r6, r9, ip, sp}
     6f8:	00000200 	andeq	r0, r0, r0, lsl #4
     6fc:	5f707362 	svcpl	0x00707362
     700:	6f697067 	svcvs	0x00697067
     704:	0100682e 	tsteq	r0, lr, lsr #16
     708:	05000000 	streq	r0, [r0, #-0]
     70c:	0205002b 	andeq	r0, r5, #43	; 0x2b
     710:	80000ad8 	ldrdhi	r0, [r0], -r8
     714:	59110514 	ldmdbpl	r1, {r2, r4, r8, sl}
     718:	052e1605 	streq	r1, [lr, #-1541]!	; 0xfffff9fb
     71c:	01053c1e 	tsteq	r5, lr, lsl ip
     720:	6838052f 	ldmdavs	r8!, {r0, r1, r2, r3, r5, r8, sl}
     724:	05670705 	strbeq	r0, [r7, #-1797]!	; 0xfffff8fb
     728:	1b053d12 	blne	14fb78 <shift+0x14fb78>
     72c:	4a15052e 	bmi	541bec <shift+0x541bec>
     730:	05201205 	streq	r1, [r0, #-517]!	; 0xfffffdfb
     734:	12054001 	andne	r4, r5, #1
     738:	2e19051e 	mrccs	5, 0, r0, cr9, cr14, {0}
     73c:	054a1205 	strbeq	r1, [sl, #-517]	; 0xfffffdfb
     740:	44053e01 	strmi	r3, [r5], #-3585	; 0xfffff1ff
     744:	680e0568 	stmdavs	lr, {r3, r5, r6, r8, sl}
     748:	052e0705 	streq	r0, [lr, #-1797]!	; 0xfffff8fb
     74c:	1b052f14 	blne	14c3a4 <shift+0x14c3a4>
     750:	4a17052e 	bmi	5c1c10 <shift+0x5c1c10>
     754:	4e201405 	cdpmi	4, 2, cr1, cr0, cr5, {0}
     758:	052e1a05 	streq	r1, [lr, #-2565]!	; 0xfffff5fb
     75c:	28054a14 	stmdacs	r5, {r2, r4, r9, fp, lr}
     760:	2e09053e 	mcrcs	5, 0, r0, cr9, cr14, {1}
     764:	055b0e05 	ldrbeq	r0, [fp, #-3589]	; 0xfffff1fb
     768:	1f052e07 	svcne	0x00052e07
     76c:	01040200 	mrseq	r0, R12_usr
     770:	7501052e 	strvc	r0, [r1, #-1326]	; 0xfffffad2
     774:	054a0a03 	strbeq	r0, [sl, #-2563]	; 0xfffff5fd
     778:	11056a0b 	tstne	r5, fp, lsl #20
     77c:	2e190530 	cfmvr64hcs	r0, mvdx9
     780:	054a1405 	strbeq	r1, [sl, #-1029]	; 0xfffffbfb
     784:	04052011 	streq	r2, [r5], #-17	; 0xffffffef
     788:	3e07053e 	mcrcc	5, 0, r0, cr7, cr14, {1}
     78c:	3d0c054e 	cfstr32cc	mvfx0, [ip, #-312]	; 0xfffffec8
     790:	053e0205 	ldreq	r0, [lr, #-517]!	; 0xfffffdfb
     794:	053f0809 	ldreq	r0, [pc, #-2057]!	; ffffff93 <__bss_end+0x7fffb173>
     798:	11052e17 	tstne	r5, r7, lsl lr
     79c:	3c0c052e 	cfstr32cc	mvfx0, [ip], {46}	; 0x2e
     7a0:	05200905 	streq	r0, [r0, #-2309]!	; 0xfffff6fb
     7a4:	0c053d04 	stceq	13, cr3, [r5], {4}
     7a8:	2e1f0522 	cfmul64cs	mvdx0, mvdx15, mvdx2
     7ac:	052e1905 	streq	r1, [lr, #-2309]!	; 0xfffff6fb
     7b0:	11053c14 	tstne	r5, r4, lsl ip
     7b4:	203a0520 	eorscs	r0, sl, r0, lsr #10
     7b8:	052e3405 	streq	r3, [lr, #-1029]!	; 0xfffffbfb
     7bc:	09053c2e 	stmdbeq	r5, {r1, r2, r3, r5, sl, fp, ip, sp}
     7c0:	2f040520 	svccs	0x00040520
     7c4:	05220c05 	streq	r0, [r2, #-3077]!	; 0xfffff3fb
     7c8:	19052e1f 	stmdbne	r5, {r0, r1, r2, r3, r4, r9, sl, fp, sp}
     7cc:	3c14052e 	cfldr32cc	mvfx0, [r4], {46}	; 0x2e
     7d0:	05201105 	streq	r1, [r0, #-261]!	; 0xfffffefb
     7d4:	3405203a 	strcc	r2, [r5], #-58	; 0xffffffc6
     7d8:	3c2e052e 	cfstr32cc	mvfx0, [lr], #-184	; 0xffffff48
     7dc:	05200905 	streq	r0, [r0, #-2309]!	; 0xfffff6fb
     7e0:	09052f04 	stmdbeq	r5, {r2, r8, r9, sl, fp, sp}
     7e4:	2e160522 	cfmul64cs	mvdx0, mvdx6, mvdx2
     7e8:	052e1005 	streq	r1, [lr, #-5]!
     7ec:	04053c09 	streq	r3, [r5], #-3081	; 0xfffff3f7
     7f0:	2213053d 	andscs	r0, r3, #255852544	; 0xf400000
     7f4:	052e1a05 	streq	r1, [lr, #-2565]!	; 0xfffff5fb
     7f8:	04054a13 	streq	r4, [r5], #-2579	; 0xfffff5ed
     7fc:	0105223d 	tsteq	r5, sp, lsr r2
     800:	66090322 	strvs	r0, [r9], -r2, lsr #6
     804:	05590f05 	ldrbeq	r0, [r9, #-3845]	; 0xfffff0fb
     808:	0f052e15 	svceq	0x00052e15
     80c:	3d01054a 	cfstr32cc	mvfx0, [r1, #-296]	; 0xfffffed8
     810:	05660903 	strbeq	r0, [r6, #-2307]!	; 0xfffff6fd
     814:	1605590f 	strne	r5, [r5], -pc, lsl #18
     818:	4a12052e 	bmi	481cd8 <shift+0x481cd8>
     81c:	05200f05 	streq	r0, [r0, #-3845]!	; 0xfffff0fb
     820:	09033d01 	stmdbeq	r3, {r0, r8, sl, fp, ip, sp}
     824:	590f0566 	stmdbpl	pc, {r1, r2, r5, r6, r8, sl}	; <UNPREDICTABLE>
     828:	052e1505 	streq	r1, [lr, #-1285]!	; 0xfffffafb
     82c:	01054a0f 	tsteq	r5, pc, lsl #20
     830:	0f05693d 	svceq	0x0005693d
     834:	2e160559 	mrccs	5, 0, r0, cr6, cr9, {2}
     838:	054a1205 	strbeq	r1, [sl, #-517]	; 0xfffffdfb
     83c:	0105200f 	tsteq	r5, pc
     840:	0006023d 	andeq	r0, r6, sp, lsr r2
     844:	012e0101 			; <UNDEFINED> instruction: 0x012e0101
     848:	00030000 	andeq	r0, r3, r0
     84c:	00000093 	muleq	r0, r3, r0
     850:	0efb0102 	cdpeq	1, 15, cr0, cr11, cr2, {0}
     854:	0101000d 	tsteq	r1, sp
     858:	00000101 	andeq	r0, r0, r1, lsl #2
     85c:	00000100 	andeq	r0, r0, r0, lsl #2
     860:	76656401 	strbtvc	r6, [r5], -r1, lsl #8
     864:	73656369 	cmnvc	r5, #-1543503871	; 0xa4000001
     868:	70736200 	rsbsvc	r6, r3, r0, lsl #4
     86c:	79656b2f 	stmdbvc	r5!, {r0, r1, r2, r3, r5, r8, r9, fp, sp, lr}^
     870:	70736200 	rsbsvc	r6, r3, r0, lsl #4
     874:	6970672f 	ldmdbvs	r0!, {r0, r1, r2, r3, r5, r8, r9, sl, sp, lr}^
     878:	7362006f 	cmnvc	r2, #111	; 0x6f
     87c:	65642f70 	strbvs	r2, [r4, #-3952]!	; 0xfffff090
     880:	0079616c 	rsbseq	r6, r9, ip, ror #2
     884:	6c736600 	ldclvs	6, cr6, [r3], #-0
     888:	6d6f695f 			; <UNDEFINED> instruction: 0x6d6f695f
     88c:	2e637875 	mcrcs	8, 3, r7, cr3, cr5, {3}
     890:	00010068 	andeq	r0, r1, r8, rrx
     894:	70736200 	rsbsvc	r6, r3, r0, lsl #4
     898:	79656b5f 	stmdbvc	r5!, {r0, r1, r2, r3, r4, r6, r8, r9, fp, sp, lr}^
     89c:	0200632e 	andeq	r6, r0, #-1207959552	; 0xb8000000
     8a0:	63630000 	cmnvs	r3, #0
     8a4:	0100682e 	tsteq	r0, lr, lsr #16
     8a8:	434d0000 	movtmi	r0, #53248	; 0xd000
     8ac:	36584d49 	ldrbcc	r4, [r8], -r9, asr #26
     8b0:	682e3259 	stmdavs	lr!, {r0, r3, r4, r6, r9, ip, sp}
     8b4:	00000100 	andeq	r0, r0, r0, lsl #2
     8b8:	5f707362 	svcpl	0x00707362
     8bc:	6f697067 	svcvs	0x00697067
     8c0:	0300682e 	movweq	r6, #2094	; 0x82e
     8c4:	73620000 	cmnvc	r2, #0
     8c8:	656b5f70 	strbvs	r5, [fp, #-3952]!	; 0xfffff090
     8cc:	00682e79 	rsbeq	r2, r8, r9, ror lr
     8d0:	62000002 	andvs	r0, r0, #2
     8d4:	645f7073 	ldrbvs	r7, [pc], #-115	; 8dc <shift+0x8dc>
     8d8:	79616c65 	stmdbvc	r1!, {r0, r2, r5, r6, sl, fp, sp, lr}^
     8dc:	0400682e 	streq	r6, [r0], #-2094	; 0xfffff7d2
     8e0:	05000000 	streq	r0, [r0, #-0]
     8e4:	02050001 	andeq	r0, r5, #1
     8e8:	80000d4c 	andhi	r0, r0, ip, asr #26
     8ec:	0108a903 	tsteq	r8, r3, lsl #18
     8f0:	05760905 	ldrbeq	r0, [r6, #-2309]!	; 0xfffff6fb
     8f4:	07053c33 	smladxeq	r5, r3, ip, r3
     8f8:	21310549 	teqcs	r1, r9, asr #10
     8fc:	051f2905 	ldreq	r2, [pc, #-2309]	; ffffffff <__bss_end+0x7fffb1df>
     900:	0b052308 	bleq	149528 <shift+0x149528>
     904:	2031053e 	eorscs	r0, r1, lr, lsr r5
     908:	053c2f05 	ldreq	r2, [ip, #-3845]!	; 0xfffff0fb
     90c:	18032201 	stmdane	r3, {r0, r9, sp}
     910:	75080566 	strvc	r0, [r8, #-1382]	; 0xfffffa9a
     914:	053e0b05 	ldreq	r0, [lr, #-2821]!	; 0xfffff4fb
     918:	01052030 	tsteq	r5, r0, lsr r0
     91c:	05020430 	streq	r0, [r2, #-1072]	; 0xfffffbd0
     920:	77b40314 			; <UNDEFINED> instruction: 0x77b40314
     924:	3e050566 	cfsh32cc	mvfx0, mvfx5, #54
     928:	f51a05e5 			; <UNDEFINED> instruction: 0xf51a05e5
     92c:	052f1e05 	streq	r1, [pc, #-3589]!	; fffffb2f <__bss_end+0x7fffad0f>
     930:	01052f05 	tsteq	r5, r5, lsl #30
     934:	4d170591 	cfldr32mi	mvfx0, [r7, #-580]	; 0xfffffdbc
     938:	053d1105 	ldreq	r1, [sp, #-261]!	; 0xfffffefb
     93c:	07053008 	streq	r3, [r5, -r8]
     940:	0013053c 	andseq	r0, r3, ip, lsr r5
     944:	2e010402 	cdpcs	4, 0, cr0, cr1, cr2, {0}
     948:	02000f05 	andeq	r0, r0, #5, 30
     94c:	05820104 	streq	r0, [r2, #260]	; 0x104
     950:	0d052f09 	stceq	15, cr2, [r5, #-36]	; 0xffffffdc
     954:	820b053d 	andhi	r0, fp, #255852544	; 0xf400000
     958:	052f1405 	streq	r1, [pc, #-1029]!	; 55b <shift+0x55b>
     95c:	0b054b11 	bleq	1535a8 <shift+0x1535a8>
     960:	240e052c 	strcs	r0, [lr], #-1324	; 0xfffffad4
     964:	05820d05 	streq	r0, [r2, #3333]	; 0xd05
     968:	0d052f10 	stceq	15, cr2, [r5, #-64]	; 0xffffffc0
     96c:	300c054b 	andcc	r0, ip, fp, asr #10
     970:	02210105 	eoreq	r0, r1, #1073741825	; 0x40000001
     974:	0101000a 	tsteq	r1, sl
     978:	0000014c 	andeq	r0, r0, ip, asr #2
     97c:	008a0003 	addeq	r0, sl, r3
     980:	01020000 	mrseq	r0, (UNDEF: 2)
     984:	000d0efb 	strdeq	r0, [sp], -fp
     988:	01010101 	tsteq	r1, r1, lsl #2
     98c:	01000000 	mrseq	r0, (UNDEF: 0)
     990:	62010000 	andvs	r0, r1, #0
     994:	692f7073 	stmdbvs	pc!, {r0, r1, r4, r5, r6, ip, sp, lr}	; <UNPREDICTABLE>
     998:	6400746e 	strvs	r7, [r0], #-1134	; 0xfffffb92
     99c:	63697665 	cmnvs	r9, #105906176	; 0x6500000
     9a0:	73007365 	movwvc	r7, #869	; 0x365
     9a4:	6f696474 	svcvs	0x00696474
     9a8:	636e692f 	cmnvs	lr, #770048	; 0xbc000
     9ac:	6564756c 	strbvs	r7, [r4, #-1388]!	; 0xfffffa94
     9b0:	73620000 	cmnvc	r2, #0
     9b4:	6e695f70 	mcrvs	15, 3, r5, cr9, cr0, {3}
     9b8:	00632e74 	rsbeq	r2, r3, r4, ror lr
     9bc:	63000001 	movwvs	r0, #1
     9c0:	5f65726f 	svcpl	0x0065726f
     9c4:	2e376163 	rsfcssz	f6, f7, f3
     9c8:	00020068 	andeq	r0, r2, r8, rrx
     9cc:	2e636300 	cdpcs	3, 6, cr6, cr3, cr0, {0}
     9d0:	00020068 	andeq	r0, r2, r8, rrx
     9d4:	6c736600 	ldclvs	6, cr6, [r3], #-0
     9d8:	6d6f635f 	stclvs	3, cr6, [pc, #-380]!	; 864 <shift+0x864>
     9dc:	2e6e6f6d 	cdpcs	15, 6, cr6, cr14, cr13, {3}
     9e0:	00020068 	andeq	r0, r2, r8, rrx
     9e4:	49434d00 	stmdbmi	r3, {r8, sl, fp, lr}^
     9e8:	5936584d 	ldmdbpl	r6!, {r0, r2, r3, r6, fp, ip, lr}
     9ec:	00682e32 	rsbeq	r2, r8, r2, lsr lr
     9f0:	62000002 	andvs	r0, r0, #2
     9f4:	695f7073 	ldmdbvs	pc, {r0, r1, r4, r5, r6, ip, sp, lr}^	; <UNPREDICTABLE>
     9f8:	682e746e 	stmdavs	lr!, {r1, r2, r3, r5, r6, sl, ip, sp, lr}
     9fc:	00000100 	andeq	r0, r0, r0, lsl #2
     a00:	69647473 	stmdbvs	r4!, {r0, r1, r4, r5, r6, sl, ip, sp, lr}^
     a04:	00682e6f 	rsbeq	r2, r8, pc, ror #28
     a08:	00000003 	andeq	r0, r0, r3
     a0c:	05000105 	streq	r0, [r0, #-261]	; 0xfffffefb
     a10:	000e9c02 	andeq	r9, lr, r2, lsl #24
     a14:	010e0380 	smlabbeq	lr, r0, r3, r0
     a18:	0a050204 	beq	141230 <shift+0x141230>
     a1c:	3c048203 	sfmcc	f0, 1, [r4], {3}
     a20:	da032d05 	ble	cbe3c <shift+0xcbe3c>
     a24:	0d052e00 	stceq	14, cr2, [r5, #-0]
     a28:	2211052e 	andscs	r0, r1, #192937984	; 0xb800000
     a2c:	054a1b05 	strbeq	r1, [sl, #-2821]	; 0xfffff4fb
     a30:	0a052e0b 	beq	14c264 <shift+0x14c264>
     a34:	2e030533 	mcrcs	5, 0, r0, cr3, cr3, {1}
     a38:	05211905 	streq	r1, [r1, #-2309]!	; 0xfffff6fb
     a3c:	1105811d 	tstne	r5, sp, lsl r1
     a40:	4e0e053c 	mcrmi	5, 0, r0, cr14, cr12, {1}
     a44:	690f0569 	stmdbvs	pc, {r0, r3, r5, r6, r8, sl}	; <UNPREDICTABLE>
     a48:	67010569 	strvs	r0, [r1, -r9, ror #10]
     a4c:	02050104 	andeq	r0, r5, #4, 2
     a50:	207b9103 	rsbscs	r9, fp, r3, lsl #2
     a54:	03050204 	movweq	r0, #20996	; 0x5204
     a58:	5803e503 	stmdapl	r3, {r0, r1, r8, sl, sp, lr, pc}
     a5c:	043d0105 	ldrteq	r0, [sp], #-261	; 0xfffffefb
     a60:	7c9c0301 	ldcvc	3, cr0, [ip], {1}
     a64:	0f055220 	svceq	0x00055220
     a68:	2f0d053d 	svccs	0x000d053d
     a6c:	054d0805 	strbeq	r0, [sp, #-2053]	; 0xfffff7fb
     a70:	03052e02 	movweq	r2, #24066	; 0x5e02
     a74:	03040200 	movweq	r0, #16896	; 0x4200
     a78:	00290522 	eoreq	r0, r9, r2, lsr #10
     a7c:	72030402 	andvc	r0, r3, #33554432	; 0x2000000
     a80:	02000f05 	andeq	r0, r0, #5, 30
     a84:	053c0104 	ldreq	r0, [ip, #-260]!	; 0xfffffefc
     a88:	0a034001 	beq	d0a94 <shift+0xd0a94>
     a8c:	671b0590 			; <UNDEFINED> instruction: 0x671b0590
     a90:	05671c05 	strbeq	r1, [r7, #-3077]!	; 0xfffff3fb
     a94:	0a037501 	beq	ddea0 <shift+0xddea0>
     a98:	4c0d05ac 	cfstr32mi	mvfx0, [sp], {172}	; 0xac
     a9c:	054b0405 	strbeq	r0, [fp, #-1029]	; 0xfffffbfb
     aa0:	0e056807 	cdpeq	8, 0, cr6, cr5, cr7, {0}
     aa4:	77140541 	ldrvc	r0, [r4, -r1, asr #10]
     aa8:	05580405 	ldrbeq	r0, [r8, #-1029]	; 0xfffffbfb
     aac:	0405920e 	streq	r9, [r5], #-526	; 0xfffffdf2
     ab0:	05827803 	streq	r7, [r2, #2051]	; 0x803
     ab4:	200a0301 	andcs	r0, sl, r1, lsl #6
     ab8:	12080903 	andne	r0, r8, #49152	; 0xc000
     abc:	59590205 	ldmdbpl	r9, {r0, r2, r9}^
     ac0:	02210105 	eoreq	r0, r1, #1073741825	; 0x40000001
     ac4:	01010005 	tsteq	r1, r5
     ac8:	00000126 	andeq	r0, r0, r6, lsr #2
     acc:	00920003 	addseq	r0, r2, r3
     ad0:	01020000 	mrseq	r0, (UNDEF: 2)
     ad4:	000d0efb 	strdeq	r0, [sp], -fp
     ad8:	01010101 	tsteq	r1, r1, lsl #2
     adc:	01000000 	mrseq	r0, (UNDEF: 0)
     ae0:	64010000 	strvs	r0, [r1], #-0
     ae4:	63697665 	cmnvs	r9, #105906176	; 0x6500000
     ae8:	62007365 	andvs	r7, r0, #-1811939327	; 0x94000001
     aec:	652f7073 	strvs	r7, [pc, #-115]!	; a81 <shift+0xa81>
     af0:	00697478 	rsbeq	r7, r9, r8, ror r4
     af4:	2f707362 	svccs	0x00707362
     af8:	00746e69 	rsbseq	r6, r4, r9, ror #28
     afc:	2f707362 	svccs	0x00707362
     b00:	6f697067 	svcvs	0x00697067
     b04:	73660000 	cmnvc	r6, #0
     b08:	6f695f6c 	svcvs	0x00695f6c
     b0c:	6378756d 	cmnvs	r8, #457179136	; 0x1b400000
     b10:	0100682e 	tsteq	r0, lr, lsr #16
     b14:	73620000 	cmnvc	r2, #0
     b18:	78655f70 	stmdavc	r5!, {r4, r5, r6, r8, r9, sl, fp, ip, lr}^
     b1c:	632e6974 			; <UNDEFINED> instruction: 0x632e6974
     b20:	00000200 	andeq	r0, r0, r0, lsl #4
     b24:	65726f63 	ldrbvs	r6, [r2, #-3939]!	; 0xfffff09d
     b28:	3761635f 			; <UNDEFINED> instruction: 0x3761635f
     b2c:	0100682e 	tsteq	r0, lr, lsr #16
     b30:	63630000 	cmnvs	r3, #0
     b34:	0100682e 	tsteq	r0, lr, lsr #16
     b38:	434d0000 	movtmi	r0, #53248	; 0xd000
     b3c:	36584d49 	ldrbcc	r4, [r8], -r9, asr #26
     b40:	682e3259 	stmdavs	lr!, {r0, r3, r4, r6, r9, ip, sp}
     b44:	00000100 	andeq	r0, r0, r0, lsl #2
     b48:	5f707362 	svcpl	0x00707362
     b4c:	2e746e69 	cdpcs	14, 7, cr6, cr4, cr9, {3}
     b50:	00030068 	andeq	r0, r3, r8, rrx
     b54:	70736200 	rsbsvc	r6, r3, r0, lsl #4
     b58:	6970675f 	ldmdbvs	r0!, {r0, r1, r2, r3, r4, r6, r8, r9, sl, sp, lr}^
     b5c:	00682e6f 	rsbeq	r2, r8, pc, ror #28
     b60:	00000004 	andeq	r0, r0, r4
     b64:	05000105 	streq	r0, [r0, #-261]	; 0xfffffefb
     b68:	00104c02 	andseq	r4, r0, r2, lsl #24
     b6c:	08a90380 	stmiaeq	r9!, {r7, r8, r9}
     b70:	76090501 	strvc	r0, [r9], -r1, lsl #10
     b74:	053c3305 	ldreq	r3, [ip, #-773]!	; 0xfffffcfb
     b78:	31054907 	tstcc	r5, r7, lsl #18
     b7c:	1f290521 	svcne	0x00290521
     b80:	05230805 	streq	r0, [r3, #-2053]!	; 0xfffff7fb
     b84:	31053e0b 	tstcc	r5, fp, lsl #28
     b88:	3c2f0520 	cfstr32cc	mvfx0, [pc], #-128	; b10 <shift+0xb10>
     b8c:	03220105 			; <UNDEFINED> instruction: 0x03220105
     b90:	08056618 	stmdaeq	r5, {r3, r4, r9, sl, sp, lr}
     b94:	3e0b0575 	cfrshl64cc	mvdx11, mvdx5, r0
     b98:	05203005 	streq	r3, [r0, #-5]!
     b9c:	02043001 	andeq	r3, r4, #1
     ba0:	6677bb03 	ldrbtvs	fp, [r7], -r3, lsl #22
     ba4:	e5400205 	strb	r0, [r0, #-517]	; 0xfffffdfb
     ba8:	05f51705 	ldrbeq	r1, [r5, #1797]!	; 0x705
     bac:	19052f1b 	stmdbne	r5, {r0, r1, r3, r4, r8, r9, sl, fp, sp}
     bb0:	2f02052f 	svccs	0x0002052f
     bb4:	0a050304 	beq	1417cc <shift+0x1417cc>
     bb8:	ac03fc03 	stcge	12, cr15, [r3], {3}
     bbc:	f6032e05 			; <UNDEFINED> instruction: 0xf6032e05
     bc0:	0e052e00 	cdpeq	14, 0, cr2, cr5, cr0, {0}
     bc4:	214b052e 	cmpcs	fp, lr, lsr #10
     bc8:	05206405 	streq	r6, [r0, #-1029]!	; 0xfffffbfb
     bcc:	2f052e16 	svccs	0x00052e16
     bd0:	20460520 	subcs	r0, r6, r0, lsr #10
     bd4:	052e3505 	streq	r3, [lr, #-1285]!	; 0xfffffafb
     bd8:	02045901 	andeq	r5, r4, #16384	; 0x4000
     bdc:	8f030205 	svchi	0x00030205
     be0:	0575207b 	ldrbeq	r2, [r5, #-123]!	; 0xffffff85
     be4:	057c7501 	ldrbeq	r7, [ip, #-1281]!	; 0xfffffaff
     be8:	01053002 	tsteq	r5, r2
     bec:	00020275 	andeq	r0, r2, r5, ror r2
     bf0:	01270101 			; <UNDEFINED> instruction: 0x01270101
     bf4:	00030000 	andeq	r0, r3, r0
     bf8:	0000008e 	andeq	r0, r0, lr, lsl #1
     bfc:	0efb0102 	cdpeq	1, 15, cr0, cr11, cr2, {0}
     c00:	0101000d 	tsteq	r1, sp
     c04:	00000101 	andeq	r0, r0, r1, lsl #2
     c08:	00000100 	andeq	r0, r0, r0, lsl #2
     c0c:	70736201 	rsbsvc	r6, r3, r1, lsl #4
     c10:	6970652f 	ldmdbvs	r0!, {r0, r1, r2, r3, r5, r8, sl, sp, lr}^
     c14:	6d697474 	cfstrdvs	mvd7, [r9, #-464]!	; 0xfffffe30
     c18:	64007265 	strvs	r7, [r0], #-613	; 0xfffffd9b
     c1c:	63697665 	cmnvs	r9, #105906176	; 0x6500000
     c20:	62007365 	andvs	r7, r0, #-1811939327	; 0x94000001
     c24:	692f7073 	stmdbvs	pc!, {r0, r1, r4, r5, r6, ip, sp, lr}	; <UNPREDICTABLE>
     c28:	7300746e 	movwvc	r7, #1134	; 0x46e
     c2c:	6f696474 	svcvs	0x00696474
     c30:	636e692f 	cmnvs	lr, #770048	; 0xbc000
     c34:	6564756c 	strbvs	r7, [r4, #-1388]!	; 0xfffffa94
     c38:	73620000 	cmnvc	r2, #0
     c3c:	70655f70 	rsbvc	r5, r5, r0, ror pc
     c40:	69747469 	ldmdbvs	r4!, {r0, r3, r5, r6, sl, ip, sp, lr}^
     c44:	2e72656d 	cdpcs	5, 7, cr6, cr2, cr13, {3}
     c48:	00010063 	andeq	r0, r1, r3, rrx
     c4c:	726f6300 	rsbvc	r6, pc, #0, 6
     c50:	61635f65 	cmnvs	r3, r5, ror #30
     c54:	00682e37 	rsbeq	r2, r8, r7, lsr lr
     c58:	63000002 	movwvs	r0, #2
     c5c:	00682e63 	rsbeq	r2, r8, r3, ror #28
     c60:	4d000002 	stcmi	0, cr0, [r0, #-8]
     c64:	584d4943 	stmdapl	sp, {r0, r1, r6, r8, fp, lr}^
     c68:	2e325936 			; <UNDEFINED> instruction: 0x2e325936
     c6c:	00020068 	andeq	r0, r2, r8, rrx
     c70:	70736200 	rsbsvc	r6, r3, r0, lsl #4
     c74:	746e695f 	strbtvc	r6, [lr], #-2399	; 0xfffff6a1
     c78:	0300682e 	movweq	r6, #2094	; 0x82e
     c7c:	74730000 	ldrbtvc	r0, [r3], #-0
     c80:	2e6f6964 	vnmulcs.f16	s13, s30, s9	; <UNPREDICTABLE>
     c84:	00040068 	andeq	r0, r4, r8, rrx
     c88:	01050000 	mrseq	r0, (UNDEF: 5)
     c8c:	7c020500 	cfstr32vc	mvfx0, [r2], {-0}
     c90:	03800011 	orreq	r0, r0, #17
     c94:	0405010c 	streq	r0, [r5], #-268	; 0xfffffef4
     c98:	4b080559 	blmi	202204 <shift+0x202204>
     c9c:	053e0705 	ldreq	r0, [lr, #-1797]!	; 0xfffff8fb
     ca0:	1c053c0c 	stcne	12, cr3, [r5], {12}
     ca4:	052e0b03 	streq	r0, [lr, #-2819]!	; 0xfffff4fd
     ca8:	2f052e07 	svccs	0x00052e07
     cac:	4a0c053c 	bmi	3021a4 <shift+0x3021a4>
     cb0:	05220705 	streq	r0, [r2, #-1797]!	; 0xfffff8fb
     cb4:	07053c0c 	streq	r3, [r5, -ip, lsl #24]
     cb8:	3c0e052f 	cfstr32cc	mvfx0, [lr], {47}	; 0x2f
     cbc:	0a050204 	beq	1414d4 <shift+0x1414d4>
     cc0:	4a03f203 	bmi	fd4d4 <shift+0xfd4d4>
     cc4:	f6032e05 			; <UNDEFINED> instruction: 0xf6032e05
     cc8:	0e052e00 	cdpeq	14, 0, cr2, cr5, cr0, {0}
     ccc:	214b052e 	cmpcs	fp, lr, lsr #10
     cd0:	05206405 	streq	r6, [r0, #-1029]!	; 0xfffffbfb
     cd4:	2f052e16 	svccs	0x00052e16
     cd8:	20460520 	subcs	r0, r6, r0, lsr #10
     cdc:	052e3505 	streq	r3, [lr, #-1285]!	; 0xfffffafb
     ce0:	0a055901 	beq	1570ec <shift+0x1570ec>
     ce4:	587f8803 	ldmdapl	pc!, {r0, r1, fp, pc}^	; <UNPREDICTABLE>
     ce8:	b7032e05 	strlt	r2, [r3, -r5, lsl #28]
     cec:	0e052e01 	cdpeq	14, 0, cr2, cr5, cr1, {0}
     cf0:	2133052e 	teqcs	r3, lr, lsr #10
     cf4:	052e1705 	streq	r1, [lr, #-1797]!	; 0xfffff8fb
     cf8:	31052033 	tstcc	r5, r3, lsr r0
     cfc:	6701052e 	strvs	r0, [r1, -lr, lsr #10]
     d00:	02050104 	andeq	r0, r5, #4, 2
     d04:	207adb03 	rsbscs	sp, sl, r3, lsl #22
     d08:	05760c05 	ldrbeq	r0, [r6, #-3077]!	; 0xfffff3fb
     d0c:	057c9f01 	ldrbeq	r9, [ip, #-3841]!	; 0xfffff0ff
     d10:	0c052f02 	stceq	15, cr2, [r5], {2}
     d14:	9f01053e 	svcls	0x0001053e
     d18:	01000202 	tsteq	r0, r2, lsl #4
     d1c:	00027b01 	andeq	r7, r2, r1, lsl #22
     d20:	58000300 	stmdapl	r0, {r8, r9}
     d24:	02000000 	andeq	r0, r0, #0
     d28:	0d0efb01 	vstreq	d15, [lr, #-4]
     d2c:	01010100 	mrseq	r0, (UNDEF: 17)
     d30:	00000001 	andeq	r0, r0, r1
     d34:	01000001 	tsteq	r0, r1
     d38:	69766564 	ldmdbvs	r6!, {r2, r5, r6, r8, sl, sp, lr}^
     d3c:	00736563 	rsbseq	r6, r3, r3, ror #10
     d40:	2f707362 	svccs	0x00707362
     d44:	74726175 	ldrbtvc	r6, [r2], #-373	; 0xfffffe8b
     d48:	73660000 	cmnvc	r6, #0
     d4c:	6f695f6c 	svcvs	0x00695f6c
     d50:	6378756d 	cmnvs	r8, #457179136	; 0x1b400000
     d54:	0100682e 	tsteq	r0, lr, lsr #16
     d58:	73620000 	cmnvc	r2, #0
     d5c:	61755f70 	cmnvs	r5, r0, ror pc
     d60:	632e7472 			; <UNDEFINED> instruction: 0x632e7472
     d64:	00000200 	andeq	r0, r0, r0, lsl #4
     d68:	682e6363 	stmdavs	lr!, {r0, r1, r5, r6, r8, r9, sp, lr}
     d6c:	00000100 	andeq	r0, r0, r0, lsl #2
     d70:	4d49434d 	stclmi	3, cr4, [r9, #-308]	; 0xfffffecc
     d74:	32593658 	subscc	r3, r9, #88, 12	; 0x5800000
     d78:	0100682e 	tsteq	r0, lr, lsr #16
     d7c:	05000000 	streq	r0, [r0, #-0]
     d80:	02050001 	andeq	r0, r5, #1
     d84:	8000126c 	andhi	r1, r0, ip, ror #4
     d88:	0108a903 	tsteq	r8, r3, lsl #18
     d8c:	05760905 	ldrbeq	r0, [r6, #-2309]!	; 0xfffff6fb
     d90:	07053c33 	smladxeq	r5, r3, ip, r3
     d94:	21310549 	teqcs	r1, r9, asr #10
     d98:	051f2905 	ldreq	r2, [pc, #-2309]	; 49b <shift+0x49b>
     d9c:	0b052308 	bleq	1499c4 <shift+0x1499c4>
     da0:	2031053e 	eorscs	r0, r1, lr, lsr r5
     da4:	053c2f05 	ldreq	r2, [ip, #-3845]!	; 0xfffff0fb
     da8:	18032201 	stmdane	r3, {r0, r9, sp}
     dac:	75080566 	strvc	r0, [r8, #-1382]	; 0xfffffa9a
     db0:	053e0b05 	ldreq	r0, [lr, #-2821]!	; 0xfffff4fb
     db4:	01052030 	tsteq	r5, r0, lsr r0
     db8:	03020430 	movweq	r0, #9264	; 0x2430
     dbc:	056677ba 	strbeq	r7, [r6, #-1978]!	; 0xfffff846
     dc0:	05593302 	ldrbeq	r3, [r9, #-770]	; 0xfffffcfe
     dc4:	0e055a07 	vmlaeq.f32	s10, s10, s14
     dc8:	0b03423c 	bleq	d16c0 <shift+0xd16c0>
     dcc:	0705dcba 			; <UNDEFINED> instruction: 0x0705dcba
     dd0:	05ba0b03 	ldreq	r0, [sl, #2819]!	; 0xb03
     dd4:	07053c0e 	streq	r3, [r5, -lr, lsl #24]
     dd8:	3c0e054b 	cfstr32cc	mvfx0, [lr], {75}	; 0x4b
     ddc:	053d0705 	ldreq	r0, [sp, #-1797]!	; 0xfffff8fb
     de0:	02053c0e 	andeq	r3, r5, #3584	; 0xe00
     de4:	59010551 	stmdbpl	r1, {r0, r4, r6, r8, sl}
     de8:	41020536 	tstmi	r2, r6, lsr r5
     dec:	080c03e5 	stmdaeq	ip, {r0, r2, r5, r6, r7, r8, r9}
     df0:	0105f320 	tsteq	r5, r0, lsr #6	; <UNPREDICTABLE>
     df4:	0c032f08 	stceq	15, cr2, [r3], {8}
     df8:	750e053c 	strvc	r0, [lr, #-1340]	; 0xfffffac4
     dfc:	3d3d3d3d 	ldccc	13, cr3, [sp, #-244]!	; 0xffffff0c
     e00:	0567672f 	strbeq	r6, [r7, #-1839]!	; 0xfffff8d1
     e04:	1105310f 	tstne	r5, pc, lsl #2
     e08:	4b0d053d 	blmi	342304 <shift+0x342304>
     e0c:	053e0b05 	ldreq	r0, [lr, #-2821]!	; 0xfffff4fb
     e10:	15052211 	strne	r2, [r5, #-529]	; 0xfffffdef
     e14:	9f13054b 	svcls	0x0013054b
     e18:	05461805 	strbeq	r1, [r6, #-2053]	; 0xfffff7fb
     e1c:	1d05510f 	stfnes	f5, [r5, #-60]	; 0xffffffc4
     e20:	2e110583 	cdpcs	5, 1, cr0, cr1, cr3, {4}
     e24:	05860805 	streq	r0, [r6, #2053]	; 0x805
     e28:	04020030 	streq	r0, [r2], #-48	; 0xffffffd0
     e2c:	21058201 	tstcs	r5, r1, lsl #4
     e30:	3c26055a 	cfstr32cc	mvfx0, [r6], #-360	; 0xfffffe98
     e34:	059e1205 	ldreq	r1, [lr, #517]	; 0x205
     e38:	28052f23 	stmdacs	r5, {r0, r1, r5, r8, r9, sl, fp, sp}
     e3c:	7412053c 	ldrvc	r0, [r2], #-1340	; 0xfffffac4
     e40:	6713052f 	ldrvs	r0, [r3, -pc, lsr #10]
     e44:	05831505 	streq	r1, [r3, #1285]	; 0x505
     e48:	1705830c 	strne	r8, [r5, -ip, lsl #6]
     e4c:	3e0c054c 	cfsh32cc	mvfx0, mvfx12, #44
     e50:	054c1905 	strbeq	r1, [ip, #-2309]	; 0xfffff6fb
     e54:	1f053f1a 	svcne	0x00053f1a
     e58:	740d053c 	strvc	r0, [sp], #-1340	; 0xfffffac4
     e5c:	05300505 	ldreq	r0, [r0, #-1285]!	; 0xfffffafb
     e60:	05690818 	strbeq	r0, [r9, #-2072]!	; 0xfffff7e8
     e64:	18053d0d 	stmdane	r5, {r0, r2, r3, r8, sl, fp, ip, sp}
     e68:	3d0d0522 	cfstr32cc	mvfx0, [sp, #-136]	; 0xffffff78
     e6c:	05221805 	streq	r1, [r2, #-2053]!	; 0xfffff7fb
     e70:	18053d0d 	stmdane	r5, {r0, r2, r3, r8, sl, fp, ip, sp}
     e74:	3d0d0522 	cfstr32cc	mvfx0, [sp, #-136]	; 0xffffff78
     e78:	05221805 	streq	r1, [r2, #-2053]!	; 0xfffff7fb
     e7c:	18053d0d 	stmdane	r5, {r0, r2, r3, r8, sl, fp, ip, sp}
     e80:	3d0d0522 	cfstr32cc	mvfx0, [sp, #-136]	; 0xffffff78
     e84:	05221805 	streq	r1, [r2, #-2053]!	; 0xfffff7fb
     e88:	18053d0d 	stmdane	r5, {r0, r2, r3, r8, sl, fp, ip, sp}
     e8c:	3d0d0522 	cfstr32cc	mvfx0, [sp, #-136]	; 0xffffff78
     e90:	05261305 	streq	r1, [r6, #-773]!	; 0xfffffcfb
     e94:	0d058315 	stceq	3, cr8, [r5, #-84]	; 0xffffffac
     e98:	3e0b054b 	cfsh32cc	mvfx0, mvfx11, #43
     e9c:	05221105 	streq	r1, [r2, #-261]!	; 0xfffffefb
     ea0:	19053d29 	stmdbne	r5, {r0, r3, r5, r8, sl, fp, ip, sp}
     ea4:	2f17059e 	svccs	0x0017059e
     ea8:	058c1c05 	streq	r1, [ip, #3077]	; 0xc05
     eac:	13054221 	movwne	r4, #21025	; 0x5221
     eb0:	75220574 	strvc	r0, [r2, #-1396]!	; 0xfffffa8c
     eb4:	053c1505 	ldreq	r1, [ip, #-1285]!	; 0xfffffafb
     eb8:	2e05751f 	mcrcs	5, 0, r7, cr5, cr15, {0}
     ebc:	0e052008 	cdpeq	0, 0, cr2, cr5, cr8, {0}
     ec0:	9f1a054a 	svcls	0x001a054a
     ec4:	054a3f05 	strbeq	r3, [sl, #-3845]	; 0xfffff0fb
     ec8:	04020033 	streq	r0, [r2], #-51	; 0xffffffcd
     ecc:	3f059001 	svccc	0x00059001
     ed0:	01040200 	mrseq	r0, R12_usr
     ed4:	004b054a 	subeq	r0, fp, sl, asr #10
     ed8:	9e020402 	cdpls	4, 0, cr0, cr2, cr2, {0}
     edc:	02003f05 	andeq	r3, r0, #5, 30
     ee0:	054a0204 	strbeq	r0, [sl, #-516]	; 0xfffffdfc
     ee4:	0402000e 	streq	r0, [r2], #-14
     ee8:	1e059004 	cdpne	0, 0, cr9, cr5, cr4, {0}
     eec:	04040200 	streq	r0, [r4], #-512	; 0xfffffe00
     ef0:	00250530 	eoreq	r0, r5, r0, lsr r5
     ef4:	82040402 	andhi	r0, r4, #33554432	; 0x2000000
     ef8:	02000805 	andeq	r0, r0, #327680	; 0x50000
     efc:	05660404 	strbeq	r0, [r6, #-1028]!	; 0xfffffbfc
     f00:	05839214 	streq	r9, [r3, #532]	; 0x214
     f04:	14053c17 	strne	r3, [r5], #-3095	; 0xfffff3e9
     f08:	4b160558 	blmi	582470 <shift+0x582470>
     f0c:	054a1405 	strbeq	r1, [sl, #-1029]	; 0xfffffbfb
     f10:	14053d16 	strne	r3, [r5], #-3350	; 0xfffff2ea
     f14:	3e010582 	cfsh32cc	mvfx0, mvfx1, #-62
     f18:	4b0d0560 	blmi	3424a0 <shift+0x3424a0>
     f1c:	6e830105 	rmfvss	f0, f3, f5
     f20:	054b0d05 	strbeq	r0, [fp, #-3333]	; 0xfffff2fb
     f24:	056e8301 	strbeq	r8, [lr, #-769]!	; 0xfffffcff
     f28:	07054b0d 	streq	r4, [r5, -sp, lsl #22]
     f2c:	000d0583 	andeq	r0, sp, r3, lsl #11
     f30:	20010402 	andcs	r0, r1, r2, lsl #8
     f34:	02001405 	andeq	r1, r0, #83886080	; 0x5000000
     f38:	053c0104 	ldreq	r0, [ip, #-260]!	; 0xfffffefc
     f3c:	0402001b 	streq	r0, [r2], #-27	; 0xffffffe5
     f40:	01052e01 	tsteq	r5, r1, lsl #28
     f44:	07057c2f 	streq	r7, [r5, -pc, lsr #24]
     f48:	000f0559 	andeq	r0, pc, r9, asr r5	; <UNPREDICTABLE>
     f4c:	20010402 	andcs	r0, r1, r2, lsl #8
     f50:	02002305 	andeq	r2, r0, #335544320	; 0x14000000
     f54:	05580104 	ldrbeq	r0, [r8, #-260]	; 0xfffffefc
     f58:	12054b07 	andne	r4, r5, #7168	; 0x1c00
     f5c:	200e053c 	andcs	r0, lr, ip, lsr r5
     f60:	6e210105 	sufvss	f0, f1, f5
     f64:	054b0805 	strbeq	r0, [fp, #-2053]	; 0xfffff7fb
     f68:	0a053007 	beq	14cf8c <shift+0x14cf8c>
     f6c:	3c030521 	cfstr32cc	mvfx0, [r3], {33}	; 0x21
     f70:	05490805 	strbeq	r0, [r9, #-2053]	; 0xfffff7fb
     f74:	05604c01 	strbeq	r4, [r0, #-3073]!	; 0xfffff3ff
     f78:	0e052f07 	cdpeq	15, 0, cr2, cr5, cr7, {0}
     f7c:	01040200 	mrseq	r0, R12_usr
     f80:	00150520 	andseq	r0, r5, r0, lsr #10
     f84:	58010402 	stmdapl	r1, {r1, sl}
     f88:	02001c05 	andeq	r1, r0, #1280	; 0x500
     f8c:	052e0104 	streq	r0, [lr, #-260]!	; 0xfffffefc
     f90:	01052f0e 	tsteq	r5, lr, lsl #30
     f94:	024c6059 	subeq	r6, ip, #89	; 0x59
     f98:	01010006 	tsteq	r1, r6
     f9c:	00000047 	andeq	r0, r0, r7, asr #32
     fa0:	00410003 	subeq	r0, r1, r3
     fa4:	01020000 	mrseq	r0, (UNDEF: 2)
     fa8:	000d0efb 	strdeq	r0, [sp], -fp
     fac:	01010101 	tsteq	r1, r1, lsl #2
     fb0:	01000000 	mrseq	r0, (UNDEF: 0)
     fb4:	73010000 	movwvc	r0, #4096	; 0x1000
     fb8:	6f696474 	svcvs	0x00696474
     fbc:	636e692f 	cmnvs	lr, #770048	; 0xbc000
     fc0:	6564756c 	strbvs	r7, [r4, #-1388]!	; 0xfffffa94
     fc4:	64747300 	ldrbtvs	r7, [r4], #-768	; 0xfffffd00
     fc8:	6c2f6f69 	stcvs	15, cr6, [pc], #-420	; e2c <shift+0xe2c>
     fcc:	00006269 	andeq	r6, r0, r9, ror #4
     fd0:	70797463 	rsbsvc	r7, r9, r3, ror #8
     fd4:	00682e65 	rsbeq	r2, r8, r5, ror #28
     fd8:	63000001 	movwvs	r0, #1
     fdc:	65707974 	ldrbvs	r7, [r0, #-2420]!	; 0xfffff68c
     fe0:	0200632e 	andeq	r6, r0, #-1207959552	; 0xb8000000
     fe4:	90000000 	andls	r0, r0, r0
     fe8:	03000000 	movweq	r0, #0
     fec:	00002800 	andeq	r2, r0, r0, lsl #16
     ff0:	fb010200 	blx	417fa <shift+0x417fa>
     ff4:	01000d0e 	tsteq	r0, lr, lsl #26
     ff8:	00010101 	andeq	r0, r1, r1, lsl #2
     ffc:	00010000 	andeq	r0, r1, r0
    1000:	74730100 	ldrbtvc	r0, [r3], #-256	; 0xffffff00
    1004:	2f6f6964 	svccs	0x006f6964
    1008:	0062696c 	rsbeq	r6, r2, ip, ror #18
    100c:	76696400 	strbtvc	r6, [r9], -r0, lsl #8
    1010:	632e3436 			; <UNDEFINED> instruction: 0x632e3436
    1014:	00000100 	andeq	r0, r0, r0, lsl #2
    1018:	00010500 	andeq	r0, r1, r0, lsl #10
    101c:	18940205 	ldmne	r4, {r0, r2, r9}
    1020:	15038000 	strne	r8, [r3, #-0]
    1024:	67150501 	ldrvs	r0, [r5, -r1, lsl #10]
    1028:	671a0559 			; <UNDEFINED> instruction: 0x671a0559
    102c:	820f0567 	andhi	r0, pc, #432013312	; 0x19c00000
    1030:	05310605 	ldreq	r0, [r1, #-1541]!	; 0xfffff9fb
    1034:	08056705 	stmdaeq	r5, {r0, r2, r8, r9, sl, sp, lr}
    1038:	6709054b 	strvs	r0, [r9, -fp, asr #10]
    103c:	054a0705 	strbeq	r0, [sl, #-1797]	; 0xfffff8fb
    1040:	0a059125 	beq	1654dc <shift+0x1654dc>
    1044:	3c2c054a 	cfstr32cc	mvfx0, [ip], #-296	; 0xfffffed8
    1048:	05740705 	ldrbeq	r0, [r4, #-1797]!	; 0xfffff8fb
    104c:	0505af08 	streq	sl, [r5, #-3848]	; 0xfffff0f8
    1050:	09059f21 	stmdbeq	r5, {r0, r5, r8, r9, sl, fp, ip, pc}
    1054:	2e22059c 	mcrcs	5, 1, r0, cr2, cr12, {4}
    1058:	01040200 	mrseq	r0, R12_usr
    105c:	06054a06 	streq	r4, [r5], -r6, lsl #20
    1060:	08058806 	stmdaeq	r5, {r1, r2, fp, pc}
    1064:	05059f83 	streq	r9, [r5, #-3971]	; 0xfffff07d
    1068:	0b05bba0 	bleq	16fef0 <shift+0x16fef0>
    106c:	4c0505bb 	cfstr32mi	mvfx0, [r5], {187}	; 0xbb
    1070:	05590905 	ldrbeq	r0, [r9, #-2309]	; 0xfffff6fb
    1074:	05022101 	streq	r2, [r2, #-257]	; 0xfffffeff
    1078:	86010100 	strhi	r0, [r1], -r0, lsl #2
    107c:	03000000 	movweq	r0, #0
    1080:	00004300 	andeq	r4, r0, r0, lsl #6
    1084:	fb010200 	blx	4188e <shift+0x4188e>
    1088:	01000d0e 	tsteq	r0, lr, lsl #26
    108c:	00010101 	andeq	r0, r1, r1, lsl #2
    1090:	00010000 	andeq	r0, r1, r0
    1094:	74730100 	ldrbtvc	r0, [r3], #-256	; 0xffffff00
    1098:	2f6f6964 	svccs	0x006f6964
    109c:	0062696c 	rsbeq	r6, r2, ip, ror #18
    10a0:	69647473 	stmdbvs	r4!, {r0, r1, r4, r5, r6, sl, ip, sp, lr}^
    10a4:	6e692f6f 	cdpvs	15, 6, cr2, cr9, cr15, {3}
    10a8:	64756c63 	ldrbtvs	r6, [r5], #-3171	; 0xfffff39d
    10ac:	6d000065 	stcvs	0, cr0, [r0, #-404]	; 0xfffffe6c
    10b0:	69646c75 	stmdbvs	r4!, {r0, r2, r4, r5, r6, sl, fp, sp, lr}^
    10b4:	00632e33 	rsbeq	r2, r3, r3, lsr lr
    10b8:	67000001 	strvs	r0, [r0, -r1]
    10bc:	696c6363 	stmdbvs	ip!, {r0, r1, r5, r6, r8, r9, sp, lr}^
    10c0:	00682e62 	rsbeq	r2, r8, r2, ror #28
    10c4:	00000002 	andeq	r0, r0, r2
    10c8:	05000105 	streq	r0, [r0, #-261]	; 0xfffffefb
    10cc:	001a0e02 	andseq	r0, sl, r2, lsl #28
    10d0:	013f0380 	teqeq	pc, r0, lsl #7
    10d4:	4b780905 	blmi	1e034f0 <shift+0x1e034f0>
    10d8:	054c0a05 	strbeq	r0, [ip, #-2565]	; 0xfffff5fb
    10dc:	05d60808 	ldrbeq	r0, [r6, #2056]	; 0x808
    10e0:	1e052f0c 	cdpne	15, 0, cr2, cr5, cr12, {0}
    10e4:	2033052e 	eorscs	r0, r3, lr, lsr #10
    10e8:	05202305 	streq	r2, [r0, #-773]!	; 0xfffffcfb
    10ec:	36052f20 	strcc	r2, [r5], -r0, lsr #30
    10f0:	20260520 	eorcs	r0, r6, r0, lsr #10
    10f4:	052e1005 	streq	r1, [lr, #-5]!
    10f8:	0b051f0c 	bleq	148d30 <shift+0x148d30>
    10fc:	2f010531 	svccs	0x00010531
    1100:	01000602 	tsteq	r0, r2, lsl #12
    1104:	0000fe01 	andeq	pc, r0, r1, lsl #28
    1108:	7f000300 	svcvc	0x00000300
    110c:	02000000 	andeq	r0, r0, #0
    1110:	0d0efb01 	vstreq	d15, [lr, #-4]
    1114:	01010100 	mrseq	r0, (UNDEF: 17)
    1118:	00000001 	andeq	r0, r0, r1
    111c:	01000001 	tsteq	r0, r1
    1120:	69647473 	stmdbvs	r4!, {r0, r1, r4, r5, r6, sl, ip, sp, lr}^
    1124:	696c2f6f 	stmdbvs	ip!, {r0, r1, r2, r3, r5, r6, r8, r9, sl, fp, sp}^
    1128:	74730062 	ldrbtvc	r0, [r3], #-98	; 0xffffff9e
    112c:	2f6f6964 	svccs	0x006f6964
    1130:	6c636e69 	stclvs	14, cr6, [r3], #-420	; 0xfffffe5c
    1134:	00656475 	rsbeq	r6, r5, r5, ror r4
    1138:	69766564 	ldmdbvs	r6!, {r2, r5, r6, r8, sl, sp, lr}^
    113c:	00736563 	rsbseq	r6, r3, r3, ror #10
    1140:	69727000 	ldmdbvs	r2!, {ip, sp, lr}^
    1144:	2e66746e 	cdpcs	4, 6, cr7, cr6, cr14, {3}
    1148:	00010063 	andeq	r0, r1, r3, rrx
    114c:	70797400 	rsbsvc	r7, r9, r0, lsl #8
    1150:	682e7365 	stmdavs	lr!, {r0, r2, r5, r6, r8, r9, ip, sp, lr}
    1154:	00000200 	andeq	r0, r0, r0, lsl #4
    1158:	72707376 	rsbsvc	r7, r0, #-671088639	; 0xd8000001
    115c:	66746e69 	ldrbtvs	r6, [r4], -r9, ror #28
    1160:	0200682e 	andeq	r6, r0, #3014656	; 0x2e0000
    1164:	74730000 	ldrbtvc	r0, [r3], #-0
    1168:	2e6f6964 	vnmulcs.f16	s13, s30, s9	; <UNPREDICTABLE>
    116c:	00020068 	andeq	r0, r2, r8, rrx
    1170:	72747300 	rsbsvc	r7, r4, #0, 6
    1174:	2e676e69 	cdpcs	14, 6, cr6, cr7, cr9, {3}
    1178:	00020068 	andeq	r0, r2, r8, rrx
    117c:	6c736600 	ldclvs	6, cr6, [r3], #-0
    1180:	6d6f635f 	stclvs	3, cr6, [pc, #-380]!	; 100c <shift+0x100c>
    1184:	2e6e6f6d 	cdpcs	15, 6, cr6, cr14, cr13, {3}
    1188:	00030068 	andeq	r0, r3, r8, rrx
    118c:	01050000 	mrseq	r0, (UNDEF: 5)
    1190:	98020500 	stmdals	r2, {r8, sl}
    1194:	0380001a 	orreq	r0, r0, #26
    1198:	02050111 	andeq	r0, r5, #1073741828	; 0x40000004
    119c:	3d08054f 	cfstr32cc	mvfx0, [r8, #-316]	; 0xfffffec4
    11a0:	05920905 	ldreq	r0, [r2, #2309]	; 0x905
    11a4:	12052e02 	andne	r2, r5, #2, 28
    11a8:	03040200 	movweq	r0, #16896	; 0x4200
    11ac:	00030522 	andeq	r0, r3, r2, lsr #10
    11b0:	58030402 	stmdapl	r3, {r1, sl}
    11b4:	02002705 	andeq	r2, r0, #1310720	; 0x140000
    11b8:	053a0304 	ldreq	r0, [sl, #-772]!	; 0xfffffcfc
    11bc:	04020012 	streq	r0, [r2], #-18	; 0xffffffee
    11c0:	10053c01 	andne	r3, r5, r1, lsl #24
    11c4:	01040200 	mrseq	r0, R12_usr
    11c8:	40090566 	andmi	r0, r9, r6, ror #10
    11cc:	db210105 	blle	8415e8 <shift+0x8415e8>
    11d0:	054b0605 	strbeq	r0, [fp, #-1541]	; 0xfffff9fb
    11d4:	03053407 	movweq	r3, #21511	; 0x5407
    11d8:	4b05054b 	blmi	14270c <shift+0x14270c>
    11dc:	02001205 	andeq	r1, r0, #1342177280	; 0x50000000
    11e0:	053c0104 	ldreq	r0, [ip, #-260]!	; 0xfffffefc
    11e4:	04053e11 	streq	r3, [r5], #-3601	; 0xfffff1ef
    11e8:	240f0567 	strcs	r0, [pc], #-1383	; 11f0 <shift+0x11f0>
    11ec:	053c1305 	ldreq	r1, [ip, #-773]!	; 0xfffffcfb
    11f0:	4a770305 	bmi	1dc1e0c <shift+0x1dc1e0c>
    11f4:	0d030205 	sfmeq	f0, 4, [r3, #-20]	; 0xffffffec
    11f8:	3d060520 	cfstr32cc	mvfx0, [r6, #-128]	; 0xffffff80
    11fc:	05930905 	ldreq	r0, [r3, #2309]	; 0x905
    1200:	0e022101 	adfeqs	f2, f2, f1
    1204:	1d010100 	stfnes	f0, [r1, #-0]
    1208:	03000005 	movweq	r0, #5
    120c:	00005900 	andeq	r5, r0, r0, lsl #18
    1210:	fb010200 	blx	41a1a <shift+0x41a1a>
    1214:	01000d0e 	tsteq	r0, lr, lsl #26
    1218:	00010101 	andeq	r0, r1, r1, lsl #2
    121c:	00010000 	andeq	r0, r1, r0
    1220:	74730100 	ldrbtvc	r0, [r3], #-256	; 0xffffff00
    1224:	2f6f6964 	svccs	0x006f6964
    1228:	6c636e69 	stclvs	14, cr6, [r3], #-420	; 0xfffffe5c
    122c:	00656475 	rsbeq	r6, r5, r5, ror r4
    1230:	69647473 	stmdbvs	r4!, {r0, r1, r4, r5, r6, sl, ip, sp, lr}^
    1234:	696c2f6f 	stmdbvs	ip!, {r0, r1, r2, r3, r5, r6, r8, r9, sl, fp, sp}^
    1238:	63000062 	movwvs	r0, #98	; 0x62
    123c:	65707974 	ldrbvs	r7, [r0, #-2420]!	; 0xfffff68c
    1240:	0100682e 	tsteq	r0, lr, lsr #16
    1244:	74730000 	ldrbtvc	r0, [r3], #-0
    1248:	676e6972 			; <UNDEFINED> instruction: 0x676e6972
    124c:	0200632e 	andeq	r6, r0, #-1207959552	; 0xb8000000
    1250:	74730000 	ldrbtvc	r0, [r3], #-0
    1254:	676e6972 			; <UNDEFINED> instruction: 0x676e6972
    1258:	0100682e 	tsteq	r0, lr, lsr #16
    125c:	79740000 	ldmdbvc	r4!, {}^	; <UNPREDICTABLE>
    1260:	2e736570 	mrccs	5, 3, r6, cr3, cr0, {3}
    1264:	00010068 	andeq	r0, r1, r8, rrx
    1268:	01050000 	mrseq	r0, (UNDEF: 5)
    126c:	80020500 	andhi	r0, r2, r0, lsl #10
    1270:	0380001b 	orreq	r0, r0, #27
    1274:	06050122 	streq	r0, [r5], -r2, lsr #2
    1278:	66050575 			; <UNDEFINED> instruction: 0x66050575
    127c:	3d09052f 	cfstr32cc	mvfx0, [r9, #-188]	; 0xffffff44
    1280:	04210105 	strteq	r0, [r1], #-261	; 0xfffffefb
    1284:	ac780302 	ldclge	3, cr0, [r8], #-8
    1288:	056a0505 	strbeq	r0, [sl, #-1285]!	; 0xfffffafb
    128c:	05052e0d 	streq	r2, [r5, #-3597]	; 0xfffff1f3
    1290:	3e07052f 	cfsh32cc	mvfx0, mvfx7, #31
    1294:	053c1105 	ldreq	r1, [ip, #-261]!	; 0xfffffefb
    1298:	0c053d06 	stceq	13, cr3, [r5], {6}
    129c:	3d07053c 	cfstr32cc	mvfx0, [r7, #-240]	; 0xffffff10
    12a0:	09053e3e 	stmdbeq	r5, {r1, r2, r3, r4, r5, r9, sl, fp, ip, sp}
    12a4:	0705674c 	streq	r6, [r5, -ip, asr #14]
    12a8:	55050567 	strpl	r0, [r5, #-1383]	; 0xfffffa99
    12ac:	05250c05 	streq	r0, [r5, #-3077]!	; 0xfffff3fb
    12b0:	74770305 	ldrbtvc	r0, [r7], #-773	; 0xfffffcfb
    12b4:	09053430 	stmdbeq	r5, {r4, r5, sl, ip, sp}
    12b8:	20130523 	andscs	r0, r3, r3, lsr #10
    12bc:	05201105 	streq	r1, [r0, #-261]!	; 0xfffffefb
    12c0:	0c032101 	stfeqs	f2, [r3], {1}
    12c4:	5908054a 	stmdbpl	r8, {r1, r3, r6, r8, sl}
    12c8:	00180530 	andseq	r0, r8, r0, lsr r5
    12cc:	20010402 	andcs	r0, r1, r2, lsl #8
    12d0:	02000f05 	andeq	r0, r0, #5, 30
    12d4:	053c0104 	ldreq	r0, [ip, #-260]!	; 0xfffffefc
    12d8:	04020014 	streq	r0, [r2], #-20	; 0xffffffec
    12dc:	12053c01 	andne	r3, r5, #256	; 0x100
    12e0:	01040200 	mrseq	r0, R12_usr
    12e4:	000a0520 	andeq	r0, sl, r0, lsr #10
    12e8:	20010402 	andcs	r0, r1, r2, lsl #8
    12ec:	02001c05 	andeq	r1, r0, #1280	; 0x500
    12f0:	05200104 	streq	r0, [r0, #-260]!	; 0xfffffefc
    12f4:	01053009 	tsteq	r5, r9
    12f8:	660f0321 	strvs	r0, [pc], -r1, lsr #6
    12fc:	30670805 	rsbcc	r0, r7, r5, lsl #16
    1300:	02000e05 	andeq	r0, r0, #5, 28	; 0x50
    1304:	05200204 	streq	r0, [r0, #-516]!	; 0xfffffdfc
    1308:	04020011 	streq	r0, [r2], #-17	; 0xffffffef
    130c:	23053c02 	movwcs	r3, #23554	; 0x5c02
    1310:	01040200 	mrseq	r0, R12_usr
    1314:	001a052e 	andseq	r0, sl, lr, lsr #10
    1318:	3c010402 	cfstrscc	mvf0, [r1], {2}
    131c:	02001f05 	andeq	r1, r0, #5, 30
    1320:	053c0104 	ldreq	r0, [ip, #-260]!	; 0xfffffefc
    1324:	0402001d 	streq	r0, [r2], #-29	; 0xffffffe3
    1328:	15052001 	strne	r2, [r5, #-1]
    132c:	01040200 	mrseq	r0, R12_usr
    1330:	00110520 	andseq	r0, r1, r0, lsr #10
    1334:	20010402 	andcs	r0, r1, r2, lsl #8
    1338:	05310905 	ldreq	r0, [r1, #-2309]!	; 0xfffff6fb
    133c:	0a032101 	beq	c9748 <shift+0xc9748>
    1340:	59080566 	stmdbpl	r8, {r1, r2, r5, r6, r8, sl}
    1344:	21070530 	tstcs	r7, r0, lsr r5
    1348:	053b0905 	ldreq	r0, [fp, #-2309]!	; 0xfffff6fb
    134c:	18054c08 	stmdane	r5, {r3, sl, fp, lr}
    1350:	01040200 	mrseq	r0, R12_usr
    1354:	000f0520 	andeq	r0, pc, r0, lsr #10
    1358:	3c010402 	cfstrscc	mvf0, [r1], {2}
    135c:	02001405 	andeq	r1, r0, #83886080	; 0x5000000
    1360:	053c0104 	ldreq	r0, [ip, #-260]!	; 0xfffffefc
    1364:	04020012 	streq	r0, [r2], #-18	; 0xffffffee
    1368:	0a052001 	beq	149374 <shift+0x149374>
    136c:	01040200 	mrseq	r0, R12_usr
    1370:	001c0520 	andseq	r0, ip, r0, lsr #10
    1374:	20010402 	andcs	r0, r1, r2, lsl #8
    1378:	05310905 	ldreq	r0, [r1, #-2309]!	; 0xfffff6fb
    137c:	0e032101 	adfeqs	f2, f3, f1
    1380:	67080566 	strvs	r0, [r8, -r6, ror #10]
    1384:	05300505 	ldreq	r0, [r0, #-1285]!	; 0xfffffafb
    1388:	08053d09 	stmdaeq	r5, {r0, r3, r8, sl, fp, ip, sp}
    138c:	3b0a0521 	blcc	282818 <shift+0x282818>
    1390:	054c0905 	strbeq	r0, [ip, #-2309]	; 0xfffff6fb
    1394:	0b052107 	bleq	1497b8 <shift+0x1497b8>
    1398:	3d050567 	cfstr32cc	mvfx0, [r5, #-412]	; 0xfffffe64
    139c:	051d1905 	ldreq	r1, [sp, #-2309]	; 0xfffff6fb
    13a0:	15053c10 	strne	r3, [r5, #-3088]	; 0xfffff3f0
    13a4:	2013053c 	andscs	r0, r3, ip, lsr r5
    13a8:	05200b05 	streq	r0, [r0, #-2821]!	; 0xfffff4fb
    13ac:	0905200a 	stmdbeq	r5, {r1, r3, sp}
    13b0:	21010536 	tstcs	r1, r6, lsr r5
    13b4:	05660a03 	strbeq	r0, [r6, #-2563]!	; 0xfffff5fd
    13b8:	19055c10 	stmdbne	r5, {r4, sl, fp, ip, lr}
    13bc:	3c16052e 	cfldr32cc	mvfx0, [r6], {46}	; 0x2e
    13c0:	05201405 	streq	r1, [r0, #-1029]!	; 0xfffffbfb
    13c4:	06052e0e 	streq	r2, [r5], -lr, lsl #28
    13c8:	00290520 	eoreq	r0, r9, r0, lsr #10
    13cc:	2e010402 	cdpcs	4, 0, cr0, cr1, cr2, {0}
    13d0:	02002605 	andeq	r2, r0, #5242880	; 0x500000
    13d4:	053c0104 	ldreq	r0, [ip, #-260]!	; 0xfffffefc
    13d8:	04020022 	streq	r0, [r2], #-34	; 0xffffffde
    13dc:	06052001 	streq	r2, [r5], -r1
    13e0:	2409052e 	strcs	r0, [r9], #-1326	; 0xfffffad2
    13e4:	03210105 			; <UNDEFINED> instruction: 0x03210105
    13e8:	1705580b 	strne	r5, [r5, -fp, lsl #16]
    13ec:	22080567 	andcs	r0, r8, #432013312	; 0x19c00000
    13f0:	05211005 	streq	r1, [r1, #-5]!
    13f4:	16052e19 			; <UNDEFINED> instruction: 0x16052e19
    13f8:	2014053c 	andscs	r0, r4, ip, lsr r5
    13fc:	052e0e05 	streq	r0, [lr, #-3589]!	; 0xfffff1fb
    1400:	29052006 	stmdbcs	r5, {r1, r2, sp}
    1404:	01040200 	mrseq	r0, R12_usr
    1408:	0026052e 	eoreq	r0, r6, lr, lsr #10
    140c:	3c010402 	cfstrscc	mvf0, [r1], {2}
    1410:	02002205 	andeq	r2, r0, #1342177280	; 0x50000000
    1414:	05200104 	streq	r0, [r0, #-260]!	; 0xfffffefc
    1418:	09053008 	stmdbeq	r5, {r3, ip, sp}
    141c:	01054239 	tsteq	r5, r9, lsr r2
    1420:	580a0321 	stmdapl	sl, {r0, r5, r8, r9}
    1424:	05590205 	ldrbeq	r0, [r9, #-517]	; 0xfffffdfb
    1428:	06052107 	streq	r2, [r5], -r7, lsl #2
    142c:	2f0b052e 	svccs	0x000b052e
    1430:	052c1805 	streq	r1, [ip, #-2053]!	; 0xfffff7fb
    1434:	04020008 	streq	r0, [r2], #-8
    1438:	0b053c01 	bleq	150444 <shift+0x150444>
    143c:	01040200 	mrseq	r0, R12_usr
    1440:	4d09052e 	cfstr32mi	mvfx0, [r9, #-184]	; 0xffffff48
    1444:	03210105 			; <UNDEFINED> instruction: 0x03210105
    1448:	1c05660a 	stcne	6, cr6, [r5], {10}
    144c:	4a140559 	bmi	5029b8 <shift+0x5029b8>
    1450:	053e1005 	ldreq	r1, [lr, #-5]!
    1454:	0f052e13 	svceq	0x00052e13
    1458:	2f17052e 	svccs	0x0017052e
    145c:	052f1505 	streq	r1, [pc, #-1285]!	; f5f <shift+0xf5f>
    1460:	0105750f 	tsteq	r5, pc, lsl #10
    1464:	4a090321 	bmi	2420f0 <shift+0x2420f0>
    1468:	054d0a05 	strbeq	r0, [sp, #-2565]	; 0xfffff5fb
    146c:	1c052e02 	stcne	14, cr2, [r5], {2}
    1470:	03040200 	movweq	r0, #16896	; 0x4200
    1474:	000f0520 	andeq	r0, pc, r0, lsr #10
    1478:	3c010402 	cfstrscc	mvf0, [r1], {2}
    147c:	02001305 	andeq	r1, r0, #335544320	; 0x14000000
    1480:	052e0104 	streq	r0, [lr, #-260]!	; 0xfffffefc
    1484:	0105300c 	tsteq	r5, ip
    1488:	660a033d 			; <UNDEFINED> instruction: 0x660a033d
    148c:	055b0a05 	ldrbeq	r0, [fp, #-2565]	; 0xfffff5fb
    1490:	27052e02 	strcs	r2, [r5, -r2, lsl #28]
    1494:	04040200 	streq	r0, [r4], #-512	; 0xfffffe00
    1498:	00140520 	andseq	r0, r4, r0, lsr #10
    149c:	3c010402 	cfstrscc	mvf0, [r1], {2}
    14a0:	02001705 	andeq	r1, r0, #1310720	; 0x140000
    14a4:	053c0104 	ldreq	r0, [ip, #-260]!	; 0xfffffefc
    14a8:	0402001a 	streq	r0, [r2], #-26	; 0xffffffe6
    14ac:	17052e03 	strne	r2, [r5, -r3, lsl #28]
    14b0:	03040200 	movweq	r0, #16896	; 0x4200
    14b4:	300c052e 	andcc	r0, ip, lr, lsr #10
    14b8:	033d0105 	teqeq	sp, #1073741825	; 0x40000001
    14bc:	0905660b 	stmdbeq	r5, {r0, r1, r3, r9, sl, sp, lr}
    14c0:	0205305b 	andeq	r3, r5, #91	; 0x5b
    14c4:	210a052e 	tstcs	sl, lr, lsr #10
    14c8:	052e0305 	streq	r0, [lr, #-773]!	; 0xfffffcfb
    14cc:	0e052108 	adfeqs	f2, f5, #0.0
    14d0:	2e07052e 	cfsh32cs	mvfx0, mvfx7, #30
    14d4:	02002005 	andeq	r2, r0, #5
    14d8:	052d0204 	streq	r0, [sp, #-516]!	; 0xfffffdfc
    14dc:	04020014 	streq	r0, [r2], #-20	; 0xffffffec
    14e0:	17053c01 	strne	r3, [r5, -r1, lsl #24]
    14e4:	01040200 	mrseq	r0, R12_usr
    14e8:	3e05052e 	cfsh32cc	mvfx0, mvfx5, #30
    14ec:	05220705 	streq	r0, [r2, #-1797]!	; 0xfffff8fb
    14f0:	0b052e06 	bleq	14cd10 <shift+0x14cd10>
    14f4:	0003052f 	andeq	r0, r3, pc, lsr #10
    14f8:	2f020402 	svccs	0x00020402
    14fc:	02001a05 	andeq	r1, r0, #20480	; 0x5000
    1500:	79030204 	stmdbvc	r3, {r2, r9}
    1504:	000e053c 	andeq	r0, lr, ip, lsr r5
    1508:	3c010402 	cfstrscc	mvf0, [r1], {2}
    150c:	02001105 	andeq	r1, r0, #1073741825	; 0x40000001
    1510:	052e0104 	streq	r0, [lr, #-260]!	; 0xfffffefc
    1514:	2e0a0309 	cdpcs	3, 0, cr0, cr10, cr9, {0}
    1518:	03210105 			; <UNDEFINED> instruction: 0x03210105
    151c:	0b05660a 	bleq	15ad4c <shift+0x15ad4c>
    1520:	2e02055b 	cfrshl32cs	mvfx2, mvfx11, r0
    1524:	05210c05 	streq	r0, [r1, #-3077]!	; 0xfffff3fb
    1528:	08052e03 	stmdaeq	r5, {r0, r1, r9, sl, fp, sp}
    152c:	2e100521 	cfmul64cs	mvdx0, mvdx0, mvdx1
    1530:	052e0705 	streq	r0, [lr, #-1797]!	; 0xfffff8fb
    1534:	20052f0c 	andcs	r2, r5, ip, lsl #30
    1538:	02040200 	andeq	r0, r4, #0, 4
    153c:	0012052c 	andseq	r0, r2, ip, lsr #10
    1540:	3c010402 	cfstrscc	mvf0, [r1], {2}
    1544:	02001705 	andeq	r1, r0, #1310720	; 0x140000
    1548:	052e0104 	streq	r0, [lr, #-260]!	; 0xfffffefc
    154c:	0402001f 	streq	r0, [r2], #-31	; 0xffffffe1
    1550:	11052d02 	tstne	r5, r2, lsl #26
    1554:	01040200 	mrseq	r0, R12_usr
    1558:	0016053c 	andseq	r0, r6, ip, lsr r5
    155c:	2e010402 	cdpcs	4, 0, cr0, cr1, cr2, {0}
    1560:	05340905 	ldreq	r0, [r4, #-2309]!	; 0xfffff6fb
    1564:	0c032101 	stfeqs	f2, [r3], {1}
    1568:	5b120566 	blpl	482b08 <shift+0x482b08>
    156c:	01040200 	mrseq	r0, R12_usr
    1570:	02003c06 	andeq	r3, r0, #1536	; 0x600
    1574:	052e0204 	streq	r0, [lr, #-516]!	; 0xfffffdfc
    1578:	0402000a 	streq	r0, [r2], #-10
    157c:	053c0604 	ldreq	r0, [ip, #-1540]!	; 0xfffff9fc
    1580:	04020005 	streq	r0, [r2], #-5
    1584:	0a052104 	beq	14999c <shift+0x14999c>
    1588:	300c053d 	andcc	r0, ip, sp, lsr r5
    158c:	05580905 	ldrbeq	r0, [r8, #-2309]	; 0xfffff6fb
    1590:	05053d06 	streq	r3, [r5, #-3334]	; 0xfffff2fa
    1594:	2f0d052e 	svccs	0x000d052e
    1598:	304b0905 	subcc	r0, fp, r5, lsl #18
    159c:	05590505 	ldrbeq	r0, [r9, #-1285]	; 0xfffffafb
    15a0:	0402000e 	streq	r0, [r2], #-14
    15a4:	0b053c01 	bleq	1505b0 <shift+0x1505b0>
    15a8:	01040200 	mrseq	r0, R12_usr
    15ac:	2f08052e 	svccs	0x0008052e
    15b0:	053c0b05 	ldreq	r0, [ip, #-2821]!	; 0xfffff4fb
    15b4:	09052f0c 	stmdbeq	r5, {r2, r3, r8, r9, sl, fp, sp}
    15b8:	2101054b 	tstcs	r1, fp, asr #10
    15bc:	059e1003 	ldreq	r1, [lr, #3]
    15c0:	05055908 	streq	r5, [r5, #-2312]	; 0xfffff6f8
    15c4:	3d0a053e 	cfstr32cc	mvfx0, [sl, #-248]	; 0xffffff08
    15c8:	05300805 	ldreq	r0, [r0, #-2053]!	; 0xfffff7fb
    15cc:	07055905 	streq	r5, [r5, -r5, lsl #18]
    15d0:	3c0a053d 	cfstr32cc	mvfx0, [sl], {61}	; 0x3d
    15d4:	052f0505 	streq	r0, [pc, #-1285]!	; 10d7 <shift+0x10d7>
    15d8:	01053e09 	tsteq	r5, r9, lsl #28
    15dc:	4a0d0321 	bmi	342268 <shift+0x342268>
    15e0:	30670805 	rsbcc	r0, r7, r5, lsl #16
    15e4:	05210605 	streq	r0, [r1, #-1541]!	; 0xfffff9fb
    15e8:	0e053c09 	cdpeq	12, 0, cr3, cr5, cr9, {0}
    15ec:	3c09053b 	cfstr32cc	mvfx0, [r9], {59}	; 0x3b
    15f0:	21010531 	tstcs	r1, r1, lsr r5
    15f4:	05661103 	strbeq	r1, [r6, #-259]!	; 0xfffffefd
    15f8:	302f6708 	eorcc	r6, pc, r8, lsl #14
    15fc:	05211705 	streq	r1, [r1, #-1797]!	; 0xfffff8fb
    1600:	10053c0b 	andne	r3, r5, fp, lsl #24
    1604:	200e053c 	andcs	r0, lr, ip, lsr r5
    1608:	3c09051f 	cfstr32cc	mvfx0, [r9], {31}
    160c:	03300105 	teqeq	r0, #1073741825	; 0x40000001
    1610:	0805740e 	stmdaeq	r5, {r1, r2, r3, sl, ip, sp, lr}
    1614:	2e1e0567 	cfmsc32cs	mvfx0, mvfx14, mvfx7
    1618:	05300805 	ldreq	r0, [r0, #-2053]!	; 0xfffff7fb
    161c:	0705210e 	streq	r2, [r5, -lr, lsl #2]
    1620:	3c0c053c 	cfstr32cc	mvfx0, [ip], {60}	; 0x3c
    1624:	05200a05 	streq	r0, [r0, #-2565]!	; 0xfffff5fb
    1628:	09051f0e 	stmdbeq	r5, {r1, r2, r3, r8, r9, sl, fp, ip}
    162c:	0105313c 	tsteq	r5, ip, lsr r1
    1630:	660d0321 	strvs	r0, [sp], -r1, lsr #6
    1634:	05690505 	strbeq	r0, [r9, #-1285]!	; 0xfffffafb
    1638:	05054b07 	streq	r4, [r5, #-2823]	; 0xfffff4f9
    163c:	2f09052f 	svccs	0x0009052f
    1640:	05210f05 	streq	r0, [r1, #-3845]!	; 0xfffff0fb
    1644:	0d053c08 	stceq	12, cr3, [r5, #-32]	; 0xffffffe0
    1648:	200b053c 	andcs	r0, fp, ip, lsr r5
    164c:	051f0f05 	ldreq	r0, [pc, #-3845]	; 74f <shift+0x74f>
    1650:	07053c0a 	streq	r3, [r5, -sl, lsl #24]
    1654:	4b050540 	blmi	142b5c <shift+0x142b5c>
    1658:	054b0905 	strbeq	r0, [fp, #-2309]	; 0xfffff6fb
    165c:	0d05210b 	stfeqs	f2, [r5, #-44]	; 0xffffffd4
    1660:	2e0b0566 	cfsh32cs	mvfx0, mvfx11, #54
    1664:	052d0f05 	streq	r0, [sp, #-3845]!	; 0xfffff0fb
    1668:	09053c0a 	stmdbeq	r5, {r1, r3, sl, fp, ip, sp}
    166c:	21010532 	tstcs	r1, r2, lsr r5
    1670:	05660b03 	strbeq	r0, [r6, #-2819]!	; 0xfffff4fd
    1674:	0b056806 	bleq	15b694 <shift+0x15b694>
    1678:	2e2c0530 	mcrcs	5, 1, r0, cr12, cr0, {1}
    167c:	052e0205 	streq	r0, [lr, #-517]!	; 0xfffffdfb
    1680:	1505210e 	strne	r2, [r5, #-270]	; 0xfffffef2
    1684:	2e0c053c 	mcrcs	5, 0, r0, cr12, cr12, {1}
    1688:	052e0605 	streq	r0, [lr, #-1541]!	; 0xfffff9fb
    168c:	04020054 	streq	r0, [r2], #-84	; 0xffffffac
    1690:	5b053b02 	blpl	1502a0 <shift+0x1502a0>
    1694:	02040200 	andeq	r0, r4, #0, 4
    1698:	0067053c 	rsbeq	r0, r7, ip, lsr r5
    169c:	3c020402 	cfstrscc	mvf0, [r2], {2}
    16a0:	02004b05 	andeq	r4, r0, #5120	; 0x1400
    16a4:	053c0104 	ldreq	r0, [ip, #-260]!	; 0xfffffefc
    16a8:	09054c04 	stmdbeq	r5, {r2, sl, fp, lr}
    16ac:	21010521 	tstcs	r1, r1, lsr #10
    16b0:	05660e03 	strbeq	r0, [r6, #-3587]!	; 0xfffff1fd
    16b4:	08056712 	stmdaeq	r5, {r1, r4, r8, r9, sl, sp, lr}
    16b8:	21070530 	tstcs	r7, r0, lsr r5
    16bc:	053c0605 	ldreq	r0, [ip, #-1541]!	; 0xfffff9fb
    16c0:	04053d0b 	streq	r3, [r5], #-3339	; 0xfffff2f5
    16c4:	3d07052f 	cfstr32cc	mvfx0, [r7, #-188]	; 0xffffff44
    16c8:	05380905 	ldreq	r0, [r8, #-2309]!	; 0xfffff6fb
    16cc:	0105420b 	tsteq	r5, fp, lsl #4
    16d0:	660a0321 	strvs	r0, [sl], -r1, lsr #6
    16d4:	055b0705 	ldrbeq	r0, [fp, #-1797]	; 0xfffff8fb
    16d8:	05214a05 	streq	r4, [r1, #-2565]!	; 0xfffff5fb
    16dc:	07053d0a 	streq	r3, [r5, -sl, lsl #26]
    16e0:	4a05052f 	bmi	142ba4 <shift+0x142ba4>
    16e4:	05210805 	streq	r0, [r1, #-2053]!	; 0xfffff7fb
    16e8:	08052105 	stmdaeq	r5, {r0, r2, r8, sp}
    16ec:	7406053d 	strvc	r0, [r6], #-1341	; 0xfffffac3
    16f0:	052f0b05 	streq	r0, [pc, #-2821]!	; bf3 <shift+0xbf3>
    16f4:	0c052f05 	stceq	15, cr2, [r5], {5}
    16f8:	50090538 	andpl	r0, r9, r8, lsr r5
    16fc:	03210105 			; <UNDEFINED> instruction: 0x03210105
    1700:	17054a0e 	strne	r4, [r5, -lr, lsl #20]
    1704:	2f080567 	svccs	0x00080567
    1708:	05210e05 	streq	r0, [r1, #-3589]!	; 0xfffff1fb
    170c:	22052e24 	andcs	r2, r5, #36, 28	; 0x240
    1710:	200d053c 	andcs	r0, sp, ip, lsr r5
    1714:	052f0b05 	streq	r0, [pc, #-2821]!	; c17 <shift+0xc17>
    1718:	0d053a0a 	vstreq	s6, [r5, #-40]	; 0xffffffd8
    171c:	3309053c 	movwcc	r0, #38204	; 0x953c
    1720:	02210105 	eoreq	r0, r1, #1073741825	; 0x40000001
    1724:	01010006 	tsteq	r1, r6
    1728:	00000c44 	andeq	r0, r0, r4, asr #24
    172c:	00840003 	addeq	r0, r4, r3
    1730:	01020000 	mrseq	r0, (UNDEF: 2)
    1734:	000d0efb 	strdeq	r0, [sp], -fp
    1738:	01010101 	tsteq	r1, r1, lsl #2
    173c:	01000000 	mrseq	r0, (UNDEF: 0)
    1740:	73010000 	movwvc	r0, #4096	; 0x1000
    1744:	6f696474 	svcvs	0x00696474
    1748:	636e692f 	cmnvs	lr, #770048	; 0xbc000
    174c:	6564756c 	strbvs	r7, [r4, #-1388]!	; 0xfffffa94
    1750:	64747300 	ldrbtvs	r7, [r4], #-768	; 0xfffffd00
    1754:	6c2f6f69 	stcvs	15, cr6, [pc], #-420	; 15b8 <shift+0x15b8>
    1758:	64006269 	strvs	r6, [r0], #-617	; 0xfffffd97
    175c:	63697665 	cmnvs	r9, #105906176	; 0x6500000
    1760:	00007365 	andeq	r7, r0, r5, ror #6
    1764:	70797463 	rsbsvc	r7, r9, r3, ror #8
    1768:	00682e65 	rsbeq	r2, r8, r5, ror #28
    176c:	76000001 	strvc	r0, [r0], -r1
    1770:	69727073 	ldmdbvs	r2!, {r0, r1, r4, r5, r6, ip, sp, lr}^
    1774:	2e66746e 	cdpcs	4, 6, cr7, cr6, cr14, {3}
    1778:	00020063 	andeq	r0, r2, r3, rrx
    177c:	70797400 	rsbsvc	r7, r9, r0, lsl #8
    1780:	682e7365 	stmdavs	lr!, {r0, r2, r5, r6, r8, r9, ip, sp, lr}
    1784:	00000100 	andeq	r0, r0, r0, lsl #2
    1788:	72707376 	rsbsvc	r7, r0, #-671088639	; 0xd8000001
    178c:	66746e69 	ldrbtvs	r6, [r4], -r9, ror #28
    1790:	0100682e 	tsteq	r0, lr, lsr #16
    1794:	63630000 	cmnvs	r3, #0
    1798:	0300682e 	movweq	r6, #2094	; 0x82e
    179c:	74730000 	ldrbtvc	r0, [r3], #-0
    17a0:	676e6972 			; <UNDEFINED> instruction: 0x676e6972
    17a4:	0100682e 	tsteq	r0, lr, lsr #16
    17a8:	69640000 	stmdbvs	r4!, {}^	; <UNPREDICTABLE>
    17ac:	2e343676 	mrccs	6, 1, r3, cr4, cr6, {3}
    17b0:	00010068 	andeq	r0, r1, r8, rrx
    17b4:	01050000 	mrseq	r0, (UNDEF: 5)
    17b8:	b0020500 	andlt	r0, r2, r0, lsl #10
    17bc:	03800022 	orreq	r0, r0, #34	; 0x22
    17c0:	06050129 	streq	r0, [r5], -r9, lsr #2
    17c4:	66050575 			; <UNDEFINED> instruction: 0x66050575
    17c8:	3d09052f 	cfstr32cc	mvfx0, [r9, #-188]	; 0xffffff44
    17cc:	04210105 	strteq	r0, [r1], #-261	; 0xfffffefb
    17d0:	1005ac02 	andne	sl, r5, r2, lsl #24
    17d4:	30050583 	andcc	r0, r5, r3, lsl #11
    17d8:	053d0805 	ldreq	r0, [sp, #-2053]!	; 0xfffff7fb
    17dc:	06052f07 	streq	r2, [r5], -r7, lsl #30
    17e0:	2f09052e 	svccs	0x0009052e
    17e4:	052f0605 	streq	r0, [pc, #-1541]!	; 11e7 <shift+0x11e7>
    17e8:	07053d09 	streq	r3, [r5, -r9, lsl #26]
    17ec:	00210566 	eoreq	r0, r1, r6, ror #10
    17f0:	2e010402 	cdpcs	4, 0, cr0, cr1, cr2, {0}
    17f4:	02001e05 	andeq	r1, r0, #5, 28	; 0x50
    17f8:	05900104 	ldreq	r0, [r0, #260]	; 0x104
    17fc:	0a052f07 	beq	14d420 <shift+0x14d420>
    1800:	3f0c053d 	svccc	0x000c053d
    1804:	053d0905 	ldreq	r0, [sp, #-2309]!	; 0xfffff6fb
    1808:	17052e06 	strne	r2, [r5, -r6, lsl #28]
    180c:	01040200 	mrseq	r0, R12_usr
    1810:	0014052e 	andseq	r0, r4, lr, lsr #10
    1814:	74010402 	strvc	r0, [r1], #-1026	; 0xfffffbfe
    1818:	052f0705 	streq	r0, [pc, #-1797]!	; 111b <shift+0x111b>
    181c:	12053e08 	andne	r3, r5, #8, 28	; 0x80
    1820:	4a0a0522 	bmi	282cb0 <shift+0x282cb0>
    1824:	053d0505 	ldreq	r0, [sp, #-1285]!	; 0xfffffafb
    1828:	17053909 	strne	r3, [r5, -r9, lsl #18]
    182c:	2f120582 	svccs	0x00120582
    1830:	05822905 	streq	r2, [r2, #2309]	; 0x905
    1834:	04020021 	streq	r0, [r2], #-33	; 0xffffffdf
    1838:	24052e01 	strcs	r2, [r5], #-3585	; 0xfffff1ff
    183c:	01040200 	mrseq	r0, R12_usr
    1840:	002b052e 	eoreq	r0, fp, lr, lsr #10
    1844:	2e020402 	cdpcs	4, 0, cr0, cr2, cr2, {0}
    1848:	02003b05 	andeq	r3, r0, #5120	; 0x1400
    184c:	05660204 	strbeq	r0, [r6, #-516]!	; 0xfffffdfc
    1850:	04020010 	streq	r0, [r2], #-16
    1854:	17052004 	strne	r2, [r5, -r4]
    1858:	04040200 	streq	r0, [r4], #-512	; 0xfffffe00
    185c:	4f05051f 	svcmi	0x0005051f
    1860:	3d3d0905 			; <UNDEFINED> instruction: 0x3d3d0905
    1864:	03210105 			; <UNDEFINED> instruction: 0x03210105
    1868:	0505820b 	streq	r8, [r5, #-523]	; 0xfffffdf5
    186c:	2e040567 	cfsh32cs	mvfx0, mvfx4, #55
    1870:	052f0b05 	streq	r0, [pc, #-2821]!	; d73 <shift+0xd73>
    1874:	0905820a 	stmdbeq	r5, {r1, r3, r9, pc}
    1878:	6701052f 	strvs	r0, [r1, -pc, lsr #10]
    187c:	054a0b03 	strbeq	r0, [sl, #-2819]	; 0xfffff4fd
    1880:	05059115 	streq	r9, [r5, #-277]	; 0xfffffeeb
    1884:	3d080568 	cfstr32cc	mvfx0, [r8, #-416]	; 0xfffffe60
    1888:	052f0705 	streq	r0, [pc, #-1797]!	; 118b <shift+0x118b>
    188c:	09052e06 	stmdbeq	r5, {r1, r2, r9, sl, fp, sp}
    1890:	2f06052f 	svccs	0x0006052f
    1894:	053d0905 	ldreq	r0, [sp, #-2309]!	; 0xfffff6fb
    1898:	21056607 	tstcs	r5, r7, lsl #12
    189c:	01040200 	mrseq	r0, R12_usr
    18a0:	001e052e 	andseq	r0, lr, lr, lsr #10
    18a4:	90010402 	andls	r0, r1, r2, lsl #8
    18a8:	052f0705 	streq	r0, [pc, #-1797]!	; 11ab <shift+0x11ab>
    18ac:	0c053d0a 	stceq	13, cr3, [r5], {10}
    18b0:	3d09053f 	cfstr32cc	mvfx0, [r9, #-252]	; 0xffffff04
    18b4:	052e0605 	streq	r0, [lr, #-1541]!	; 0xfffff9fb
    18b8:	04020017 	streq	r0, [r2], #-23	; 0xffffffe9
    18bc:	14052e01 	strne	r2, [r5], #-3585	; 0xfffff1ff
    18c0:	01040200 	mrseq	r0, R12_usr
    18c4:	2f070574 	svccs	0x00070574
    18c8:	053e0805 	ldreq	r0, [lr, #-2053]!	; 0xfffff7fb
    18cc:	0a052212 	beq	14a11c <shift+0x14a11c>
    18d0:	9f0505f2 	svcls	0x000505f2
    18d4:	05390905 	ldreq	r0, [r9, #-2309]!	; 0xfffff6fb
    18d8:	23058217 	movwcs	r8, #21015	; 0x5217
    18dc:	01040200 	mrseq	r0, R12_usr
    18e0:	003a052e 	eorseq	r0, sl, lr, lsr #10
    18e4:	82010402 	andhi	r0, r1, #33554432	; 0x2000000
    18e8:	02003205 	andeq	r3, r0, #1342177280	; 0x50000000
    18ec:	052e0204 	streq	r0, [lr, #-516]!	; 0xfffffdfc
    18f0:	0402003a 	streq	r0, [r2], #-58	; 0xffffffc6
    18f4:	3d052e02 	stccc	14, cr2, [r5, #-8]
    18f8:	03040200 	movweq	r0, #16896	; 0x4200
    18fc:	003a052e 	eorseq	r0, sl, lr, lsr #10
    1900:	82030402 	andhi	r0, r3, #33554432	; 0x2000000
    1904:	02000805 	andeq	r0, r0, #327680	; 0x50000
    1908:	052f0504 	streq	r0, [pc, #-1284]!	; 140c <shift+0x140c>
    190c:	0402003a 	streq	r0, [r2], #-58	; 0xffffffc6
    1910:	17056505 	strne	r6, [r5, -r5, lsl #10]
    1914:	06040200 	streq	r0, [r4], -r0, lsl #4
    1918:	003a052f 	eorseq	r0, sl, pc, lsr #10
    191c:	2d060402 	cfstrscs	mvf0, [r6, #-8]
    1920:	02002105 	andeq	r2, r0, #1073741825	; 0x40000001
    1924:	05200904 	streq	r0, [r0, #-2308]!	; 0xfffff6fc
    1928:	04020024 	streq	r0, [r2], #-36	; 0xffffffdc
    192c:	17057509 	strne	r7, [r5, -r9, lsl #10]
    1930:	09040200 	stmdbeq	r4, {r9}
    1934:	6b050549 	blvs	142e60 <shift+0x142e60>
    1938:	3d3d0905 			; <UNDEFINED> instruction: 0x3d3d0905
    193c:	032f0105 			; <UNDEFINED> instruction: 0x032f0105
    1940:	0505ac0b 	streq	sl, [r5, #-3083]	; 0xfffff3f5
    1944:	2e040567 	cfsh32cs	mvfx0, mvfx4, #55
    1948:	052f0b05 	streq	r0, [pc, #-2821]!	; e4b <shift+0xe4b>
    194c:	0905900a 	stmdbeq	r5, {r1, r3, ip, pc}
    1950:	75010575 	strvc	r0, [r1, #-1397]	; 0xfffffa8b
    1954:	6706055b 	smlsdvs	r6, fp, r5, r0
    1958:	21300805 	teqcs	r0, r5, lsl #16
    195c:	054a1105 	strbeq	r1, [sl, #-261]	; 0xfffffefb
    1960:	0e052e14 	mcreq	14, 0, r2, cr5, cr4, {0}
    1964:	200c053c 	andcs	r0, ip, ip, lsr r5
    1968:	05200505 	streq	r0, [r0, #-1285]!	; 0xfffffafb
    196c:	05ae2d09 	streq	r2, [lr, #3337]!	; 0xd09
    1970:	10032101 	andne	r2, r3, r1, lsl #2
    1974:	5a09059e 	bpl	242ff4 <shift+0x242ff4>
    1978:	052e0505 	streq	r0, [lr, #-1285]!	; 0xfffffafb
    197c:	05053d09 	streq	r3, [r5, #-3337]	; 0xfffff2f7
    1980:	0d053d2e 	stceq	13, cr3, [r5, #-184]	; 0xffffff48
    1984:	3c12053e 	cfldr32cc	mvfx0, [r2], {62}	; 0x3e
    1988:	052e0805 	streq	r0, [lr, #-2053]!	; 0xfffff7fb
    198c:	05053c1d 	streq	r3, [r5, #-3101]	; 0xfffff3e3
    1990:	2f0a053c 	svccs	0x000a053c
    1994:	054a0405 	strbeq	r0, [sl, #-1029]	; 0xfffffbfb
    1998:	05052f0e 	streq	r2, [r5, #-3854]	; 0xfffff0f2
    199c:	3d0e054a 	cfstr32cc	mvfx0, [lr, #-296]	; 0xfffffed8
    19a0:	052e0605 	streq	r0, [lr, #-1541]!	; 0xfffff9fb
    19a4:	09053c0e 	stmdbeq	r5, {r1, r2, r3, sl, fp, ip, sp}
    19a8:	210c052e 	tstcs	ip, lr, lsr #10
    19ac:	054a1305 	strbeq	r1, [sl, #-773]	; 0xfffffcfb
    19b0:	05054a10 	streq	r4, [r5, #-2576]	; 0xfffff5f0
    19b4:	0b053d3c 	bleq	150eac <shift+0x150eac>
    19b8:	4a05053d 	bmi	142eb4 <shift+0x142eb4>
    19bc:	052f0f05 	streq	r0, [pc, #-3845]!	; abf <shift+0xabf>
    19c0:	0f054a06 	svceq	0x00054a06
    19c4:	2e07053d 	mcrcs	5, 0, r0, cr7, cr13, {1}
    19c8:	053c0f05 	ldreq	r0, [ip, #-3845]!	; 0xfffff0fb
    19cc:	0d052e0a 	stceq	14, cr2, [r5, #-40]	; 0xffffffd8
    19d0:	2e060522 	cfsh32cs	mvfx0, mvfx6, #18
    19d4:	0011053d 	andseq	r0, r1, sp, lsr r5
    19d8:	3c010402 	cfstrscc	mvf0, [r1], {2}
    19dc:	053d0c05 	ldreq	r0, [sp, #-3077]!	; 0xfffff3fb
    19e0:	10054a06 	andne	r4, r5, r6, lsl #20
    19e4:	4a07052f 	bmi	1c2ea8 <shift+0x1c2ea8>
    19e8:	053d1005 	ldreq	r1, [sp, #-5]!
    19ec:	10052e08 	andne	r2, r5, r8, lsl #28
    19f0:	2e0b053c 	mcrcs	5, 0, r0, cr11, cr12, {1}
    19f4:	05220e05 	streq	r0, [r2, #-3589]!	; 0xfffff1fb
    19f8:	053d2e07 	ldreq	r2, [sp, #-3591]!	; 0xfffff1f9
    19fc:	07053d0d 	streq	r3, [r5, -sp, lsl #26]
    1a00:	2f11054a 	svccs	0x0011054a
    1a04:	054a0805 	strbeq	r0, [sl, #-2053]	; 0xfffff7fb
    1a08:	09053d11 	stmdbeq	r5, {r0, r4, r8, sl, fp, ip, sp}
    1a0c:	3c11052e 	cfldr32cc	mvfx0, [r1], {46}	; 0x2e
    1a10:	052e0c05 	streq	r0, [lr, #-3077]!	; 0xfffff3fb
    1a14:	11052108 	tstne	r5, r8, lsl #2
    1a18:	2e0a053d 	mcrcs	5, 0, r0, cr10, cr13, {1}
    1a1c:	053c1105 	ldreq	r1, [ip, #-261]!	; 0xfffffefb
    1a20:	09052e0d 	stmdbeq	r5, {r0, r2, r3, r9, sl, fp, sp}
    1a24:	21010524 	tstcs	r1, r4, lsr #10
    1a28:	5c09056a 	cfstr32pl	mvfx0, [r9], {106}	; 0x6a
    1a2c:	052e0505 	streq	r0, [lr, #-1285]!	; 0xfffffafb
    1a30:	05053d09 	streq	r3, [r5, #-3337]	; 0xfffff2f7
    1a34:	0d053d2e 	stceq	13, cr3, [r5, #-184]	; 0xffffff48
    1a38:	053c0c03 	ldreq	r0, [ip, #-3075]!	; 0xfffff3fd
    1a3c:	08053c12 	stmdaeq	r5, {r1, r4, sl, fp, ip, sp}
    1a40:	3c1d052e 	cfldr32cc	mvfx0, [sp], {46}	; 0x2e
    1a44:	053c0505 	ldreq	r0, [ip, #-1285]!	; 0xfffffafb
    1a48:	04052f0a 	streq	r2, [r5], #-3850	; 0xfffff0f6
    1a4c:	2f0e054a 	svccs	0x000e054a
    1a50:	054a0505 	strbeq	r0, [sl, #-1285]	; 0xfffffafb
    1a54:	06053d0e 	streq	r3, [r5], -lr, lsl #26
    1a58:	3c0e052e 	cfstr32cc	mvfx0, [lr], {46}	; 0x2e
    1a5c:	052e0905 	streq	r0, [lr, #-2309]!	; 0xfffff6fb
    1a60:	1305210c 	movwne	r2, #20748	; 0x510c
    1a64:	4a10054a 	bmi	402f94 <shift+0x402f94>
    1a68:	053c0505 	ldreq	r0, [ip, #-1285]!	; 0xfffffafb
    1a6c:	05053d0b 	streq	r3, [r5, #-3339]	; 0xfffff2f5
    1a70:	2f0f054a 	svccs	0x000f054a
    1a74:	054a0605 	strbeq	r0, [sl, #-1541]	; 0xfffff9fb
    1a78:	07053d0f 	streq	r3, [r5, -pc, lsl #26]
    1a7c:	3c0f052e 	cfstr32cc	mvfx0, [pc], {46}	; 0x2e
    1a80:	052e0a05 	streq	r0, [lr, #-2565]!	; 0xfffff5fb
    1a84:	0605220d 	streq	r2, [r5], -sp, lsl #4
    1a88:	3d0c052e 	cfstr32cc	mvfx0, [ip, #-184]	; 0xffffff48
    1a8c:	054a0605 	strbeq	r0, [sl, #-1541]	; 0xfffff9fb
    1a90:	07052f10 	smladeq	r5, r0, pc, r2	; <UNPREDICTABLE>
    1a94:	3d10054a 	cfldr32cc	mvfx0, [r0, #-296]	; 0xfffffed8
    1a98:	052e0805 	streq	r0, [lr, #-2053]!	; 0xfffff7fb
    1a9c:	0b053c10 	bleq	150ae4 <shift+0x150ae4>
    1aa0:	220e052e 	andcs	r0, lr, #192937984	; 0xb800000
    1aa4:	052e0705 	streq	r0, [lr, #-1797]!	; 0xfffff8fb
    1aa8:	07053d0d 	streq	r3, [r5, -sp, lsl #26]
    1aac:	3011054a 	andscc	r0, r1, sl, asr #10
    1ab0:	054a0805 	strbeq	r0, [sl, #-2053]	; 0xfffff7fb
    1ab4:	09053d11 	stmdbeq	r5, {r0, r4, r8, sl, fp, ip, sp}
    1ab8:	3c11052e 	cfldr32cc	mvfx0, [r1], {46}	; 0x2e
    1abc:	052e0c05 	streq	r0, [lr, #-3077]!	; 0xfffff3fb
    1ac0:	0a052111 	beq	149f0c <shift+0x149f0c>
    1ac4:	3c11052e 	cfldr32cc	mvfx0, [r1], {46}	; 0x2e
    1ac8:	052e0d05 	streq	r0, [lr, #-3333]!	; 0xfffff2fb
    1acc:	01052109 	tsteq	r5, r9, lsl #2
    1ad0:	0b056a21 	bleq	15c35c <shift+0x15c35c>
    1ad4:	2e060569 	cfsh32cs	mvfx0, mvfx6, #57
    1ad8:	05830b05 	streq	r0, [r3, #2821]	; 0xb05
    1adc:	02009109 	andeq	r9, r0, #1073741826	; 0x40000002
    1ae0:	e4060104 	str	r0, [r6], #-260	; 0xfffffefc
    1ae4:	02040200 	andeq	r0, r4, #0, 4
    1ae8:	02007408 	andeq	r7, r0, #8, 8	; 0x8000000
    1aec:	05660404 	strbeq	r0, [r6, #-1028]!	; 0xfffffbfc
    1af0:	04020007 	streq	r0, [r2], #-7
    1af4:	05200604 	streq	r0, [r0, #-1540]!	; 0xfffff9fc
    1af8:	04020009 	streq	r0, [r2], #-9
    1afc:	0c052104 	stfeqs	f2, [r5], {4}
    1b00:	04040200 	streq	r0, [r4], #-512	; 0xfffffe00
    1b04:	00010553 	andeq	r0, r1, r3, asr r5
    1b08:	27010402 	strcs	r0, [r1, -r2, lsl #8]
    1b0c:	8918054d 	ldmdbhi	r8, {r0, r2, r3, r6, r8, sl}
    1b10:	004a2305 	subeq	r2, sl, r5, lsl #6
    1b14:	06010402 	streq	r0, [r1], -r2, lsl #8
    1b18:	0402002e 	streq	r0, [r2], #-46	; 0xffffffd2
    1b1c:	02004a03 	andeq	r4, r0, #12288	; 0x3000
    1b20:	052e0404 	streq	r0, [lr, #-1028]!	; 0xfffffbfc
    1b24:	04020006 	streq	r0, [r2], #-6
    1b28:	05200606 	streq	r0, [r0, #-1542]!	; 0xfffff9fa
    1b2c:	04020011 	streq	r0, [r2], #-17	; 0xffffffef
    1b30:	09053306 	stmdbeq	r5, {r1, r2, r8, r9, ip, sp}
    1b34:	06040200 	streq	r0, [r4], -r0, lsl #4
    1b38:	000b053c 	andeq	r0, fp, ip, lsr r5
    1b3c:	4b060402 	blmi	182b4c <shift+0x182b4c>
    1b40:	02000505 	andeq	r0, r0, #20971520	; 0x1400000
    1b44:	054a0604 	strbeq	r0, [sl, #-1540]	; 0xfffff9fc
    1b48:	07052f08 	streq	r2, [r5, -r8, lsl #30]
    1b4c:	3e0b0567 	cfsh32cc	mvfx0, mvfx11, #55
    1b50:	054a0505 	strbeq	r0, [sl, #-1285]	; 0xfffffafb
    1b54:	09052f06 	stmdbeq	r5, {r1, r2, r8, r9, sl, fp, sp}
    1b58:	3d08054b 	cfstr32cc	mvfx0, [r8, #-300]	; 0xfffffed4
    1b5c:	68130591 	ldmdavs	r3, {r0, r4, r7, r8, sl}
    1b60:	054a0d05 	strbeq	r0, [sl, #-3333]	; 0xfffff2fb
    1b64:	08052f09 	stmdaeq	r5, {r0, r3, r8, r9, sl, fp, sp}
    1b68:	6713053d 			; <UNDEFINED> instruction: 0x6713053d
    1b6c:	054a0d05 	strbeq	r0, [sl, #-3333]	; 0xfffff2fb
    1b70:	08052f09 	stmdaeq	r5, {r0, r3, r8, r9, sl, fp, sp}
    1b74:	5b05053d 	blpl	143070 <shift+0x143070>
    1b78:	054b0705 	strbeq	r0, [fp, #-1797]	; 0xfffff8fb
    1b7c:	08055906 	stmdaeq	r5, {r1, r2, r8, fp, ip, lr}
    1b80:	5d04054b 	cfstr32pl	mvfx0, [r4, #-300]	; 0xfffffed4
    1b84:	053d0505 	ldreq	r0, [sp, #-1285]!	; 0xfffffafb
    1b88:	0c054b08 			; <UNDEFINED> instruction: 0x0c054b08
    1b8c:	6c0a0558 	cfstr32vs	mvfx0, [sl], {88}	; 0x58
    1b90:	4b4b0705 	blmi	12c37ac <shift+0x12c37ac>
    1b94:	053e0605 	ldreq	r0, [lr, #-1541]!	; 0xfffff9fb
    1b98:	18054b0a 	stmdane	r5, {r1, r3, r8, r9, fp, lr}
    1b9c:	01040200 	mrseq	r0, R12_usr
    1ba0:	002c053f 	eoreq	r0, ip, pc, lsr r5
    1ba4:	2e010402 	cdpcs	4, 0, cr0, cr1, cr2, {0}
    1ba8:	02001605 	andeq	r1, r0, #5242880	; 0x500000
    1bac:	052e0104 	streq	r0, [lr, #-260]!	; 0xfffffefc
    1bb0:	04020009 	streq	r0, [r2], #-9
    1bb4:	0d053c01 	stceq	12, cr3, [r5, #-4]
    1bb8:	01040200 	mrseq	r0, R12_usr
    1bbc:	00080558 	andeq	r0, r8, r8, asr r5
    1bc0:	84010402 	strhi	r0, [r1], #-1026	; 0xfffffbfe
    1bc4:	02000c05 	andeq	r0, r0, #1280	; 0x500
    1bc8:	59080104 	stmdbpl	r8, {r2, r8}
    1bcc:	055a0705 	ldrbeq	r0, [sl, #-1797]	; 0xfffff8fb
    1bd0:	055b8205 	ldrbeq	r8, [fp, #-517]	; 0xfffffdfb
    1bd4:	0705670d 	streq	r6, [r5, -sp, lsl #14]
    1bd8:	750d054c 	strvc	r0, [sp, #-1356]	; 0xfffffab4
    1bdc:	054a0505 	strbeq	r0, [sl, #-1285]	; 0xfffffafb
    1be0:	04052f09 	streq	r2, [r5], #-3849	; 0xfffff0f7
    1be4:	04020021 	streq	r0, [r2], #-33	; 0xffffffdf
    1be8:	004a0601 	subeq	r0, sl, r1, lsl #12
    1bec:	3c030402 	cfstrscc	mvf0, [r3], {2}
    1bf0:	3b061105 	blcc	18600c <shift+0x18600c>
    1bf4:	05940505 	ldreq	r0, [r4, #1285]	; 0x505
    1bf8:	02004b03 	andeq	r4, r0, #3072	; 0xc00
    1bfc:	4a060104 	bmi	182014 <shift+0x182014>
    1c00:	03040200 	movweq	r0, #16896	; 0x4200
    1c04:	0605054a 	streq	r0, [r5], -sl, asr #10
    1c08:	4b03053e 	blmi	c3108 <shift+0xc3108>
    1c0c:	01040200 	mrseq	r0, R12_usr
    1c10:	02004a06 	andeq	r4, r0, #24576	; 0x6000
    1c14:	053c0304 	ldreq	r0, [ip, #-772]!	; 0xfffffcfc
    1c18:	04020006 	streq	r0, [r2], #-6
    1c1c:	053d0603 	ldreq	r0, [sp, #-1539]!	; 0xfffff9fd
    1c20:	02004b04 	andeq	r4, r0, #4, 22	; 0x1000
    1c24:	4a060104 	bmi	18203c <shift+0x18203c>
    1c28:	03040200 	movweq	r0, #16896	; 0x4200
    1c2c:	060d0574 			; <UNDEFINED> instruction: 0x060d0574
    1c30:	4a05053f 	bmi	143134 <shift+0x143134>
    1c34:	052f1205 	streq	r1, [pc, #-517]!	; 1a37 <shift+0x1a37>
    1c38:	02004a08 	andeq	r4, r0, #8, 20	; 0x8000
    1c3c:	2e060104 	adfcss	f0, f6, f4
    1c40:	02040200 	andeq	r0, r4, #0, 4
    1c44:	0402002e 	streq	r0, [r2], #-46	; 0xffffffd2
    1c48:	09052004 	stmdbeq	r5, {r2, sp}
    1c4c:	04040200 	streq	r0, [r4], #-512	; 0xfffffe00
    1c50:	04053006 	streq	r3, [r5], #-6
    1c54:	04020021 	streq	r0, [r2], #-33	; 0xffffffdf
    1c58:	004a0601 	subeq	r0, sl, r1, lsl #12
    1c5c:	4a030402 	bmi	c2c6c <shift+0xc2c6c>
    1c60:	3b061105 	blcc	18607c <shift+0x18607c>
    1c64:	05940805 	ldreq	r0, [r4, #2053]	; 0x805
    1c68:	02002103 	andeq	r2, r0, #-1073741824	; 0xc0000000
    1c6c:	4a060104 	bmi	182084 <shift+0x182084>
    1c70:	03040200 	movweq	r0, #16896	; 0x4200
    1c74:	060b053c 			; <UNDEFINED> instruction: 0x060b053c
    1c78:	af08053b 	svcge	0x0008053b
    1c7c:	00210305 	eoreq	r0, r1, r5, lsl #6
    1c80:	06010402 	streq	r0, [r1], -r2, lsl #8
    1c84:	0402004a 	streq	r0, [r2], #-74	; 0xffffffb6
    1c88:	0d058203 	sfmeq	f0, 1, [r5, #-12]
    1c8c:	08053b06 	stmdaeq	r5, {r1, r2, r8, r9, fp, ip, sp}
    1c90:	21030593 			; <UNDEFINED> instruction: 0x21030593
    1c94:	01040200 	mrseq	r0, R12_usr
    1c98:	02004a06 	andeq	r4, r0, #24576	; 0x6000
    1c9c:	053c0304 	ldreq	r0, [ip, #-772]!	; 0xfffffcfc
    1ca0:	053b0610 	ldreq	r0, [fp, #-1552]!	; 0xfffff9f0
    1ca4:	01059209 	tsteq	r5, r9, lsl #4
    1ca8:	00f50321 	rscseq	r0, r5, r1, lsr #6
    1cac:	03060574 	movweq	r0, #25972	; 0x6574
    1cb0:	0505ac11 	streq	sl, [r5, #-3089]	; 0xfffff3ef
    1cb4:	330a053c 	movwcc	r0, #42300	; 0xa53c
    1cb8:	05310605 	ldreq	r0, [r1, #-1541]!	; 0xfffff9fb
    1cbc:	06052f13 			; <UNDEFINED> instruction: 0x06052f13
    1cc0:	3e10052e 	cfmul64cc	mvdx0, mvdx0, mvdx14
    1cc4:	052e0505 	streq	r0, [lr, #-1285]!	; 0xfffffafb
    1cc8:	0e054b07 	vmlaeq.f64	d4, d5, d7
    1ccc:	3c14053d 	cfldr32cc	mvfx0, [r4], {61}	; 0x3d
    1cd0:	05200805 	streq	r0, [r0, #-2053]!	; 0xfffff7fb
    1cd4:	07052302 	streq	r2, [r5, -r2, lsl #6]
    1cd8:	2e060521 	cfsh32cs	mvfx0, mvfx6, #17
    1cdc:	052f0705 	streq	r0, [pc, #-1797]!	; 15df <shift+0x15df>
    1ce0:	0a054b0c 	beq	154918 <shift+0x154918>
    1ce4:	2f04052e 	svccs	0x0004052e
    1ce8:	2409053d 	strcs	r0, [r9], #-1341	; 0xfffffac3
    1cec:	05300405 	ldreq	r0, [r0, #-1029]!	; 0xfffffbfb
    1cf0:	04053d0c 	streq	r3, [r5], #-3340	; 0xfffff2f4
    1cf4:	0215052e 	andseq	r0, r5, #192937984	; 0xb800000
    1cf8:	1e05132b 	cdpne	3, 0, cr1, cr5, cr11, {1}
    1cfc:	2115054a 	tstcs	r5, sl, asr #10
    1d00:	054a1e05 	strbeq	r1, [sl, #-3589]	; 0xfffff1fb
    1d04:	1f052115 	svcne	0x00052115
    1d08:	2115054a 	tstcs	r5, sl, asr #10
    1d0c:	054a2105 	strbeq	r2, [sl, #-261]	; 0xfffffefb
    1d10:	21052115 	tstcs	r5, r5, lsl r1
    1d14:	230f054a 	movwcs	r0, #62794	; 0xf54a
    1d18:	053d0705 	ldreq	r0, [sp, #-1797]!	; 0xfffff8fb
    1d1c:	12059006 	andne	r9, r5, #6
    1d20:	750c052f 	strvc	r0, [ip, #-1327]	; 0xfffffad1
    1d24:	052e0b05 	streq	r0, [lr, #-2821]!	; 0xfffff4fb
    1d28:	12052f04 	andne	r2, r5, #4, 30
    1d2c:	3c10053e 	cfldr32cc	mvfx0, [r0], {62}	; 0x3e
    1d30:	054b0705 	strbeq	r0, [fp, #-1797]	; 0xfffff8fb
    1d34:	0b053d11 	bleq	151180 <shift+0x151180>
    1d38:	4f0d053d 	svcmi	0x000d053d
    1d3c:	053d0705 	ldreq	r0, [sp, #-1797]!	; 0xfffff8fb
    1d40:	04052e06 	streq	r2, [r5], #-3590	; 0xfffff1fa
    1d44:	3d08052f 	cfstr32cc	mvfx0, [r8, #-188]	; 0xffffff44
    1d48:	05900705 	ldreq	r0, [r0, #1797]	; 0x705
    1d4c:	0d052f11 	stceq	15, cr2, [r5, #-68]	; 0xffffffbc
    1d50:	2e0c0575 	cfrshl64cs	mvdx12, mvdx5, r0
    1d54:	052f0505 	streq	r0, [pc, #-1285]!	; 1857 <shift+0x1857>
    1d58:	0f053e11 	svceq	0x00053e11
    1d5c:	4c07053c 	cfstr32mi	mvfx0, [r7], {60}	; 0x3c
    1d60:	053d0f05 	ldreq	r0, [sp, #-3845]!	; 0xfffff0fb
    1d64:	0705320d 	streq	r3, [r5, -sp, lsl #4]
    1d68:	2e06053d 	mcrcs	5, 0, r0, cr6, cr13, {1}
    1d6c:	02001605 	andeq	r1, r0, #5242880	; 0x500000
    1d70:	052e0104 	streq	r0, [lr, #-260]!	; 0xfffffefc
    1d74:	04020013 	streq	r0, [r2], #-19	; 0xffffffed
    1d78:	25052e01 	strcs	r2, [r5, #-3585]	; 0xfffff1ff
    1d7c:	02040200 	andeq	r0, r4, #0, 4
    1d80:	0022052e 	eoreq	r0, r2, lr, lsr #10
    1d84:	2e020402 	cdpcs	4, 0, cr0, cr2, cr2, {0}
    1d88:	02000705 	andeq	r0, r0, #1310720	; 0x140000
    1d8c:	052f0304 	streq	r0, [pc, #-772]!	; 1a90 <shift+0x1a90>
    1d90:	04020031 	streq	r0, [r2], #-49	; 0xffffffcf
    1d94:	15052d03 	strne	r2, [r5, #-3331]	; 0xfffff2fd
    1d98:	2e12052f 	cfmul64cs	mvdx0, mvdx2, mvdx15
    1d9c:	052f1005 	streq	r1, [pc, #-5]!	; 1d9f <shift+0x1d9f>
    1da0:	04052e0e 	streq	r2, [r5], #-3598	; 0xfffff1f2
    1da4:	3d070521 	cfstr32cc	mvfx0, [r7, #-132]	; 0xffffff7c
    1da8:	02001c05 	andeq	r1, r0, #1280	; 0x500
    1dac:	053c0104 	ldreq	r0, [ip, #-260]!	; 0xfffffefc
    1db0:	04020019 	streq	r0, [r2], #-25	; 0xffffffe7
    1db4:	0f052e01 	svceq	0x00052e01
    1db8:	2f05052f 	svccs	0x0005052f
    1dbc:	05410805 	strbeq	r0, [r1, #-2053]	; 0xfffff7fb
    1dc0:	0305300b 	movweq	r3, #20491	; 0x500b
    1dc4:	0211052e 	andseq	r0, r1, #192937984	; 0xb800000
    1dc8:	051501b2 	ldreq	r0, [r5, #-434]	; 0xfffffe4e
    1dcc:	0c053c08 	stceq	12, cr3, [r5], {8}
    1dd0:	210a052f 	tstcs	sl, pc, lsr #10
    1dd4:	054b0d05 	strbeq	r0, [fp, #-3333]	; 0xfffff2fb
    1dd8:	1b053d07 	blne	1511fc <shift+0x1511fc>
    1ddc:	6c190539 	cfldr32vs	mvfx0, [r9], {57}	; 0x39
    1de0:	05660705 	strbeq	r0, [r6, #-1797]!	; 0xfffff8fb
    1de4:	0b052f08 	bleq	14da0c <shift+0x14da0c>
    1de8:	4b05054b 	blmi	14331c <shift+0x14331c>
    1dec:	053d0b05 	ldreq	r0, [sp, #-2821]!	; 0xfffff4fb
    1df0:	0c052109 	stfeqs	f2, [r5], {9}
    1df4:	3d06054b 	cfstr32cc	mvfx0, [r6, #-300]	; 0xfffffed4
    1df8:	05391a05 	ldreq	r1, [r9, #-2565]!	; 0xfffff5fb
    1dfc:	09056b05 	stmdbeq	r5, {r0, r2, r8, r9, fp, sp, lr}
    1e00:	3c070523 	cfstr32cc	mvfx0, [r7], {35}	; 0x23
    1e04:	054b0905 	strbeq	r0, [fp, #-2309]	; 0xfffff6fb
    1e08:	053d2008 	ldreq	r2, [sp, #-8]!
    1e0c:	09053e0b 	stmdbeq	r5, {r0, r1, r3, r9, sl, fp, ip, sp}
    1e10:	22110566 	andscs	r0, r1, #427819008	; 0x19800000
    1e14:	053c0805 	ldreq	r0, [ip, #-2053]!	; 0xfffff7fb
    1e18:	0a052f0c 	beq	14da50 <shift+0x14da50>
    1e1c:	4b0d0521 	blmi	3432a8 <shift+0x3432a8>
    1e20:	053d0705 	ldreq	r0, [sp, #-1797]!	; 0xfffff8fb
    1e24:	1105391e 	tstne	r5, lr, lsl r9
    1e28:	420c053c 	andmi	r0, ip, #60, 10	; 0xf000000
    1e2c:	052e0505 	streq	r0, [lr, #-1285]!	; 0xfffffafb
    1e30:	0e052109 	adfeqs	f2, f5, #1.0
    1e34:	2e0c054b 	cfsh32cs	mvfx0, mvfx12, #43
    1e38:	02000605 	andeq	r0, r0, #5242880	; 0x500000
    1e3c:	052f0204 	streq	r0, [pc, #-516]!	; 1c40 <shift+0x1c40>
    1e40:	0402000d 	streq	r0, [r2], #-13
    1e44:	1a053c02 	bne	150e54 <shift+0x150e54>
    1e48:	02040200 	andeq	r0, r4, #0, 4
    1e4c:	00130539 	andseq	r0, r3, r9, lsr r5
    1e50:	3c010402 	cfstrscc	mvf0, [r1], {2}
    1e54:	054f0b05 	strbeq	r0, [pc, #-2821]	; 1357 <shift+0x1357>
    1e58:	0c052109 	stfeqs	f2, [r5], {9}
    1e5c:	3d06054b 	cfstr32cc	mvfx0, [r6, #-300]	; 0xfffffed4
    1e60:	05391d05 	ldreq	r1, [r9, #-3333]!	; 0xfffff2fb
    1e64:	05053c10 	streq	r3, [r5, #-3088]	; 0xfffff3f0
    1e68:	23080541 	movwcs	r0, #34113	; 0x8541
    1e6c:	054b1205 	strbeq	r1, [fp, #-517]	; 0xfffffdfb
    1e70:	17052f0c 	strne	r2, [r5, -ip, lsl #30]
    1e74:	6607054d 	strvs	r0, [r7], -sp, asr #10
    1e78:	051f0b05 	ldreq	r0, [pc, #-2821]	; 137b <shift+0x137b>
    1e7c:	05230805 	streq	r0, [r3, #-2053]!	; 0xfffff7fb
    1e80:	12052608 	andne	r2, r5, #8, 12	; 0x800000
    1e84:	3c0d053d 	cfstr32cc	mvfx0, [sp], {61}	; 0x3d
    1e88:	054b1105 	strbeq	r1, [fp, #-261]	; 0xfffffefb
    1e8c:	05053c0a 	streq	r3, [r5, #-3082]	; 0xfffff3f6
    1e90:	030f0536 	movweq	r0, #62774	; 0xf536
    1e94:	21052079 	tstcs	r5, r9, ror r0
    1e98:	01040200 	mrseq	r0, R12_usr
    1e9c:	3d14053c 	cfldr32cc	mvfx0, [r4, #-240]	; 0xffffff10
    1ea0:	053c0f05 	ldreq	r0, [ip, #-3845]!	; 0xfffff0fb
    1ea4:	0a054b11 	beq	154af0 <shift+0x154af0>
    1ea8:	2c36054a 	cfldr32cs	mvfx0, [r6], #-296	; 0xfffffed8
    1eac:	05270505 	streq	r0, [r7, #-1285]!	; 0xfffffafb
    1eb0:	0c051d11 	stceq	13, cr1, [r5], {17}
    1eb4:	4b11053c 	blmi	4433ac <shift+0x4433ac>
    1eb8:	053c0a05 	ldreq	r0, [ip, #-2565]!	; 0xfffff5fb
    1ebc:	08053005 	stmdaeq	r5, {r0, r2, ip, sp}
    1ec0:	4b0b0523 	blmi	2c3354 <shift+0x2c3354>
    1ec4:	3d3d0505 	cfldr32cc	mvfx0, [sp, #-20]!	; 0xffffffec
    1ec8:	05240a05 	streq	r0, [r4, #-2565]!	; 0xfffff5fb
    1ecc:	0b052f05 	bleq	14dae8 <shift+0x14dae8>
    1ed0:	4c0a0523 	cfstr32mi	mvfx0, [sl], {35}	; 0x23
    1ed4:	052f0505 	streq	r0, [pc, #-1285]!	; 19d7 <shift+0x19d7>
    1ed8:	0505240b 	streq	r2, [r5, #-1035]	; 0xfffffbf5
    1edc:	2308054c 	movwcs	r0, #34124	; 0x854c
    1ee0:	054b0b05 	strbeq	r0, [fp, #-2821]	; 0xfffff4fb
    1ee4:	09053d05 	stmdbeq	r5, {r0, r2, r8, sl, fp, ip, sp}
    1ee8:	2e08053d 	mcrcs	5, 0, r0, cr8, cr13, {1}
    1eec:	052f0905 	streq	r0, [pc, #-2309]!	; 15ef <shift+0x15ef>
    1ef0:	0c054b0e 			; <UNDEFINED> instruction: 0x0c054b0e
    1ef4:	2f06052e 	svccs	0x0006052e
    1ef8:	05400505 	strbeq	r0, [r0, #-1285]	; 0xfffffafb
    1efc:	05051e06 	streq	r1, [r5, #-3590]	; 0xfffff1fa
    1f00:	2073033e 	rsbscs	r0, r3, lr, lsr r3
    1f04:	10030605 	andne	r0, r3, r5, lsl #12
    1f08:	3d0a0520 	cfstr32cc	mvfx0, [sl, #-128]	; 0xffffff80
    1f0c:	053c0805 	ldreq	r0, [ip, #-2053]!	; 0xfffff7fb
    1f10:	0a05670b 	beq	15bb44 <shift+0x15bb44>
    1f14:	6608053d 			; <UNDEFINED> instruction: 0x6608053d
    1f18:	05750e05 	ldrbeq	r0, [r5, #-3589]!	; 0xfffff1fb
    1f1c:	0b053c07 	bleq	150f40 <shift+0x150f40>
    1f20:	2009052f 	andcs	r0, r9, pc, lsr #10
    1f24:	05670d05 	strbeq	r0, [r7, #-3333]!	; 0xfffff2fb
    1f28:	0402001f 	streq	r0, [r2], #-31	; 0xffffffe1
    1f2c:	0a053c01 	beq	150f38 <shift+0x150f38>
    1f30:	6608053d 			; <UNDEFINED> instruction: 0x6608053d
    1f34:	05670d05 	strbeq	r0, [r7, #-3333]!	; 0xfffff2fb
    1f38:	0a053d1b 	beq	1513ac <shift+0x1513ac>
    1f3c:	20080566 	andcs	r0, r8, r6, ror #10
    1f40:	05830e05 	streq	r0, [r3, #3589]	; 0xe05
    1f44:	0b053c07 	bleq	150f68 <shift+0x150f68>
    1f48:	2e09052f 	cfsh32cs	mvfx0, mvfx9, #31
    1f4c:	05920a05 	ldreq	r0, [r2, #2565]	; 0xa05
    1f50:	0e056608 	cfmadd32eq	mvax0, mvfx6, mvfx5, mvfx8
    1f54:	3c070575 	cfstr32cc	mvfx0, [r7], {117}	; 0x75
    1f58:	052f0b05 	streq	r0, [pc, #-2821]!	; 145b <shift+0x145b>
    1f5c:	055a2009 	ldrbeq	r2, [sl, #-9]
    1f60:	7ec20310 	mcrvc	3, 6, r0, cr2, cr0, {0}
    1f64:	09051208 	stmdbeq	r5, {r3, r9, ip}
    1f68:	01040200 	mrseq	r0, R12_usr
    1f6c:	0305053c 	movweq	r0, #21820	; 0x553c
    1f70:	055801c1 	ldrbeq	r0, [r8, #-449]	; 0xfffffe3f
    1f74:	0a054b08 	beq	154b9c <shift+0x154b9c>
    1f78:	3e08054b 	cfsh32cc	mvfx0, mvfx8, #43
    1f7c:	05400c05 	strbeq	r0, [r0, #-3077]	; 0xfffff3fb
    1f80:	13033d01 	movwne	r3, #15617	; 0x3d01
    1f84:	770405ac 	strvc	r0, [r4, -ip, lsr #11]
    1f88:	05750c05 	ldrbeq	r0, [r5, #-3077]!	; 0xfffff3fb
    1f8c:	1d052022 	stcne	0, cr2, [r5, #-136]	; 0xffffff78
    1f90:	01040200 	mrseq	r0, R12_usr
    1f94:	0022053c 	eoreq	r0, r2, ip, lsr r5
    1f98:	2e010402 	cdpcs	4, 0, cr0, cr1, cr2, {0}
    1f9c:	02040200 	andeq	r0, r4, #0, 4
    1fa0:	01052006 	tsteq	r5, r6
    1fa4:	05040200 	streq	r0, [r4, #-512]	; 0xfffffe00
    1fa8:	11032106 	tstne	r3, r6, lsl #2
    1fac:	6a02054a 	bvs	834dc <shift+0x834dc>
    1fb0:	053d0405 	ldreq	r0, [sp, #-1029]!	; 0xfffffbfb
    1fb4:	01057609 	tsteq	r5, r9, lsl #12
    1fb8:	74110321 	ldrvc	r0, [r1], #-801	; 0xfffffcdf
    1fbc:	056a0205 	strbeq	r0, [sl, #-517]!	; 0xfffffdfb
    1fc0:	0c053d06 	stceq	13, cr3, [r5], {6}
    1fc4:	20220576 	eorcs	r0, r2, r6, ror r5
    1fc8:	02001d05 	andeq	r1, r0, #320	; 0x140
    1fcc:	053c0104 	ldreq	r0, [ip, #-260]!	; 0xfffffefc
    1fd0:	04020022 	streq	r0, [r2], #-34	; 0xffffffde
    1fd4:	02002e01 	andeq	r2, r0, #1, 28
    1fd8:	20060204 	andcs	r0, r6, r4, lsl #4
    1fdc:	02000105 	andeq	r0, r0, #1073741825	; 0x40000001
    1fe0:	21060504 	tstcs	r6, r4, lsl #10
    1fe4:	05741203 	ldrbeq	r1, [r4, #-515]!	; 0xfffffdfd
    1fe8:	01056709 	tsteq	r5, r9, lsl #14
    1fec:	4a0f0383 	bmi	3c2e00 <shift+0x3c2e00>
    1ff0:	055c0205 	ldrbeq	r0, [ip, #-517]	; 0xfffffdfb
    1ff4:	09054104 	stmdbeq	r5, {r2, r8, lr}
    1ff8:	2101057a 	tstcs	r1, sl, ror r5
    1ffc:	05740b03 	ldrbeq	r0, [r4, #-2819]!	; 0xfffff4fd
    2000:	0605910e 	streq	r9, [r5], -lr, lsl #2
    2004:	07053231 	smladxeq	r5, r1, r2, r3
    2008:	06052530 			; <UNDEFINED> instruction: 0x06052530
    200c:	2f0a0590 	svccs	0x000a0590
    2010:	05210505 	streq	r0, [r1, #-1285]!	; 0xfffffafb
    2014:	0a053b0b 	beq	150c48 <shift+0x150c48>
    2018:	210505ae 	smlatbcs	r5, lr, r5, r0
    201c:	053b0b05 	ldreq	r0, [fp, #-2821]!	; 0xfffff4fb
    2020:	0605b107 	streq	fp, [r5], -r7, lsl #2
    2024:	0016052e 	andseq	r0, r6, lr, lsr #10
    2028:	2e010402 	cdpcs	4, 0, cr0, cr1, cr2, {0}
    202c:	02001305 	andeq	r1, r0, #335544320	; 0x14000000
    2030:	052e0104 	streq	r0, [lr, #-260]!	; 0xfffffefc
    2034:	08052f0c 	stmdaeq	r5, {r2, r3, r8, r9, sl, fp, sp}
    2038:	2016053c 	andscs	r0, r6, ip, lsr r5
    203c:	053c1205 	ldreq	r1, [ip, #-517]!	; 0xfffffdfb
    2040:	04052007 	streq	r2, [r5], #-7
    2044:	2308053e 	movwcs	r0, #34110	; 0x853e
    2048:	052e0605 	streq	r0, [lr, #-1541]!	; 0xfffff9fb
    204c:	07053e03 	streq	r3, [r5, -r3, lsl #28]
    2050:	2e060541 	cfsh32cs	mvfx0, mvfx6, #33
    2054:	052f0a05 	streq	r0, [pc, #-2565]!	; 1657 <shift+0x1657>
    2058:	0c052108 	stfeqs	f2, [r5], {8}
    205c:	901a053b 	andsls	r0, sl, fp, lsr r5
    2060:	02001d05 	andeq	r1, r0, #320	; 0x140
    2064:	052e0104 	streq	r0, [lr, #-260]!	; 0xfffffefc
    2068:	0402001a 	streq	r0, [r2], #-26	; 0xffffffe6
    206c:	0a052e01 	beq	14d878 <shift+0x14d878>
    2070:	21080530 	tstcs	r8, r0, lsr r5
    2074:	053b0c05 	ldreq	r0, [fp, #-3077]!	; 0xfffff3fb
    2078:	1d05901a 	stcne	0, cr9, [r5, #-104]	; 0xffffff98
    207c:	01040200 	mrseq	r0, R12_usr
    2080:	001a053c 	andseq	r0, sl, ip, lsr r5
    2084:	2e010402 	cdpcs	4, 0, cr0, cr1, cr2, {0}
    2088:	05300405 	ldreq	r0, [r0, #-1029]!	; 0xfffffbfb
    208c:	0705240f 	streq	r2, [r5, -pc, lsl #8]
    2090:	9006053d 	andls	r0, r6, sp, lsr r5
    2094:	052f1205 	streq	r1, [pc, #-517]!	; 1e97 <shift+0x1e97>
    2098:	0705690d 	streq	r6, [r5, -sp, lsl #18]
    209c:	2e06053d 	mcrcs	5, 0, r0, cr6, cr13, {1}
    20a0:	02001605 	andeq	r1, r0, #5242880	; 0x500000
    20a4:	052e0104 	streq	r0, [lr, #-260]!	; 0xfffffefc
    20a8:	04020013 	streq	r0, [r2], #-19	; 0xffffffed
    20ac:	25052e01 	strcs	r2, [r5, #-3585]	; 0xfffff1ff
    20b0:	02040200 	andeq	r0, r4, #0, 4
    20b4:	0022052e 	eoreq	r0, r2, lr, lsr #10
    20b8:	2e020402 	cdpcs	4, 0, cr0, cr2, cr2, {0}
    20bc:	02000705 	andeq	r0, r0, #1310720	; 0x140000
    20c0:	052f0304 	streq	r0, [pc, #-772]!	; 1dc4 <shift+0x1dc4>
    20c4:	04020031 	streq	r0, [r2], #-49	; 0xffffffcf
    20c8:	16052d03 	strne	r2, [r5], -r3, lsl #26
    20cc:	2e13052f 	cfmul64cs	mvdx0, mvdx3, mvdx15
    20d0:	052f1405 	streq	r1, [pc, #-1029]!	; 1cd3 <shift+0x1cd3>
    20d4:	0e053c10 	mcreq	12, 0, r3, cr5, cr0, {0}
    20d8:	21080520 	tstcs	r8, r0, lsr #10
    20dc:	05900705 	ldreq	r0, [r0, #1797]	; 0x705
    20e0:	10052f08 	andne	r2, r5, r8, lsl #30
    20e4:	2f09053d 	svccs	0x0009053d
    20e8:	054b0f05 	strbeq	r0, [fp, #-3845]	; 0xfffff0fb
    20ec:	09053d10 	stmdbeq	r5, {r4, r8, sl, fp, ip, sp}
    20f0:	4008052f 	andmi	r0, r8, pc, lsr #10
    20f4:	052f0b05 	streq	r0, [pc, #-2821]!	; 15f7 <shift+0x15f7>
    20f8:	06053008 	streq	r3, [r5], -r8
    20fc:	0011052e 	andseq	r0, r1, lr, lsr #10
    2100:	3c010402 	cfstrscc	mvf0, [r1], {2}
    2104:	02000d05 	andeq	r0, r0, #320	; 0x140
    2108:	052e0104 	streq	r0, [lr, #-260]!	; 0xfffffefc
    210c:	0a053f0e 	beq	151d4c <shift+0x151d4c>
    2110:	2003053c 	andcs	r0, r3, ip, lsr r5
    2114:	57021705 	strpl	r1, [r2, -r5, lsl #14]
    2118:	3c0a0515 	cfstr32cc	mvfx0, [sl], {21}
    211c:	054b0705 	strbeq	r0, [fp, #-1797]	; 0xfffff8fb
    2120:	10054b11 	andne	r4, r5, r1, lsl fp
    2124:	02040200 	andeq	r0, r4, #0, 4
    2128:	00070530 	andeq	r0, r7, r0, lsr r5
    212c:	3c020402 	cfstrscc	mvf0, [r2], {2}
    2130:	02000c05 	andeq	r0, r0, #1280	; 0x500
    2134:	053c0204 	ldreq	r0, [ip, #-516]!	; 0xfffffdfc
    2138:	0402000a 	streq	r0, [r2], #-10
    213c:	1f052002 	svcne	0x00052002
    2140:	02040200 	andeq	r0, r4, #0, 4
    2144:	00220521 	eoreq	r0, r2, r1, lsr #10
    2148:	66010402 	strvs	r0, [r1], -r2, lsl #8
    214c:	02001f05 	andeq	r1, r0, #5, 30
    2150:	052e0104 	streq	r0, [lr, #-260]!	; 0xfffffefc
    2154:	03052f07 	movweq	r2, #24327	; 0x5f07
    2158:	2317053e 	tstcs	r7, #260046848	; 0xf800000
    215c:	053c0a05 	ldreq	r0, [ip, #-2565]!	; 0xfffff5fb
    2160:	11054b06 	tstne	r5, r6, lsl #22
    2164:	3e0a054b 	cfsh32cc	mvfx0, mvfx10, #43
    2168:	05210805 	streq	r0, [r1, #-2053]!	; 0xfffff7fb
    216c:	0a053b0b 	beq	150da0 <shift+0x150da0>
    2170:	211005b0 			; <UNDEFINED> instruction: 0x211005b0
    2174:	053c0705 	ldreq	r0, [ip, #-1797]!	; 0xfffff8fb
    2178:	0a053c0c 	beq	1511b0 <shift+0x1511b0>
    217c:	1f0b0520 	svcne	0x000b0520
    2180:	052e2205 	streq	r2, [lr, #-517]!	; 0xfffffdfb
    2184:	04020014 	streq	r0, [r2], #-20	; 0xffffffec
    2188:	10052e01 	andne	r2, r5, r1, lsl #28
    218c:	01040200 	mrseq	r0, R12_usr
    2190:	00300582 	eorseq	r0, r0, r2, lsl #11
    2194:	2e020402 	cdpcs	4, 0, cr0, cr2, cr2, {0}
    2198:	02002205 	andeq	r2, r0, #1342177280	; 0x50000000
    219c:	053c0204 	ldreq	r0, [ip, #-516]!	; 0xfffffdfc
    21a0:	053d3107 	ldreq	r3, [sp, #-263]!	; 0xfffffef9
    21a4:	14053e03 	strne	r3, [r5], #-3587	; 0xfffff1fd
    21a8:	01040200 	mrseq	r0, R12_usr
    21ac:	00090524 	andeq	r0, r9, r4, lsr #10
    21b0:	3c010402 	cfstrscc	mvf0, [r1], {2}
    21b4:	02000d05 	andeq	r0, r0, #320	; 0x140
    21b8:	054b0104 	strbeq	r0, [fp, #-260]	; 0xfffffefc
    21bc:	04020007 	streq	r0, [r2], #-7
    21c0:	03053c01 	movweq	r3, #23553	; 0x5c01
    21c4:	01040200 	mrseq	r0, R12_usr
    21c8:	22090530 	andcs	r0, r9, #48, 10	; 0xc000000
    21cc:	052f0405 	streq	r0, [pc, #-1029]!	; 1dcf <shift+0x1dcf>
    21d0:	04052309 	streq	r2, [r5], #-777	; 0xfffffcf7
    21d4:	221e052f 	andscs	r0, lr, #197132288	; 0xbc00000
    21d8:	05300c05 	ldreq	r0, [r0, #-3077]!	; 0xfffff3fb
    21dc:	0c053004 	stceq	0, cr3, [r5], {4}
    21e0:	3c080523 	cfstr32cc	mvfx0, [r8], {35}	; 0x23
    21e4:	05200705 	streq	r0, [r0, #-1797]!	; 0xfffff8fb
    21e8:	0b053d0c 	bleq	151620 <shift+0x151620>
    21ec:	03040532 	movweq	r0, #17714	; 0x4532
    21f0:	09052e78 	stmdbeq	r5, {r3, r4, r5, r6, r9, sl, fp, sp}
    21f4:	05200e03 	streq	r0, [r0, #-3587]!	; 0xfffff1fd
    21f8:	0a052107 	beq	14a61c <shift+0x14a61c>
    21fc:	a109053b 	tstge	r9, fp, lsr r5
    2200:	054b0605 	strbeq	r0, [fp, #-1541]	; 0xfffff9fb
    2204:	0402000f 	streq	r0, [r2], #-15
    2208:	12053c01 	andne	r3, r5, #256	; 0x100
    220c:	2e0a054b 	cfsh32cs	mvfx0, mvfx10, #43
    2210:	053e0605 	ldreq	r0, [lr, #-1541]!	; 0xfffff9fb
    2214:	28055915 	stmdacs	r5, {r0, r2, r4, r8, fp, ip, lr}
    2218:	01040200 	mrseq	r0, R12_usr
    221c:	0024053c 	eoreq	r0, r4, ip, lsr r5
    2220:	74010402 	strvc	r0, [r1], #-1026	; 0xfffffbfe
    2224:	053d1505 	ldreq	r1, [sp, #-1285]!	; 0xfffffafb
    2228:	04020028 	streq	r0, [r2], #-40	; 0xffffffd8
    222c:	24053c01 	strcs	r3, [r5], #-3073	; 0xfffff3ff
    2230:	01040200 	mrseq	r0, R12_usr
    2234:	3d150574 	cfldr32cc	mvfx0, [r5, #-464]	; 0xfffffe30
    2238:	02002805 	andeq	r2, r0, #327680	; 0x50000
    223c:	053c0104 	ldreq	r0, [ip, #-260]!	; 0xfffffefc
    2240:	04020023 	streq	r0, [r2], #-35	; 0xffffffdd
    2244:	37057401 	strcc	r7, [r5, -r1, lsl #8]
    2248:	02040200 	andeq	r0, r4, #0, 4
    224c:	5915053c 	ldmdbpl	r5, {r2, r3, r4, r5, r8, sl}
    2250:	02002705 	andeq	r2, r0, #1310720	; 0x140000
    2254:	053c0104 	ldreq	r0, [ip, #-260]!	; 0xfffffefc
    2258:	04020023 	streq	r0, [r2], #-35	; 0xffffffdd
    225c:	03057401 	movweq	r7, #21505	; 0x5401
    2260:	0207053f 	andeq	r0, r7, #264241152	; 0xfc00000
    2264:	26051460 	strcs	r1, [r5], -r0, ror #8
    2268:	3c12053d 	cfldr32cc	mvfx0, [r2], {61}	; 0x3d
    226c:	054b1805 	strbeq	r1, [fp, #-2053]	; 0xfffff7fb
    2270:	0805820a 	stmdaeq	r5, {r1, r3, r9, pc}
    2274:	33040520 	movwcc	r0, #17696	; 0x4520
    2278:	051d2a05 	ldreq	r2, [sp, #-2565]	; 0xfffff5fb
    227c:	1a053c14 	bne	1512d4 <shift+0x1512d4>
    2280:	820a054b 	andhi	r0, sl, #314572800	; 0x12c00000
    2284:	05200805 	streq	r0, [r0, #-2053]!	; 0xfffff7fb
    2288:	07053004 	streq	r3, [r5, -r4]
    228c:	3d1a0522 	cfldr32cc	mvfx0, [sl, #-136]	; 0xffffff78
    2290:	053c0c05 	ldreq	r0, [ip, #-3077]!	; 0xfffff3fb
    2294:	0a054b12 	beq	154ee4 <shift+0x154ee4>
    2298:	20080582 	andcs	r0, r8, r2, lsl #11
    229c:	05330405 	ldreq	r0, [r3, #-1029]!	; 0xfffffbfb
    22a0:	15051d2c 	strne	r1, [r5, #-3372]	; 0xfffff2d4
    22a4:	4b1b053c 	blmi	6c379c <shift+0x6c379c>
    22a8:	05820a05 	streq	r0, [r2, #2565]	; 0xa05
    22ac:	04052008 	streq	r2, [r5], #-8
    22b0:	22070530 	andcs	r0, r7, #48, 10	; 0xc000000
    22b4:	053d1805 	ldreq	r1, [sp, #-2053]!	; 0xfffff7fb
    22b8:	0a053c0b 	beq	1512ec <shift+0x1512ec>
    22bc:	8208054b 	andhi	r0, r8, #314572800	; 0x12c00000
    22c0:	05330405 	ldreq	r0, [r3, #-1029]!	; 0xfffffbfb
    22c4:	14051d29 	strne	r1, [r5], #-3369	; 0xfffff2d7
    22c8:	4b0a053c 	blmi	2837c0 <shift+0x2837c0>
    22cc:	05820805 	streq	r0, [r2, #2053]	; 0x805
    22d0:	07053004 	streq	r3, [r5, -r4]
    22d4:	3d210522 	cfstr32cc	mvfx0, [r1, #-136]!	; 0xffffff78
    22d8:	053c1005 	ldreq	r1, [ip, #-5]!
    22dc:	08054b0a 	stmdaeq	r5, {r1, r3, r8, r9, fp, lr}
    22e0:	41040590 			; <UNDEFINED> instruction: 0x41040590
    22e4:	051d3305 	ldreq	r3, [sp, #-773]	; 0xfffffcfb
    22e8:	0a053c19 	beq	151354 <shift+0x151354>
    22ec:	9008054b 	andls	r0, r8, fp, asr #10
    22f0:	053e0405 	ldreq	r0, [lr, #-1029]!	; 0xfffffbfb
    22f4:	0c05241a 	cfstrseq	mvf2, [r5], {26}
    22f8:	4b12053c 	blmi	4837f0 <shift+0x4837f0>
    22fc:	05820705 	streq	r0, [r2, #1797]	; 0x705
    2300:	07053003 	streq	r3, [r5, -r3]
    2304:	3d160522 	cfldr32cc	mvfx0, [r6, #-136]	; 0xffffff78
    2308:	053c0a05 	ldreq	r0, [ip, #-2565]!	; 0xfffff5fb
    230c:	08054b10 	stmdaeq	r5, {r4, r8, r9, fp, lr}
    2310:	33040582 	movwcc	r0, #17794	; 0x4582
    2314:	051d2705 	ldreq	r2, [sp, #-1797]	; 0xfffff8fb
    2318:	19053c13 	stmdbne	r5, {r0, r1, r4, sl, fp, ip, sp}
    231c:	8208054b 	andhi	r0, r8, #314572800	; 0x12c00000
    2320:	05300405 	ldreq	r0, [r0, #-1029]!	; 0xfffffbfb
    2324:	07052206 	streq	r2, [r5, -r6, lsl #4]
    2328:	2006053e 	andcs	r0, r6, lr, lsr r5
    232c:	05300705 	ldreq	r0, [r0, #-1797]!	; 0xfffff8fb
    2330:	7ebe0308 	cdpvc	3, 11, cr0, cr14, cr8, {0}
    2334:	2e0d052e 	cfsh32cs	mvfx0, mvfx13, #30
    2338:	02001005 	andeq	r1, r0, #5
    233c:	052e0104 	streq	r0, [lr, #-260]!	; 0xfffffefc
    2340:	0402000d 	streq	r0, [r2], #-13
    2344:	05052e01 	streq	r2, [r5, #-3585]	; 0xfffff1ff
    2348:	054a0f03 	strbeq	r0, [sl, #-3843]	; 0xfffff0fd
    234c:	ad033304 	stcge	3, cr3, [r3, #-16]
    2350:	09052e01 	stmdbeq	r5, {r0, r9, sl, fp, sp}
    2354:	00010523 	andeq	r0, r1, r3, lsr #10
    2358:	21010402 	tstcs	r1, r2, lsl #8
    235c:	05820b03 	streq	r0, [r2, #2819]	; 0xb03
    2360:	06055c02 	streq	r5, [r5], -r2, lsl #24
    2364:	7609053d 			; <UNDEFINED> instruction: 0x7609053d
    2368:	02210105 	eoreq	r0, r1, #1073741825	; 0x40000001
    236c:	01010007 	tsteq	r1, r7
    2370:	00000100 	andeq	r0, r0, r0, lsl #2
    2374:	00c70002 	sbceq	r0, r7, r2
    2378:	01020000 	mrseq	r0, (UNDEF: 2)
    237c:	000d0efb 	strdeq	r0, [sp], -fp
    2380:	01010101 	tsteq	r1, r1, lsl #2
    2384:	01000000 	mrseq	r0, (UNDEF: 0)
    2388:	2f010000 	svccs	0x00010000
    238c:	656d6f68 	strbvs	r6, [sp, #-3944]!	; 0xfffff098
    2390:	7763742f 	strbvc	r7, [r3, -pc, lsr #8]!
    2394:	75622d67 	strbvc	r2, [r2, #-3431]!	; 0xfffff299
    2398:	73646c69 	cmnvc	r4, #26880	; 0x6900
    239c:	6576616c 	ldrbvs	r6, [r6, #-364]!	; 0xfffffe94
    23a0:	726f772f 	rsbvc	r7, pc, #12320768	; 0xbc0000
    23a4:	6170736b 	cmnvs	r0, fp, ror #6
    23a8:	742f6563 	strtvc	r6, [pc], #-1379	; 23b0 <shift+0x23b0>
    23ac:	2d677763 	stclcs	7, cr7, [r7, #-396]!	; 0xfffffe74
    23b0:	656b616d 	strbvs	r6, [fp, #-365]!	; 0xfffffe93
    23b4:	6c65722d 	sfmvs	f7, 2, [r5], #-180	; 0xffffff4c
    23b8:	65736165 	ldrbvs	r6, [r3, #-357]!	; 0xfffffe9b
    23bc:	62616c2f 	rsbvs	r6, r1, #12032	; 0x2f00
    23c0:	642f6c65 	strtvs	r6, [pc], #-3173	; 23c8 <shift+0x23c8>
    23c4:	656b636f 	strbvs	r6, [fp, #-879]!	; 0xfffffc91
    23c8:	72742d72 	rsbsvc	r2, r4, #7296	; 0x1c80
    23cc:	79747375 	ldmdbvc	r4!, {r0, r2, r4, r5, r6, r8, r9, ip, sp, lr}^
    23d0:	646d612d 	strbtvs	r6, [sp], #-301	; 0xfffffed3
    23d4:	742d3436 	strtvc	r3, [sp], #-1078	; 0xfffffbca
    23d8:	2d677763 	stclcs	7, cr7, [r7, #-396]!	; 0xfffffe74
    23dc:	6c697562 	cfstr64vs	mvdx7, [r9], #-392	; 0xfffffe78
    23e0:	61742f64 	cmnvs	r4, r4, ror #30
    23e4:	74656772 	strbtvc	r6, [r5], #-1906	; 0xfffff88e
    23e8:	6d72612f 	ldfvse	f6, [r2, #-188]!	; 0xffffff44
    23ec:	6e696c2d 	cdpvs	12, 6, cr6, cr9, cr13, {1}
    23f0:	672d7875 			; <UNDEFINED> instruction: 0x672d7875
    23f4:	6165756e 	cmnvs	r5, lr, ror #10
    23f8:	66686962 	strbtvs	r6, [r8], -r2, ror #18
    23fc:	616e732f 	cmnvs	lr, pc, lsr #6
    2400:	6f687370 	svcvs	0x00687370
    2404:	672f7374 			; <UNDEFINED> instruction: 0x672f7374
    2408:	6c2d6363 	stcvs	3, cr6, [sp], #-396	; 0xfffffe74
    240c:	72616e69 	rsbvc	r6, r1, #1680	; 0x690
    2410:	2e342d6f 	cdpcs	13, 3, cr2, cr4, cr15, {3}
    2414:	30322d39 	eorscc	r2, r2, r9, lsr sp
    2418:	302e3731 	eorcc	r3, lr, r1, lsr r7
    241c:	696c2f31 	stmdbvs	ip!, {r0, r4, r5, r8, r9, sl, fp, sp}^
    2420:	63636762 	cmnvs	r3, #25690112	; 0x1880000
    2424:	6e6f632f 	cdpvs	3, 6, cr6, cr15, cr15, {1}
    2428:	2f676966 	svccs	0x00676966
    242c:	006d7261 	rsbeq	r7, sp, r1, ror #4
    2430:	62696c00 	rsbvs	r6, r9, #0, 24
    2434:	6e756631 	mrcvs	6, 3, r6, cr5, cr1, {1}
    2438:	532e7363 			; <UNDEFINED> instruction: 0x532e7363
    243c:	00000100 	andeq	r0, r0, r0, lsl #2
    2440:	02050000 	andeq	r0, r5, #0
    2444:	80003bd0 	ldrdhi	r3, [r0], -r0
    2448:	0107cf03 	tsteq	r7, r3, lsl #30
    244c:	2f212121 	svccs	0x00212121
    2450:	30212f21 	eorcc	r2, r1, r1, lsr #30
    2454:	14029102 	strne	r9, [r2], #-258	; 0xfffffefe
    2458:	21212221 			; <UNDEFINED> instruction: 0x21212221
    245c:	2f4c2221 	svccs	0x004c2221
    2460:	207aeb03 	rsbscs	lr, sl, r3, lsl #22
    2464:	5805af03 	stmdapl	r5, {r0, r1, r8, r9, sl, fp, sp, pc}
    2468:	2f2f2121 	svccs	0x002f2121
    246c:	022f2f2f 	eoreq	r2, pc, #47, 30	; 0xbc
    2470:	01010001 	tsteq	r1, r1
    2474:	000000dd 	ldrdeq	r0, [r0], -sp
    2478:	00c30002 	sbceq	r0, r3, r2
    247c:	01020000 	mrseq	r0, (UNDEF: 2)
    2480:	000d0efb 	strdeq	r0, [sp], -fp
    2484:	01010101 	tsteq	r1, r1, lsl #2
    2488:	01000000 	mrseq	r0, (UNDEF: 0)
    248c:	2f010000 	svccs	0x00010000
    2490:	656d6f68 	strbvs	r6, [sp, #-3944]!	; 0xfffff098
    2494:	7763742f 	strbvc	r7, [r3, -pc, lsr #8]!
    2498:	75622d67 	strbvc	r2, [r2, #-3431]!	; 0xfffff299
    249c:	73646c69 	cmnvc	r4, #26880	; 0x6900
    24a0:	6576616c 	ldrbvs	r6, [r6, #-364]!	; 0xfffffe94
    24a4:	726f772f 	rsbvc	r7, pc, #12320768	; 0xbc0000
    24a8:	6170736b 	cmnvs	r0, fp, ror #6
    24ac:	742f6563 	strtvc	r6, [pc], #-1379	; 24b4 <shift+0x24b4>
    24b0:	2d677763 	stclcs	7, cr7, [r7, #-396]!	; 0xfffffe74
    24b4:	656b616d 	strbvs	r6, [fp, #-365]!	; 0xfffffe93
    24b8:	6c65722d 	sfmvs	f7, 2, [r5], #-180	; 0xffffff4c
    24bc:	65736165 	ldrbvs	r6, [r3, #-357]!	; 0xfffffe9b
    24c0:	62616c2f 	rsbvs	r6, r1, #12032	; 0x2f00
    24c4:	642f6c65 	strtvs	r6, [pc], #-3173	; 24cc <shift+0x24cc>
    24c8:	656b636f 	strbvs	r6, [fp, #-879]!	; 0xfffffc91
    24cc:	72742d72 	rsbsvc	r2, r4, #7296	; 0x1c80
    24d0:	79747375 	ldmdbvc	r4!, {r0, r2, r4, r5, r6, r8, r9, ip, sp, lr}^
    24d4:	646d612d 	strbtvs	r6, [sp], #-301	; 0xfffffed3
    24d8:	742d3436 	strtvc	r3, [sp], #-1078	; 0xfffffbca
    24dc:	2d677763 	stclcs	7, cr7, [r7, #-396]!	; 0xfffffe74
    24e0:	6c697562 	cfstr64vs	mvdx7, [r9], #-392	; 0xfffffe78
    24e4:	61742f64 	cmnvs	r4, r4, ror #30
    24e8:	74656772 	strbtvc	r6, [r5], #-1906	; 0xfffff88e
    24ec:	6d72612f 	ldfvse	f6, [r2, #-188]!	; 0xffffff44
    24f0:	6e696c2d 	cdpvs	12, 6, cr6, cr9, cr13, {1}
    24f4:	672d7875 			; <UNDEFINED> instruction: 0x672d7875
    24f8:	6165756e 	cmnvs	r5, lr, ror #10
    24fc:	66686962 	strbtvs	r6, [r8], -r2, ror #18
    2500:	616e732f 	cmnvs	lr, pc, lsr #6
    2504:	6f687370 	svcvs	0x00687370
    2508:	672f7374 			; <UNDEFINED> instruction: 0x672f7374
    250c:	6c2d6363 	stcvs	3, cr6, [sp], #-396	; 0xfffffe74
    2510:	72616e69 	rsbvc	r6, r1, #1680	; 0x690
    2514:	2e342d6f 	cdpcs	13, 3, cr2, cr4, cr15, {3}
    2518:	30322d39 	eorscc	r2, r2, r9, lsr sp
    251c:	302e3731 	eorcc	r3, lr, r1, lsr r7
    2520:	696c2f31 	stmdbvs	ip!, {r0, r4, r5, r8, r9, sl, fp, sp}^
    2524:	63636762 	cmnvs	r3, #25690112	; 0x1880000
    2528:	6e6f632f 	cdpvs	3, 6, cr6, cr15, cr15, {1}
    252c:	2f676966 	svccs	0x00676966
    2530:	006d7261 	rsbeq	r7, sp, r1, ror #4
    2534:	61706200 	cmnvs	r0, r0, lsl #4
    2538:	532e6962 			; <UNDEFINED> instruction: 0x532e6962
    253c:	00000100 	andeq	r0, r0, r0, lsl #2
    2540:	02050000 	andeq	r0, r5, #0
    2544:	80003e48 	andhi	r3, r0, r8, asr #28
    2548:	0101fd03 	tsteq	r1, r3, lsl #26	; <UNPREDICTABLE>
    254c:	592f4cbc 	stmdbpl	pc!, {r2, r3, r4, r5, r7, sl, fp, lr}	; <UNPREDICTABLE>
    2550:	01000102 	tsteq	r0, r2, lsl #2
    2554:	0000e301 	andeq	lr, r0, r1, lsl #6
    2558:	c7000200 	strgt	r0, [r0, -r0, lsl #4]
    255c:	02000000 	andeq	r0, r0, #0
    2560:	0d0efb01 	vstreq	d15, [lr, #-4]
    2564:	01010100 	mrseq	r0, (UNDEF: 17)
    2568:	00000001 	andeq	r0, r0, r1
    256c:	01000001 	tsteq	r0, r1
    2570:	6d6f682f 	stclvs	8, cr6, [pc, #-188]!	; 24bc <shift+0x24bc>
    2574:	63742f65 	cmnvs	r4, #404	; 0x194
    2578:	622d6777 	eorvs	r6, sp, #31195136	; 0x1dc0000
    257c:	646c6975 	strbtvs	r6, [ip], #-2421	; 0xfffff68b
    2580:	76616c73 			; <UNDEFINED> instruction: 0x76616c73
    2584:	6f772f65 	svcvs	0x00772f65
    2588:	70736b72 	rsbsvc	r6, r3, r2, ror fp
    258c:	2f656361 	svccs	0x00656361
    2590:	67776374 			; <UNDEFINED> instruction: 0x67776374
    2594:	6b616d2d 	blvs	185da50 <shift+0x185da50>
    2598:	65722d65 	ldrbvs	r2, [r2, #-3429]!	; 0xfffff29b
    259c:	7361656c 	cmnvc	r1, #108, 10	; 0x1b000000
    25a0:	616c2f65 	cmnvs	ip, r5, ror #30
    25a4:	2f6c6562 	svccs	0x006c6562
    25a8:	6b636f64 	blvs	18de340 <shift+0x18de340>
    25ac:	742d7265 	strtvc	r7, [sp], #-613	; 0xfffffd9b
    25b0:	74737572 	ldrbtvc	r7, [r3], #-1394	; 0xfffffa8e
    25b4:	6d612d79 	stclvs	13, cr2, [r1, #-484]!	; 0xfffffe1c
    25b8:	2d343664 	ldccs	6, cr3, [r4, #-400]!	; 0xfffffe70
    25bc:	67776374 			; <UNDEFINED> instruction: 0x67776374
    25c0:	6975622d 	ldmdbvs	r5!, {r0, r2, r3, r5, r9, sp, lr}^
    25c4:	742f646c 	strtvc	r6, [pc], #-1132	; 25cc <shift+0x25cc>
    25c8:	65677261 	strbvs	r7, [r7, #-609]!	; 0xfffffd9f
    25cc:	72612f74 	rsbvc	r2, r1, #116, 30	; 0x1d0
    25d0:	696c2d6d 	stmdbvs	ip!, {r0, r2, r3, r5, r6, r8, sl, fp, sp}^
    25d4:	2d78756e 	cfldr64cs	mvdx7, [r8, #-440]!	; 0xfffffe48
    25d8:	65756e67 	ldrbvs	r6, [r5, #-3687]!	; 0xfffff199
    25dc:	68696261 	stmdavs	r9!, {r0, r5, r6, r9, sp, lr}^
    25e0:	6e732f66 	cdpvs	15, 7, cr2, cr3, cr6, {3}
    25e4:	68737061 	ldmdavs	r3!, {r0, r5, r6, ip, sp, lr}^
    25e8:	2f73746f 	svccs	0x0073746f
    25ec:	2d636367 	stclcs	3, cr6, [r3, #-412]!	; 0xfffffe64
    25f0:	616e696c 	cmnvs	lr, ip, ror #18
    25f4:	342d6f72 	strtcc	r6, [sp], #-3954	; 0xfffff08e
    25f8:	322d392e 	eorcc	r3, sp, #753664	; 0xb8000
    25fc:	2e373130 	mrccs	1, 1, r3, cr7, cr0, {1}
    2600:	6c2f3130 	stfvss	f3, [pc], #-192	; 2548 <shift+0x2548>
    2604:	63676269 	cmnvs	r7, #-1879048186	; 0x90000006
    2608:	6f632f63 	svcvs	0x00632f63
    260c:	6769666e 	strbvs	r6, [r9, -lr, ror #12]!
    2610:	6d72612f 	ldfvse	f6, [r2, #-188]!	; 0xffffff44
    2614:	696c0000 	stmdbvs	ip!, {}^	; <UNPREDICTABLE>
    2618:	75663162 	strbvc	r3, [r6, #-354]!	; 0xfffffe9e
    261c:	2e73636e 	cdpcs	3, 7, cr6, cr3, cr14, {3}
    2620:	00010053 	andeq	r0, r1, r3, asr r0
    2624:	05000000 	streq	r0, [r0, #-0]
    2628:	003e7802 	eorseq	r7, lr, r2, lsl #16
    262c:	0ab00380 	beq	fec03434 <__bss_end+0x7ebfe614>
    2630:	032f2101 			; <UNDEFINED> instruction: 0x032f2101
    2634:	022e77bb 	eoreq	r7, lr, #49020928	; 0x2ec0000
    2638:	01010001 	tsteq	r1, r1
    263c:	00000113 	andeq	r0, r0, r3, lsl r1
    2640:	00c70002 	sbceq	r0, r7, r2
    2644:	01020000 	mrseq	r0, (UNDEF: 2)
    2648:	000d0efb 	strdeq	r0, [sp], -fp
    264c:	01010101 	tsteq	r1, r1, lsl #2
    2650:	01000000 	mrseq	r0, (UNDEF: 0)
    2654:	2f010000 	svccs	0x00010000
    2658:	656d6f68 	strbvs	r6, [sp, #-3944]!	; 0xfffff098
    265c:	7763742f 	strbvc	r7, [r3, -pc, lsr #8]!
    2660:	75622d67 	strbvc	r2, [r2, #-3431]!	; 0xfffff299
    2664:	73646c69 	cmnvc	r4, #26880	; 0x6900
    2668:	6576616c 	ldrbvs	r6, [r6, #-364]!	; 0xfffffe94
    266c:	726f772f 	rsbvc	r7, pc, #12320768	; 0xbc0000
    2670:	6170736b 	cmnvs	r0, fp, ror #6
    2674:	742f6563 	strtvc	r6, [pc], #-1379	; 267c <shift+0x267c>
    2678:	2d677763 	stclcs	7, cr7, [r7, #-396]!	; 0xfffffe74
    267c:	656b616d 	strbvs	r6, [fp, #-365]!	; 0xfffffe93
    2680:	6c65722d 	sfmvs	f7, 2, [r5], #-180	; 0xffffff4c
    2684:	65736165 	ldrbvs	r6, [r3, #-357]!	; 0xfffffe9b
    2688:	62616c2f 	rsbvs	r6, r1, #12032	; 0x2f00
    268c:	642f6c65 	strtvs	r6, [pc], #-3173	; 2694 <shift+0x2694>
    2690:	656b636f 	strbvs	r6, [fp, #-879]!	; 0xfffffc91
    2694:	72742d72 	rsbsvc	r2, r4, #7296	; 0x1c80
    2698:	79747375 	ldmdbvc	r4!, {r0, r2, r4, r5, r6, r8, r9, ip, sp, lr}^
    269c:	646d612d 	strbtvs	r6, [sp], #-301	; 0xfffffed3
    26a0:	742d3436 	strtvc	r3, [sp], #-1078	; 0xfffffbca
    26a4:	2d677763 	stclcs	7, cr7, [r7, #-396]!	; 0xfffffe74
    26a8:	6c697562 	cfstr64vs	mvdx7, [r9], #-392	; 0xfffffe78
    26ac:	61742f64 	cmnvs	r4, r4, ror #30
    26b0:	74656772 	strbtvc	r6, [r5], #-1906	; 0xfffff88e
    26b4:	6d72612f 	ldfvse	f6, [r2, #-188]!	; 0xffffff44
    26b8:	6e696c2d 	cdpvs	12, 6, cr6, cr9, cr13, {1}
    26bc:	672d7875 			; <UNDEFINED> instruction: 0x672d7875
    26c0:	6165756e 	cmnvs	r5, lr, ror #10
    26c4:	66686962 	strbtvs	r6, [r8], -r2, ror #18
    26c8:	616e732f 	cmnvs	lr, pc, lsr #6
    26cc:	6f687370 	svcvs	0x00687370
    26d0:	672f7374 			; <UNDEFINED> instruction: 0x672f7374
    26d4:	6c2d6363 	stcvs	3, cr6, [sp], #-396	; 0xfffffe74
    26d8:	72616e69 	rsbvc	r6, r1, #1680	; 0x690
    26dc:	2e342d6f 	cdpcs	13, 3, cr2, cr4, cr15, {3}
    26e0:	30322d39 	eorscc	r2, r2, r9, lsr sp
    26e4:	302e3731 	eorcc	r3, lr, r1, lsr r7
    26e8:	696c2f31 	stmdbvs	ip!, {r0, r4, r5, r8, r9, sl, fp, sp}^
    26ec:	63636762 	cmnvs	r3, #25690112	; 0x1880000
    26f0:	696c0000 	stmdbvs	ip!, {}^	; <UNPREDICTABLE>
    26f4:	63636762 	cmnvs	r3, #25690112	; 0x1880000
    26f8:	00632e32 	rsbeq	r2, r3, r2, lsr lr
    26fc:	6c000001 	stcvs	0, cr0, [r0], {1}
    2700:	63676269 	cmnvs	r7, #-1879048186	; 0x90000006
    2704:	682e3263 	stmdavs	lr!, {r0, r1, r5, r6, r9, ip, sp}
    2708:	00000100 	andeq	r0, r0, r0, lsl #2
    270c:	02050000 	andeq	r0, r5, #0
    2710:	80003e84 	andhi	r3, r0, r4, lsl #29
    2714:	0107b003 	tsteq	r7, r3
    2718:	200c032e 	andcs	r0, ip, lr, lsr #6
    271c:	03207403 			; <UNDEFINED> instruction: 0x03207403
    2720:	74033c0c 	strvc	r3, [r3], #-3084	; 0xfffff3f4
    2724:	0b03212e 	bleq	cabe4 <shift+0xcabe4>
    2728:	4c4b223c 	sfmmi	f2, 2, [fp], {60}	; 0x3c
    272c:	6803f921 	stmdavs	r3, {r0, r5, r8, fp, ip, sp, lr, pc}
    2730:	3c18033c 	ldccc	3, cr0, [r8], {60}	; 0x3c
    2734:	81212d23 			; <UNDEFINED> instruction: 0x81212d23
    2738:	86523032 			; <UNDEFINED> instruction: 0x86523032
    273c:	33304d29 	teqcc	r0, #2624	; 0xa40
    2740:	214921b9 	strhcs	r2, [r9, #-25]	; 0xffffffe7
    2744:	21320821 	teqcs	r2, r1, lsr #16
    2748:	2e550330 	mrccs	3, 2, r0, cr5, cr0, {1}
    274c:	05024b49 	streq	r4, [r2, #-2889]	; 0xfffff4b7
    2750:	Address 0x0000000000002750 is out of bounds.


Disassembly of section .debug_line_str:

00000000 <.debug_line_str>:
   0:	6d6f682f 	stclvs	8, cr6, [pc, #-188]!	; ffffff4c <__bss_end+0x7fffb12c>
   4:	69782f65 	ldmdbvs	r8!, {r0, r2, r5, r6, r8, r9, sl, fp, sp}^
   8:	6f632f75 	svcvs	0x00632f75
   c:	692f6564 	stmdbvs	pc!, {r2, r5, r6, r8, sl, sp, lr}	; <UNPREDICTABLE>
  10:	7536786d 	ldrvc	r7, [r6, #-2157]!	; 0xfffff793
  14:	61622f6c 	cmnvs	r2, ip, ror #30
  18:	70006572 	andvc	r6, r0, r2, ror r5
  1c:	656a6f72 	strbvs	r6, [sl, #-3954]!	; 0xfffff08e
  20:	73007463 	movwvc	r7, #1123	; 0x463
  24:	74726174 	ldrbtvc	r6, [r2], #-372	; 0xfffffe8c
  28:	7300532e 	movwvc	r5, #814	; 0x32e
  2c:	6f696474 	svcvs	0x00696474
  30:	62696c2f 	rsbvs	r6, r9, #12032	; 0x2f00
  34:	62696c00 	rsbvs	r6, r9, #0, 24
  38:	6e756631 	mrcvs	6, 3, r6, cr5, cr1, {1}
  3c:	532e7363 			; <UNDEFINED> instruction: 0x532e7363
	...

Disassembly of section .debug_info:

00000000 <.debug_info>:
       0:	00000021 	andeq	r0, r0, r1, lsr #32
       4:	04010005 	streq	r0, [r1], #-5
       8:	00000000 	andeq	r0, r0, r0
       c:	00000001 	andeq	r0, r0, r1
      10:	00000000 	andeq	r0, r0, r0
      14:	0002f880 	andeq	pc, r2, r0, lsl #17
      18:	10000000 	andne	r0, r0, r0
      1c:	2b000000 	blcs	24 <shift+0x24>
      20:	01000000 	mrseq	r0, (UNDEF: 0)
      24:	00002180 	andeq	r2, r0, r0, lsl #3
      28:	01000500 	tsteq	r0, r0, lsl #10
      2c:	00001404 	andeq	r1, r0, r4, lsl #8
      30:	00ab0100 	adceq	r0, fp, r0, lsl #2
      34:	01800000 	orreq	r0, r0, r0
      38:	03a08000 	moveq	r8, #0
      3c:	00000037 	andeq	r0, r0, r7, lsr r0
      40:	00000010 	andeq	r0, r0, r0, lsl r0
      44:	0000002b 	andeq	r0, r0, fp, lsr #32
      48:	00f28001 	rscseq	r8, r2, r1
      4c:	00050000 	andeq	r0, r5, r0
      50:	00280401 	eoreq	r0, r8, r1, lsl #8
      54:	e9050000 	stmdb	r5, {}	; <UNPREDICTABLE>
      58:	1d000000 	stcne	0, cr0, [r0, #-0]
      5c:	0000005b 	andeq	r0, r0, fp, asr r0
      60:	00000010 	andeq	r0, r0, r0, lsl r0
      64:	80000320 	andhi	r0, r0, r0, lsr #6
      68:	00000040 	andeq	r0, r0, r0, asr #32
      6c:	00000115 	andeq	r0, r0, r5, lsl r1
      70:	a1060101 	tstge	r6, r1, lsl #2
      74:	01000000 	mrseq	r0, (UNDEF: 0)
      78:	01450502 	cmpeq	r5, r2, lsl #10
      7c:	04060000 	streq	r0, [r6], #-0
      80:	746e6905 	strbtvc	r6, [lr], #-2309	; 0xfffff6fb
      84:	08010100 	stmdaeq	r1, {r8}
      88:	0000009f 	muleq	r0, pc, r0	; <UNPREDICTABLE>
      8c:	ce070201 	cdpgt	2, 0, cr0, cr7, cr1, {0}
      90:	01000000 	mrseq	r0, (UNDEF: 0)
      94:	00c10704 	sbceq	r0, r1, r4, lsl #14
      98:	08010000 	stmdaeq	r1, {}	; <UNPREDICTABLE>
      9c:	0000b707 	andeq	fp, r0, r7, lsl #14
      a0:	05080100 	streq	r0, [r8, #-256]	; 0xffffff00
      a4:	0000004d 	andeq	r0, r0, sp, asr #32
      a8:	bc070401 	cfstrslt	mvf0, [r7], {1}
      ac:	01000000 	mrseq	r0, (UNDEF: 0)
      b0:	00520504 	subseq	r0, r2, r4, lsl #10
      b4:	01010000 	mrseq	r0, (UNDEF: 1)
      b8:	0000a808 	andeq	sl, r0, r8, lsl #16
      bc:	006c0700 	rsbeq	r0, ip, r0, lsl #14
      c0:	d0080000 	andle	r0, r8, r0
      c4:	0700001d 	smladeq	r0, sp, r0, r0
      c8:	00340516 	eorseq	r0, r4, r6, lsl r5
      cc:	008f0000 	addeq	r0, pc, r0
      d0:	8f030000 	svchi	0x00030000
      d4:	09000000 	stmdbeq	r0, {}	; <UNPREDICTABLE>
      d8:	73040a00 	movwvc	r0, #18944	; 0x4a00
      dc:	04000000 	streq	r0, [r0], #-0
      e0:	000000e1 	andeq	r0, r0, r1, ror #1
      e4:	00a60a02 	adceq	r0, r6, r2, lsl #20
      e8:	49030000 	stmdbmi	r3, {}	; <UNPREDICTABLE>
      ec:	00000000 	andeq	r0, r0, r0
      f0:	00006f04 	andeq	r6, r0, r4, lsl #30
      f4:	bc070300 	stclt	3, cr0, [r7], {-0}
      f8:	03000000 	movweq	r0, #0
      fc:	00000049 	andeq	r0, r0, r9, asr #32
     100:	00004903 	andeq	r4, r0, r3, lsl #18
     104:	ad020000 	stcge	0, cr0, [r2, #-0]
     108:	04000000 	streq	r0, [r0], #-0
     10c:	007a0207 	rsbseq	r0, sl, r7, lsl #4
     110:	08020000 	stmdaeq	r2, {}	; <UNPREDICTABLE>
     114:	00014f02 	andeq	r4, r1, r2, lsl #30
     118:	02120500 	andseq	r0, r2, #0, 10
     11c:	0000008e 	andeq	r0, r0, lr, lsl #1
     120:	85021305 	strhi	r1, [r2, #-773]	; 0xfffffcfb
     124:	06000000 	streq	r0, [r0], -r0
     128:	006a0b11 	rsbeq	r0, sl, r1, lsl fp
     12c:	0f010000 	svceq	0x00010000
     130:	00003405 	andeq	r3, r0, r5, lsl #8
     134:	00032000 	andeq	r2, r3, r0
     138:	00004080 	andeq	r4, r0, r0, lsl #1
     13c:	009c0100 	addseq	r0, ip, r0, lsl #2
     140:	0000062f 	andeq	r0, r0, pc, lsr #12
     144:	04010005 	streq	r0, [r1], #-5
     148:	000000ca 	andeq	r0, r0, sl, asr #1
     14c:	0000e909 	andeq	lr, r0, r9, lsl #18
     150:	03581d00 	cmpeq	r8, #0, 26
     154:	00100000 	andseq	r0, r0, r0
     158:	03600000 	cmneq	r0, #0
     15c:	02428000 	subeq	r8, r2, #0
     160:	02040000 	andeq	r0, r4, #0
     164:	01030000 	mrseq	r0, (UNDEF: 3)
     168:	0000a106 	andeq	sl, r0, r6, lsl #2
     16c:	05020300 	streq	r0, [r2, #-768]	; 0xfffffd00
     170:	00000145 	andeq	r0, r0, r5, asr #2
     174:	6905040a 	stmdbvs	r5, {r1, r3, sl}
     178:	0600746e 	streq	r7, [r0], -lr, ror #8
     17c:	00000248 	andeq	r0, r0, r8, asr #4
     180:	0046170e 	subeq	r1, r6, lr, lsl #14
     184:	01030000 	mrseq	r0, (UNDEF: 3)
     188:	00009f08 	andeq	r9, r0, r8, lsl #30
     18c:	07020300 	streq	r0, [r2, -r0, lsl #6]
     190:	000000ce 	andeq	r0, r0, lr, asr #1
     194:	00032106 	andeq	r2, r3, r6, lsl #2
     198:	64161000 	ldrvs	r1, [r6], #-0
     19c:	0b000000 	bleq	1a4 <shift+0x1a4>
     1a0:	00000054 	andeq	r0, r0, r4, asr r0
     1a4:	c1070403 	tstgt	r7, r3, lsl #8
     1a8:	03000000 	movweq	r0, #0
     1ac:	00b70708 	adcseq	r0, r7, r8, lsl #14
     1b0:	08030000 	stmdaeq	r3, {}	; <UNPREDICTABLE>
     1b4:	00004d05 	andeq	r4, r0, r5, lsl #26
     1b8:	003b0400 	eorseq	r0, fp, r0, lsl #8
     1bc:	00890000 	addeq	r0, r9, r0
     1c0:	64050000 	strvs	r0, [r5], #-0
     1c4:	03000000 	movweq	r0, #0
     1c8:	003b0400 	eorseq	r0, fp, r0, lsl #8
     1cc:	00990000 	addseq	r0, r9, r0
     1d0:	64050000 	strvs	r0, [r5], #-0
     1d4:	0b000000 	bleq	1dc <shift+0x1dc>
     1d8:	003b0400 	eorseq	r0, fp, r0, lsl #8
     1dc:	00a90000 	adceq	r0, r9, r0
     1e0:	64050000 	strvs	r0, [r5], #-0
     1e4:	1b000000 	blne	1ec <shift+0x1ec>
     1e8:	003b0400 	eorseq	r0, fp, r0, lsl #8
     1ec:	00b90000 	adcseq	r0, r9, r0
     1f0:	64050000 	strvs	r0, [r5], #-0
     1f4:	07000000 	streq	r0, [r0, -r0]
     1f8:	038c0c00 	orreq	r0, ip, #0, 24
     1fc:	6f091b2d 	svcvs	0x00091b2d
     200:	07000002 	streq	r0, [r0, -r2]
     204:	00524343 	subseq	r4, r2, r3, asr #6
     208:	005f1b2e 	subseq	r1, pc, lr, lsr #22
     20c:	01000000 	mrseq	r0, (UNDEF: 0)
     210:	00000353 	andeq	r0, r0, r3, asr r3
     214:	5f111b2f 	svcpl	0x00111b2f
     218:	04000000 	streq	r0, [r0], #-0
     21c:	52534307 	subspl	r4, r3, #469762048	; 0x1c000000
     220:	5f1b3000 	svcpl	0x001b3000
     224:	08000000 	stmdaeq	r0, {}	; <UNPREDICTABLE>
     228:	0003ca01 	andeq	ip, r3, r1, lsl #20
     22c:	111b3100 	tstne	fp, r0, lsl #2
     230:	0000005f 	andeq	r0, r0, pc, asr r0
     234:	044f010c 	strbeq	r0, [pc], #-268	; 23c <shift+0x23c>
     238:	1b320000 	blne	c80240 <shift+0xc80240>
     23c:	00005f11 	andeq	r5, r0, r1, lsl pc
     240:	ab011000 	blge	44248 <shift+0x44248>
     244:	33000002 	movwcc	r0, #2
     248:	005f111b 	subseq	r1, pc, fp, lsl r1	; <UNPREDICTABLE>
     24c:	01140000 	tsteq	r4, r0
     250:	000003c4 	andeq	r0, r0, r4, asr #7
     254:	5f111b34 	svcpl	0x00111b34
     258:	18000000 	stmdane	r0, {}	; <UNPREDICTABLE>
     25c:	0004b201 	andeq	fp, r4, r1, lsl #4
     260:	111b3500 	tstne	fp, r0, lsl #10
     264:	0000005f 	andeq	r0, r0, pc, asr r0
     268:	0166011c 	cmneq	r6, ip, lsl r1
     26c:	1b360000 	blne	d80274 <shift+0xd80274>
     270:	00005f11 	andeq	r5, r0, r1, lsl pc
     274:	8a012000 	bhi	4827c <shift+0x4827c>
     278:	37000001 	strcc	r0, [r0, -r1]
     27c:	005f111b 	subseq	r1, pc, fp, lsl r1	; <UNPREDICTABLE>
     280:	01240000 			; <UNDEFINED> instruction: 0x01240000
     284:	0000048c 	andeq	r0, r0, ip, lsl #9
     288:	5f111b38 	svcpl	0x00111b38
     28c:	28000000 	stmdacs	r0, {}	; <UNPREDICTABLE>
     290:	0001ee01 	andeq	lr, r1, r1, lsl #28
     294:	111b3900 	tstne	fp, r0, lsl #18
     298:	0000005f 	andeq	r0, r0, pc, asr r0
     29c:	0486012c 	streq	r0, [r6], #300	; 0x12c
     2a0:	1b3a0000 	blne	e802a8 <shift+0xe802a8>
     2a4:	00005f11 	andeq	r5, r0, r1, lsl pc
     2a8:	50013000 	andpl	r3, r1, r0
     2ac:	3b000003 	blcc	2c0 <shift+0x2c0>
     2b0:	005f111b 	subseq	r1, pc, fp, lsl r1	; <UNPREDICTABLE>
     2b4:	01340000 	teqeq	r4, r0
     2b8:	00000315 	andeq	r0, r0, r5, lsl r3
     2bc:	5f111b3c 	svcpl	0x00111b3c
     2c0:	38000000 	stmdacc	r0, {}	; <UNPREDICTABLE>
     2c4:	00019d01 	andeq	r9, r1, r1, lsl #26
     2c8:	111b3d00 	tstne	fp, r0, lsl #26
     2cc:	0000005f 	andeq	r0, r0, pc, asr r0
     2d0:	03d5013c 	bicseq	r0, r5, #60, 2
     2d4:	1b3e0000 	blne	f802dc <shift+0xf802dc>
     2d8:	0000a910 	andeq	sl, r0, r0, lsl r9
     2dc:	75014000 	strvc	r4, [r1, #-0]
     2e0:	3f000001 	svccc	0x00000001
     2e4:	005f111b 	subseq	r1, pc, fp, lsl r1	; <UNPREDICTABLE>
     2e8:	01480000 	mrseq	r0, (UNDEF: 72)
     2ec:	000003e0 	andeq	r0, r0, r0, ror #7
     2f0:	a9101b40 	ldmdbge	r0, {r6, r8, r9, fp, ip}
     2f4:	4c000000 	stcmi	0, cr0, [r0], {-0}
     2f8:	00021101 	andeq	r1, r2, r1, lsl #2
     2fc:	111b4100 	tstne	fp, r0, lsl #2
     300:	0000005f 	andeq	r0, r0, pc, asr r0
     304:	01a40154 			; <UNDEFINED> instruction: 0x01a40154
     308:	1b420000 	blne	1080310 <shift+0x1080310>
     30c:	00005f11 	andeq	r5, r0, r1, lsl pc
     310:	1c015800 	stcne	8, cr5, [r1], {-0}
     314:	43000003 	movwmi	r0, #3
     318:	005f111b 	subseq	r1, pc, fp, lsl r1	; <UNPREDICTABLE>
     31c:	015c0000 	cmpeq	ip, r0
     320:	00000250 	andeq	r0, r0, r0, asr r2
     324:	5f111b44 	svcpl	0x00111b44
     328:	60000000 	andvs	r0, r0, r0
     32c:	00031001 	andeq	r1, r3, r1
     330:	111b4500 	tstne	fp, r0, lsl #10
     334:	0000005f 	andeq	r0, r0, pc, asr r0
     338:	03cf0164 	biceq	r0, pc, #100, 2
     33c:	1b460000 	blne	1180344 <shift+0x1180344>
     340:	00005f11 	andeq	r5, r0, r1, lsl pc
     344:	b9016800 	stmdblt	r1, {fp, sp, lr}
     348:	47000004 	strmi	r0, [r0, -r4]
     34c:	005f111b 	subseq	r1, pc, fp, lsl r1	; <UNPREDICTABLE>
     350:	016c0000 	cmneq	ip, r0
     354:	000004c9 	andeq	r0, r0, r9, asr #9
     358:	5f111b48 	svcpl	0x00111b48
     35c:	70000000 	andvc	r0, r0, r0
     360:	0004cf01 	andeq	ip, r4, r1, lsl #30
     364:	111b4900 	tstne	fp, r0, lsl #18
     368:	0000005f 	andeq	r0, r0, pc, asr r0
     36c:	04e10174 	strbteq	r0, [r1], #372	; 0x174
     370:	1b4a0000 	blne	1280378 <shift+0x1280378>
     374:	00005f11 	andeq	r5, r0, r1, lsl pc
     378:	e7017800 	str	r7, [r1, -r0, lsl #16]
     37c:	4b000004 	blmi	394 <shift+0x394>
     380:	005f111b 	subseq	r1, pc, fp, lsl r1	; <UNPREDICTABLE>
     384:	017c0000 	cmneq	ip, r0
     388:	000004ed 	andeq	r0, r0, sp, ror #9
     38c:	5f111b4c 	svcpl	0x00111b4c
     390:	80000000 	andhi	r0, r0, r0
     394:	0003eb01 	andeq	lr, r3, r1, lsl #22
     398:	101b4d00 	andsne	r4, fp, r0, lsl #26
     39c:	00000079 	andeq	r0, r0, r9, ror r0
     3a0:	04ac0184 	strteq	r0, [ip], #388	; 0x184
     3a4:	1b4e0000 	blne	13803ac <shift+0x13803ac>
     3a8:	00005f11 	andeq	r5, r0, r1, lsl pc
     3ac:	08008800 	stmdaeq	r0, {fp, pc}
     3b0:	000002be 			; <UNDEFINED> instruction: 0x000002be
     3b4:	00b91b4f 	adcseq	r1, r9, pc, asr #22
     3b8:	800d0000 	andhi	r0, sp, r0
     3bc:	1e930301 	cdpne	3, 9, cr0, cr3, cr1, {0}
     3c0:	0005ca09 	andeq	ip, r5, r9, lsl #20
     3c4:	02910100 	addseq	r0, r1, #0, 2
     3c8:	1e940000 	cdpne	0, 9, cr0, cr4, cr0, {0}
     3cc:	00005f11 	andeq	r5, r0, r1, lsl pc
     3d0:	d5010000 	strle	r0, [r1, #-0]
     3d4:	95000004 	strls	r0, [r0, #-4]
     3d8:	005f111e 	subseq	r1, pc, lr, lsl r1	; <UNPREDICTABLE>
     3dc:	01040000 	mrseq	r0, (UNDEF: 4)
     3e0:	0000015a 	andeq	r0, r0, sl, asr r1
     3e4:	5f111e96 	svcpl	0x00111e96
     3e8:	08000000 	stmdaeq	r0, {}	; <UNPREDICTABLE>
     3ec:	00042201 	andeq	r2, r4, r1, lsl #4
     3f0:	111e9700 	tstne	lr, r0, lsl #14
     3f4:	0000005f 	andeq	r0, r0, pc, asr r0
     3f8:	02d4010c 	sbcseq	r0, r4, #12, 2
     3fc:	1e980000 	cdpne	0, 9, cr0, cr8, cr0, {0}
     400:	00005f11 	andeq	r5, r0, r1, lsl pc
     404:	b1011000 	mrslt	r1, (UNDEF: 1)
     408:	99000002 	stmdbls	r0, {r1}
     40c:	005f111e 	subseq	r1, pc, lr, lsl r1	; <UNPREDICTABLE>
     410:	01140000 	tsteq	r4, r0
     414:	000001a9 	andeq	r0, r0, r9, lsr #3
     418:	5f111e9a 	svcpl	0x00111e9a
     41c:	18000000 	stmdane	r0, {}	; <UNPREDICTABLE>
     420:	00046d01 	andeq	r6, r4, r1, lsl #26
     424:	111e9b00 	tstne	lr, r0, lsl #22
     428:	0000005f 	andeq	r0, r0, pc, asr r0
     42c:	02dd011c 	sbcseq	r0, sp, #28, 2
     430:	1e9c0000 	cdpne	0, 9, cr0, cr12, cr0, {0}
     434:	00005f11 	andeq	r5, r0, r1, lsl pc
     438:	b7012000 	strlt	r2, [r1, -r0]
     43c:	9d000003 	stcls	0, cr0, [r0, #-12]
     440:	005f111e 	subseq	r1, pc, lr, lsl r1	; <UNPREDICTABLE>
     444:	01240000 			; <UNDEFINED> instruction: 0x01240000
     448:	000002c7 	andeq	r0, r0, r7, asr #5
     44c:	5f111e9e 	svcpl	0x00111e9e
     450:	28000000 	stmdacs	r0, {}	; <UNPREDICTABLE>
     454:	00022f01 	andeq	r2, r2, r1, lsl #30
     458:	111e9f00 	tstne	lr, r0, lsl #30
     45c:	0000005f 	andeq	r0, r0, pc, asr r0
     460:	02a3012c 	adceq	r0, r3, #44, 2
     464:	1ea00000 	cdpne	0, 10, cr0, cr0, cr0, {0}
     468:	00005f11 	andeq	r5, r0, r1, lsl pc
     46c:	6a013000 	bvs	4c474 <shift+0x4c474>
     470:	a1000003 	tstge	r0, r3
     474:	005f111e 	subseq	r1, pc, lr, lsl r1	; <UNPREDICTABLE>
     478:	01340000 	teqeq	r4, r0
     47c:	0000023c 	andeq	r0, r0, ip, lsr r2
     480:	5f111ea2 	svcpl	0x00111ea2
     484:	38000000 	stmdacc	r0, {}	; <UNPREDICTABLE>
     488:	0001ce01 	andeq	ip, r1, r1, lsl #28
     48c:	111ea300 	tstne	lr, r0, lsl #6
     490:	0000005f 	andeq	r0, r0, pc, asr r0
     494:	0262013c 	rsbeq	r0, r2, #60, 2
     498:	1ea40000 	cdpne	0, 10, cr0, cr4, cr0, {0}
     49c:	00005f11 	andeq	r5, r0, r1, lsl pc
     4a0:	d5014000 	strle	r4, [r1, #-0]
     4a4:	a5000003 	strge	r0, [r0, #-3]
     4a8:	0089101e 	addeq	r1, r9, lr, lsl r0
     4ac:	01440000 	mrseq	r0, (UNDEF: 68)
     4b0:	0000047a 	andeq	r0, r0, sl, ror r4
     4b4:	5f111ea6 	svcpl	0x00111ea6
     4b8:	50000000 	andpl	r0, r0, r0
     4bc:	0003e001 	andeq	lr, r3, r1
     4c0:	101ea700 	andsne	sl, lr, r0, lsl #14
     4c4:	00000089 	andeq	r0, r0, r9, lsl #1
     4c8:	03760154 	cmneq	r6, #84, 2
     4cc:	1ea80000 	cdpne	0, 10, cr0, cr8, cr0, {0}
     4d0:	00005f11 	andeq	r5, r0, r1, lsl pc
     4d4:	eb016000 	bl	584dc <shift+0x584dc>
     4d8:	a9000003 	stmdbge	r0, {r0, r1}
     4dc:	0089101e 	addeq	r1, r9, lr, lsl r0
     4e0:	01640000 	cmneq	r4, r0
     4e4:	000004bf 			; <UNDEFINED> instruction: 0x000004bf
     4e8:	5f111eaa 	svcpl	0x00111eaa
     4ec:	70000000 	andvc	r0, r0, r0
     4f0:	00027b01 	andeq	r7, r2, r1, lsl #22
     4f4:	111eab00 	tstne	lr, r0, lsl #22
     4f8:	0000005f 	andeq	r0, r0, pc, asr r0
     4fc:	017c0174 	cmneq	ip, r4, ror r1
     500:	1eac0000 	cdpne	0, 10, cr0, cr12, cr0, {0}
     504:	00005f11 	andeq	r5, r0, r1, lsl pc
     508:	37017800 	strcc	r7, [r1, -r0, lsl #16]
     50c:	ad000004 	stcge	0, cr0, [r0, #-16]
     510:	005f111e 	subseq	r1, pc, lr, lsl r1	; <UNPREDICTABLE>
     514:	017c0000 	cmneq	ip, r0
     518:	0000045f 	andeq	r0, r0, pc, asr r4
     51c:	5f111eae 	svcpl	0x00111eae
     520:	80000000 	andhi	r0, r0, r0
     524:	0003f601 	andeq	pc, r3, r1, lsl #12
     528:	101eaf00 	andsne	sl, lr, r0, lsl #30
     52c:	00000089 	andeq	r0, r0, r9, lsl #1
     530:	039a0184 	orrseq	r0, sl, #132, 2	; 0x21
     534:	1eb00000 	cdpne	0, 11, cr0, cr0, cr0, {0}
     538:	00005f11 	andeq	r5, r0, r1, lsl pc
     53c:	01019000 	mrseq	r9, (UNDEF: 1)
     540:	b1000004 	tstlt	r0, r4
     544:	0089101e 	addeq	r1, r9, lr, lsl r0
     548:	01940000 	orrseq	r0, r4, r0
     54c:	000001da 	ldrdeq	r0, [r0], -sl
     550:	5f111eb2 	svcpl	0x00111eb2
     554:	a0000000 	andge	r0, r0, r0
     558:	0002f801 	andeq	pc, r2, r1, lsl #16
     55c:	111eb300 	tstne	lr, r0, lsl #6
     560:	0000005f 	andeq	r0, r0, pc, asr r0
     564:	021701a4 	andseq	r0, r7, #164, 2	; 0x29
     568:	1eb40000 	cdpne	0, 11, cr0, cr4, cr0, {0}
     56c:	00005f11 	andeq	r5, r0, r1, lsl pc
     570:	f301a800 	vsub.i8	d10, d1, d0
     574:	b5000004 	strlt	r0, [r0, #-4]
     578:	005f111e 	subseq	r1, pc, lr, lsl r1	; <UNPREDICTABLE>
     57c:	01ac0000 			; <UNDEFINED> instruction: 0x01ac0000
     580:	0000026d 	andeq	r0, r0, sp, ror #4
     584:	5f111eb6 	svcpl	0x00111eb6
     588:	b0000000 	andlt	r0, r0, r0
     58c:	00040c01 	andeq	r0, r4, r1, lsl #24
     590:	101eb700 	andsne	fp, lr, r0, lsl #14
     594:	00000089 	andeq	r0, r0, r9, lsl #1
     598:	032a01b4 			; <UNDEFINED> instruction: 0x032a01b4
     59c:	1eb80000 	cdpne	0, 11, cr0, cr8, cr0, {0}
     5a0:	00005f11 	andeq	r5, r0, r1, lsl pc
     5a4:	1701c000 	strne	ip, [r1, -r0]
     5a8:	b9000004 	stmdblt	r0, {r2}
     5ac:	0099101e 	addseq	r1, r9, lr, lsl r0
     5b0:	01c40000 	biceq	r0, r4, r0
     5b4:	0000042e 	andeq	r0, r0, lr, lsr #8
     5b8:	5f111eba 	svcpl	0x00111eba
     5bc:	e0000000 	and	r0, r0, r0
     5c0:	0003aa01 	andeq	sl, r3, r1, lsl #20
     5c4:	111ebb00 	tstne	lr, r0, lsl #22
     5c8:	0000005f 	andeq	r0, r0, pc, asr r0
     5cc:	01c101e4 	biceq	r0, r1, r4, ror #3
     5d0:	1ebc0000 	cdpne	0, 11, cr0, cr12, cr0, {0}
     5d4:	00005f11 	andeq	r5, r0, r1, lsl pc
     5d8:	9f01e800 	svcls	0x0001e800
     5dc:	bd000004 	stclt	0, cr0, [r0, #-16]
     5e0:	005f111e 	subseq	r1, pc, lr, lsl r1	; <UNPREDICTABLE>
     5e4:	01ec0000 	mvneq	r0, r0
     5e8:	0000016d 	andeq	r0, r0, sp, ror #2
     5ec:	5f111ebe 	svcpl	0x00111ebe
     5f0:	f0000000 			; <UNDEFINED> instruction: 0xf0000000
     5f4:	00034401 	andeq	r4, r3, r1, lsl #8
     5f8:	111ebf00 	tstne	lr, r0, lsl #30
     5fc:	0000005f 	andeq	r0, r0, pc, asr r0
     600:	025601f4 	subseq	r0, r6, #244, 2	; 0x3d
     604:	1ec00000 	cdpne	0, 12, cr0, cr0, cr0, {0}
     608:	00005f11 	andeq	r5, r0, r1, lsl pc
     60c:	9101f800 	tstls	r1, r0, lsl #16	; <UNPREDICTABLE>
     610:	c1000001 	tstgt	r0, r1
     614:	005f111e 	subseq	r1, pc, lr, lsl r1	; <UNPREDICTABLE>
     618:	02fc0000 	rscseq	r0, ip, #0
     61c:	00000289 	andeq	r0, r0, r9, lsl #5
     620:	5f111ec2 	svcpl	0x00111ec2
     624:	00000000 	andeq	r0, r0, r0
     628:	04930201 	ldreq	r0, [r3], #513	; 0x201
     62c:	1ec30000 	cdpne	0, 12, cr0, cr3, cr0, {0}
     630:	00005f11 	andeq	r5, r0, r1, lsl pc
     634:	02010400 	andeq	r0, r1, #0, 8
     638:	0000038e 	andeq	r0, r0, lr, lsl #7
     63c:	5f111ec4 	svcpl	0x00111ec4
     640:	08000000 	stmdaeq	r0, {}	; <UNPREDICTABLE>
     644:	02ec0201 	rsceq	r0, ip, #268435456	; 0x10000000
     648:	1ec50000 	cdpne	0, 12, cr0, cr5, cr0, {0}
     64c:	00005f11 	andeq	r5, r0, r1, lsl pc
     650:	02010c00 	andeq	r0, r1, #0, 24
     654:	000001b6 			; <UNDEFINED> instruction: 0x000001b6
     658:	ca101ec6 	bgt	408178 <shift+0x408178>
     65c:	10000005 	andne	r0, r0, r5
     660:	02050201 	andeq	r0, r5, #268435456	; 0x10000000
     664:	1ec70000 	cdpne	0, 12, cr0, cr7, cr0, {0}
     668:	00005f11 	andeq	r5, r0, r1, lsl pc
     66c:	02015000 	andeq	r5, r1, #0
     670:	000001e4 	andeq	r0, r0, r4, ror #3
     674:	5f111ec8 	svcpl	0x00111ec8
     678:	54000000 	strpl	r0, [r0], #-0
     67c:	04550201 	ldrbeq	r0, [r5], #-513	; 0xfffffdff
     680:	1ec90000 	cdpne	0, 12, cr0, cr9, cr0, {0}
     684:	00005f11 	andeq	r5, r0, r1, lsl pc
     688:	02015800 	andeq	r5, r1, #0, 16
     68c:	00000384 	andeq	r0, r0, r4, lsl #7
     690:	5f111eca 	svcpl	0x00111eca
     694:	5c000000 	stcpl	0, cr0, [r0], {-0}
     698:	020b0201 	andeq	r0, fp, #268435456	; 0x10000000
     69c:	1ecb0000 	cdpne	0, 12, cr0, cr11, cr0, {0}
     6a0:	00005f11 	andeq	r5, r0, r1, lsl pc
     6a4:	02016000 	andeq	r6, r1, #0
     6a8:	00000306 	andeq	r0, r0, r6, lsl #6
     6ac:	5f111ecc 	svcpl	0x00111ecc
     6b0:	64000000 	strvs	r0, [r0], #-0
     6b4:	02250201 	eoreq	r0, r5, #268435456	; 0x10000000
     6b8:	1ecd0000 	cdpne	0, 12, cr0, cr13, cr0, {0}
     6bc:	00005f11 	andeq	r5, r0, r1, lsl pc
     6c0:	02016800 	andeq	r6, r1, #0, 16
     6c4:	00000501 	andeq	r0, r0, r1, lsl #10
     6c8:	5f111ece 	svcpl	0x00111ece
     6cc:	6c000000 	stcvs	0, cr0, [r0], {-0}
     6d0:	02e60201 	rsceq	r0, r6, #268435456	; 0x10000000
     6d4:	1ecf0000 	cdpne	0, 12, cr0, cr15, cr0, {0}
     6d8:	00005f11 	andeq	r5, r0, r1, lsl pc
     6dc:	02017000 	andeq	r7, r1, #0
     6e0:	00000445 	andeq	r0, r0, r5, asr #8
     6e4:	5f111ed0 	svcpl	0x00111ed0
     6e8:	74000000 	strvc	r0, [r0], #-0
     6ec:	033a0201 	teqeq	sl, #268435456	; 0x10000000
     6f0:	1ed10000 	cdpne	0, 13, cr0, cr1, cr0, {0}
     6f4:	00005f11 	andeq	r5, r0, r1, lsl pc
     6f8:	02017800 	andeq	r7, r1, #0, 16
     6fc:	00000299 	muleq	r0, r9, r2
     700:	5f111ed2 	svcpl	0x00111ed2
     704:	7c000000 	stcvc	0, cr0, [r0], {-0}
     708:	3b040001 	blcc	100714 <shift+0x100714>
     70c:	da000000 	ble	714 <shift+0x714>
     710:	05000005 	streq	r0, [r0, #-5]
     714:	00000064 	andeq	r0, r0, r4, rrx
     718:	f508003f 			; <UNDEFINED> instruction: 0xf508003f
     71c:	d3000001 	movwle	r0, #1
     720:	00027a1e 	andeq	r7, r2, lr, lsl sl
     724:	07040300 	streq	r0, [r4, -r0, lsl #6]
     728:	000000bc 	strheq	r0, [r0], -ip
     72c:	52050403 	andpl	r0, r5, #50331648	; 0x3000000
     730:	03000000 	movweq	r0, #0
     734:	00a80801 	adceq	r0, r8, r1, lsl #16
     738:	8e0e0000 	cdphi	0, 0, cr0, cr14, cr0, {0}
     73c:	01000000 	mrseq	r0, (UNDEF: 0)
     740:	03d00613 	bicseq	r0, r0, #19922944	; 0x1300000
     744:	01d28000 	bicseq	r8, r2, r0
     748:	9c010000 	stcls	0, cr0, [r1], {-0}
     74c:	00000620 	andeq	r0, r0, r0, lsr #12
     750:	6765720f 	strbvs	r7, [r5, -pc, lsl #4]!
     754:	12150100 	andsne	r0, r5, #0, 2
     758:	00000064 	andeq	r0, r0, r4, rrx
     75c:	00749102 	rsbseq	r9, r4, r2, lsl #2
     760:	00014f10 	andeq	r4, r1, r0, lsl pc
     764:	06070100 	streq	r0, [r7], -r0, lsl #2
     768:	80000360 	andhi	r0, r0, r0, ror #6
     76c:	00000070 	andeq	r0, r0, r0, ror r0
     770:	7c009c01 	stcvc	12, cr9, [r0], {1}
     774:	05000002 	streq	r0, [r0, #-2]
     778:	c8040100 	stmdagt	r4, {r8}
     77c:	07000001 	streq	r0, [r0, -r1]
     780:	000000e9 	andeq	r0, r0, r9, ror #1
     784:	0005da1d 	andeq	sp, r5, sp, lsl sl
     788:	00001000 	andeq	r1, r0, r0
     78c:	0005a200 	andeq	sl, r5, r0, lsl #4
     790:	00017280 	andeq	r7, r1, r0, lsl #5
     794:	00030300 	andeq	r0, r3, r0, lsl #6
     798:	06010200 	streq	r0, [r1], -r0, lsl #4
     79c:	000000a1 	andeq	r0, r0, r1, lsr #1
     7a0:	45050202 	strmi	r0, [r5, #-514]	; 0xfffffdfe
     7a4:	08000001 	stmdaeq	r0, {r0}
     7a8:	6e690504 	cdpvs	5, 6, cr0, cr9, cr4, {0}
     7ac:	01020074 	tsteq	r2, r4, ror r0
     7b0:	00009f08 	andeq	r9, r0, r8, lsl #30
     7b4:	07020200 	streq	r0, [r2, -r0, lsl #4]
     7b8:	000000ce 	andeq	r0, r0, lr, asr #1
     7bc:	00032109 	andeq	r2, r3, r9, lsl #2
     7c0:	16100400 	ldrne	r0, [r0], -r0, lsl #8
     7c4:	0000005a 	andeq	r0, r0, sl, asr r0
     7c8:	0000490a 	andeq	r4, r0, sl, lsl #18
     7cc:	07040200 	streq	r0, [r4, -r0, lsl #4]
     7d0:	000000c1 	andeq	r0, r0, r1, asr #1
     7d4:	b7070802 	strlt	r0, [r7, -r2, lsl #16]
     7d8:	02000000 	andeq	r0, r0, #0
     7dc:	004d0508 	subeq	r0, sp, r8, lsl #10
     7e0:	200b0000 	andcs	r0, fp, r0
     7e4:	0934a603 	ldmdbeq	r4!, {r0, r1, r9, sl, sp, pc}
     7e8:	000000d9 	ldrdeq	r0, [r0], -r9
     7ec:	00524404 	subseq	r4, r2, r4, lsl #8
     7f0:	005534a7 	subseq	r3, r5, r7, lsr #9
     7f4:	05000000 	streq	r0, [r0, #-0]
     7f8:	0000052a 	andeq	r0, r0, sl, lsr #10
     7fc:	005534a8 	subseq	r3, r5, r8, lsr #9
     800:	04040000 	streq	r0, [r4], #-0
     804:	00525350 	subseq	r5, r2, r0, asr r3
     808:	005534a9 	subseq	r3, r5, r9, lsr #9
     80c:	05080000 	streq	r0, [r8, #-0]
     810:	000005d0 	ldrdeq	r0, [r0], -r0	; <UNPREDICTABLE>
     814:	005534aa 	subseq	r3, r5, sl, lsr #9
     818:	050c0000 	streq	r0, [ip, #-0]
     81c:	000005d5 	ldrdeq	r0, [r0], -r5
     820:	005534ab 	subseq	r3, r5, fp, lsr #9
     824:	04100000 	ldreq	r0, [r0], #-0
     828:	00524d49 	subseq	r4, r2, r9, asr #26
     82c:	005534ac 	subseq	r3, r5, ip, lsr #9
     830:	04140000 	ldreq	r0, [r4], #-0
     834:	00525349 	subseq	r5, r2, r9, asr #6
     838:	005534ad 	subseq	r3, r5, sp, lsr #9
     83c:	05180000 	ldreq	r0, [r8, #-0]
     840:	000005c7 	andeq	r0, r0, r7, asr #11
     844:	005534ae 	subseq	r3, r5, lr, lsr #9
     848:	001c0000 	andseq	r0, ip, r0
     84c:	0005730c 	andeq	r7, r5, ip, lsl #6
     850:	34af0300 	strtcc	r0, [pc], #768	; 858 <shift+0x858>
     854:	00006f03 	andeq	r6, r0, r3, lsl #30
     858:	07040200 	streq	r0, [r4, -r0, lsl #4]
     85c:	000000bc 	strheq	r0, [r0], -ip
     860:	52050402 	andpl	r0, r5, #33554432	; 0x2000000
     864:	02000000 	andeq	r0, r0, #0
     868:	00a80801 	adceq	r0, r8, r1, lsl #16
     86c:	8a0d0000 	bhi	340874 <shift+0x340874>
     870:	05000005 	streq	r0, [r0, #-5]
     874:	01170625 	tsteq	r7, r5, lsr #12
     878:	17030000 	strne	r0, [r3, -r0]
     87c:	03000001 	movweq	r0, #1
     880:	00000034 	andeq	r0, r0, r4, lsr r0
     884:	00003403 	andeq	r3, r0, r3, lsl #8
     888:	040e0000 	streq	r0, [lr], #-0
     88c:	000000d9 	ldrdeq	r0, [r0], -r9
     890:	00057d0f 	andeq	r7, r5, pc, lsl #26
     894:	05240500 	streq	r0, [r4, #-1280]!	; 0xfffffb00
     898:	00000034 	andeq	r0, r0, r4, lsr r0
     89c:	00000138 	andeq	r0, r0, r8, lsr r1
     8a0:	00011703 	andeq	r1, r1, r3, lsl #14
     8a4:	00340300 	eorseq	r0, r4, r0, lsl #6
     8a8:	10000000 	andne	r0, r0, r0
     8ac:	000005ec 	andeq	r0, r0, ip, ror #11
     8b0:	cc063702 	stcgt	7, cr3, [r6], {2}
     8b4:	48800006 	stmmi	r0, {r1, r2}
     8b8:	01000000 	mrseq	r0, (UNDEF: 0)
     8bc:	00016d9c 	muleq	r1, ip, sp
     8c0:	1d721100 	ldfnee	f1, [r2, #-0]
     8c4:	37020000 	strcc	r0, [r2, -r0]
     8c8:	0001171c 	andeq	r1, r1, ip, lsl r7
     8cc:	74910200 	ldrvc	r0, [r1], #512	; 0x200
     8d0:	6e697012 	mcrvs	0, 3, r7, cr9, cr2, {0}
     8d4:	26370200 	ldrtcs	r0, [r7], -r0, lsl #4
     8d8:	00000034 	andeq	r0, r0, r4, lsr r0
     8dc:	00709102 	rsbseq	r9, r0, r2, lsl #2
     8e0:	00053b06 	andeq	r3, r5, r6, lsl #22
     8e4:	06a62f00 	strteq	r2, [r6], r0, lsl #30
     8e8:	00268000 	eoreq	r8, r6, r0
     8ec:	9c010000 	stcls	0, cr0, [r1], {-0}
     8f0:	00056106 	andeq	r6, r5, r6, lsl #2
     8f4:	06802200 	streq	r2, [r0], r0, lsl #4
     8f8:	00268000 	eoreq	r8, r6, r0
     8fc:	9c010000 	stcls	0, cr0, [r1], {-0}
     900:	00052113 	andeq	r2, r5, r3, lsl r1
     904:	06070200 	streq	r0, [r7], -r0, lsl #4
     908:	80000606 	andhi	r0, r0, r6, lsl #12
     90c:	0000007a 	andeq	r0, r0, sl, ror r0
     910:	98149c01 	ldmdals	r4, {r0, sl, fp, ip, pc}
     914:	01000005 	tsteq	r0, r5
     918:	e0140444 	ands	r0, r4, r4, asr #8
     91c:	26800005 	strcs	r0, [r0], r5
     920:	01000000 	mrseq	r0, (UNDEF: 0)
     924:	0002119c 	muleq	r2, ip, r1
     928:	052f0100 	streq	r0, [pc, #-256]!	; 830 <shift+0x830>
     92c:	04440000 	strbeq	r0, [r4], #-0
     930:	00004931 	andeq	r4, r0, r1, lsr r9
     934:	74910200 	ldrvc	r0, [r1], #512	; 0x200
     938:	00050b01 	andeq	r0, r5, r1, lsl #22
     93c:	31044500 	tstcc	r4, r0, lsl #10
     940:	00000049 	andeq	r0, r0, r9, asr #32
     944:	01709102 	cmneq	r0, r2, lsl #2
     948:	00000513 	andeq	r0, r0, r3, lsl r5
     94c:	49310446 	ldmdbmi	r1!, {r1, r2, r6, sl}
     950:	02000000 	andeq	r0, r0, #0
     954:	68016c91 	stmdavs	r1, {r0, r4, r7, sl, fp, sp, lr}
     958:	47000005 	strmi	r0, [r0, -r5]
     95c:	00493104 	subeq	r3, r9, r4, lsl #2
     960:	91020000 	mrsls	r0, (UNDEF: 2)
     964:	05ac0168 	streq	r0, [ip, #360]!	; 0x168
     968:	04480000 	strbeq	r0, [r8], #-0
     96c:	00004931 	andeq	r4, r0, r1, lsr r9
     970:	00910200 	addseq	r0, r1, r0, lsl #4
     974:	0005bb01 	andeq	fp, r5, r1, lsl #22
     978:	31044900 	tstcc	r4, r0, lsl #18
     97c:	00000049 	andeq	r0, r0, r9, asr #32
     980:	00049102 	andeq	r9, r4, r2, lsl #2
     984:	00055015 	andeq	r5, r5, r5, lsl r0
     988:	04240100 	strteq	r0, [r4], #-256	; 0xffffff00
     98c:	0005a214 	andeq	sl, r5, r4, lsl r2
     990:	00003e80 	andeq	r3, r0, r0, lsl #29
     994:	019c0100 	orrseq	r0, ip, r0, lsl #2
     998:	0000052f 	andeq	r0, r0, pc, lsr #10
     99c:	492e0424 	stmdbmi	lr!, {r2, r5, sl}
     9a0:	02000000 	andeq	r0, r0, #0
     9a4:	0b017491 	bleq	5dbf0 <shift+0x5dbf0>
     9a8:	25000005 	strcs	r0, [r0, #-5]
     9ac:	00492e04 	subeq	r2, r9, r4, lsl #28
     9b0:	91020000 	mrsls	r0, (UNDEF: 2)
     9b4:	05130170 	ldreq	r0, [r3, #-368]	; 0xfffffe90
     9b8:	04260000 	strteq	r0, [r6], #-0
     9bc:	0000492e 	andeq	r4, r0, lr, lsr #18
     9c0:	6c910200 	lfmvs	f0, 4, [r1], {0}
     9c4:	00056801 	andeq	r6, r5, r1, lsl #16
     9c8:	2e042700 	cdpcs	7, 0, cr2, cr4, cr0, {0}
     9cc:	00000049 	andeq	r0, r0, r9, asr #32
     9d0:	01689102 	cmneq	r8, r2, lsl #2
     9d4:	000005ac 	andeq	r0, r0, ip, lsr #11
     9d8:	492e0428 	stmdbmi	lr!, {r3, r5, sl}
     9dc:	02000000 	andeq	r0, r0, #0
     9e0:	43010091 	movwmi	r0, #4241	; 0x1091
     9e4:	29000005 	stmdbcs	r0, {r0, r2}
     9e8:	00492e04 	subeq	r2, r9, r4, lsl #28
     9ec:	91020000 	mrsls	r0, (UNDEF: 2)
     9f0:	8e000004 	cdphi	0, 0, cr0, cr0, cr4, {0}
     9f4:	0500000b 	streq	r0, [r0, #-11]
     9f8:	3b040100 	blcc	100e00 <shift+0x100e00>
     9fc:	1a000003 	bne	a10 <shift+0xa10>
     a00:	000000e9 	andeq	r0, r0, r9, ror #1
     a04:	0008a01d 	andeq	sl, r8, sp, lsl r0
     a08:	00001000 	andeq	r1, r0, r0
     a0c:	00071400 	andeq	r1, r7, r0, lsl #8
     a10:	00029880 	andeq	r9, r2, r0, lsl #17
     a14:	0003f100 	andeq	pc, r3, r0, lsl #2
     a18:	06010500 	streq	r0, [r1], -r0, lsl #10
     a1c:	000000a1 	andeq	r0, r0, r1, lsr #1
     a20:	45050205 	strmi	r0, [r5, #-517]	; 0xfffffdfb
     a24:	09000001 	stmdbeq	r0, {r0}
     a28:	00000322 	andeq	r0, r0, r2, lsr #6
     a2c:	40140d03 	andsmi	r0, r4, r3, lsl #26
     a30:	1b000000 	blne	a38 <shift+0xa38>
     a34:	6e690504 	cdpvs	5, 6, cr0, cr9, cr4, {0}
     a38:	48090074 	stmdami	r9, {r2, r4, r5, r6}
     a3c:	03000002 	movweq	r0, #2
     a40:	0058170e 	subseq	r1, r8, lr, lsl #14
     a44:	47060000 	strmi	r0, [r6, -r0]
     a48:	05000000 	streq	r0, [r0, #-0]
     a4c:	009f0801 	addseq	r0, pc, r1, lsl #16
     a50:	02050000 	andeq	r0, r5, #0
     a54:	0000ce07 	andeq	ip, r0, r7, lsl #28
     a58:	03210900 			; <UNDEFINED> instruction: 0x03210900
     a5c:	10030000 	andne	r0, r3, r0
     a60:	00007c16 	andeq	r7, r0, r6, lsl ip
     a64:	00660600 	rsbeq	r0, r6, r0, lsl #12
     a68:	72110000 	andsvc	r0, r1, #0
     a6c:	05000000 	streq	r0, [r0, #-0]
     a70:	00c10704 	sbceq	r0, r1, r4, lsl #14
     a74:	7c060000 	stcvc	0, cr0, [r6], {-0}
     a78:	05000000 	streq	r0, [r0, #-0]
     a7c:	00b70708 	adcseq	r0, r7, r8, lsl #14
     a80:	08050000 	stmdaeq	r5, {}	; <UNPREDICTABLE>
     a84:	00004d05 	andeq	r4, r0, r5, lsl #26
     a88:	0fa71c00 	svceq	0x00a71c00
     a8c:	04050000 	streq	r0, [r5], #-0
     a90:	00000040 	andeq	r0, r0, r0, asr #32
     a94:	3a0e2104 	bcc	388eac <shift+0x388eac>
     a98:	1d000004 	stcne	0, cr0, [r0, #-16]
     a9c:	00000e8b 	andeq	r0, r0, fp, lsl #29
     aa0:	c7017f80 	strgt	r7, [r1, -r0, lsl #31]
     aa4:	00000007 	andeq	r0, r0, r7
     aa8:	000e7301 	andeq	r7, lr, r1, lsl #6
     aac:	8a010100 	bhi	40eb4 <shift+0x40eb4>
     ab0:	02000009 	andeq	r0, r0, #9
     ab4:	00119901 	andseq	r9, r1, r1, lsl #18
     ab8:	da010300 	ble	416c0 <shift+0x416c0>
     abc:	0400000b 	streq	r0, [r0], #-11
     ac0:	00078201 	andeq	r8, r7, r1, lsl #4
     ac4:	74010500 	strvc	r0, [r1], #-1280	; 0xfffffb00
     ac8:	0600000f 	streq	r0, [r0], -pc
     acc:	00094801 	andeq	r4, r9, r1, lsl #16
     ad0:	45010700 	strmi	r0, [r1, #-1792]	; 0xfffff900
     ad4:	08000011 	stmdaeq	r0, {r0, r4}
     ad8:	000d1201 	andeq	r1, sp, r1, lsl #4
     adc:	f1010900 			; <UNDEFINED> instruction: 0xf1010900
     ae0:	0a00000f 	beq	b24 <shift+0xb24>
     ae4:	00109c01 	andseq	r9, r0, r1, lsl #24
     ae8:	e9010b00 	stmdb	r1, {r8, r9, fp}
     aec:	0c00000b 	stceq	0, cr0, [r0], {11}
     af0:	00079101 	andeq	r9, r7, r1, lsl #2
     af4:	21010d00 	tstcs	r1, r0, lsl #26
     af8:	0e00000e 	cdpeq	0, 0, cr0, cr0, cr14, {0}
     afc:	00095701 	andeq	r5, r9, r1, lsl #14
     b00:	9b010f00 	blls	44708 <shift+0x44708>
     b04:	1900000b 	stmdbne	r0, {r0, r1, r3}
     b08:	000b6d01 	andeq	r6, fp, r1, lsl #26
     b0c:	6f011a00 	svcvs	0x00011a00
     b10:	1b00000c 	blne	b48 <shift+0xb48>
     b14:	000a8901 	andeq	r8, sl, r1, lsl #18
     b18:	eb011c00 	bl	47b20 <shift+0x47b20>
     b1c:	1d000006 	stcne	0, cr0, [r0, #-24]	; 0xffffffe8
     b20:	0006e801 	andeq	lr, r6, r1, lsl #16
     b24:	22011e00 	andcs	r1, r1, #0, 28
     b28:	1f00000b 	svcne	0x0000000b
     b2c:	000b3101 	andeq	r3, fp, r1, lsl #2
     b30:	4f012000 	svcmi	0x00012000
     b34:	2100000f 	tstcs	r0, pc
     b38:	000f6a01 	andeq	r6, pc, r1, lsl #20
     b3c:	06012200 	streq	r2, [r1], -r0, lsl #4
     b40:	2300000c 	movwcs	r0, #12
     b44:	0009fd01 	andeq	pc, r9, r1, lsl #26
     b48:	05012400 	streq	r2, [r1, #-1024]	; 0xfffffc00
     b4c:	25000009 	strcs	r0, [r0, #-9]
     b50:	000c0f01 	andeq	r0, ip, r1, lsl #30
     b54:	eb012600 	bl	4a35c <shift+0x4a35c>
     b58:	27000007 	strcs	r0, [r0, -r7]
     b5c:	000acb01 	andeq	ip, sl, r1, lsl #22
     b60:	b0012800 	andlt	r2, r1, r0, lsl #16
     b64:	2900000e 	stmdbcs	r0, {r1, r2, r3}
     b68:	000a2001 	andeq	r2, sl, r1
     b6c:	62012a00 	andvs	r2, r1, #0, 20
     b70:	2b00000b 	blcs	ba4 <shift+0xba4>
     b74:	000afe01 	andeq	pc, sl, r1, lsl #28
     b78:	88012c00 	stmdahi	r1, {sl, fp, sp}
     b7c:	2d000006 	stccs	0, cr0, [r0, #-24]	; 0xffffffe8
     b80:	000a6401 	andeq	r6, sl, r1, lsl #8
     b84:	ab012e00 	blge	4c38c <shift+0x4c38c>
     b88:	2f000007 	svccs	0x00000007
     b8c:	000f5801 	andeq	r5, pc, r1, lsl #16
     b90:	e7013000 	str	r3, [r1, -r0]
     b94:	3100000a 	tstcc	r0, sl
     b98:	00067a01 	andeq	r7, r6, r1, lsl #20
     b9c:	c5013200 	strgt	r3, [r1, #-512]	; 0xfffffe00
     ba0:	33000009 	movwcc	r0, #9
     ba4:	000e5601 	andeq	r5, lr, r1, lsl #12
     ba8:	66013400 	strvs	r3, [r1], -r0, lsl #8
     bac:	3500000c 	strcc	r0, [r0, #-12]
     bb0:	000c2401 	andeq	r2, ip, r1, lsl #8
     bb4:	59013600 	stmdbpl	r1, {r9, sl, ip, sp}
     bb8:	37000006 	strcc	r0, [r0, -r6]
     bbc:	000bf901 	andeq	pc, fp, r1, lsl #18
     bc0:	85013800 	strhi	r3, [r1, #-2048]	; 0xfffff800
     bc4:	3900000d 	stmdbcc	r0, {r0, r2, r3}
     bc8:	0009ba01 	andeq	fp, r9, r1, lsl #20
     bcc:	ac013a00 			; <UNDEFINED> instruction: 0xac013a00
     bd0:	3b000010 	blcc	c18 <shift+0xc18>
     bd4:	0005f701 	andeq	pc, r5, r1, lsl #14
     bd8:	bc013c00 	stclt	12, cr3, [r1], {-0}
     bdc:	3d000007 	stccc	0, cr0, [r0, #-28]	; 0xffffffe4
     be0:	000e4b01 	andeq	r4, lr, r1, lsl #22
     be4:	3d013e00 	stccc	14, cr3, [r1, #-0]
     be8:	3f00000b 	svccc	0x0000000b
     bec:	0006ff01 	andeq	pc, r6, r1, lsl #30
     bf0:	92014000 	andls	r4, r1, #0
     bf4:	4100000d 	tstmi	r0, sp
     bf8:	0008cd01 	andeq	ip, r8, r1, lsl #26
     bfc:	e1014200 	mrs	r4, R9_usr
     c00:	43000007 	movwmi	r0, #7
     c04:	0007a101 	andeq	sl, r7, r1, lsl #2
     c08:	83014400 	movwhi	r4, #5120	; 0x1400
     c0c:	4500000f 	strmi	r0, [r0, #-15]
     c10:	00096701 	andeq	r6, r9, r1, lsl #14
     c14:	87014600 	strhi	r4, [r1, -r0, lsl #12]
     c18:	47000011 	smladmi	r0, r1, r0, r0
     c1c:	000d2b01 	andeq	r2, sp, r1, lsl #22
     c20:	b3014800 	movwlt	r4, #6144	; 0x1800
     c24:	4900000b 	stmdbmi	r0, {r0, r1, r3}
     c28:	000d4501 	andeq	r4, sp, r1, lsl #10
     c2c:	a9014a00 	stmdbge	r1, {r9, fp, lr}
     c30:	4b000006 	blmi	c50 <shift+0xc50>
     c34:	00082b01 	andeq	r2, r8, r1, lsl #22
     c38:	d2014c00 	andle	r4, r1, #0, 24
     c3c:	4d000010 	stcmi	0, cr0, [r0, #-64]	; 0xffffffc0
     c40:	00060201 	andeq	r0, r6, r1, lsl #4
     c44:	43014e00 	movwmi	r4, #7680	; 0x1e00
     c48:	4f000008 	svcmi	0x00000008
     c4c:	00072301 	andeq	r2, r7, r1, lsl #6
     c50:	fb015000 	blx	54c5a <shift+0x54c5a>
     c54:	51000007 	tstpl	r0, r7
     c58:	00061701 	andeq	r1, r6, r1, lsl #14
     c5c:	b6015200 	strlt	r5, [r1], -r0, lsl #4
     c60:	5300000a 	movwpl	r0, #10
     c64:	00069201 	andeq	r9, r6, r1, lsl #4
     c68:	aa015400 	bge	55c70 <shift+0x55c70>
     c6c:	55000009 	strpl	r0, [r0, #-9]
     c70:	00093a01 	andeq	r3, r9, r1, lsl #20
     c74:	b7015600 	strlt	r5, [r1, -r0, lsl #12]
     c78:	57000010 	smladpl	r0, r0, r0, r0
     c7c:	000c5b01 	andeq	r5, ip, r1, lsl #22
     c80:	d6015800 	strle	r5, [r1], -r0, lsl #16
     c84:	59000007 	stmdbpl	r0, {r0, r1, r2}
     c88:	000c3001 	andeq	r3, ip, r1
     c8c:	e6015a00 	str	r5, [r1], -r0, lsl #20
     c90:	5b000010 	blpl	cd8 <shift+0xcd8>
     c94:	0008e501 	andeq	lr, r8, r1, lsl #10
     c98:	eb015c00 	bl	57ca0 <shift+0x57ca0>
     c9c:	5d00000e 	stcpl	0, cr0, [r0, #-56]	; 0xffffffc8
     ca0:	00070b01 	andeq	r0, r7, r1, lsl #22
     ca4:	52015e00 	andpl	r5, r1, #0, 28
     ca8:	5f00000b 	svcpl	0x0000000b
     cac:	00110f01 	andseq	r0, r1, r1, lsl #30
     cb0:	10016000 	andne	r6, r1, r0
     cb4:	61000009 	tstvs	r0, r9
     cb8:	00073e01 	andeq	r3, r7, r1, lsl #28
     cbc:	68016200 	stmdavs	r1, {r9, sp, lr}
     cc0:	63000007 	movwvs	r0, #7
     cc4:	00102401 	andseq	r2, r0, r1, lsl #8
     cc8:	35016400 	strcc	r6, [r1, #-1024]	; 0xfffffc00
     ccc:	6500000f 	strvs	r0, [r0, #-15]
     cd0:	00080801 	andeq	r0, r8, r1, lsl #16
     cd4:	9c016600 	stcls	6, cr6, [r1], {-0}
     cd8:	6700000a 	strvs	r0, [r0, -sl]
     cdc:	000cdd01 	andeq	sp, ip, r1, lsl #26
     ce0:	35016800 	strcc	r6, [r1, #-2048]	; 0xfffff800
     ce4:	69000006 	stmdbvs	r0, {r1, r2}
     ce8:	0010f601 	andseq	pc, r0, r1, lsl #12
     cec:	31016a00 	tstcc	r1, r0, lsl #20
     cf0:	6b00000e 	blvs	d30 <shift+0xd30>
     cf4:	0006d701 	andeq	sp, r6, r1, lsl #14
     cf8:	53016c00 	movwpl	r6, #7168	; 0x1c00
     cfc:	6d00000d 	stcvs	0, cr0, [r0, #-52]	; 0xffffffcc
     d00:	000f9b01 	andeq	r9, pc, r1, lsl #22
     d04:	6e016e00 	cdpvs	14, 0, cr6, cr1, cr0, {0}
     d08:	6f00000a 	svcvs	0x0000000a
     d0c:	00092001 	andeq	r2, r9, r1
     d10:	1f017000 	svcne	0x00017000
     d14:	71000011 	tstvc	r0, r1, lsl r0
     d18:	000efb01 	andeq	pc, lr, r1, lsl #22
     d1c:	70017200 	andvc	r7, r1, r0, lsl #4
     d20:	73000006 	movwvc	r0, #6
     d24:	000e6901 	andeq	r6, lr, r1, lsl #18
     d28:	71017400 	tstvc	r1, r0, lsl #8
     d2c:	75000009 	strvc	r0, [r0, #-9]
     d30:	00115b01 	andseq	r5, r1, r1, lsl #22
     d34:	8d017600 	stchi	6, cr7, [r1, #-0]
     d38:	7700000f 	strvc	r0, [r0, -pc]
     d3c:	000ad901 	andeq	sp, sl, r1, lsl #18
     d40:	38017800 	stmdacc	r1, {fp, ip, sp, lr}
     d44:	7900000a 	stmdbvc	r0, {r1, r3}
     d48:	000b8a01 	andeq	r8, fp, r1, lsl #20
     d4c:	18017a00 	stmdane	r1, {r9, fp, ip, sp, lr}
     d50:	7b000006 	blvc	d70 <shift+0xd70>
     d54:	000f2401 	andeq	r2, pc, r1, lsl #8
     d58:	c9017c00 	stmdbgt	r1, {sl, fp, ip, sp, lr}
     d5c:	7d00000e 	stcvc	0, cr0, [r0, #-56]	; 0xffffffc8
     d60:	000a0701 	andeq	r0, sl, r1, lsl #14
     d64:	ac017e00 	stcge	14, cr7, [r1], {-0}
     d68:	7f00000f 	svcvc	0x0000000f
     d6c:	000d0001 	andeq	r0, sp, r1
     d70:	e7018000 	str	r8, [r1, -r0]
     d74:	8100000f 	tsthi	r0, pc
     d78:	000b1801 	andeq	r1, fp, r1, lsl #16
     d7c:	40018200 	andmi	r8, r1, r0, lsl #4
     d80:	8300000c 	movwhi	r0, #12
     d84:	000a5a01 	andeq	r5, sl, r1, lsl #20
     d88:	9e018400 	cfcpysls	mvf8, mvf1
     d8c:	8500000d 	strhi	r0, [r0, #-13]
     d90:	00099901 	andeq	r9, r9, r1, lsl #18
     d94:	57018600 	strpl	r8, [r1, -r0, lsl #12]
     d98:	87000007 	strhi	r0, [r0, -r7]
     d9c:	000a5101 	andeq	r5, sl, r1, lsl #2
     da0:	21018800 	tstcs	r1, r0, lsl #16
     da4:	89000006 	stmdbhi	r0, {r1, r2}
     da8:	000dab01 	andeq	sl, sp, r1, lsl #22
     dac:	21018a00 	tstcs	r1, r0, lsl #20
     db0:	8b000008 	blhi	dd8 <shift+0xdd8>
     db4:	000ac001 	andeq	ip, sl, r1
     db8:	51018c00 	tstpl	r1, r0, lsl #24
     dbc:	8d00000c 	stchi	0, cr0, [r0, #-48]	; 0xffffffd0
     dc0:	00064f01 	andeq	r4, r6, r1, lsl #30
     dc4:	f6018e00 			; <UNDEFINED> instruction: 0xf6018e00
     dc8:	8f00000c 	svchi	0x0000000c
     dcc:	0010c101 	andseq	ip, r0, r1, lsl #2
     dd0:	7e019000 	cdpvc	0, 0, cr9, cr1, cr0, {0}
     dd4:	91000008 	tstls	r0, r8
     dd8:	000d2101 	andeq	r2, sp, r1, lsl #2
     ddc:	34019200 	strcc	r9, [r1], #-512	; 0xfffffe00
     de0:	93000007 	movwls	r0, #7
     de4:	000f1a01 	andeq	r1, pc, r1, lsl #20
     de8:	7f019400 	svcvc	0x00019400
     dec:	9500000a 	strls	r0, [r0, #-10]
     df0:	00100101 	andseq	r0, r0, r1, lsl #2
     df4:	ca019600 	bgt	665fc <shift+0x665fc>
     df8:	9700000b 	strls	r0, [r0, -fp]
     dfc:	000c1901 	andeq	r1, ip, r1, lsl #18
     e00:	ed019800 	stc	8, cr9, [r1, #-0]
     e04:	99000009 	stmdbls	r0, {r0, r3}
     e08:	0009dc01 	andeq	sp, r9, r1, lsl #24
     e0c:	af019a00 	svcge	0x00019a00
     e10:	9b000011 	blls	e5c <shift+0xe5c>
     e14:	000d6c01 	andeq	r6, sp, r1, lsl #24
     e18:	b6019c00 	strlt	r9, [r1], -r0, lsl #24
     e1c:	9d000008 	stcls	0, cr0, [r0, #-32]	; 0xffffffe0
     e20:	000fc101 	andeq	ip, pc, r1, lsl #2
     e24:	37019e00 	strcc	r9, [r1, -r0, lsl #28]
     e28:	9f000011 	svcls	0x00000011
     e2c:	092b0900 	stmdbeq	fp!, {r8, fp}
     e30:	bf040000 	svclt	0x00040000
     e34:	00009603 	andeq	r9, r0, r3, lsl #12
     e38:	00720300 	rsbseq	r0, r2, r0, lsl #6
     e3c:	04560000 	ldrbeq	r0, [r6], #-0
     e40:	7c040000 	stcvc	0, cr0, [r4], {-0}
     e44:	02000000 	andeq	r0, r0, #0
     e48:	04460600 	strbeq	r0, [r6], #-1536	; 0xfffffa00
     e4c:	281e0000 	ldmdacs	lr, {}	; <UNPREDICTABLE>
     e50:	09393204 	ldmdbeq	r9!, {r2, r9, ip, sp}
     e54:	000004b6 			; <UNDEFINED> instruction: 0x000004b6
     e58:	00524307 	subseq	r4, r2, r7, lsl #6
     e5c:	00723933 	rsbseq	r3, r2, r3, lsr r9
     e60:	07000000 	streq	r0, [r0, -r0]
     e64:	34005250 	strcc	r5, [r0], #-592	; 0xfffffdb0
     e68:	00007239 	andeq	r7, r0, r9, lsr r2
     e6c:	53070400 	movwpl	r0, #29696	; 0x7400
     e70:	39350052 	ldmdbcc	r5!, {r1, r4, r6}
     e74:	00000072 	andeq	r0, r0, r2, ror r0
     e78:	52490708 	subpl	r0, r9, #8, 14	; 0x200000
     e7c:	72393600 	eorsvc	r3, r9, #0, 12
     e80:	0c000000 	stceq	0, cr0, [r0], {-0}
     e84:	52434f07 	subpl	r4, r3, #7, 30
     e88:	56393700 	ldrtpl	r3, [r9], -r0, lsl #14
     e8c:	10000004 	andne	r0, r0, r4
     e90:	52434907 	subpl	r4, r3, #114688	; 0x1c000
     e94:	c6393800 	ldrtgt	r3, [r9], -r0, lsl #16
     e98:	1c000004 	stcne	0, cr0, [r0], {4}
     e9c:	544e4307 	strbpl	r4, [lr], #-775	; 0xfffffcf9
     ea0:	72393900 	eorsvc	r3, r9, #0, 18
     ea4:	24000000 	strcs	r0, [r0], #-0
     ea8:	00720300 	rsbseq	r0, r2, r0, lsl #6
     eac:	04c60000 	strbeq	r0, [r6], #0
     eb0:	7c040000 	stcvc	0, cr0, [r4], {-0}
     eb4:	01000000 	mrseq	r0, (UNDEF: 0)
     eb8:	04b60600 	ldrteq	r0, [r6], #1536	; 0x600
     ebc:	81120000 	tsthi	r2, r0
     ec0:	0400000c 	streq	r0, [r0], #-12
     ec4:	045b393a 	ldrbeq	r3, [fp], #-2362	; 0xfffff6c6
     ec8:	72030000 	andvc	r0, r3, #0
     ecc:	e7000000 	str	r0, [r0, -r0]
     ed0:	04000004 	streq	r0, [r0], #-4
     ed4:	0000007c 	andeq	r0, r0, ip, ror r0
     ed8:	d706001f 	smladle	r6, pc, r0, r0	; <UNPREDICTABLE>
     edc:	03000004 	movweq	r0, #4
     ee0:	00000072 	andeq	r0, r0, r2, ror r0
     ee4:	000004fc 	strdeq	r0, [r0], -ip
     ee8:	00007c04 	andeq	r7, r0, r4, lsl #24
     eec:	06000f00 	streq	r0, [r0], -r0, lsl #30
     ef0:	000004ec 	andeq	r0, r0, ip, ror #9
     ef4:	bc070405 	cfstrslt	mvf0, [r7], {5}
     ef8:	05000000 	streq	r0, [r0, #-0]
     efc:	00520504 	subseq	r0, r2, r4, lsl #10
     f00:	041f0000 	ldreq	r0, [pc], #-0	; f08 <shift+0xf08>
     f04:	0005160a 	andeq	r1, r5, sl, lsl #12
     f08:	08010500 	stmdaeq	r1, {r8, sl}
     f0c:	000000a8 	andeq	r0, r0, r8, lsr #1
     f10:	02300420 	eorseq	r0, r0, #32, 8	; 0x20000000
     f14:	6a09021d 	bvs	241790 <shift+0x241790>
     f18:	21000008 	tstcs	r0, r8
     f1c:	00000dbf 			; <UNDEFINED> instruction: 0x00000dbf
     f20:	12021f02 	andne	r1, r2, #2, 30
     f24:	0000086a 	andeq	r0, r0, sl, ror #16
     f28:	11920200 	orrsne	r0, r2, r0, lsl #4
     f2c:	02200000 	eoreq	r0, r0, #0
     f30:	00000072 	andeq	r0, r0, r2, ror r0
     f34:	82021000 	andhi	r1, r2, #0
     f38:	21000009 	tstcs	r0, r9
     f3c:	00007702 	andeq	r7, r0, r2, lsl #14
     f40:	02100400 	andseq	r0, r0, #0, 8
     f44:	000007f4 	strdeq	r0, [r0], -r4
     f48:	00770222 	rsbseq	r0, r7, r2, lsr #4
     f4c:	10080000 	andne	r0, r8, r0
     f50:	000dc902 	andeq	ip, sp, r2, lsl #18
     f54:	7b022300 	blvc	89b5c <shift+0x89b5c>
     f58:	0c000008 	stceq	0, cr0, [r0], {8}
     f5c:	0ebf0210 	mrceq	2, 5, r0, cr15, cr0, {0}
     f60:	02240000 	eoreq	r0, r4, #0
     f64:	000004fc 	strdeq	r0, [r0], -ip
     f68:	d3021080 	movwle	r1, #8320	; 0x2080
     f6c:	2500000d 	strcs	r0, [r0, #-13]
     f70:	00088b02 	andeq	r8, r8, r2, lsl #22
     f74:	0210c000 	andseq	ip, r0, #0
     f78:	00000c8a 	andeq	r0, r0, sl, lsl #25
     f7c:	04fc0226 	ldrbteq	r0, [ip], #550	; 0x226
     f80:	11000000 	mrsne	r0, (UNDEF: 0)
     f84:	000ddd02 	andeq	sp, sp, r2, lsl #26
     f88:	8b022700 	blhi	8ab90 <shift+0x8ab90>
     f8c:	40000008 	andmi	r0, r0, r8
     f90:	0f040211 	svceq	0x00040211
     f94:	02280000 	eoreq	r0, r8, #0
     f98:	000004fc 	strdeq	r0, [r0], -ip
     f9c:	e7021180 	str	r1, [r2, -r0, lsl #3]
     fa0:	2900000d 	stmdbcs	r0, {r0, r2, r3}
     fa4:	00088b02 	andeq	r8, r8, r2, lsl #22
     fa8:	0211c000 	andseq	ip, r1, #0
     fac:	00000b0e 	andeq	r0, r0, lr, lsl #22
     fb0:	04fc022a 	ldrbteq	r0, [ip], #554	; 0x22a
     fb4:	12000000 	andne	r0, r0, #0
     fb8:	000df102 	andeq	pc, sp, r2, lsl #2
     fbc:	8b022b00 	blhi	8bbc4 <shift+0x8bbc4>
     fc0:	40000008 	andmi	r0, r0, r8
     fc4:	0f100212 	svceq	0x00100212
     fc8:	022c0000 	eoreq	r0, ip, #0
     fcc:	000004fc 	strdeq	r0, [r0], -ip
     fd0:	fb021280 	blx	859da <shift+0x859da>
     fd4:	2d00000d 	stccs	0, cr0, [r0, #-52]	; 0xffffffcc
     fd8:	00088b02 	andeq	r8, r8, r2, lsl #22
     fdc:	0212c000 	andseq	ip, r2, #0
     fe0:	0000069d 	muleq	r0, sp, r6
     fe4:	04fc022e 	ldrbteq	r0, [ip], #558	; 0x22e
     fe8:	13000000 	movwne	r0, #0
     fec:	000e0502 	andeq	r0, lr, r2, lsl #10
     ff0:	8b022f00 	blhi	8cbf8 <shift+0x8cbf8>
     ff4:	40000008 	andmi	r0, r0, r8
     ff8:	08d90213 	ldmeq	r9, {r0, r1, r4, r9}^
     ffc:	02300000 	eorseq	r0, r0, #0
    1000:	000004fc 	strdeq	r0, [r0], -ip
    1004:	60021380 	andvs	r1, r2, r0, lsl #7
    1008:	31000008 	tstcc	r0, r8
    100c:	00088b02 	andeq	r8, r8, r2, lsl #22
    1010:	0213c000 	andseq	ip, r3, #0
    1014:	0000112a 	andeq	r1, r0, sl, lsr #2
    1018:	08ac0232 	stmiaeq	ip!, {r1, r4, r5, r9}
    101c:	14000000 	strne	r0, [r0], #-0
    1020:	000e1702 	andeq	r1, lr, r2, lsl #14
    1024:	b1023300 	mrslt	r3, LR_svc
    1028:	00000008 	andeq	r0, r0, r8
    102c:	100c0216 	andne	r0, ip, r6, lsl r2
    1030:	02340000 	eorseq	r0, r4, #0
    1034:	000008ac 	andeq	r0, r0, ip, lsr #17
    1038:	3d021800 	stccc	8, cr1, [r2, #-0]
    103c:	35000010 	strcc	r0, [r0, #-16]
    1040:	0008b102 	andeq	fp, r8, r2, lsl #2
    1044:	021a0000 	andseq	r0, sl, #0
    1048:	00000d7d 	andeq	r0, r0, sp, ror sp
    104c:	04e70236 	strbteq	r0, [r7], #566	; 0x236
    1050:	1c000000 	stcne	0, cr0, [r0], {-0}
    1054:	00104802 	andseq	r4, r0, r2, lsl #16
    1058:	c1023700 	tstgt	r2, r0, lsl #14
    105c:	80000008 	andhi	r0, r0, r8
    1060:	0e0f021c 	mcreq	2, 0, r0, cr15, cr12, {0}
    1064:	02380000 	eorseq	r0, r8, #0
    1068:	00000077 	andeq	r0, r0, r7, ror r0
    106c:	64021d00 	strvs	r1, [r2], #-3328	; 0xfffff300
    1070:	3900000d 	stmdbcc	r0, {r0, r2, r3}
    1074:	0008e602 	andeq	lr, r8, r2, lsl #12
    1078:	021d0400 	andseq	r0, sp, #0, 8
    107c:	00001053 	andeq	r1, r0, r3, asr r0
    1080:	08eb023a 	stmiaeq	fp!, {r1, r3, r4, r5, r9}^
    1084:	1d400000 	stclne	0, cr0, [r0, #-0]
    1088:	000bc302 	andeq	ip, fp, r2, lsl #6
    108c:	72023b00 	andvc	r3, r2, #0, 22
    1090:	00000000 	andeq	r0, r0, r0
    1094:	088f021f 	stmeq	pc, {r0, r1, r2, r3, r4, r9}	; <UNPREDICTABLE>
    1098:	023c0000 	eorseq	r0, ip, #0
    109c:	000008fb 	strdeq	r0, [r0], -fp
    10a0:	18021f04 	stmdane	r2, {r2, r8, r9, sl, fp, ip}
    10a4:	3d000010 	stccc	0, cr0, [r0, #-64]	; 0xffffffc0
    10a8:	00091b02 	andeq	r1, r9, r2, lsl #22
    10ac:	021f1000 	andseq	r1, pc, #0
    10b0:	00000af2 	strdeq	r0, [r0], -r2
    10b4:	091b023e 	ldmdbeq	fp, {r1, r2, r3, r4, r5, r9}
    10b8:	1f200000 	svcne	0x00200000
    10bc:	00105e02 	andseq	r5, r0, r2, lsl #28
    10c0:	20023f00 	andcs	r3, r2, r0, lsl #30
    10c4:	30000009 	andcc	r0, r0, r9
    10c8:	0cb6021f 	lfmeq	f0, 4, [r6], #124	; 0x7c
    10cc:	02400000 	subeq	r0, r0, #0
    10d0:	00000077 	andeq	r0, r0, r7, ror r0
    10d4:	be021fd0 	mcrlt	15, 0, r1, cr2, cr0, {6}
    10d8:	4100000c 	tstmi	r0, ip
    10dc:	00007702 	andeq	r7, r0, r2, lsl #14
    10e0:	021fd400 	andseq	sp, pc, #0, 8
    10e4:	00000cc6 	andeq	r0, r0, r6, asr #25
    10e8:	00770242 	rsbseq	r0, r7, r2, asr #4
    10ec:	1fd80000 	svcne	0x00d80000
    10f0:	000cce02 	andeq	ip, ip, r2, lsl #28
    10f4:	77024300 	strvc	r4, [r2, -r0, lsl #6]
    10f8:	dc000000 	stcle	0, cr0, [r0], {-0}
    10fc:	0c96021f 	lfmeq	f0, 4, [r6], {31}
    1100:	02440000 	subeq	r0, r4, #0
    1104:	00000077 	andeq	r0, r0, r7, ror r0
    1108:	9e021fe0 	cdpls	15, 0, cr1, cr2, cr0, {7}
    110c:	4500000c 	strmi	r0, [r0, #-12]
    1110:	00007702 	andeq	r7, r0, r2, lsl #14
    1114:	021fe400 	andseq	lr, pc, #0, 8
    1118:	00000ca6 	andeq	r0, r0, r6, lsr #25
    111c:	00770246 	rsbseq	r0, r7, r6, asr #4
    1120:	1fe80000 	svcne	0x00e80000
    1124:	000cae02 	andeq	sl, ip, r2, lsl #28
    1128:	77024700 	strvc	r4, [r2, -r0, lsl #14]
    112c:	ec000000 	stc	0, cr0, [r0], {-0}
    1130:	06b7021f 	ssateq	r0, #24, pc, lsl #4	; <UNPREDICTABLE>
    1134:	02480000 	subeq	r0, r8, #0
    1138:	00000077 	andeq	r0, r0, r7, ror r0
    113c:	bf021ff0 	svclt	0x00021ff0
    1140:	49000006 	stmdbmi	r0, {r1, r2}
    1144:	00007702 	andeq	r7, r0, r2, lsl #14
    1148:	021ff400 	andseq	pc, pc, #0, 8
    114c:	000006c7 	andeq	r0, r0, r7, asr #13
    1150:	0077024a 	rsbseq	r0, r7, sl, asr #4
    1154:	1ff80000 	svcne	0x00f80000
    1158:	0006cf02 	andeq	ip, r6, r2, lsl #30
    115c:	77024b00 	strvc	r4, [r2, -r0, lsl #22]
    1160:	fc000000 	stc2	0, cr0, [r0], {-0}
    1164:	11a8021f 			; <UNDEFINED> instruction: 0x11a8021f
    1168:	024d0000 	subeq	r0, sp, #0
    116c:	00000072 	andeq	r0, r0, r2, ror r0
    1170:	c7022000 	strgt	r2, [r2, -r0]
    1174:	4e000008 	cdpmi	0, 0, cr0, cr0, cr8, {0}
    1178:	00007202 	andeq	r7, r0, r2, lsl #4
    117c:	02200400 	eoreq	r0, r0, #0, 8
    1180:	000010e0 	andeq	r1, r0, r0, ror #1
    1184:	0072024f 	rsbseq	r0, r2, pc, asr #4
    1188:	20080000 	andcs	r0, r8, r0
    118c:	000e9902 	andeq	r9, lr, r2, lsl #18
    1190:	77025000 	strvc	r5, [r2, -r0]
    1194:	0c000000 	stceq	0, cr0, [r0], {-0}
    1198:	11800220 	orrne	r0, r0, r0, lsr #4
    119c:	02510000 	subseq	r0, r1, #0
    11a0:	00000072 	andeq	r0, r0, r2, ror r0
    11a4:	9a022010 	bls	891ec <shift+0x891ec>
    11a8:	52000008 	andpl	r0, r0, #8
    11ac:	00007702 	andeq	r7, r0, r2, lsl #14
    11b0:	02201400 	eoreq	r1, r0, #0, 8
    11b4:	0000060f 	andeq	r0, r0, pc, lsl #12
    11b8:	00770253 	rsbseq	r0, r7, r3, asr r2
    11bc:	20180000 	andscs	r0, r8, r0
    11c0:	00115402 	andseq	r5, r1, r2, lsl #8
    11c4:	72025400 	andvc	r5, r2, #0, 8
    11c8:	1c000000 	stcne	0, cr0, [r0], {-0}
    11cc:	0ee40220 	cdpeq	2, 14, cr0, cr4, cr0, {1}
    11d0:	02550000 	subseq	r0, r5, #0
    11d4:	00000077 	andeq	r0, r0, r7, ror r0
    11d8:	9f022020 	svcls	0x00022020
    11dc:	5600000e 	strpl	r0, [r0], -lr
    11e0:	00007202 	andeq	r7, r0, r2, lsl #4
    11e4:	02202400 	eoreq	r2, r0, #0, 8
    11e8:	00000b49 	andeq	r0, r0, r9, asr #22
    11ec:	00770257 	rsbseq	r0, r7, r7, asr r2
    11f0:	20280000 	eorcs	r0, r8, r0
    11f4:	00106902 	andseq	r6, r0, r2, lsl #18
    11f8:	30025800 	andcc	r5, r2, r0, lsl #16
    11fc:	2c000009 	stccs	0, cr0, [r0], {9}
    1200:	0d3e0220 	lfmeq	f0, 4, [lr, #-128]!	; 0xffffff80
    1204:	02590000 	subseq	r0, r9, #0
    1208:	00000072 	andeq	r0, r0, r2, ror r0
    120c:	740220d0 	strvc	r2, [r2], #-208	; 0xffffff30
    1210:	5a000010 	bpl	1258 <shift+0x1258>
    1214:	0008fb02 	andeq	pc, r8, r2, lsl #22
    1218:	0220d400 	eoreq	sp, r0, #0, 8
    121c:	00000ea7 	andeq	r0, r0, r7, lsr #29
    1220:	0072025b 	rsbseq	r0, r2, fp, asr r2
    1224:	20e00000 	rsccs	r0, r0, r0
    1228:	00107f02 	andseq	r7, r0, r2, lsl #30
    122c:	40025c00 	andmi	r5, r2, r0, lsl #24
    1230:	e4000009 	str	r0, [r0], #-9
    1234:	0cd60220 	lfmeq	f0, 2, [r6], {32}
    1238:	025d0000 	subseq	r0, sp, #0
    123c:	00000077 	andeq	r0, r0, r7, ror r0
    1240:	8a0220fc 	bhi	89638 <shift+0x89638>
    1244:	5e000010 	mcrpl	0, 0, r0, cr0, cr0, {0}
    1248:	00095002 	andeq	r5, r9, r2
    124c:	02210000 	eoreq	r0, r1, #0
    1250:	0000086a 	andeq	r0, r0, sl, ror #16
    1254:	0072025f 	rsbseq	r0, r2, pc, asr r2
    1258:	30000000 	andcc	r0, r0, r0
    125c:	00660300 	rsbeq	r0, r6, r0, lsl #6
    1260:	087b0000 	ldmdaeq	fp!, {}^	; <UNPREDICTABLE>
    1264:	7c0b0000 	stcvc	0, cr0, [fp], {-0}
    1268:	ff000000 			; <UNDEFINED> instruction: 0xff000000
    126c:	66030003 	strvs	r0, [r3], -r3
    1270:	8b000000 	blhi	1278 <shift+0x1278>
    1274:	04000008 	streq	r0, [r0], #-8
    1278:	0000007c 	andeq	r0, r0, ip, ror r0
    127c:	6603001c 			; <UNDEFINED> instruction: 0x6603001c
    1280:	9b000000 	blls	1288 <shift+0x1288>
    1284:	04000008 	streq	r0, [r0], #-8
    1288:	0000007c 	andeq	r0, r0, ip, ror r0
    128c:	5303000f 	movwpl	r0, #12303	; 0x300f
    1290:	ac000000 	stcge	0, cr0, [r0], {-0}
    1294:	0b000008 	bleq	12bc <shift+0x12bc>
    1298:	0000007c 	andeq	r0, r0, ip, ror r0
    129c:	060001ff 			; <UNDEFINED> instruction: 0x060001ff
    12a0:	0000089b 	muleq	r0, fp, r8
    12a4:	00006603 	andeq	r6, r0, r3, lsl #12
    12a8:	0008c100 	andeq	ip, r8, r0, lsl #2
    12ac:	007c0400 	rsbseq	r0, ip, r0, lsl #8
    12b0:	007f0000 	rsbseq	r0, pc, r0
    12b4:	00006603 	andeq	r6, r0, r3, lsl #12
    12b8:	0008d100 	andeq	sp, r8, r0, lsl #2
    12bc:	007c0400 	rsbseq	r0, ip, r0, lsl #8
    12c0:	001f0000 	andseq	r0, pc, r0
    12c4:	00007703 	andeq	r7, r0, r3, lsl #14
    12c8:	0008e100 	andeq	lr, r8, r0, lsl #2
    12cc:	007c0400 	rsbseq	r0, ip, r0, lsl #8
    12d0:	000e0000 	andeq	r0, lr, r0
    12d4:	0008d111 	andeq	sp, r8, r1, lsl r1
    12d8:	08e10600 	stmiaeq	r1!, {r9, sl}^
    12dc:	66030000 	strvs	r0, [r3], -r0
    12e0:	fb000000 	blx	12ea <shift+0x12ea>
    12e4:	04000008 	streq	r0, [r0], #-8
    12e8:	0000007c 	andeq	r0, r0, ip, ror r0
    12ec:	6603006f 	strvs	r0, [r3], -pc, rrx
    12f0:	0b000000 	bleq	12f8 <shift+0x12f8>
    12f4:	04000009 	streq	r0, [r0], #-9
    12f8:	0000007c 	andeq	r0, r0, ip, ror r0
    12fc:	53030002 	movwpl	r0, #12290	; 0x3002
    1300:	1b000000 	blne	1308 <shift+0x1308>
    1304:	04000009 	streq	r0, [r0], #-9
    1308:	0000007c 	andeq	r0, r0, ip, ror r0
    130c:	0b06000f 	bleq	181350 <shift+0x181350>
    1310:	03000009 	movweq	r0, #9
    1314:	00000066 	andeq	r0, r0, r6, rrx
    1318:	00000930 	andeq	r0, r0, r0, lsr r9
    131c:	00007c04 	andeq	r7, r0, r4, lsl #24
    1320:	03002700 	movweq	r2, #1792	; 0x700
    1324:	00000066 	andeq	r0, r0, r6, rrx
    1328:	00000940 	andeq	r0, r0, r0, asr #18
    132c:	00007c04 	andeq	r7, r0, r4, lsl #24
    1330:	03002800 	movweq	r2, #2048	; 0x800
    1334:	00000066 	andeq	r0, r0, r6, rrx
    1338:	00000950 	andeq	r0, r0, r0, asr r9
    133c:	00007c04 	andeq	r7, r0, r4, lsl #24
    1340:	03000500 	movweq	r0, #1280	; 0x500
    1344:	00000066 	andeq	r0, r0, r6, rrx
    1348:	00000961 	andeq	r0, r0, r1, ror #18
    134c:	00007c0b 	andeq	r7, r0, fp, lsl #24
    1350:	0003bf00 	andeq	fp, r3, r0, lsl #30
    1354:	000a2f12 	andeq	r2, sl, r2, lsl pc
    1358:	02600200 	rsbeq	r0, r0, #0, 4
    135c:	0000051d 	andeq	r0, r0, sp, lsl r5
    1360:	000fd209 	andeq	sp, pc, r9, lsl #4
    1364:	10060500 	andne	r0, r6, r0, lsl #10
    1368:	00000979 	andeq	r0, r0, r9, ror r9
    136c:	00097e0a 	andeq	r7, r9, sl, lsl #28
    1370:	098e2200 	stmibeq	lr, {r9, sp}
    1374:	7c080000 	stcvc	0, cr0, [r8], {-0}
    1378:	08000000 	stmdaeq	r0, {}	; <UNPREDICTABLE>
    137c:	0000050f 	andeq	r0, r0, pc, lsl #10
    1380:	09351300 	ldmdbeq	r5!, {r8, r9, ip}
    1384:	0e060000 	cdpeq	0, 0, cr0, cr6, cr0, {0}
    1388:	0000099f 	muleq	r0, pc, r9	; <UNPREDICTABLE>
    138c:	00051108 	andeq	r1, r5, r8, lsl #2
    1390:	65130000 	ldrvs	r0, [r3, #-0]
    1394:	05000011 	streq	r0, [r0, #-17]	; 0xffffffef
    1398:	0009ba13 	andeq	fp, r9, r3, lsl sl
    139c:	043a0800 	ldrteq	r0, [sl], #-2048	; 0xfffff800
    13a0:	6d080000 	stcvs	0, cr0, [r8, #-0]
    13a4:	08000009 	stmdaeq	r0, {r0, r3}
    13a8:	0000050f 	andeq	r0, r0, pc, lsl #10
    13ac:	08f52300 	ldmeq	r5!, {r8, r9, sp}^
    13b0:	d0010000 	andle	r0, r1, r0
    13b4:	00096c06 	andeq	r6, r9, r6, lsl #24
    13b8:	00004080 	andeq	r4, r0, r0, lsl #1
    13bc:	0c9c0100 	ldfeqs	f0, [ip], {0}
    13c0:	00000eda 	ldrdeq	r0, [r0], -sl
    13c4:	0008749d 	muleq	r8, sp, r4
    13c8:	0000f880 	andeq	pc, r0, r0, lsl #17
    13cc:	5b9c0100 	blpl	fe7017d4 <__bss_end+0x7e6fc9b4>
    13d0:	0d00000a 	stceq	0, cr0, [r0, #-40]	; 0xffffffd8
    13d4:	000013aa 	andeq	r1, r0, sl, lsr #7
    13d8:	0066199d 	mlseq	r6, sp, r9, r1
    13dc:	91020000 	mrsls	r0, (UNDEF: 2)
    13e0:	0b60245c 	bleq	180a558 <shift+0x180a558>
    13e4:	09020000 	stmdbeq	r2, {}	; <UNPREDICTABLE>
    13e8:	002c8000 	eoreq	r8, ip, r0
    13ec:	c6010000 	strgt	r0, [r1], -r0
    13f0:	000a2202 	andeq	r2, sl, r2, lsl #4
    13f4:	0b6b0e00 	bleq	1ac4bfc <shift+0x1ac4bfc>
    13f8:	91020000 	mrsls	r0, (UNDEF: 2)
    13fc:	0b771468 	bleq	1dc65a4 <shift+0x1dc65a4>
    1400:	91020000 	mrsls	r0, (UNDEF: 2)
    1404:	0b831564 	bleq	fe0c699c <__bss_end+0x7e0c1b7c>
    1408:	09020000 	stmdbeq	r2, {}	; <UNPREDICTABLE>
    140c:	00048000 	andeq	r8, r4, r0
    1410:	02870000 	addeq	r0, r7, #0
    1414:	0b2c2500 	bleq	b0a81c <shift+0xb0a81c>
    1418:	092e0000 	stmdbeq	lr!, {}	; <UNPREDICTABLE>
    141c:	00228000 	eoreq	r8, r2, r0
    1420:	c7010000 	strgt	r0, [r1, -r0]
    1424:	0b430e02 	bleq	10c4c34 <shift+0x10c4c34>
    1428:	91020000 	mrsls	r0, (UNDEF: 2)
    142c:	0b370e70 	bleq	dc4df4 <shift+0xdc4df4>
    1430:	91020000 	mrsls	r0, (UNDEF: 2)
    1434:	0b4f1474 	bleq	13c660c <shift+0x13c660c>
    1438:	91020000 	mrsls	r0, (UNDEF: 2)
    143c:	0b83156c 	bleq	fe0c69f4 <__bss_end+0x7e0c1bd4>
    1440:	092e0000 	stmdbeq	lr!, {}	; <UNPREDICTABLE>
    1444:	00048000 	andeq	r8, r4, r0
    1448:	02c80000 	sbceq	r0, r8, #0
    144c:	380c0000 	stmdacc	ip, {}	; <UNPREDICTABLE>
    1450:	9400000d 	strls	r0, [r0], #-13
    1454:	8000084e 	andhi	r0, r0, lr, asr #16
    1458:	00000026 	andeq	r0, r0, r6, lsr #32
    145c:	0a7c9c01 	beq	1f28468 <shift+0x1f28468>
    1460:	6e160000 	cdpvs	0, 1, cr0, cr6, cr0, {0}
    1464:	83229400 			; <UNDEFINED> instruction: 0x83229400
    1468:	02000000 	andeq	r0, r0, #0
    146c:	17007491 			; <UNDEFINED> instruction: 0x17007491
    1470:	00000854 	andeq	r0, r0, r4, asr r8
    1474:	00082c89 	andeq	r2, r8, r9, lsl #25
    1478:	00002280 	andeq	r2, r0, r0, lsl #5
    147c:	9d9c0100 	ldflss	f0, [ip]
    1480:	1600000a 	strne	r0, [r0], -sl
    1484:	2889006e 	stmcs	r9, {r1, r2, r3, r5, r6}
    1488:	00000083 	andeq	r0, r0, r3, lsl #1
    148c:	00749102 	rsbseq	r9, r4, r2, lsl #2
    1490:	0000e10c 	andeq	lr, r0, ip, lsl #2
    1494:	07fa7b00 	ldrbeq	r7, [sl, r0, lsl #22]!
    1498:	00328000 	eorseq	r8, r2, r0
    149c:	9c010000 	stcls	0, cr0, [r1], {-0}
    14a0:	00000acd 	andeq	r0, r0, sp, asr #21
    14a4:	000d360d 	andeq	r3, sp, sp, lsl #12
    14a8:	7c1b7b00 			; <UNDEFINED> instruction: 0x7c1b7b00
    14ac:	02000000 	andeq	r0, r0, #0
    14b0:	69266c91 	stmdbvs	r6!, {r0, r4, r7, sl, fp, sp, lr}
    14b4:	067d0100 	ldrbteq	r0, [sp], -r0, lsl #2
    14b8:	00000040 	andeq	r0, r0, r0, asr #32
    14bc:	00749102 	rsbseq	r9, r4, r2, lsl #2
    14c0:	000b8217 	andeq	r8, fp, r7, lsl r2
    14c4:	078e6000 	streq	r6, [lr, r0]
    14c8:	006c8000 	rsbeq	r8, ip, r0
    14cc:	9c010000 	stcls	0, cr0, [r1], {-0}
    14d0:	00000b1a 	andeq	r0, r0, sl, lsl fp
    14d4:	00071b0d 	andeq	r1, r7, sp, lsl #22
    14d8:	7c1e6000 	ldcvc	0, cr6, [lr], {-0}
    14dc:	02000000 	andeq	r0, r0, #0
    14e0:	7b0f6491 	blvc	3da72c <shift+0x3da72c>
    14e4:	62000009 	andvs	r0, r0, #9
    14e8:	00050110 	andeq	r0, r5, r0, lsl r1
    14ec:	74910200 	ldrvc	r0, [r1], #512	; 0x200
    14f0:	0010950f 	andseq	r9, r0, pc, lsl #10
    14f4:	01176200 	tsteq	r7, r0, lsl #4
    14f8:	02000005 	andeq	r0, r0, #5
    14fc:	390f6c91 	stmdbcc	pc, {r0, r4, r7, sl, fp, sp, lr}	; <UNPREDICTABLE>
    1500:	63000008 	movwvs	r0, #8
    1504:	00050110 	andeq	r0, r5, r0, lsl r1
    1508:	70910200 	addsvc	r0, r1, r0, lsl #4
    150c:	007a2700 	rsbseq	r2, sl, r0, lsl #14
    1510:	09010000 	stmdbeq	r1, {}	; <UNPREDICTABLE>
    1514:	00071406 	andeq	r1, r7, r6, lsl #8
    1518:	00007a80 	andeq	r7, r0, r0, lsl #21
    151c:	189c0100 	ldmne	ip, {r8}
    1520:	00000a41 	andeq	r0, r0, r1, asr #20
    1524:	0b5b02c6 	bleq	16c2044 <shift+0x16c2044>
    1528:	a7100000 	ldrge	r0, [r0, -r0]
    152c:	c600000f 	strgt	r0, [r0], -pc
    1530:	043a3d02 	ldrteq	r3, [sl], #-3330	; 0xfffff2fe
    1534:	82100000 	andshi	r0, r0, #0
    1538:	c600000e 	strgt	r0, [r0], -lr
    153c:	00664c02 	rsbeq	r4, r6, r2, lsl #24
    1540:	67190000 	ldrvs	r0, [r9, -r0]
    1544:	c8006369 	stmdagt	r0, {r0, r3, r5, r6, r8, r9, sp, lr}
    1548:	000b5b02 	andeq	r5, fp, r2, lsl #22
    154c:	610a0000 	mrsvs	r0, (UNDEF: 10)
    1550:	18000009 	stmdane	r0, {r0, r3}
    1554:	00000870 	andeq	r0, r0, r0, ror r8
    1558:	0b830285 	bleq	fe0c1f74 <__bss_end+0x7e0bd154>
    155c:	a7100000 	ldrge	r0, [r0, -r0]
    1560:	8500000f 	strhi	r0, [r0, #-15]
    1564:	043a3b02 	ldrteq	r3, [sl], #-2818	; 0xfffff4fe
    1568:	67190000 	ldrvs	r0, [r9, -r0]
    156c:	87006369 	strhi	r6, [r0, -r9, ror #6]
    1570:	000b5b02 	andeq	r5, fp, r2, lsl #22
    1574:	65280000 	strvs	r0, [r8, #-0]!
    1578:	02000006 	andeq	r0, r0, #6
    157c:	6627020d 	strtvs	r0, [r7], -sp, lsl #4
    1580:	03000000 	movweq	r0, #0
    1584:	00021000 	andeq	r1, r2, r0
    1588:	01000500 	tsteq	r0, r0, lsl #10
    158c:	0005a604 	andeq	sl, r5, r4, lsl #12
    1590:	00e90500 	rsceq	r0, r9, r0, lsl #10
    1594:	dd1d0000 	ldcle	0, cr0, [sp, #-0]
    1598:	10000011 	andne	r0, r0, r1, lsl r0
    159c:	ac000000 	stcge	0, cr0, [r0], {-0}
    15a0:	2c800009 	stccs	0, cr0, [r0], {9}
    15a4:	e4000001 	str	r0, [r0], #-1
    15a8:	02000005 	andeq	r0, r0, #5
    15ac:	00a10601 	adceq	r0, r1, r1, lsl #12
    15b0:	02020000 	andeq	r0, r2, #0
    15b4:	00014505 	andeq	r4, r1, r5, lsl #10
    15b8:	05040600 	streq	r0, [r4, #-1536]	; 0xfffffa00
    15bc:	00746e69 	rsbseq	r6, r4, r9, ror #28
    15c0:	9f080102 	svcls	0x00080102
    15c4:	02000000 	andeq	r0, r0, #0
    15c8:	00ce0702 	sbceq	r0, lr, r2, lsl #14
    15cc:	21070000 	mrscs	r0, (UNDEF: 7)
    15d0:	04000003 	streq	r0, [r0], #-3
    15d4:	005a1610 	subseq	r1, sl, r0, lsl r6
    15d8:	49080000 	stmdbmi	r8, {}	; <UNPREDICTABLE>
    15dc:	02000000 	andeq	r0, r0, #0
    15e0:	00c10704 	sbceq	r0, r1, r4, lsl #14
    15e4:	08020000 	stmdaeq	r2, {}	; <UNPREDICTABLE>
    15e8:	0000b707 	andeq	fp, r0, r7, lsl #14
    15ec:	05080200 	streq	r0, [r8, #-512]	; 0xfffffe00
    15f0:	0000004d 	andeq	r0, r0, sp, asr #32
    15f4:	a6032009 	strge	r2, [r3], -r9
    15f8:	00d90934 	sbcseq	r0, r9, r4, lsr r9
    15fc:	44030000 	strmi	r0, [r3], #-0
    1600:	34a70052 	strtcc	r0, [r7], #82	; 0x52
    1604:	00000055 	andeq	r0, r0, r5, asr r0
    1608:	052a0400 	streq	r0, [sl, #-1024]!	; 0xfffffc00
    160c:	34a80000 	strtcc	r0, [r8], #0
    1610:	00000055 	andeq	r0, r0, r5, asr r0
    1614:	53500304 	cmppl	r0, #4, 6	; 0x10000000
    1618:	34a90052 	strtcc	r0, [r9], #82	; 0x52
    161c:	00000055 	andeq	r0, r0, r5, asr r0
    1620:	05d00408 	ldrbeq	r0, [r0, #1032]	; 0x408
    1624:	34aa0000 	strtcc	r0, [sl], #0
    1628:	00000055 	andeq	r0, r0, r5, asr r0
    162c:	05d5040c 	ldrbeq	r0, [r5, #1036]	; 0x40c
    1630:	34ab0000 	strtcc	r0, [fp], #0
    1634:	00000055 	andeq	r0, r0, r5, asr r0
    1638:	4d490310 	stclmi	3, cr0, [r9, #-64]	; 0xffffffc0
    163c:	34ac0052 	strtcc	r0, [ip], #82	; 0x52
    1640:	00000055 	andeq	r0, r0, r5, asr r0
    1644:	53490314 	movtpl	r0, #37652	; 0x9314
    1648:	34ad0052 	strtcc	r0, [sp], #82	; 0x52
    164c:	00000055 	andeq	r0, r0, r5, asr r0
    1650:	05c70418 	strbeq	r0, [r7, #1048]	; 0x418
    1654:	34ae0000 	strtcc	r0, [lr], #0
    1658:	00000055 	andeq	r0, r0, r5, asr r0
    165c:	730a001c 	movwvc	r0, #40988	; 0xa01c
    1660:	03000005 	movweq	r0, #5
    1664:	6f0334af 	svcvs	0x000334af
    1668:	02000000 	andeq	r0, r0, #0
    166c:	00bc0704 	adcseq	r0, ip, r4, lsl #14
    1670:	04020000 	streq	r0, [r2], #-0
    1674:	00005205 	andeq	r5, r0, r5, lsl #4
    1678:	08010200 	stmdaeq	r1, {r9}
    167c:	000000a8 	andeq	r0, r0, r8, lsr #1
    1680:	0011c70b 	andseq	ip, r1, fp, lsl #14
    1684:	061c0200 	ldreq	r0, [ip], -r0, lsl #4
    1688:	80000a86 	andhi	r0, r0, r6, lsl #21
    168c:	00000052 	andeq	r0, r0, r2, asr r0
    1690:	01219c01 			; <UNDEFINED> instruction: 0x01219c01
    1694:	c00c0000 	andgt	r0, ip, r0
    1698:	02000011 	andeq	r0, r0, #17
    169c:	0034161c 	eorseq	r1, r4, ip, lsl r6
    16a0:	91020000 	mrsls	r0, (UNDEF: 2)
    16a4:	d30d0074 	movwle	r0, #53364	; 0xd074
    16a8:	02000011 	andeq	r0, r0, #17
    16ac:	0a100608 	beq	402ed4 <shift+0x402ed4>
    16b0:	00768000 	rsbseq	r8, r6, r0
    16b4:	9c010000 	stcls	0, cr0, [r1], {-0}
    16b8:	0005980e 	andeq	r9, r5, lr, lsl #16
    16bc:	04440100 	strbeq	r0, [r4], #-256	; 0xffffff00
    16c0:	0009ea14 	andeq	lr, r9, r4, lsl sl
    16c4:	00002680 	andeq	r2, r0, r0, lsl #13
    16c8:	a59c0100 	ldrge	r0, [ip, #256]	; 0x100
    16cc:	01000001 	tsteq	r0, r1
    16d0:	0000052f 	andeq	r0, r0, pc, lsr #10
    16d4:	49310444 	ldmdbmi	r1!, {r2, r6, sl}
    16d8:	02000000 	andeq	r0, r0, #0
    16dc:	0b017491 	bleq	5e928 <shift+0x5e928>
    16e0:	45000005 	strmi	r0, [r0, #-5]
    16e4:	00493104 	subeq	r3, r9, r4, lsl #2
    16e8:	91020000 	mrsls	r0, (UNDEF: 2)
    16ec:	05130170 	ldreq	r0, [r3, #-368]	; 0xfffffe90
    16f0:	04460000 	strbeq	r0, [r6], #-0
    16f4:	00004931 	andeq	r4, r0, r1, lsr r9
    16f8:	6c910200 	lfmvs	f0, 4, [r1], {0}
    16fc:	00056801 	andeq	r6, r5, r1, lsl #16
    1700:	31044700 	tstcc	r4, r0, lsl #14
    1704:	00000049 	andeq	r0, r0, r9, asr #32
    1708:	01689102 	cmneq	r8, r2, lsl #2
    170c:	000005ac 	andeq	r0, r0, ip, lsr #11
    1710:	49310448 	ldmdbmi	r1!, {r3, r6, sl}
    1714:	02000000 	andeq	r0, r0, #0
    1718:	bb010091 	bllt	41964 <shift+0x41964>
    171c:	49000005 	stmdbmi	r0, {r0, r2}
    1720:	00493104 	subeq	r3, r9, r4, lsl #2
    1724:	91020000 	mrsls	r0, (UNDEF: 2)
    1728:	500f0004 	andpl	r0, pc, r4
    172c:	01000005 	tsteq	r0, r5
    1730:	ac140424 	cfldrsge	mvf0, [r4], {36}	; 0x24
    1734:	3e800009 	cdpcc	0, 8, cr0, cr0, cr9, {0}
    1738:	01000000 	mrseq	r0, (UNDEF: 0)
    173c:	052f019c 	streq	r0, [pc, #-412]!	; 15a8 <shift+0x15a8>
    1740:	04240000 	strteq	r0, [r4], #-0
    1744:	0000492e 	andeq	r4, r0, lr, lsr #18
    1748:	74910200 	ldrvc	r0, [r1], #512	; 0x200
    174c:	00050b01 	andeq	r0, r5, r1, lsl #22
    1750:	2e042500 	cfsh32cs	mvfx2, mvfx4, #0
    1754:	00000049 	andeq	r0, r0, r9, asr #32
    1758:	01709102 	cmneq	r0, r2, lsl #2
    175c:	00000513 	andeq	r0, r0, r3, lsl r5
    1760:	492e0426 	stmdbmi	lr!, {r1, r2, r5, sl}
    1764:	02000000 	andeq	r0, r0, #0
    1768:	68016c91 	stmdavs	r1, {r0, r4, r7, sl, fp, sp, lr}
    176c:	27000005 	strcs	r0, [r0, -r5]
    1770:	00492e04 	subeq	r2, r9, r4, lsl #28
    1774:	91020000 	mrsls	r0, (UNDEF: 2)
    1778:	05ac0168 	streq	r0, [ip, #360]!	; 0x168
    177c:	04280000 	strteq	r0, [r8], #-0
    1780:	0000492e 	andeq	r4, r0, lr, lsr #18
    1784:	00910200 	addseq	r0, r1, r0, lsl #4
    1788:	00054301 	andeq	r4, r5, r1, lsl #6
    178c:	2e042900 	vmlacs.f16	s4, s8, s0	; <UNPREDICTABLE>
    1790:	00000049 	andeq	r0, r0, r9, asr #32
    1794:	00049102 	andeq	r9, r4, r2, lsl #2
    1798:	00038b00 	andeq	r8, r3, r0, lsl #22
    179c:	01000500 	tsteq	r0, r0, lsl #10
    17a0:	0006b104 	andeq	fp, r6, r4, lsl #2
    17a4:	00e90c00 	rsceq	r0, r9, r0, lsl #24
    17a8:	6e1d0000 	cdpvs	0, 1, cr0, cr13, cr0, {0}
    17ac:	10000013 	andne	r0, r0, r3, lsl r0
    17b0:	d8000000 	stmdale	r0, {}	; <UNPREDICTABLE>
    17b4:	7480000a 	strvc	r0, [r0], #10
    17b8:	ab000002 	blge	17c8 <shift+0x17c8>
    17bc:	02000006 	andeq	r0, r0, #6
    17c0:	00a10601 	adceq	r0, r1, r1, lsl #12
    17c4:	02020000 	andeq	r0, r2, #0
    17c8:	00014505 	andeq	r4, r1, r5, lsl #10
    17cc:	05040d00 	streq	r0, [r4, #-3328]	; 0xfffff300
    17d0:	00746e69 	rsbseq	r6, r4, r9, ror #28
    17d4:	00024806 	andeq	r4, r2, r6, lsl #16
    17d8:	170e0200 	strne	r0, [lr, -r0, lsl #4]
    17dc:	00000047 	andeq	r0, r0, r7, asr #32
    17e0:	9f080102 	svcls	0x00080102
    17e4:	02000000 	andeq	r0, r0, #0
    17e8:	00ce0702 	sbceq	r0, lr, r2, lsl #14
    17ec:	21060000 	mrscs	r0, (UNDEF: 6)
    17f0:	02000003 	andeq	r0, r0, #3
    17f4:	00661610 	rsbeq	r1, r6, r0, lsl r6
    17f8:	550e0000 	strpl	r0, [lr, #-0]
    17fc:	02000000 	andeq	r0, r0, #0
    1800:	00c10704 	sbceq	r0, r1, r4, lsl #14
    1804:	08020000 	stmdaeq	r2, {}	; <UNPREDICTABLE>
    1808:	0000b707 	andeq	fp, r0, r7, lsl #14
    180c:	05080200 	streq	r0, [r8, #-512]	; 0xfffffe00
    1810:	0000004d 	andeq	r0, r0, sp, asr #32
    1814:	a603200f 	strge	r2, [r3], -pc
    1818:	00e50934 	rsceq	r0, r5, r4, lsr r9
    181c:	44070000 	strmi	r0, [r7], #-0
    1820:	34a70052 	strtcc	r0, [r7], #82	; 0x52
    1824:	00000061 	andeq	r0, r0, r1, rrx
    1828:	052a0800 	streq	r0, [sl, #-2048]!	; 0xfffff800
    182c:	34a80000 	strtcc	r0, [r8], #0
    1830:	00000061 	andeq	r0, r0, r1, rrx
    1834:	53500704 	cmppl	r0, #4, 14	; 0x100000
    1838:	34a90052 	strtcc	r0, [r9], #82	; 0x52
    183c:	00000061 	andeq	r0, r0, r1, rrx
    1840:	05d00808 	ldrbeq	r0, [r0, #2056]	; 0x808
    1844:	34aa0000 	strtcc	r0, [sl], #0
    1848:	00000061 	andeq	r0, r0, r1, rrx
    184c:	05d5080c 	ldrbeq	r0, [r5, #2060]	; 0x80c
    1850:	34ab0000 	strtcc	r0, [fp], #0
    1854:	00000061 	andeq	r0, r0, r1, rrx
    1858:	4d490710 	stclmi	7, cr0, [r9, #-64]	; 0xffffffc0
    185c:	34ac0052 	strtcc	r0, [ip], #82	; 0x52
    1860:	00000061 	andeq	r0, r0, r1, rrx
    1864:	53490714 	movtpl	r0, #38676	; 0x9714
    1868:	34ad0052 	strtcc	r0, [sp], #82	; 0x52
    186c:	00000061 	andeq	r0, r0, r1, rrx
    1870:	05c70818 	strbeq	r0, [r7, #2072]	; 0x818
    1874:	34ae0000 	strtcc	r0, [lr], #0
    1878:	00000061 	andeq	r0, r0, r1, rrx
    187c:	7310001c 	tstvc	r0, #28
    1880:	03000005 	movweq	r0, #5
    1884:	7b0334af 	blvc	ceb48 <shift+0xceb48>
    1888:	02000000 	andeq	r0, r0, #0
    188c:	00bc0704 	adcseq	r0, ip, r4, lsl #14
    1890:	04020000 	streq	r0, [r2], #-0
    1894:	00005205 	andeq	r5, r0, r5, lsl #4
    1898:	08010200 	stmdaeq	r1, {r9}
    189c:	000000a8 	andeq	r0, r0, r8, lsr #1
    18a0:	0012030b 	andseq	r0, r2, fp, lsl #6
    18a4:	00006600 	andeq	r6, r0, r0, lsl #12
    18a8:	01220700 			; <UNDEFINED> instruction: 0x01220700
    18ac:	6a030000 	bvs	c18b4 <shift+0xc18b4>
    18b0:	00000012 	andeq	r0, r0, r2, lsl r0
    18b4:	00138203 	andseq	r8, r3, r3, lsl #4
    18b8:	06000100 	streq	r0, [r0], -r0, lsl #2
    18bc:	0000130d 	andeq	r1, r0, sp, lsl #6
    18c0:	07030b04 	streq	r0, [r3, -r4, lsl #22]
    18c4:	0b000001 	bleq	18d0 <shift+0x18d0>
    18c8:	00001359 	andeq	r1, r0, r9, asr r3
    18cc:	00000066 	andeq	r0, r0, r6, rrx
    18d0:	00016110 	andeq	r6, r1, r0, lsl r1
    18d4:	13960300 	orrsne	r0, r6, #0, 6
    18d8:	03000000 	movweq	r0, #0
    18dc:	000011f1 	strdeq	r1, [r0], -r1	; <UNPREDICTABLE>
    18e0:	124a0301 	subne	r0, sl, #67108864	; 0x4000000
    18e4:	03020000 	movweq	r0, #8192	; 0x2000
    18e8:	000012b4 			; <UNDEFINED> instruction: 0x000012b4
    18ec:	127d0303 	rsbsne	r0, sp, #201326592	; 0xc000000
    18f0:	03040000 	movweq	r0, #16384	; 0x4000
    18f4:	00001217 	andeq	r1, r0, r7, lsl r2
    18f8:	34060005 	strcc	r0, [r6], #-5
    18fc:	04000012 	streq	r0, [r0], #-18	; 0xffffffee
    1900:	012e0318 			; <UNDEFINED> instruction: 0x012e0318
    1904:	22110000 	andscs	r0, r1, #0
    1908:	0c000013 	stceq	0, cr0, [r0], {19}
    190c:	9f101b04 	svcls	0x00101b04
    1910:	09000001 	stmdbeq	r0, {r0}
    1914:	0000120d 	andeq	r1, r0, sp, lsl #4
    1918:	01221a1c 			; <UNDEFINED> instruction: 0x01221a1c
    191c:	09000000 	stmdbeq	r0, {}	; <UNPREDICTABLE>
    1920:	000012da 	ldrdeq	r1, [r0], -sl
    1924:	003b0d1d 	eorseq	r0, fp, sp, lsl sp
    1928:	09040000 	stmdbeq	r4, {}	; <UNPREDICTABLE>
    192c:	000012f5 	strdeq	r1, [r0], -r5
    1930:	01611b1e 	cmneq	r1, lr, lsl fp
    1934:	00080000 	andeq	r0, r8, r0
    1938:	0012c806 	andseq	ip, r2, r6, lsl #16
    193c:	021f0400 	andseq	r0, pc, #0, 8
    1940:	0000016d 	andeq	r0, r0, sp, ror #2
    1944:	00134305 	andseq	r4, r3, r5, lsl #6
    1948:	0d226e00 	stceq	14, cr6, [r2, #-0]
    194c:	002a8000 	eoreq	r8, sl, r0
    1950:	9c010000 	stcls	0, cr0, [r1], {-0}
    1954:	000001dc 	ldrdeq	r0, [r0], -ip
    1958:	001d7201 	andseq	r7, sp, r1, lsl #4
    195c:	dc1e6e00 	ldcle	14, cr6, [lr], {-0}
    1960:	02000001 	andeq	r0, r0, #1
    1964:	70047491 	mulvc	r4, r1, r4
    1968:	6e006e69 	cdpvs	14, 0, cr6, cr0, cr9, {3}
    196c:	00006631 	andeq	r6, r0, r1, lsr r6
    1970:	70910200 	addsvc	r0, r1, r0, lsl #4
    1974:	00e50a00 	rsceq	r0, r5, r0, lsl #20
    1978:	92050000 	andls	r0, r5, #0
    197c:	69000012 	stmdbvs	r0, {r1, r4}
    1980:	80000cfa 	strdhi	r0, [r0], -sl
    1984:	00000028 	andeq	r0, r0, r8, lsr #32
    1988:	02129c01 	andseq	r9, r2, #256	; 0x100
    198c:	72010000 	andvc	r0, r1, #0
    1990:	6900001d 	stmdbvs	r0, {r0, r2, r3, r4}
    1994:	0001dc24 	andeq	sp, r1, r4, lsr #24
    1998:	74910200 	ldrvc	r0, [r1], #512	; 0x200
    199c:	6e697004 	cdpvs	0, 6, cr7, cr9, cr4, {0}
    19a0:	66376900 	ldrtvs	r6, [r7], -r0, lsl #18
    19a4:	02000000 	andeq	r0, r0, #0
    19a8:	05007091 	streq	r7, [r0, #-145]	; 0xffffff6f
    19ac:	00001333 	andeq	r1, r0, r3, lsr r3
    19b0:	000cd05e 	andeq	sp, ip, lr, asr r0
    19b4:	00002a80 	andeq	r2, r0, r0, lsl #21
    19b8:	439c0100 	orrsmi	r0, ip, #0, 2
    19bc:	01000002 	tsteq	r0, r2
    19c0:	00001d72 	andeq	r1, r0, r2, ror sp
    19c4:	01dc215e 	bicseq	r2, ip, lr, asr r1
    19c8:	91020000 	mrsls	r0, (UNDEF: 2)
    19cc:	69700474 	ldmdbvs	r0!, {r2, r4, r5, r6, sl}^
    19d0:	345e006e 	ldrbcc	r0, [lr], #-110	; 0xffffff92
    19d4:	00000066 	andeq	r0, r0, r6, rrx
    19d8:	00709102 	rsbseq	r9, r0, r2, lsl #2
    19dc:	0012a505 	andseq	sl, r2, r5, lsl #10
    19e0:	0ca85300 	stceq	3, cr5, [r8]
    19e4:	00288000 	eoreq	r8, r8, r0
    19e8:	9c010000 	stcls	0, cr0, [r1], {-0}
    19ec:	00000274 	andeq	r0, r0, r4, ror r2
    19f0:	001d7201 	andseq	r7, sp, r1, lsl #4
    19f4:	dc205300 	stcle	3, cr5, [r0], #-0
    19f8:	02000001 	andeq	r0, r0, #1
    19fc:	70047491 	mulvc	r4, r1, r4
    1a00:	53006e69 	movwpl	r6, #3689	; 0xe69
    1a04:	00006633 	andeq	r6, r0, r3, lsr r6
    1a08:	70910200 	addsvc	r0, r1, r0, lsl #4
    1a0c:	12e60500 	rscne	r0, r6, #0, 10
    1a10:	aa250000 	bge	941a18 <shift+0x941a18>
    1a14:	fe80000b 	cdp2	0, 8, cr0, cr0, cr11, {0}
    1a18:	01000000 	mrseq	r0, (UNDEF: 0)
    1a1c:	0002d19c 	muleq	r2, ip, r1
    1a20:	1d720100 	ldfnee	f0, [r2, #-0]
    1a24:	20250000 	eorcs	r0, r5, r0
    1a28:	000001dc 	ldrdeq	r0, [r0], -ip
    1a2c:	046c9102 	strbteq	r9, [ip], #-258	; 0xfffffefe
    1a30:	006e6970 	rsbeq	r6, lr, r0, ror r9
    1a34:	00663325 	rsbeq	r3, r6, r5, lsr #6
    1a38:	91020000 	mrsls	r0, (UNDEF: 2)
    1a3c:	125d0168 	subsne	r0, sp, #104, 2
    1a40:	4e250000 	cdpmi	0, 2, cr0, cr5, cr0, {0}
    1a44:	00000161 	andeq	r0, r0, r1, ror #2
    1a48:	12649102 	rsbne	r9, r4, #-2147483648	; 0x80000000
    1a4c:	00726369 	rsbseq	r6, r2, r9, ror #6
    1a50:	d1152701 	tstle	r5, r1, lsl #14
    1a54:	02000002 	andeq	r0, r0, #2
    1a58:	50137491 	mulspl	r3, r1, r4
    1a5c:	01000013 	tsteq	r0, r3, lsl r0
    1a60:	00550b28 	subseq	r0, r5, r8, lsr #22
    1a64:	91020000 	mrsls	r0, (UNDEF: 2)
    1a68:	610a0070 	tstvs	sl, r0, ror r0
    1a6c:	14000000 	strne	r0, [r0], #-0
    1a70:	00001303 	andeq	r1, r0, r3, lsl #6
    1a74:	42060f01 	andmi	r0, r6, #1, 30
    1a78:	6880000b 	stmvs	r0, {r0, r1, r3}
    1a7c:	01000000 	mrseq	r0, (UNDEF: 0)
    1a80:	0003179c 	muleq	r3, ip, r7
    1a84:	1d720100 	ldfnee	f0, [r2, #-0]
    1a88:	1b0f0000 	blne	3c1a90 <shift+0x3c1a90>
    1a8c:	000001dc 	ldrdeq	r0, [r0], -ip
    1a90:	04749102 	ldrbteq	r9, [r4], #-258	; 0xfffffefe
    1a94:	006e6970 	rsbeq	r6, lr, r0, ror r9
    1a98:	0034250f 	eorseq	r2, r4, pc, lsl #10
    1a9c:	91020000 	mrsls	r0, (UNDEF: 2)
    1aa0:	132c0170 			; <UNDEFINED> instruction: 0x132c0170
    1aa4:	3d0f0000 	stccc	0, cr0, [pc, #-0]	; 1aac <shift+0x1aac>
    1aa8:	00000317 	andeq	r0, r0, r7, lsl r3
    1aac:	006c9102 	rsbeq	r9, ip, r2, lsl #2
    1ab0:	00019f0a 	andeq	r9, r1, sl, lsl #30
    1ab4:	058a0500 	streq	r0, [sl, #1280]	; 0x500
    1ab8:	fc070000 	stc2	0, cr0, [r7], {-0}
    1abc:	4680000a 	strmi	r0, [r0], sl
    1ac0:	01000000 	mrseq	r0, (UNDEF: 0)
    1ac4:	00035b9c 	muleq	r3, ip, fp
    1ac8:	1d720100 	ldfnee	f0, [r2, #-0]
    1acc:	1f070000 	svcne	0x00070000
    1ad0:	000001dc 	ldrdeq	r0, [r0], -ip
    1ad4:	04749102 	ldrbteq	r9, [r4], #-258	; 0xfffffefe
    1ad8:	006e6970 	rsbeq	r6, lr, r0, ror r9
    1adc:	00342907 	eorseq	r2, r4, r7, lsl #18
    1ae0:	91020000 	mrsls	r0, (UNDEF: 2)
    1ae4:	13aa0170 			; <UNDEFINED> instruction: 0x13aa0170
    1ae8:	32070000 	andcc	r0, r7, #0
    1aec:	00000034 	andeq	r0, r0, r4, lsr r0
    1af0:	006c9102 	rsbeq	r9, ip, r2, lsl #2
    1af4:	00057d15 	andeq	r7, r5, r5, lsl sp
    1af8:	05030100 	streq	r0, [r3, #-256]	; 0xffffff00
    1afc:	00000034 	andeq	r0, r0, r4, lsr r0
    1b00:	80000ad8 	ldrdhi	r0, [r0], -r8
    1b04:	00000024 	andeq	r0, r0, r4, lsr #32
    1b08:	72019c01 	andvc	r9, r1, #256	; 0x100
    1b0c:	0300001d 	movweq	r0, #29
    1b10:	0001dc1d 	andeq	sp, r1, sp, lsl ip
    1b14:	74910200 	ldrvc	r0, [r1], #512	; 0x200
    1b18:	6e697004 	cdpvs	0, 6, cr7, cr9, cr4, {0}
    1b1c:	34270300 	strtcc	r0, [r7], #-768	; 0xfffffd00
    1b20:	02000000 	andeq	r0, r0, #0
    1b24:	00007091 	muleq	r0, r1, r0
    1b28:	00000368 	andeq	r0, r0, r8, ror #6
    1b2c:	04010005 	streq	r0, [r1], #-5
    1b30:	0000081d 	andeq	r0, r0, sp, lsl r8
    1b34:	0000e90e 	andeq	lr, r0, lr, lsl #18
    1b38:	13eb1d00 	mvnne	r1, #0, 26
    1b3c:	00100000 	andseq	r0, r0, r0
    1b40:	0d4c0000 	stcleq	0, cr0, [ip, #-0]
    1b44:	01508000 	cmpeq	r0, r0
    1b48:	08460000 	stmdaeq	r6, {}^	; <UNPREDICTABLE>
    1b4c:	01020000 	mrseq	r0, (UNDEF: 2)
    1b50:	0000a106 	andeq	sl, r0, r6, lsl #2
    1b54:	05020200 	streq	r0, [r2, #-512]	; 0xfffffe00
    1b58:	00000145 	andeq	r0, r0, r5, asr #2
    1b5c:	6905040f 	stmdbvs	r5, {r0, r1, r2, r3, sl}
    1b60:	0400746e 	streq	r7, [r0], #-1134	; 0xfffffb92
    1b64:	00000248 	andeq	r0, r0, r8, asr #4
    1b68:	47170e03 	ldrmi	r0, [r7, -r3, lsl #28]
    1b6c:	02000000 	andeq	r0, r0, #0
    1b70:	009f0801 	addseq	r0, pc, r1, lsl #16
    1b74:	02020000 	andeq	r0, r2, #0
    1b78:	0000ce07 	andeq	ip, r0, r7, lsl #28
    1b7c:	03210400 			; <UNDEFINED> instruction: 0x03210400
    1b80:	10030000 	andne	r0, r3, r0
    1b84:	00006616 	andeq	r6, r0, r6, lsl r6
    1b88:	00550a00 	subseq	r0, r5, r0, lsl #20
    1b8c:	04020000 	streq	r0, [r2], #-0
    1b90:	0000c107 	andeq	ip, r0, r7, lsl #2
    1b94:	00660a00 	rsbeq	r0, r6, r0, lsl #20
    1b98:	08020000 	stmdaeq	r2, {}	; <UNPREDICTABLE>
    1b9c:	0000b707 	andeq	fp, r0, r7, lsl #14
    1ba0:	05080200 	streq	r0, [r8, #-512]	; 0xfffffe00
    1ba4:	0000004d 	andeq	r0, r0, sp, asr #32
    1ba8:	a6042010 			; <UNDEFINED> instruction: 0xa6042010
    1bac:	00ea0934 	rsceq	r0, sl, r4, lsr r9
    1bb0:	44060000 	strmi	r0, [r6], #-0
    1bb4:	34a70052 	strtcc	r0, [r7], #82	; 0x52
    1bb8:	00000061 	andeq	r0, r0, r1, rrx
    1bbc:	052a0700 	streq	r0, [sl, #-1792]!	; 0xfffff900
    1bc0:	34a80000 	strtcc	r0, [r8], #0
    1bc4:	00000061 	andeq	r0, r0, r1, rrx
    1bc8:	53500604 	cmppl	r0, #4, 12	; 0x400000
    1bcc:	34a90052 	strtcc	r0, [r9], #82	; 0x52
    1bd0:	00000061 	andeq	r0, r0, r1, rrx
    1bd4:	05d00708 	ldrbeq	r0, [r0, #1800]	; 0x708
    1bd8:	34aa0000 	strtcc	r0, [sl], #0
    1bdc:	00000061 	andeq	r0, r0, r1, rrx
    1be0:	05d5070c 	ldrbeq	r0, [r5, #1804]	; 0x70c
    1be4:	34ab0000 	strtcc	r0, [fp], #0
    1be8:	00000061 	andeq	r0, r0, r1, rrx
    1bec:	4d490610 	stclmi	6, cr0, [r9, #-64]	; 0xffffffc0
    1bf0:	34ac0052 	strtcc	r0, [ip], #82	; 0x52
    1bf4:	00000061 	andeq	r0, r0, r1, rrx
    1bf8:	53490614 	movtpl	r0, #38420	; 0x9614
    1bfc:	34ad0052 	strtcc	r0, [sp], #82	; 0x52
    1c00:	00000061 	andeq	r0, r0, r1, rrx
    1c04:	05c70718 	strbeq	r0, [r7, #1816]	; 0x718
    1c08:	34ae0000 	strtcc	r0, [lr], #0
    1c0c:	00000061 	andeq	r0, r0, r1, rrx
    1c10:	7311001c 	tstvc	r1, #28
    1c14:	04000005 	streq	r0, [r0], #-5
    1c18:	800334af 	andhi	r3, r3, pc, lsr #9
    1c1c:	02000000 	andeq	r0, r0, #0
    1c20:	00bc0704 	adcseq	r0, ip, r4, lsl #14
    1c24:	04020000 	streq	r0, [r2], #-0
    1c28:	00005205 	andeq	r5, r0, r5, lsl #4
    1c2c:	08010200 	stmdaeq	r1, {r9}
    1c30:	000000a8 	andeq	r0, r0, r8, lsr #1
    1c34:	00120308 	andseq	r0, r2, r8, lsl #6
    1c38:	00006600 	andeq	r6, r0, r0, lsl #12
    1c3c:	28070500 	stmdacs	r7, {r8, sl}
    1c40:	03000001 	movweq	r0, #1
    1c44:	0000126a 	andeq	r1, r0, sl, ror #4
    1c48:	13820300 	orrne	r0, r2, #0, 6
    1c4c:	00010000 	andeq	r0, r1, r0
    1c50:	00130d04 	andseq	r0, r3, r4, lsl #26
    1c54:	030b0500 	movweq	r0, #46336	; 0xb500
    1c58:	0000010c 	andeq	r0, r0, ip, lsl #2
    1c5c:	00135908 	andseq	r5, r3, r8, lsl #18
    1c60:	00006600 	andeq	r6, r0, r0, lsl #12
    1c64:	68100500 	ldmdavs	r0, {r8, sl}
    1c68:	03000001 	movweq	r0, #1
    1c6c:	00001396 	muleq	r0, r6, r3
    1c70:	11f10300 	mvnsne	r0, r0, lsl #6
    1c74:	03010000 	movweq	r0, #4096	; 0x1000
    1c78:	0000124a 	andeq	r1, r0, sl, asr #4
    1c7c:	12b40302 	adcsne	r0, r4, #134217728	; 0x8000000
    1c80:	03030000 	movweq	r0, #12288	; 0x3000
    1c84:	0000127d 	andeq	r1, r0, sp, ror r2
    1c88:	12170304 	andsne	r0, r7, #4, 6	; 0x10000000
    1c8c:	00050000 	andeq	r0, r5, r0
    1c90:	00123404 	andseq	r3, r2, r4, lsl #8
    1c94:	03180500 	tsteq	r8, #0, 10
    1c98:	00000134 	andeq	r0, r0, r4, lsr r1
    1c9c:	00132212 	andseq	r2, r3, r2, lsl r2
    1ca0:	1b050c00 	blne	144ca8 <shift+0x144ca8>
    1ca4:	0001a610 	andeq	sl, r1, r0, lsl r6
    1ca8:	120d0900 	andne	r0, sp, #0, 18
    1cac:	1a1c0000 	bne	701cb4 <shift+0x701cb4>
    1cb0:	00000128 	andeq	r0, r0, r8, lsr #2
    1cb4:	12da0900 	sbcsne	r0, sl, #0, 18
    1cb8:	0d1d0000 	ldceq	0, cr0, [sp, #-0]
    1cbc:	0000003b 	andeq	r0, r0, fp, lsr r0
    1cc0:	12f50904 	rscsne	r0, r5, #4, 18	; 0x10000
    1cc4:	1b1e0000 	blne	781ccc <shift+0x781ccc>
    1cc8:	00000168 	andeq	r0, r0, r8, ror #2
    1ccc:	c8040008 	stmdagt	r4, {r3}
    1cd0:	05000012 	streq	r0, [r0, #-18]	; 0xffffffee
    1cd4:	0174021f 	cmneq	r4, pc, lsl r2
    1cd8:	a6080000 	strge	r0, [r8], -r0
    1cdc:	66000013 			; <UNDEFINED> instruction: 0x66000013
    1ce0:	06000000 	streq	r0, [r0], -r0
    1ce4:	0001ce08 	andeq	ip, r1, r8, lsl #28
    1ce8:	13c20300 	bicne	r0, r2, #0, 6
    1cec:	03000000 	movweq	r0, #0
    1cf0:	000013b7 			; <UNDEFINED> instruction: 0x000013b7
    1cf4:	d4040001 	strle	r0, [r4], #-1
    1cf8:	06000013 			; <UNDEFINED> instruction: 0x06000013
    1cfc:	01b2020b 			; <UNDEFINED> instruction: 0x01b2020b
    1d00:	380b0000 	stmdacc	fp, {}	; <UNPREDICTABLE>
    1d04:	0700000d 	streq	r0, [r0, -sp]
    1d08:	0001eb0b 	andeq	lr, r1, fp, lsl #22
    1d0c:	006d0500 	rsbeq	r0, sp, r0, lsl #10
    1d10:	13000000 	movwne	r0, #0
    1d14:	0000057d 	andeq	r0, r0, sp, ror r5
    1d18:	34052405 	strcc	r2, [r5], #-1029	; 0xfffffbfb
    1d1c:	06000000 	streq	r0, [r0], -r0
    1d20:	05000002 	streq	r0, [r0, #-2]
    1d24:	00000206 	andeq	r0, r0, r6, lsl #4
    1d28:	00003405 	andeq	r3, r0, r5, lsl #8
    1d2c:	ea0c0000 	b	301d34 <shift+0x301d34>
    1d30:	0b000000 	bleq	1d38 <shift+0x1d38>
    1d34:	00001303 	andeq	r1, r0, r3, lsl #6
    1d38:	02262305 	eoreq	r2, r6, #335544320	; 0x14000000
    1d3c:	06050000 	streq	r0, [r5], -r0
    1d40:	05000002 	streq	r0, [r0, #-2]
    1d44:	00000034 	andeq	r0, r0, r4, lsr r0
    1d48:	00022605 	andeq	r2, r2, r5, lsl #12
    1d4c:	a60c0000 	strge	r0, [ip], -r0
    1d50:	14000001 	strne	r0, [r0], #-1
    1d54:	000013fd 	strdeq	r1, [r0], -sp
    1d58:	34050f02 	strcc	r0, [r5], #-3842	; 0xfffff0fe
    1d5c:	16000000 	strne	r0, [r0], -r0
    1d60:	8680000e 	strhi	r0, [r0], lr
    1d64:	01000000 	mrseq	r0, (UNDEF: 0)
    1d68:	0002669c 	muleq	r2, ip, r6
    1d6c:	65721500 	ldrbvs	r1, [r2, #-1280]!	; 0xfffffb00
    1d70:	10020074 	andne	r0, r2, r4, ror r0
    1d74:	0001ce11 	andeq	ip, r1, r1, lsl lr
    1d78:	74910200 	ldrvc	r0, [r1], #512	; 0x200
    1d7c:	0013b00d 	andseq	fp, r3, sp
    1d80:	3b141100 	blcc	506188 <shift+0x506188>
    1d84:	05000000 	streq	r0, [r0, #-0]
    1d88:	00400403 	subeq	r0, r0, r3, lsl #8
    1d8c:	cb160080 	blgt	581f94 <shift+0x581f94>
    1d90:	02000013 	andeq	r0, r0, #19
    1d94:	0db00603 	ldceq	6, cr0, [r0, #12]!
    1d98:	00668000 	rsbeq	r8, r6, r0
    1d9c:	9c010000 	stcls	0, cr0, [r1], {-0}
    1da0:	0000028b 	andeq	r0, r0, fp, lsl #5
    1da4:	0013e00d 	andseq	lr, r3, sp
    1da8:	a6170800 	ldrge	r0, [r7], -r0, lsl #16
    1dac:	02000001 	andeq	r0, r0, #1
    1db0:	17006c91 			; <UNDEFINED> instruction: 0x17006c91
    1db4:	00000598 	muleq	r0, r8, r5
    1db8:	14044401 	strne	r4, [r4], #-1025	; 0xfffffbff
    1dbc:	80000d8a 	andhi	r0, r0, sl, lsl #27
    1dc0:	00000026 	andeq	r0, r0, r6, lsr #32
    1dc4:	02fd9c01 	rscseq	r9, sp, #256	; 0x100
    1dc8:	2f010000 	svccs	0x00010000
    1dcc:	44000005 	strmi	r0, [r0], #-5
    1dd0:	00553104 	subseq	r3, r5, r4, lsl #2
    1dd4:	91020000 	mrsls	r0, (UNDEF: 2)
    1dd8:	050b0174 	streq	r0, [fp, #-372]	; 0xfffffe8c
    1ddc:	04450000 	strbeq	r0, [r5], #-0
    1de0:	00005531 	andeq	r5, r0, r1, lsr r5
    1de4:	70910200 	addsvc	r0, r1, r0, lsl #4
    1de8:	00051301 	andeq	r1, r5, r1, lsl #6
    1dec:	31044600 	tstcc	r4, r0, lsl #12
    1df0:	00000055 	andeq	r0, r0, r5, asr r0
    1df4:	016c9102 	cmneq	ip, r2, lsl #2
    1df8:	00000568 	andeq	r0, r0, r8, ror #10
    1dfc:	55310447 	ldrpl	r0, [r1, #-1095]!	; 0xfffffbb9
    1e00:	02000000 	andeq	r0, r0, #0
    1e04:	ac016891 	stcge	8, cr6, [r1], {145}	; 0x91
    1e08:	48000005 	stmdami	r0, {r0, r2}
    1e0c:	00553104 	subseq	r3, r5, r4, lsl #2
    1e10:	91020000 	mrsls	r0, (UNDEF: 2)
    1e14:	05bb0100 	ldreq	r0, [fp, #256]!	; 0x100
    1e18:	04490000 	strbeq	r0, [r9], #-0
    1e1c:	00005531 	andeq	r5, r0, r1, lsr r5
    1e20:	04910200 	ldreq	r0, [r1], #512	; 0x200
    1e24:	05501800 	ldrbeq	r1, [r0, #-2048]	; 0xfffff800
    1e28:	24010000 	strcs	r0, [r1], #-0
    1e2c:	0d4c1404 	cfstrdeq	mvd1, [ip, #-16]
    1e30:	003e8000 	eorseq	r8, lr, r0
    1e34:	9c010000 	stcls	0, cr0, [r1], {-0}
    1e38:	00052f01 	andeq	r2, r5, r1, lsl #30
    1e3c:	2e042400 	cfcpyscs	mvf2, mvf4
    1e40:	00000055 	andeq	r0, r0, r5, asr r0
    1e44:	01749102 	cmneq	r4, r2, lsl #2
    1e48:	0000050b 	andeq	r0, r0, fp, lsl #10
    1e4c:	552e0425 	strpl	r0, [lr, #-1061]!	; 0xfffffbdb
    1e50:	02000000 	andeq	r0, r0, #0
    1e54:	13017091 	movwne	r7, #4241	; 0x1091
    1e58:	26000005 	strcs	r0, [r0], -r5
    1e5c:	00552e04 	subseq	r2, r5, r4, lsl #28
    1e60:	91020000 	mrsls	r0, (UNDEF: 2)
    1e64:	0568016c 	strbeq	r0, [r8, #-364]!	; 0xfffffe94
    1e68:	04270000 	strteq	r0, [r7], #-0
    1e6c:	0000552e 	andeq	r5, r0, lr, lsr #10
    1e70:	68910200 	ldmvs	r1, {r9}
    1e74:	0005ac01 	andeq	sl, r5, r1, lsl #24
    1e78:	2e042800 	cdpcs	8, 0, cr2, cr4, cr0, {0}
    1e7c:	00000055 	andeq	r0, r0, r5, asr r0
    1e80:	01009102 	tsteq	r0, r2, lsl #2
    1e84:	00000543 	andeq	r0, r0, r3, asr #10
    1e88:	552e0429 	strpl	r0, [lr, #-1065]!	; 0xfffffbd7
    1e8c:	02000000 	andeq	r0, r0, #0
    1e90:	00000491 	muleq	r0, r1, r4
    1e94:	00000c78 	andeq	r0, r0, r8, ror ip
    1e98:	04010005 	streq	r0, [r1], #-5
    1e9c:	000009c0 	andeq	r0, r0, r0, asr #19
    1ea0:	0000e913 	andeq	lr, r0, r3, lsl r9
    1ea4:	167f1d00 	ldrbtne	r1, [pc], -r0, lsl #26
    1ea8:	00100000 	andseq	r0, r0, r0
    1eac:	0e9c0000 	cdpeq	0, 9, cr0, cr12, cr0, {0}
    1eb0:	01b08000 	movseq	r8, r0
    1eb4:	09780000 	ldmdbeq	r8!, {}^	; <UNPREDICTABLE>
    1eb8:	01050000 	mrseq	r0, (UNDEF: 5)
    1ebc:	0000a106 	andeq	sl, r0, r6, lsl #2
    1ec0:	05020500 	streq	r0, [r2, #-1280]	; 0xfffffb00
    1ec4:	00000145 	andeq	r0, r0, r5, asr #2
    1ec8:	69050414 	stmdbvs	r5, {r2, r4, sl}
    1ecc:	0700746e 	streq	r7, [r0, -lr, ror #8]
    1ed0:	00000248 	andeq	r0, r0, r8, asr #4
    1ed4:	4c170e03 	ldcmi	14, cr0, [r7], {3}
    1ed8:	06000000 	streq	r0, [r0], -r0
    1edc:	0000003b 	andeq	r0, r0, fp, lsr r0
    1ee0:	9f080105 	svcls	0x00080105
    1ee4:	05000000 	streq	r0, [r0, #-0]
    1ee8:	00ce0702 	sbceq	r0, lr, r2, lsl #14
    1eec:	21070000 	mrscs	r0, (UNDEF: 7)
    1ef0:	03000003 	movweq	r0, #3
    1ef4:	00701610 	rsbseq	r1, r0, r0, lsl r6
    1ef8:	5a060000 	bpl	181f00 <shift+0x181f00>
    1efc:	0a000000 	beq	1f04 <shift+0x1f04>
    1f00:	00000066 	andeq	r0, r0, r6, rrx
    1f04:	c1070405 	tstgt	r7, r5, lsl #8
    1f08:	05000000 	streq	r0, [r0, #-0]
    1f0c:	00b70708 	adcseq	r0, r7, r8, lsl #14
    1f10:	08050000 	stmdaeq	r5, {}	; <UNPREDICTABLE>
    1f14:	00004d05 	andeq	r4, r0, r5, lsl #26
    1f18:	17961000 	ldrne	r1, [r6, r0]
    1f1c:	70070000 	andvc	r0, r7, r0
    1f20:	04000000 	streq	r0, [r0], #-0
    1f24:	0205061d 	andeq	r0, r5, #30408704	; 0x1d00000
    1f28:	6b010000 	blvs	41f30 <shift+0x41f30>
    1f2c:	00000014 	andeq	r0, r0, r4, lsl r0
    1f30:	0016b801 	andseq	fp, r6, r1, lsl #16
    1f34:	56010100 	strpl	r0, [r1], -r0, lsl #2
    1f38:	04000018 	streq	r0, [r0], #-24	; 0xffffffe8
    1f3c:	00170801 	andseq	r0, r7, r1, lsl #16
    1f40:	3a010500 	bcc	43348 <shift+0x43348>
    1f44:	06000015 			; <UNDEFINED> instruction: 0x06000015
    1f48:	00140a01 	andseq	r0, r4, r1, lsl #20
    1f4c:	de010700 	cdple	7, 0, cr0, cr1, cr0, {0}
    1f50:	08000017 	stmdaeq	r0, {r0, r1, r2, r4}
    1f54:	0018fe01 	andseq	pc, r8, r1, lsl #28
    1f58:	a3010900 	movwge	r0, #6400	; 0x1900
    1f5c:	0a000014 	beq	1fb4 <shift+0x1fb4>
    1f60:	00180901 	andseq	r0, r8, r1, lsl #18
    1f64:	51010b00 	tstpl	r1, r0, lsl #22
    1f68:	0c000019 	stceq	0, cr0, [r0], {25}
    1f6c:	0017a501 	andseq	sl, r7, r1, lsl #10
    1f70:	4e010d00 	cdpmi	13, 0, cr0, cr1, cr0, {0}
    1f74:	0e000017 	mcreq	0, 0, r0, cr0, cr7, {0}
    1f78:	0017cc01 	andseq	ip, r7, r1, lsl #24
    1f7c:	b5010f00 	strlt	r0, [r1, #-3840]	; 0xfffff100
    1f80:	10000014 	andne	r0, r0, r4, lsl r0
    1f84:	00164301 	andseq	r4, r6, r1, lsl #6
    1f88:	eb011100 	bl	46390 <shift+0x46390>
    1f8c:	12000018 	andne	r0, r0, #24
    1f90:	00142301 	andseq	r2, r4, r1, lsl #6
    1f94:	16011300 	strne	r1, [r1], -r0, lsl #6
    1f98:	14000016 	strne	r0, [r0], #-22	; 0xffffffea
    1f9c:	0018da01 	andseq	sp, r8, r1, lsl #20
    1fa0:	80011500 	andhi	r1, r1, r0, lsl #10
    1fa4:	16000015 			; <UNDEFINED> instruction: 0x16000015
    1fa8:	0016cb01 	andseq	ip, r6, r1, lsl #22
    1fac:	f0011700 			; <UNDEFINED> instruction: 0xf0011700
    1fb0:	18000014 	stmdane	r0, {r2, r4}
    1fb4:	00182b01 	andseq	r2, r8, r1, lsl #22
    1fb8:	69011900 	stmdbvs	r1, {r8, fp, ip}
    1fbc:	1a000018 	bne	2024 <shift+0x2024>
    1fc0:	00181a01 	andseq	r1, r8, r1, lsl #20
    1fc4:	f5011b00 			; <UNDEFINED> instruction: 0xf5011b00
    1fc8:	1c000016 	stcne	0, cr0, [r0], {22}
    1fcc:	00166601 	andseq	r6, r6, r1, lsl #12
    1fd0:	34011d00 	strcc	r1, [r1], #-3328	; 0xfffff300
    1fd4:	23000014 	movwcs	r0, #20
    1fd8:	00160301 	andseq	r0, r6, r1, lsl #6
    1fdc:	91012700 	tstls	r1, r0, lsl #14
    1fe0:	28000014 	stmdacs	r0, {r2, r4}
    1fe4:	00197e01 	andseq	r7, r9, r1, lsl #28
    1fe8:	5f012900 	svcpl	0x00012900
    1fec:	2a000017 	bcs	2050 <shift+0x2050>
    1ff0:	00192301 	andseq	r2, r9, r1, lsl #6
    1ff4:	3a012b00 	bcc	4cbfc <shift+0x4cbfc>
    1ff8:	2c000019 	stccs	0, cr0, [r0], {25}
    1ffc:	00154c01 	andseq	r4, r5, r1, lsl #24
    2000:	55012d00 	strpl	r2, [r1, #-3328]	; 0xfffff300
    2004:	32000016 	andcc	r0, r0, #22
    2008:	0018b101 	andseq	fp, r8, r1, lsl #2
    200c:	d4013300 	strle	r3, [r1], #-768	; 0xfffffd00
    2010:	34000015 	strcc	r0, [r0], #-21	; 0xffffffeb
    2014:	0015a901 	andseq	sl, r5, r1, lsl #18
    2018:	80013500 	andhi	r3, r1, r0, lsl #10
    201c:	36000014 			; <UNDEFINED> instruction: 0x36000014
    2020:	0015e801 	andseq	lr, r5, r1, lsl #16
    2024:	db013700 	blle	4fc2c <shift+0x4fc2c>
    2028:	38000014 	stmdacc	r0, {r2, r4}
    202c:	0018c301 	andseq	ip, r8, r1, lsl #6
    2030:	27013900 	strcs	r3, [r1, -r0, lsl #18]
    2034:	3a000016 	bcc	2094 <shift+0x2094>
    2038:	00169101 	andseq	r9, r6, r1, lsl #2
    203c:	b9013b00 	stmdblt	r1, {r8, r9, fp, ip, sp}
    2040:	3c000017 	stccc	0, cr0, [r0], {23}
    2044:	00152901 	andseq	r2, r5, r1, lsl #18
    2048:	c9013d00 	stmdbgt	r1, {r8, sl, fp, ip, sp}
    204c:	3e000014 	mcrcc	0, 0, r0, cr0, cr4, {0}
    2050:	00172001 	andseq	r2, r7, r1
    2054:	f6013f00 			; <UNDEFINED> instruction: 0xf6013f00
    2058:	40000017 	andmi	r0, r0, r7, lsl r0
    205c:	00145801 	andseq	r5, r4, r1, lsl #16
    2060:	14014100 	strne	r4, [r1], #-256	; 0xffffff00
    2064:	42000015 	andmi	r0, r0, #21
    2068:	00196401 	andseq	r6, r9, r1, lsl #8
    206c:	41014500 	tstmi	r1, r0, lsl #10
    2070:	46000018 			; <UNDEFINED> instruction: 0x46000018
    2074:	00155e01 	andseq	r5, r5, r1, lsl #28
    2078:	9d014700 	stcls	7, cr4, [r1, #-0]
    207c:	48000018 	stmdami	r0, {r3, r4}
    2080:	00191101 	andseq	r1, r9, r1, lsl #2
    2084:	be014900 	vmlalt.f16	s8, s2, s0	; <UNPREDICTABLE>
    2088:	62000015 	andvs	r0, r0, #21
    208c:	00188301 	andseq	r8, r8, r1, lsl #6
    2090:	73016300 	movwvc	r6, #4864	; 0x1300
    2094:	64000017 	strvs	r0, [r0], #-23	; 0xffffffe9
    2098:	0fa71000 	svceq	0x00a71000
    209c:	34050000 	strcc	r0, [r5], #-0
    20a0:	05000000 	streq	r0, [r0, #-0]
    20a4:	05a80e21 	streq	r0, [r8, #3617]!	; 0xe21
    20a8:	8b150000 	blhi	5420b0 <shift+0x5420b0>
    20ac:	8000000e 	andhi	r0, r0, lr
    20b0:	07c7017f 			; <UNDEFINED> instruction: 0x07c7017f
    20b4:	01000000 	mrseq	r0, (UNDEF: 0)
    20b8:	00000e73 	andeq	r0, r0, r3, ror lr
    20bc:	098a0101 	stmibeq	sl, {r0, r8}
    20c0:	01020000 	mrseq	r0, (UNDEF: 2)
    20c4:	00001199 	muleq	r0, r9, r1
    20c8:	0bda0103 	bleq	ff6824dc <__bss_end+0x7f67d6bc>
    20cc:	01040000 	mrseq	r0, (UNDEF: 4)
    20d0:	00000782 	andeq	r0, r0, r2, lsl #15
    20d4:	0f740105 	svceq	0x00740105
    20d8:	01060000 	mrseq	r0, (UNDEF: 6)
    20dc:	00000948 	andeq	r0, r0, r8, asr #18
    20e0:	11450107 	cmpne	r5, r7, lsl #2
    20e4:	01080000 	mrseq	r0, (UNDEF: 8)
    20e8:	00000d12 	andeq	r0, r0, r2, lsl sp
    20ec:	0ff10109 	svceq	0x00f10109
    20f0:	010a0000 	mrseq	r0, (UNDEF: 10)
    20f4:	0000109c 	muleq	r0, ip, r0
    20f8:	0be9010b 	bleq	ffa4252c <__bss_end+0x7fa3d70c>
    20fc:	010c0000 	mrseq	r0, (UNDEF: 12)
    2100:	00000791 	muleq	r0, r1, r7
    2104:	0e21010d 	sufeqs	f0, f1, #5.0
    2108:	010e0000 	mrseq	r0, (UNDEF: 14)
    210c:	00000957 	andeq	r0, r0, r7, asr r9
    2110:	0b9b010f 	bleq	fe6c2554 <__bss_end+0x7e6bd734>
    2114:	01190000 	tsteq	r9, r0
    2118:	00000b6d 	andeq	r0, r0, sp, ror #22
    211c:	0c6f011a 	stfeqe	f0, [pc], #-104	; 20bc <shift+0x20bc>
    2120:	011b0000 	tsteq	fp, r0
    2124:	00000a89 	andeq	r0, r0, r9, lsl #21
    2128:	06eb011c 	usateq	r0, #11, ip, lsl #2
    212c:	011d0000 	tsteq	sp, r0
    2130:	000006e8 	andeq	r0, r0, r8, ror #13
    2134:	0b22011e 	bleq	8825b4 <shift+0x8825b4>
    2138:	011f0000 	tsteq	pc, r0
    213c:	00000b31 	andeq	r0, r0, r1, lsr fp
    2140:	0f4f0120 	svceq	0x004f0120
    2144:	01210000 			; <UNDEFINED> instruction: 0x01210000
    2148:	00000f6a 	andeq	r0, r0, sl, ror #30
    214c:	0c060122 	stfeqs	f0, [r6], {34}	; 0x22
    2150:	01230000 			; <UNDEFINED> instruction: 0x01230000
    2154:	000009fd 	strdeq	r0, [r0], -sp
    2158:	09050124 	stmdbeq	r5, {r2, r5, r8}
    215c:	01250000 			; <UNDEFINED> instruction: 0x01250000
    2160:	00000c0f 	andeq	r0, r0, pc, lsl #24
    2164:	07eb0126 	strbeq	r0, [fp, r6, lsr #2]!
    2168:	01270000 			; <UNDEFINED> instruction: 0x01270000
    216c:	00000acb 	andeq	r0, r0, fp, asr #21
    2170:	0eb00128 	frdeqsp	f0, f0, #0.0
    2174:	01290000 			; <UNDEFINED> instruction: 0x01290000
    2178:	00000a20 	andeq	r0, r0, r0, lsr #20
    217c:	0b62012a 	bleq	188262c <shift+0x188262c>
    2180:	012b0000 			; <UNDEFINED> instruction: 0x012b0000
    2184:	00000afe 	strdeq	r0, [r0], -lr
    2188:	0688012c 	streq	r0, [r8], ip, lsr #2
    218c:	012d0000 			; <UNDEFINED> instruction: 0x012d0000
    2190:	00000a64 	andeq	r0, r0, r4, ror #20
    2194:	07ab012e 	streq	r0, [fp, lr, lsr #2]!
    2198:	012f0000 			; <UNDEFINED> instruction: 0x012f0000
    219c:	00000f58 	andeq	r0, r0, r8, asr pc
    21a0:	0ae70130 	beq	ff9c2668 <__bss_end+0x7f9bd848>
    21a4:	01310000 	teqeq	r1, r0
    21a8:	0000067a 	andeq	r0, r0, sl, ror r6
    21ac:	09c50132 	stmibeq	r5, {r1, r4, r5, r8}^
    21b0:	01330000 	teqeq	r3, r0
    21b4:	00000e56 	andeq	r0, r0, r6, asr lr
    21b8:	0c660134 	stfeqe	f0, [r6], #-208	; 0xffffff30
    21bc:	01350000 	teqeq	r5, r0
    21c0:	00000c24 	andeq	r0, r0, r4, lsr #24
    21c4:	06590136 			; <UNDEFINED> instruction: 0x06590136
    21c8:	01370000 	teqeq	r7, r0
    21cc:	00000bf9 	strdeq	r0, [r0], -r9
    21d0:	0d850138 	stfeqs	f0, [r5, #224]	; 0xe0
    21d4:	01390000 	teqeq	r9, r0
    21d8:	000009ba 			; <UNDEFINED> instruction: 0x000009ba
    21dc:	10ac013a 	adcne	r0, ip, sl, lsr r1
    21e0:	013b0000 	teqeq	fp, r0
    21e4:	000005f7 	strdeq	r0, [r0], -r7
    21e8:	07bc013c 			; <UNDEFINED> instruction: 0x07bc013c
    21ec:	013d0000 	teqeq	sp, r0
    21f0:	00000e4b 	andeq	r0, r0, fp, asr #28
    21f4:	0b3d013e 	bleq	f426f4 <shift+0xf426f4>
    21f8:	013f0000 	teqeq	pc, r0
    21fc:	000006ff 	strdeq	r0, [r0], -pc	; <UNPREDICTABLE>
    2200:	0d920140 	ldfeqs	f0, [r2, #256]	; 0x100
    2204:	01410000 	mrseq	r0, (UNDEF: 65)
    2208:	000008cd 	andeq	r0, r0, sp, asr #17
    220c:	07e10142 	strbeq	r0, [r1, r2, asr #2]!
    2210:	01430000 	mrseq	r0, (UNDEF: 67)
    2214:	000007a1 	andeq	r0, r0, r1, lsr #15
    2218:	0f830144 	svceq	0x00830144
    221c:	01450000 	mrseq	r0, (UNDEF: 69)
    2220:	00000967 	andeq	r0, r0, r7, ror #18
    2224:	11870146 	orrne	r0, r7, r6, asr #2
    2228:	01470000 	mrseq	r0, (UNDEF: 71)
    222c:	00000d2b 	andeq	r0, r0, fp, lsr #26
    2230:	0bb30148 	bleq	fecc2758 <__bss_end+0x7ecbd938>
    2234:	01490000 	mrseq	r0, (UNDEF: 73)
    2238:	00000d45 	andeq	r0, r0, r5, asr #26
    223c:	06a9014a 	strteq	r0, [r9], sl, asr #2
    2240:	014b0000 	mrseq	r0, (UNDEF: 75)
    2244:	0000082b 	andeq	r0, r0, fp, lsr #16
    2248:	10d2014c 	sbcsne	r0, r2, ip, asr #2
    224c:	014d0000 	mrseq	r0, (UNDEF: 77)
    2250:	00000602 	andeq	r0, r0, r2, lsl #12
    2254:	0843014e 	stmdaeq	r3, {r1, r2, r3, r6, r8}^
    2258:	014f0000 	mrseq	r0, SPSR
    225c:	00000723 	andeq	r0, r0, r3, lsr #14
    2260:	07fb0150 	ubfxeq	r0, r0, #2, #28
    2264:	01510000 	cmpeq	r1, r0
    2268:	00000617 	andeq	r0, r0, r7, lsl r6
    226c:	0ab60152 	beq	fed827bc <__bss_end+0x7ed7d99c>
    2270:	01530000 	cmpeq	r3, r0
    2274:	00000692 	muleq	r0, r2, r6
    2278:	09aa0154 	stmibeq	sl!, {r2, r4, r6, r8}
    227c:	01550000 	cmpeq	r5, r0
    2280:	0000093a 	andeq	r0, r0, sl, lsr r9
    2284:	10b70156 	adcsne	r0, r7, r6, asr r1
    2288:	01570000 	cmpeq	r7, r0
    228c:	00000c5b 	andeq	r0, r0, fp, asr ip
    2290:	07d60158 			; <UNDEFINED> instruction: 0x07d60158
    2294:	01590000 	cmpeq	r9, r0
    2298:	00000c30 	andeq	r0, r0, r0, lsr ip
    229c:	10e6015a 	rscne	r0, r6, sl, asr r1
    22a0:	015b0000 	cmpeq	fp, r0
    22a4:	000008e5 	andeq	r0, r0, r5, ror #17
    22a8:	0eeb015c 	mcreq	1, 7, r0, cr11, cr12, {2}
    22ac:	015d0000 	cmpeq	sp, r0
    22b0:	0000070b 	andeq	r0, r0, fp, lsl #14
    22b4:	0b52015e 	bleq	1482834 <shift+0x1482834>
    22b8:	015f0000 	cmpeq	pc, r0
    22bc:	0000110f 	andeq	r1, r0, pc, lsl #2
    22c0:	09100160 	ldmdbeq	r0, {r5, r6, r8}
    22c4:	01610000 	cmneq	r1, r0
    22c8:	0000073e 	andeq	r0, r0, lr, lsr r7
    22cc:	07680162 	strbeq	r0, [r8, -r2, ror #2]!
    22d0:	01630000 	cmneq	r3, r0
    22d4:	00001024 	andeq	r1, r0, r4, lsr #32
    22d8:	0f350164 	svceq	0x00350164
    22dc:	01650000 	cmneq	r5, r0
    22e0:	00000808 	andeq	r0, r0, r8, lsl #16
    22e4:	0a9c0166 	beq	fe702884 <__bss_end+0x7e6fda64>
    22e8:	01670000 	cmneq	r7, r0
    22ec:	00000cdd 	ldrdeq	r0, [r0], -sp
    22f0:	06350168 	ldrteq	r0, [r5], -r8, ror #2
    22f4:	01690000 	cmneq	r9, r0
    22f8:	000010f6 	strdeq	r1, [r0], -r6
    22fc:	0e31016a 	rsfeqsz	f0, f1, #2.0
    2300:	016b0000 	cmneq	fp, r0
    2304:	000006d7 	ldrdeq	r0, [r0], -r7
    2308:	0d53016c 	ldfeqe	f0, [r3, #-432]	; 0xfffffe50
    230c:	016d0000 	cmneq	sp, r0
    2310:	00000f9b 	muleq	r0, fp, pc	; <UNPREDICTABLE>
    2314:	0a6e016e 	beq	1b828d4 <shift+0x1b828d4>
    2318:	016f0000 	cmneq	pc, r0
    231c:	00000920 	andeq	r0, r0, r0, lsr #18
    2320:	111f0170 	tstne	pc, r0, ror r1	; <UNPREDICTABLE>
    2324:	01710000 	cmneq	r1, r0
    2328:	00000efb 	strdeq	r0, [r0], -fp
    232c:	06700172 			; <UNDEFINED> instruction: 0x06700172
    2330:	01730000 	cmneq	r3, r0
    2334:	00000e69 	andeq	r0, r0, r9, ror #28
    2338:	09710174 	ldmdbeq	r1!, {r2, r4, r5, r6, r8}^
    233c:	01750000 	cmneq	r5, r0
    2340:	0000115b 	andeq	r1, r0, fp, asr r1
    2344:	0f8d0176 	svceq	0x008d0176
    2348:	01770000 	cmneq	r7, r0
    234c:	00000ad9 	ldrdeq	r0, [r0], -r9
    2350:	0a380178 	beq	e02938 <shift+0xe02938>
    2354:	01790000 	cmneq	r9, r0
    2358:	00000b8a 	andeq	r0, r0, sl, lsl #23
    235c:	0618017a 			; <UNDEFINED> instruction: 0x0618017a
    2360:	017b0000 	cmneq	fp, r0
    2364:	00000f24 	andeq	r0, r0, r4, lsr #30
    2368:	0ec9017c 	mcreq	1, 6, r0, cr9, cr12, {3}
    236c:	017d0000 	cmneq	sp, r0
    2370:	00000a07 	andeq	r0, r0, r7, lsl #20
    2374:	0fac017e 	svceq	0x00ac017e
    2378:	017f0000 	cmneq	pc, r0
    237c:	00000d00 	andeq	r0, r0, r0, lsl #26
    2380:	0fe70180 	svceq	0x00e70180
    2384:	01810000 	orreq	r0, r1, r0
    2388:	00000b18 	andeq	r0, r0, r8, lsl fp
    238c:	0c400182 	stfeqe	f0, [r0], {130}	; 0x82
    2390:	01830000 	orreq	r0, r3, r0
    2394:	00000a5a 	andeq	r0, r0, sl, asr sl
    2398:	0d9e0184 	ldfeqs	f0, [lr, #528]	; 0x210
    239c:	01850000 	orreq	r0, r5, r0
    23a0:	00000999 	muleq	r0, r9, r9
    23a4:	07570186 	ldrbeq	r0, [r7, -r6, lsl #3]
    23a8:	01870000 	orreq	r0, r7, r0
    23ac:	00000a51 	andeq	r0, r0, r1, asr sl
    23b0:	06210188 	strteq	r0, [r1], -r8, lsl #3
    23b4:	01890000 	orreq	r0, r9, r0
    23b8:	00000dab 	andeq	r0, r0, fp, lsr #27
    23bc:	0821018a 	stmdaeq	r1!, {r1, r3, r7, r8}
    23c0:	018b0000 	orreq	r0, fp, r0
    23c4:	00000ac0 	andeq	r0, r0, r0, asr #21
    23c8:	0c51018c 	ldfeqe	f0, [r1], {140}	; 0x8c
    23cc:	018d0000 	orreq	r0, sp, r0
    23d0:	0000064f 	andeq	r0, r0, pc, asr #12
    23d4:	0cf6018e 	ldfeqe	f0, [r6], #568	; 0x238
    23d8:	018f0000 	orreq	r0, pc, r0
    23dc:	000010c1 	andeq	r1, r0, r1, asr #1
    23e0:	087e0190 	ldmdaeq	lr!, {r4, r7, r8}^
    23e4:	01910000 	orrseq	r0, r1, r0
    23e8:	00000d21 	andeq	r0, r0, r1, lsr #26
    23ec:	07340192 			; <UNDEFINED> instruction: 0x07340192
    23f0:	01930000 	orrseq	r0, r3, r0
    23f4:	00000f1a 	andeq	r0, r0, sl, lsl pc
    23f8:	0a7f0194 	beq	1fc2a50 <shift+0x1fc2a50>
    23fc:	01950000 	orrseq	r0, r5, r0
    2400:	00001001 	andeq	r1, r0, r1
    2404:	0bca0196 	bleq	ff282a64 <__bss_end+0x7f27dc44>
    2408:	01970000 	orrseq	r0, r7, r0
    240c:	00000c19 	andeq	r0, r0, r9, lsl ip
    2410:	09ed0198 	stmibeq	sp!, {r3, r4, r7, r8}^
    2414:	01990000 	orrseq	r0, r9, r0
    2418:	000009dc 	ldrdeq	r0, [r0], -ip
    241c:	11af019a 			; <UNDEFINED> instruction: 0x11af019a
    2420:	019b0000 	orrseq	r0, fp, r0
    2424:	00000d6c 	andeq	r0, r0, ip, ror #26
    2428:	08b6019c 	ldmeq	r6!, {r2, r3, r4, r7, r8}
    242c:	019d0000 	orrseq	r0, sp, r0
    2430:	00000fc1 	andeq	r0, r0, r1, asr #31
    2434:	1137019e 	teqne	r7, lr	; <illegal shifter operand>
    2438:	009f0000 	addseq	r0, pc, r0
    243c:	00092b07 	andeq	r2, r9, r7, lsl #22
    2440:	03bf0500 			; <UNDEFINED> instruction: 0x03bf0500
    2444:	00000205 	andeq	r0, r0, r5, lsl #4
    2448:	00006603 	andeq	r6, r0, r3, lsl #12
    244c:	0005c400 	andeq	ip, r5, r0, lsl #8
    2450:	00700400 	rsbseq	r0, r0, r0, lsl #8
    2454:	001f0000 	andseq	r0, pc, r0
    2458:	0005b406 	andeq	fp, r5, r6, lsl #8
    245c:	00660300 	rsbeq	r0, r6, r0, lsl #6
    2460:	05d90000 	ldrbeq	r0, [r9]
    2464:	70040000 	andvc	r0, r4, r0
    2468:	0f000000 	svceq	0x00000000
    246c:	05c90600 	strbeq	r0, [r9, #1536]	; 0x600
    2470:	04050000 	streq	r0, [r5], #-0
    2474:	0000bc07 	andeq	fp, r0, r7, lsl #24
    2478:	05040500 	streq	r0, [r4, #-1280]	; 0xfffffb00
    247c:	00000052 	andeq	r0, r0, r2, asr r0
    2480:	01050416 	tsteq	r5, r6, lsl r4
    2484:	0000a808 	andeq	sl, r0, r8, lsl #16
    2488:	05ee0a00 	strbeq	r0, [lr, #2560]!	; 0xa00
    248c:	04170000 	ldreq	r0, [r7], #-0
    2490:	021d0230 	andseq	r0, sp, #48, 4
    2494:	00094709 	andeq	r4, r9, r9, lsl #14
    2498:	0dbf1800 	ldceq	8, cr1, [pc]	; 24a0 <shift+0x24a0>
    249c:	1f020000 	svcne	0x00020000
    24a0:	09471202 	stmdbeq	r7, {r1, r9, ip}^
    24a4:	02000000 	andeq	r0, r0, #0
    24a8:	00001192 	muleq	r0, r2, r1
    24ac:	00660220 	rsbeq	r0, r6, r0, lsr #4
    24b0:	10000000 	andne	r0, r0, r0
    24b4:	00098202 	andeq	r8, r9, r2, lsl #4
    24b8:	6b022100 	blvs	8a8c0 <shift+0x8a8c0>
    24bc:	04000000 	streq	r0, [r0], #-0
    24c0:	07f40210 			; <UNDEFINED> instruction: 0x07f40210
    24c4:	02220000 	eoreq	r0, r2, #0
    24c8:	0000006b 	andeq	r0, r0, fp, rrx
    24cc:	c9021008 	stmdbgt	r2, {r3, ip}
    24d0:	2300000d 	movwcs	r0, #13
    24d4:	00095802 	andeq	r5, r9, r2, lsl #16
    24d8:	02100c00 	andseq	r0, r0, #0, 24
    24dc:	00000ebf 			; <UNDEFINED> instruction: 0x00000ebf
    24e0:	05d90224 	ldrbeq	r0, [r9, #548]	; 0x224
    24e4:	10800000 	addne	r0, r0, r0
    24e8:	000dd302 	andeq	sp, sp, r2, lsl #6
    24ec:	68022500 	stmdavs	r2, {r8, sl, sp}
    24f0:	c0000009 	andgt	r0, r0, r9
    24f4:	0c8a0210 	sfmeq	f0, 4, [sl], {16}
    24f8:	02260000 	eoreq	r0, r6, #0
    24fc:	000005d9 	ldrdeq	r0, [r0], -r9
    2500:	dd021100 	stfles	f1, [r2, #-0]
    2504:	2700000d 	strcs	r0, [r0, -sp]
    2508:	00096802 	andeq	r6, r9, r2, lsl #16
    250c:	02114000 	andseq	r4, r1, #0
    2510:	00000f04 	andeq	r0, r0, r4, lsl #30
    2514:	05d90228 	ldrbeq	r0, [r9, #552]	; 0x228
    2518:	11800000 	orrne	r0, r0, r0
    251c:	000de702 	andeq	lr, sp, r2, lsl #14
    2520:	68022900 	stmdavs	r2, {r8, fp, sp}
    2524:	c0000009 	andgt	r0, r0, r9
    2528:	0b0e0211 	bleq	382d74 <shift+0x382d74>
    252c:	022a0000 	eoreq	r0, sl, #0
    2530:	000005d9 	ldrdeq	r0, [r0], -r9
    2534:	f1021200 			; <UNDEFINED> instruction: 0xf1021200
    2538:	2b00000d 	blcs	2574 <shift+0x2574>
    253c:	00096802 	andeq	r6, r9, r2, lsl #16
    2540:	02124000 	andseq	r4, r2, #0
    2544:	00000f10 	andeq	r0, r0, r0, lsl pc
    2548:	05d9022c 	ldrbeq	r0, [r9, #556]	; 0x22c
    254c:	12800000 	addne	r0, r0, #0
    2550:	000dfb02 	andeq	pc, sp, r2, lsl #22
    2554:	68022d00 	stmdavs	r2, {r8, sl, fp, sp}
    2558:	c0000009 	andgt	r0, r0, r9
    255c:	069d0212 			; <UNDEFINED> instruction: 0x069d0212
    2560:	022e0000 	eoreq	r0, lr, #0
    2564:	000005d9 	ldrdeq	r0, [r0], -r9
    2568:	05021300 	streq	r1, [r2, #-768]	; 0xfffffd00
    256c:	2f00000e 	svccs	0x0000000e
    2570:	00096802 	andeq	r6, r9, r2, lsl #16
    2574:	02134000 	andseq	r4, r3, #0
    2578:	000008d9 	ldrdeq	r0, [r0], -r9
    257c:	05d90230 	ldrbeq	r0, [r9, #560]	; 0x230
    2580:	13800000 	orrne	r0, r0, #0
    2584:	00086002 	andeq	r6, r8, r2
    2588:	68023100 	stmdavs	r2, {r8, ip, sp}
    258c:	c0000009 	andgt	r0, r0, r9
    2590:	112a0213 			; <UNDEFINED> instruction: 0x112a0213
    2594:	02320000 	eorseq	r0, r2, #0
    2598:	00000989 	andeq	r0, r0, r9, lsl #19
    259c:	17021400 	strne	r1, [r2, -r0, lsl #8]
    25a0:	3300000e 	movwcc	r0, #14
    25a4:	00098e02 	andeq	r8, r9, r2, lsl #28
    25a8:	02160000 	andseq	r0, r6, #0
    25ac:	0000100c 	andeq	r1, r0, ip
    25b0:	09890234 	stmibeq	r9, {r2, r4, r5, r9}
    25b4:	18000000 	stmdane	r0, {}	; <UNPREDICTABLE>
    25b8:	00103d02 	andseq	r3, r0, r2, lsl #26
    25bc:	8e023500 	cfsh32hi	mvfx3, mvfx2, #0
    25c0:	00000009 	andeq	r0, r0, r9
    25c4:	0d7d021a 	lfmeq	f0, 2, [sp, #-104]!	; 0xffffff98
    25c8:	02360000 	eorseq	r0, r6, #0
    25cc:	000005c4 	andeq	r0, r0, r4, asr #11
    25d0:	48021c00 	stmdami	r2, {sl, fp, ip}
    25d4:	37000010 	smladcc	r0, r0, r0, r0
    25d8:	00099e02 	andeq	r9, r9, r2, lsl #28
    25dc:	021c8000 	andseq	r8, ip, #0
    25e0:	00000e0f 	andeq	r0, r0, pc, lsl #28
    25e4:	006b0238 	rsbeq	r0, fp, r8, lsr r2
    25e8:	1d000000 	stcne	0, cr0, [r0, #-0]
    25ec:	000d6402 	andeq	r6, sp, r2, lsl #8
    25f0:	c3023900 	movwgt	r3, #10496	; 0x2900
    25f4:	04000009 	streq	r0, [r0], #-9
    25f8:	1053021d 	subsne	r0, r3, sp, lsl r2
    25fc:	023a0000 	eorseq	r0, sl, #0
    2600:	000009c8 	andeq	r0, r0, r8, asr #19
    2604:	c3021d40 	movwgt	r1, #11584	; 0x2d40
    2608:	3b00000b 	blcc	263c <shift+0x263c>
    260c:	00006602 	andeq	r6, r0, r2, lsl #12
    2610:	021f0000 	andseq	r0, pc, #0
    2614:	0000088f 	andeq	r0, r0, pc, lsl #17
    2618:	09d8023c 	ldmibeq	r8, {r2, r3, r4, r5, r9}^
    261c:	1f040000 	svcne	0x00040000
    2620:	00101802 	andseq	r1, r0, r2, lsl #16
    2624:	f8023d00 			; <UNDEFINED> instruction: 0xf8023d00
    2628:	10000009 	andne	r0, r0, r9
    262c:	0af2021f 	beq	ffc82eb0 <__bss_end+0x7fc7e090>
    2630:	023e0000 	eorseq	r0, lr, #0
    2634:	000009f8 	strdeq	r0, [r0], -r8
    2638:	5e021f20 	cdppl	15, 0, cr1, cr2, cr0, {1}
    263c:	3f000010 	svccc	0x00000010
    2640:	0009fd02 	andeq	pc, r9, r2, lsl #26
    2644:	021f3000 	andseq	r3, pc, #0
    2648:	00000cb6 			; <UNDEFINED> instruction: 0x00000cb6
    264c:	006b0240 	rsbeq	r0, fp, r0, asr #4
    2650:	1fd00000 	svcne	0x00d00000
    2654:	000cbe02 	andeq	fp, ip, r2, lsl #28
    2658:	6b024100 	blvs	92a60 <shift+0x92a60>
    265c:	d4000000 	strle	r0, [r0], #-0
    2660:	0cc6021f 	sfmeq	f0, 2, [r6], {31}
    2664:	02420000 	subeq	r0, r2, #0
    2668:	0000006b 	andeq	r0, r0, fp, rrx
    266c:	ce021fd8 	mcrgt	15, 0, r1, cr2, cr8, {6}
    2670:	4300000c 	movwmi	r0, #12
    2674:	00006b02 	andeq	r6, r0, r2, lsl #22
    2678:	021fdc00 	andseq	sp, pc, #0, 24
    267c:	00000c96 	muleq	r0, r6, ip
    2680:	006b0244 	rsbeq	r0, fp, r4, asr #4
    2684:	1fe00000 	svcne	0x00e00000
    2688:	000c9e02 	andeq	r9, ip, r2, lsl #28
    268c:	6b024500 	blvs	93a94 <shift+0x93a94>
    2690:	e4000000 	str	r0, [r0], #-0
    2694:	0ca6021f 	sfmeq	f0, 4, [r6], #124	; 0x7c
    2698:	02460000 	subeq	r0, r6, #0
    269c:	0000006b 	andeq	r0, r0, fp, rrx
    26a0:	ae021fe8 	cdpge	15, 0, cr1, cr2, cr8, {7}
    26a4:	4700000c 	strmi	r0, [r0, -ip]
    26a8:	00006b02 	andeq	r6, r0, r2, lsl #22
    26ac:	021fec00 	andseq	lr, pc, #0, 24
    26b0:	000006b7 			; <UNDEFINED> instruction: 0x000006b7
    26b4:	006b0248 	rsbeq	r0, fp, r8, asr #4
    26b8:	1ff00000 	svcne	0x00f00000	; IMB
    26bc:	0006bf02 	andeq	fp, r6, r2, lsl #30
    26c0:	6b024900 	blvs	94ac8 <shift+0x94ac8>
    26c4:	f4000000 	vst4.8	{d0-d3}, [r0], r0
    26c8:	06c7021f 			; <UNDEFINED> instruction: 0x06c7021f
    26cc:	024a0000 	subeq	r0, sl, #0
    26d0:	0000006b 	andeq	r0, r0, fp, rrx
    26d4:	cf021ff8 	svcgt	0x00021ff8
    26d8:	4b000006 	blmi	26f8 <shift+0x26f8>
    26dc:	00006b02 	andeq	r6, r0, r2, lsl #22
    26e0:	021ffc00 	andseq	pc, pc, #0, 24
    26e4:	000011a8 	andeq	r1, r0, r8, lsr #3
    26e8:	0066024d 	rsbeq	r0, r6, sp, asr #4
    26ec:	20000000 	andcs	r0, r0, r0
    26f0:	0008c702 	andeq	ip, r8, r2, lsl #14
    26f4:	66024e00 	strvs	r4, [r2], -r0, lsl #28
    26f8:	04000000 	streq	r0, [r0], #-0
    26fc:	10e00220 	rscne	r0, r0, r0, lsr #4
    2700:	024f0000 	subeq	r0, pc, #0
    2704:	00000066 	andeq	r0, r0, r6, rrx
    2708:	99022008 	stmdbls	r2, {r3, sp}
    270c:	5000000e 	andpl	r0, r0, lr
    2710:	00006b02 	andeq	r6, r0, r2, lsl #22
    2714:	02200c00 	eoreq	r0, r0, #0, 24
    2718:	00001180 	andeq	r1, r0, r0, lsl #3
    271c:	00660251 	rsbeq	r0, r6, r1, asr r2
    2720:	20100000 	andscs	r0, r0, r0
    2724:	00089a02 	andeq	r9, r8, r2, lsl #20
    2728:	6b025200 	blvs	96f30 <shift+0x96f30>
    272c:	14000000 	strne	r0, [r0], #-0
    2730:	060f0220 	streq	r0, [pc], -r0, lsr #4
    2734:	02530000 	subseq	r0, r3, #0
    2738:	0000006b 	andeq	r0, r0, fp, rrx
    273c:	54022018 	strpl	r2, [r2], #-24	; 0xffffffe8
    2740:	54000011 	strpl	r0, [r0], #-17	; 0xffffffef
    2744:	00006602 	andeq	r6, r0, r2, lsl #12
    2748:	02201c00 	eoreq	r1, r0, #0, 24
    274c:	00000ee4 	andeq	r0, r0, r4, ror #29
    2750:	006b0255 	rsbeq	r0, fp, r5, asr r2
    2754:	20200000 	eorcs	r0, r0, r0
    2758:	000e9f02 	andeq	r9, lr, r2, lsl #30
    275c:	66025600 	strvs	r5, [r2], -r0, lsl #12
    2760:	24000000 	strcs	r0, [r0], #-0
    2764:	0b490220 	bleq	1242fec <shift+0x1242fec>
    2768:	02570000 	subseq	r0, r7, #0
    276c:	0000006b 	andeq	r0, r0, fp, rrx
    2770:	69022028 	stmdbvs	r2, {r3, r5, sp}
    2774:	58000010 	stmdapl	r0, {r4}
    2778:	000a0d02 	andeq	r0, sl, r2, lsl #26
    277c:	02202c00 	eoreq	r2, r0, #0, 24
    2780:	00000d3e 	andeq	r0, r0, lr, lsr sp
    2784:	00660259 	rsbeq	r0, r6, r9, asr r2
    2788:	20d00000 	sbcscs	r0, r0, r0
    278c:	00107402 	andseq	r7, r0, r2, lsl #8
    2790:	d8025a00 	stmdale	r2, {r9, fp, ip, lr}
    2794:	d4000009 	strle	r0, [r0], #-9
    2798:	0ea70220 	cdpeq	2, 10, cr0, cr7, cr0, {1}
    279c:	025b0000 	subseq	r0, fp, #0
    27a0:	00000066 	andeq	r0, r0, r6, rrx
    27a4:	7f0220e0 	svcvc	0x000220e0
    27a8:	5c000010 	stcpl	0, cr0, [r0], {16}
    27ac:	000a1d02 	andeq	r1, sl, r2, lsl #26
    27b0:	0220e400 	eoreq	lr, r0, #0, 8
    27b4:	00000cd6 	ldrdeq	r0, [r0], -r6
    27b8:	006b025d 	rsbeq	r0, fp, sp, asr r2
    27bc:	20fc0000 	rscscs	r0, ip, r0
    27c0:	00108a02 	andseq	r8, r0, r2, lsl #20
    27c4:	2d025e00 	stccs	14, cr5, [r2, #-0]
    27c8:	0000000a 	andeq	r0, r0, sl
    27cc:	086a0221 	stmdaeq	sl!, {r0, r5, r9}^
    27d0:	025f0000 	subseq	r0, pc, #0
    27d4:	00000066 	andeq	r0, r0, r6, rrx
    27d8:	03003000 	movweq	r3, #0
    27dc:	0000005a 	andeq	r0, r0, sl, asr r0
    27e0:	00000958 	andeq	r0, r0, r8, asr r9
    27e4:	0000700b 	andeq	r7, r0, fp
    27e8:	0003ff00 	andeq	pc, r3, r0, lsl #30
    27ec:	00005a03 	andeq	r5, r0, r3, lsl #20
    27f0:	00096800 	andeq	r6, r9, r0, lsl #16
    27f4:	00700400 	rsbseq	r0, r0, r0, lsl #8
    27f8:	001c0000 	andseq	r0, ip, r0
    27fc:	00005a03 	andeq	r5, r0, r3, lsl #20
    2800:	00097800 	andeq	r7, r9, r0, lsl #16
    2804:	00700400 	rsbseq	r0, r0, r0, lsl #8
    2808:	000f0000 	andeq	r0, pc, r0
    280c:	00004703 	andeq	r4, r0, r3, lsl #14
    2810:	00098900 	andeq	r8, r9, r0, lsl #18
    2814:	00700b00 	rsbseq	r0, r0, r0, lsl #22
    2818:	01ff0000 	mvnseq	r0, r0
    281c:	09780600 	ldmdbeq	r8!, {r9, sl}^
    2820:	5a030000 	bpl	c2828 <shift+0xc2828>
    2824:	9e000000 	cdpls	0, 0, cr0, cr0, cr0, {0}
    2828:	04000009 	streq	r0, [r0], #-9
    282c:	00000070 	andeq	r0, r0, r0, ror r0
    2830:	5a03007f 	bpl	c2a34 <shift+0xc2a34>
    2834:	ae000000 	cdpge	0, 0, cr0, cr0, cr0, {0}
    2838:	04000009 	streq	r0, [r0], #-9
    283c:	00000070 	andeq	r0, r0, r0, ror r0
    2840:	6b03001f 	blvs	c28c4 <shift+0xc28c4>
    2844:	be000000 	cdplt	0, 0, cr0, cr0, cr0, {0}
    2848:	04000009 	streq	r0, [r0], #-9
    284c:	00000070 	andeq	r0, r0, r0, ror r0
    2850:	ae0a000e 	cdpge	0, 0, cr0, cr10, cr14, {0}
    2854:	06000009 	streq	r0, [r0], -r9
    2858:	000009be 			; <UNDEFINED> instruction: 0x000009be
    285c:	00005a03 	andeq	r5, r0, r3, lsl #20
    2860:	0009d800 	andeq	sp, r9, r0, lsl #16
    2864:	00700400 	rsbseq	r0, r0, r0, lsl #8
    2868:	006f0000 	rsbeq	r0, pc, r0
    286c:	00005a03 	andeq	r5, r0, r3, lsl #20
    2870:	0009e800 	andeq	lr, r9, r0, lsl #16
    2874:	00700400 	rsbseq	r0, r0, r0, lsl #8
    2878:	00020000 	andeq	r0, r2, r0
    287c:	00004703 	andeq	r4, r0, r3, lsl #14
    2880:	0009f800 	andeq	pc, r9, r0, lsl #16
    2884:	00700400 	rsbseq	r0, r0, r0, lsl #8
    2888:	000f0000 	andeq	r0, pc, r0
    288c:	0009e806 	andeq	lr, r9, r6, lsl #16
    2890:	005a0300 	subseq	r0, sl, r0, lsl #6
    2894:	0a0d0000 	beq	34289c <shift+0x34289c>
    2898:	70040000 	andvc	r0, r4, r0
    289c:	27000000 	strcs	r0, [r0, -r0]
    28a0:	005a0300 	subseq	r0, sl, r0, lsl #6
    28a4:	0a1d0000 	beq	7428ac <shift+0x7428ac>
    28a8:	70040000 	andvc	r0, r4, r0
    28ac:	28000000 	stmdacs	r0, {}	; <UNPREDICTABLE>
    28b0:	005a0300 	subseq	r0, sl, r0, lsl #6
    28b4:	0a2d0000 	beq	b428bc <shift+0xb428bc>
    28b8:	70040000 	andvc	r0, r4, r0
    28bc:	05000000 	streq	r0, [r0, #-0]
    28c0:	005a0300 	subseq	r0, sl, r0, lsl #6
    28c4:	0a3e0000 	beq	f828cc <shift+0xf828cc>
    28c8:	700b0000 	andvc	r0, fp, r0
    28cc:	bf000000 	svclt	0x00000000
    28d0:	2f190003 	svccs	0x00190003
    28d4:	0200000a 	andeq	r0, r0, #10
    28d8:	fa030260 	blx	c3260 <shift+0xc3260>
    28dc:	07000005 	streq	r0, [r0, -r5]
    28e0:	00000fd2 	ldrdeq	r0, [r0], -r2
    28e4:	57100606 	ldrpl	r0, [r0, -r6, lsl #12]
    28e8:	0c00000a 	stceq	0, cr0, [r0], {10}
    28ec:	00000a5c 	andeq	r0, r0, ip, asr sl
    28f0:	000a6c1a 	andeq	r6, sl, sl, lsl ip
    28f4:	00700d00 	rsbseq	r0, r0, r0, lsl #26
    28f8:	ec0d0000 	stc	0, cr0, [sp], {-0}
    28fc:	00000005 	andeq	r0, r0, r5
    2900:	0014481b 	andseq	r4, r4, fp, lsl r8
    2904:	09060800 	stmdbeq	r6, {fp}
    2908:	000a9210 	andeq	r9, sl, r0, lsl r2
    290c:	17321100 	ldrne	r1, [r2, -r0, lsl #2]!
    2910:	1a0b0000 	bne	2c2918 <shift+0x2c2918>
    2914:	00000a4b 	andeq	r0, r0, fp, asr #20
    2918:	16391100 	ldrtne	r1, [r9], -r0, lsl #2
    291c:	0b0c0000 	bleq	302924 <shift+0x302924>
    2920:	000005ec 	andeq	r0, r0, ip, ror #11
    2924:	3d070004 	stccc	0, cr0, [r7, #-16]
    2928:	06000017 			; <UNDEFINED> instruction: 0x06000017
    292c:	0a6c030d 	beq	1b03568 <shift+0x1b03568>
    2930:	930e0000 	movwls	r0, #57344	; 0xe000
    2934:	04000015 	streq	r0, [r0], #-21	; 0xffffffeb
    2938:	00007015 	andeq	r7, r0, r5, lsl r0
    293c:	18030500 	stmdane	r3, {r8, sl}
    2940:	03800041 	orreq	r0, r0, #65	; 0x41
    2944:	00000a92 	muleq	r0, r2, sl
    2948:	00000abf 			; <UNDEFINED> instruction: 0x00000abf
    294c:	00007004 	andeq	r7, r0, r4
    2950:	0e009f00 	cdpeq	15, 0, cr9, cr0, cr0, {0}
    2954:	00001577 	andeq	r1, r0, r7, ror r5
    2958:	0aaf1907 	beq	febc8d7c <__bss_end+0x7ebc3f5c>
    295c:	03050000 	movweq	r0, #20480	; 0x5000
    2960:	8000411c 	andhi	r4, r0, ip, lsl r1
    2964:	001dd01c 	andseq	sp, sp, ip, lsl r0
    2968:	05160700 	ldreq	r0, [r6, #-1792]	; 0xfffff900
    296c:	00000034 	andeq	r0, r0, r4, lsr r0
    2970:	00000ae7 	andeq	r0, r0, r7, ror #21
    2974:	000ae70d 	andeq	lr, sl, sp, lsl #14
    2978:	0c001d00 	stceq	13, cr1, [r0], {-0}
    297c:	000005f5 	strdeq	r0, [r0], -r5
    2980:	00198f09 	andseq	r8, r9, r9, lsl #30
    2984:	102c5400 	eorne	r5, ip, r0, lsl #8
    2988:	00208000 	eoreq	r8, r0, r0
    298c:	9c010000 	stcls	0, cr0, [r1], {-0}
    2990:	00000b1d 	andeq	r0, r0, sp, lsl fp
    2994:	00167708 	andseq	r7, r6, r8, lsl #14
    2998:	70265400 	eorvc	r5, r6, r0, lsl #8
    299c:	02000000 	andeq	r0, r0, #0
    29a0:	39087491 	stmdbcc	r8, {r0, r4, r7, sl, ip, sp, lr}
    29a4:	54000016 	strpl	r0, [r0], #-22	; 0xffffffea
    29a8:	0005ec35 	andeq	lr, r5, r5, lsr ip
    29ac:	70910200 	addsvc	r0, r1, r0, lsl #4
    29b0:	16e30900 	strbtne	r0, [r3], r0, lsl #18
    29b4:	ac3a0000 	ldcge	0, cr0, [sl], #-0
    29b8:	8080000f 	addhi	r0, r0, pc
    29bc:	01000000 	mrseq	r0, (UNDEF: 0)
    29c0:	000b4e9c 	muleq	fp, ip, lr
    29c4:	16770800 	ldrbtne	r0, [r7], -r0, lsl #16
    29c8:	253a0000 	ldrcs	r0, [sl, #-0]!
    29cc:	00000070 	andeq	r0, r0, r0, ror r0
    29d0:	0e6c9102 	lgneqe	f1, f2
    29d4:	00001570 	andeq	r1, r0, r0, ror r5
    29d8:	005a0d3d 	subseq	r0, sl, sp, lsr sp
    29dc:	91020000 	mrsls	r0, (UNDEF: 2)
    29e0:	651e0074 	ldrvs	r0, [lr, #-116]	; 0xffffff8c
    29e4:	01000011 	tsteq	r0, r1, lsl r0
    29e8:	0f70062d 	svceq	0x0070062d
    29ec:	003c8000 	eorseq	r8, ip, r0
    29f0:	9c010000 	stcls	0, cr0, [r1], {-0}
    29f4:	00000b90 	muleq	r0, r0, fp
    29f8:	7172691f 	cmnvc	r2, pc, lsl r9
    29fc:	2b2d0100 	blcs	b42e04 <shift+0xb42e04>
    2a00:	000005a8 	andeq	r0, r0, r8, lsr #11
    2a04:	08749102 	ldmdaeq	r4!, {r1, r8, ip, pc}^
    2a08:	00001a02 	andeq	r1, r0, r2, lsl #20
    2a0c:	0a4b452d 	beq	12d3ec8 <shift+0x12d3ec8>
    2a10:	91020000 	mrsls	r0, (UNDEF: 2)
    2a14:	16390870 			; <UNDEFINED> instruction: 0x16390870
    2a18:	542d0000 	strtpl	r0, [sp], #-0
    2a1c:	000005ec 	andeq	r0, r0, ip, ror #11
    2a20:	006c9102 	rsbeq	r9, ip, r2, lsl #2
    2a24:	0016a309 	andseq	sl, r6, r9, lsl #6
    2a28:	0f2c1a00 	svceq	0x002c1a00
    2a2c:	00448000 	subeq	r8, r4, r0
    2a30:	9c010000 	stcls	0, cr0, [r1], {-0}
    2a34:	00000bb2 			; <UNDEFINED> instruction: 0x00000bb2
    2a38:	01006920 	tsteq	r0, r0, lsr #18
    2a3c:	00700f1c 	rsbseq	r0, r0, ip, lsl pc
    2a40:	91020000 	mrsls	r0, (UNDEF: 2)
    2a44:	85090074 	strhi	r0, [r9, #-116]	; 0xffffff8c
    2a48:	0e000000 	cdpeq	0, 0, cr0, cr0, cr0, {0}
    2a4c:	80000e9c 	mulhi	r0, ip, lr
    2a50:	00000090 	muleq	r0, r0, r0
    2a54:	0c1e9c01 	ldceq	12, cr9, [lr], {1}
    2a58:	1e210000 	cdpne	0, 2, cr0, cr1, cr0, {0}
    2a5c:	a200000c 	andge	r0, r0, #12
    2a60:	7080000e 	addvc	r0, r0, lr
    2a64:	01000000 	mrseq	r0, (UNDEF: 0)
    2a68:	0c040210 	sfmeq	f0, 4, [r4], {16}
    2a6c:	2c0f0000 	stccs	0, cr0, [pc], {-0}
    2a70:	0200000c 	andeq	r0, r0, #12
    2a74:	360f6891 			; <UNDEFINED> instruction: 0x360f6891
    2a78:	0200000c 	andeq	r0, r0, #12
    2a7c:	430f6c91 	movwmi	r6, #64657	; 0xfc91
    2a80:	0200000c 	andeq	r0, r0, #12
    2a84:	55227091 	strpl	r7, [r2, #-145]!	; 0xffffff6f
    2a88:	a200000c 	andge	r0, r0, #12
    2a8c:	0480000e 	streq	r0, [r0], #14
    2a90:	02000000 	andeq	r0, r0, #0
    2a94:	0020026b 	eoreq	r0, r0, fp, ror #4
    2a98:	000c6323 	andeq	r6, ip, r3, lsr #6
    2a9c:	000f1c00 	andeq	r1, pc, r0, lsl #24
    2aa0:	00000880 	andeq	r0, r0, r0, lsl #17
    2aa4:	02120100 	andseq	r0, r2, #0, 2
    2aa8:	000c6d24 	andeq	r6, ip, r4, lsr #26
    2aac:	74910200 	ldrvc	r0, [r1], #512	; 0x200
    2ab0:	0b250000 	bleq	942ab8 <shift+0x942ab8>
    2ab4:	02000015 	andeq	r0, r0, #21
    2ab8:	03230267 			; <UNDEFINED> instruction: 0x03230267
    2abc:	00000c50 	andeq	r0, r0, r0, asr ip
    2ac0:	69006912 	stmdbvs	r0, {r1, r4, r8, fp, sp, lr}
    2ac4:	005a0c02 	subseq	r0, sl, r2, lsl #24
    2ac8:	76260000 	strtvc	r0, [r6], -r0
    2acc:	02000019 	andeq	r0, r0, #25
    2ad0:	5a0c026a 	bpl	303480 <shift+0x303480>
    2ad4:	12000000 	andne	r0, r0, #0
    2ad8:	00636967 	rsbeq	r6, r3, r7, ror #18
    2adc:	500d026b 	andpl	r0, sp, fp, ror #4
    2ae0:	0000000c 	andeq	r0, r0, ip
    2ae4:	000a3e0c 	andeq	r3, sl, ip, lsl #28
    2ae8:	06652700 	strbteq	r2, [r5], -r0, lsl #14
    2aec:	0d020000 	stceq	0, cr0, [r2, #-0]
    2af0:	005a2702 	subseq	r2, sl, r2, lsl #14
    2af4:	28030000 	stmdacs	r3, {}	; <UNPREDICTABLE>
    2af8:	0000159e 	muleq	r0, lr, r5
    2afc:	2301f402 	movwcs	pc, #5122	; 0x1402	; <UNPREDICTABLE>
    2b00:	194c2903 	stmdbne	ip, {r0, r1, r8, fp, sp}^
    2b04:	f4020000 	vst4.8	{d0-d3}, [r2], r0
    2b08:	005a3701 	subseq	r3, sl, r1, lsl #14
    2b0c:	00000000 	andeq	r0, r0, r0
    2b10:	00000c06 	andeq	r0, r0, r6, lsl #24
    2b14:	04010005 	streq	r0, [r1], #-5
    2b18:	00000c16 	andeq	r0, r0, r6, lsl ip
    2b1c:	0000e913 	andeq	lr, r0, r3, lsl r9
    2b20:	19b81d00 	ldmibne	r8!, {r8, sl, fp, ip}
    2b24:	00100000 	andseq	r0, r0, r0
    2b28:	104c0000 	subne	r0, ip, r0
    2b2c:	012e8000 			; <UNDEFINED> instruction: 0x012e8000
    2b30:	0ac80000 	beq	ff202b38 <__bss_end+0x7f1fdd18>
    2b34:	01070000 	mrseq	r0, (UNDEF: 7)
    2b38:	0000a106 	andeq	sl, r0, r6, lsl #2
    2b3c:	05020700 	streq	r0, [r2, #-1792]	; 0xfffff900
    2b40:	00000145 	andeq	r0, r0, r5, asr #2
    2b44:	00032208 	andeq	r2, r3, r8, lsl #4
    2b48:	140d0400 	strne	r0, [sp], #-1024	; 0xfffffc00
    2b4c:	00000040 	andeq	r0, r0, r0, asr #32
    2b50:	69050414 	stmdbvs	r5, {r2, r4, sl}
    2b54:	0800746e 	stmdaeq	r0, {r1, r2, r3, r5, r6, sl, ip, sp, lr}
    2b58:	00000248 	andeq	r0, r0, r8, asr #4
    2b5c:	58170e04 	ldmdapl	r7, {r2, r9, sl, fp}
    2b60:	09000000 	stmdbeq	r0, {}	; <UNPREDICTABLE>
    2b64:	00000047 	andeq	r0, r0, r7, asr #32
    2b68:	9f080107 	svcls	0x00080107
    2b6c:	07000000 	streq	r0, [r0, -r0]
    2b70:	00ce0702 	sbceq	r0, lr, r2, lsl #14
    2b74:	21080000 	mrscs	r0, (UNDEF: 8)
    2b78:	04000003 	streq	r0, [r0], #-3
    2b7c:	007c1610 	rsbseq	r1, ip, r0, lsl r6
    2b80:	66090000 	strvs	r0, [r9], -r0
    2b84:	11000000 	mrsne	r0, (UNDEF: 0)
    2b88:	00000072 	andeq	r0, r0, r2, ror r0
    2b8c:	c1070407 	tstgt	r7, r7, lsl #8
    2b90:	07000000 	streq	r0, [r0, -r0]
    2b94:	00b70708 	adcseq	r0, r7, r8, lsl #14
    2b98:	08070000 	stmdaeq	r7, {}	; <UNPREDICTABLE>
    2b9c:	00004d05 	andeq	r4, r0, r5, lsl #26
    2ba0:	0fa70e00 	svceq	0x00a70e00
    2ba4:	40050000 	andmi	r0, r5, r0
    2ba8:	05000000 	streq	r0, [r0, #-0]
    2bac:	00043321 	andeq	r3, r4, r1, lsr #6
    2bb0:	0e8b1500 	cdpeq	5, 8, cr1, cr11, cr0, {0}
    2bb4:	7f800000 	svcvc	0x00800000
    2bb8:	0007c701 	andeq	ip, r7, r1, lsl #14
    2bbc:	73010000 	movwvc	r0, #4096	; 0x1000
    2bc0:	0100000e 	tsteq	r0, lr
    2bc4:	00098a01 	andeq	r8, r9, r1, lsl #20
    2bc8:	99010200 	stmdbls	r1, {r9}
    2bcc:	03000011 	movweq	r0, #17
    2bd0:	000bda01 	andeq	sp, fp, r1, lsl #20
    2bd4:	82010400 	andhi	r0, r1, #0, 8
    2bd8:	05000007 	streq	r0, [r0, #-7]
    2bdc:	000f7401 	andeq	r7, pc, r1, lsl #8
    2be0:	48010600 	stmdami	r1, {r9, sl}
    2be4:	07000009 	streq	r0, [r0, -r9]
    2be8:	00114501 	andseq	r4, r1, r1, lsl #10
    2bec:	12010800 	andne	r0, r1, #0, 16
    2bf0:	0900000d 	stmdbeq	r0, {r0, r2, r3}
    2bf4:	000ff101 	andeq	pc, pc, r1, lsl #2
    2bf8:	9c010a00 			; <UNDEFINED> instruction: 0x9c010a00
    2bfc:	0b000010 	bleq	2c44 <shift+0x2c44>
    2c00:	000be901 	andeq	lr, fp, r1, lsl #18
    2c04:	91010c00 	tstls	r1, r0, lsl #24
    2c08:	0d000007 	stceq	0, cr0, [r0, #-28]	; 0xffffffe4
    2c0c:	000e2101 	andeq	r2, lr, r1, lsl #2
    2c10:	57010e00 	strpl	r0, [r1, -r0, lsl #28]
    2c14:	0f000009 	svceq	0x00000009
    2c18:	000b9b01 	andeq	r9, fp, r1, lsl #22
    2c1c:	6d011900 	vstrvs.16	s2, [r1, #-0]	; <UNPREDICTABLE>
    2c20:	1a00000b 	bne	2c54 <shift+0x2c54>
    2c24:	000c6f01 	andeq	r6, ip, r1, lsl #30
    2c28:	89011b00 	stmdbhi	r1, {r8, r9, fp, ip}
    2c2c:	1c00000a 	stcne	0, cr0, [r0], {10}
    2c30:	0006eb01 	andeq	lr, r6, r1, lsl #22
    2c34:	e8011d00 	stmda	r1, {r8, sl, fp, ip}
    2c38:	1e000006 	cdpne	0, 0, cr0, cr0, cr6, {0}
    2c3c:	000b2201 	andeq	r2, fp, r1, lsl #4
    2c40:	31011f00 	tstcc	r1, r0, lsl #30
    2c44:	2000000b 	andcs	r0, r0, fp
    2c48:	000f4f01 	andeq	r4, pc, r1, lsl #30
    2c4c:	6a012100 	bvs	4b054 <shift+0x4b054>
    2c50:	2200000f 	andcs	r0, r0, #15
    2c54:	000c0601 	andeq	r0, ip, r1, lsl #12
    2c58:	fd012300 	stc2	3, cr2, [r1, #-0]
    2c5c:	24000009 	strcs	r0, [r0], #-9
    2c60:	00090501 	andeq	r0, r9, r1, lsl #10
    2c64:	0f012500 	svceq	0x00012500
    2c68:	2600000c 	strcs	r0, [r0], -ip
    2c6c:	0007eb01 	andeq	lr, r7, r1, lsl #22
    2c70:	cb012700 	blgt	4c878 <shift+0x4c878>
    2c74:	2800000a 	stmdacs	r0, {r1, r3}
    2c78:	000eb001 	andeq	fp, lr, r1
    2c7c:	20012900 	andcs	r2, r1, r0, lsl #18
    2c80:	2a00000a 	bcs	2cb0 <shift+0x2cb0>
    2c84:	000b6201 	andeq	r6, fp, r1, lsl #4
    2c88:	fe012b00 	vseleq.f64	d2, d1, d0
    2c8c:	2c00000a 	stccs	0, cr0, [r0], {10}
    2c90:	00068801 	andeq	r8, r6, r1, lsl #16
    2c94:	64012d00 	strvs	r2, [r1], #-3328	; 0xfffff300
    2c98:	2e00000a 	cdpcs	0, 0, cr0, cr0, cr10, {0}
    2c9c:	0007ab01 	andeq	sl, r7, r1, lsl #22
    2ca0:	58012f00 	stmdapl	r1, {r8, r9, sl, fp, sp}
    2ca4:	3000000f 	andcc	r0, r0, pc
    2ca8:	000ae701 	andeq	lr, sl, r1, lsl #14
    2cac:	7a013100 	bvc	4f0b4 <shift+0x4f0b4>
    2cb0:	32000006 	andcc	r0, r0, #6
    2cb4:	0009c501 	andeq	ip, r9, r1, lsl #10
    2cb8:	56013300 	strpl	r3, [r1], -r0, lsl #6
    2cbc:	3400000e 	strcc	r0, [r0], #-14
    2cc0:	000c6601 	andeq	r6, ip, r1, lsl #12
    2cc4:	24013500 	strcs	r3, [r1], #-1280	; 0xfffffb00
    2cc8:	3600000c 	strcc	r0, [r0], -ip
    2ccc:	00065901 	andeq	r5, r6, r1, lsl #18
    2cd0:	f9013700 			; <UNDEFINED> instruction: 0xf9013700
    2cd4:	3800000b 	stmdacc	r0, {r0, r1, r3}
    2cd8:	000d8501 	andeq	r8, sp, r1, lsl #10
    2cdc:	ba013900 	blt	510e4 <shift+0x510e4>
    2ce0:	3a000009 	bcc	2d0c <shift+0x2d0c>
    2ce4:	0010ac01 	andseq	sl, r0, r1, lsl #24
    2ce8:	f7013b00 			; <UNDEFINED> instruction: 0xf7013b00
    2cec:	3c000005 	stccc	0, cr0, [r0], {5}
    2cf0:	0007bc01 	andeq	fp, r7, r1, lsl #24
    2cf4:	4b013d00 	blmi	520fc <shift+0x520fc>
    2cf8:	3e00000e 	cdpcc	0, 0, cr0, cr0, cr14, {0}
    2cfc:	000b3d01 	andeq	r3, fp, r1, lsl #26
    2d00:	ff013f00 			; <UNDEFINED> instruction: 0xff013f00
    2d04:	40000006 	andmi	r0, r0, r6
    2d08:	000d9201 	andeq	r9, sp, r1, lsl #4
    2d0c:	cd014100 	stfgts	f4, [r1, #-0]
    2d10:	42000008 	andmi	r0, r0, #8
    2d14:	0007e101 	andeq	lr, r7, r1, lsl #2
    2d18:	a1014300 	mrsge	r4, SP_irq
    2d1c:	44000007 	strmi	r0, [r0], #-7
    2d20:	000f8301 	andeq	r8, pc, r1, lsl #6
    2d24:	67014500 	strvs	r4, [r1, -r0, lsl #10]
    2d28:	46000009 	strmi	r0, [r0], -r9
    2d2c:	00118701 	andseq	r8, r1, r1, lsl #14
    2d30:	2b014700 	blcs	54938 <shift+0x54938>
    2d34:	4800000d 	stmdami	r0, {r0, r2, r3}
    2d38:	000bb301 	andeq	fp, fp, r1, lsl #6
    2d3c:	45014900 	strmi	r4, [r1, #-2304]	; 0xfffff700
    2d40:	4a00000d 	bmi	2d7c <shift+0x2d7c>
    2d44:	0006a901 	andeq	sl, r6, r1, lsl #18
    2d48:	2b014b00 	blcs	55950 <shift+0x55950>
    2d4c:	4c000008 	stcmi	0, cr0, [r0], {8}
    2d50:	0010d201 	andseq	sp, r0, r1, lsl #4
    2d54:	02014d00 	andeq	r4, r1, #0, 26
    2d58:	4e000006 	cdpmi	0, 0, cr0, cr0, cr6, {0}
    2d5c:	00084301 	andeq	r4, r8, r1, lsl #6
    2d60:	23014f00 	movwcs	r4, #7936	; 0x1f00
    2d64:	50000007 	andpl	r0, r0, r7
    2d68:	0007fb01 	andeq	pc, r7, r1, lsl #22
    2d6c:	17015100 	strne	r5, [r1, -r0, lsl #2]
    2d70:	52000006 	andpl	r0, r0, #6
    2d74:	000ab601 	andeq	fp, sl, r1, lsl #12
    2d78:	92015300 	andls	r5, r1, #0, 6
    2d7c:	54000006 	strpl	r0, [r0], #-6
    2d80:	0009aa01 	andeq	sl, r9, r1, lsl #20
    2d84:	3a015500 	bcc	5818c <shift+0x5818c>
    2d88:	56000009 	strpl	r0, [r0], -r9
    2d8c:	0010b701 	andseq	fp, r0, r1, lsl #14
    2d90:	5b015700 	blpl	58998 <shift+0x58998>
    2d94:	5800000c 	stmdapl	r0, {r2, r3}
    2d98:	0007d601 	andeq	sp, r7, r1, lsl #12
    2d9c:	30015900 	andcc	r5, r1, r0, lsl #18
    2da0:	5a00000c 	bpl	2dd8 <shift+0x2dd8>
    2da4:	0010e601 	andseq	lr, r0, r1, lsl #12
    2da8:	e5015b00 	str	r5, [r1, #-2816]	; 0xfffff500
    2dac:	5c000008 	stcpl	0, cr0, [r0], {8}
    2db0:	000eeb01 	andeq	lr, lr, r1, lsl #22
    2db4:	0b015d00 	bleq	5a1bc <shift+0x5a1bc>
    2db8:	5e000007 	cdppl	0, 0, cr0, cr0, cr7, {0}
    2dbc:	000b5201 	andeq	r5, fp, r1, lsl #4
    2dc0:	0f015f00 	svceq	0x00015f00
    2dc4:	60000011 	andvs	r0, r0, r1, lsl r0
    2dc8:	00091001 	andeq	r1, r9, r1
    2dcc:	3e016100 	adfccs	f6, f1, f0
    2dd0:	62000007 	andvs	r0, r0, #7
    2dd4:	00076801 	andeq	r6, r7, r1, lsl #16
    2dd8:	24016300 	strcs	r6, [r1], #-768	; 0xfffffd00
    2ddc:	64000010 	strvs	r0, [r0], #-16
    2de0:	000f3501 	andeq	r3, pc, r1, lsl #10
    2de4:	08016500 	stmdaeq	r1, {r8, sl, sp, lr}
    2de8:	66000008 	strvs	r0, [r0], -r8
    2dec:	000a9c01 	andeq	r9, sl, r1, lsl #24
    2df0:	dd016700 	stcle	7, cr6, [r1, #-0]
    2df4:	6800000c 	stmdavs	r0, {r2, r3}
    2df8:	00063501 	andeq	r3, r6, r1, lsl #10
    2dfc:	f6016900 			; <UNDEFINED> instruction: 0xf6016900
    2e00:	6a000010 	bvs	2e48 <shift+0x2e48>
    2e04:	000e3101 	andeq	r3, lr, r1, lsl #2
    2e08:	d7016b00 	strle	r6, [r1, -r0, lsl #22]
    2e0c:	6c000006 	stcvs	0, cr0, [r0], {6}
    2e10:	000d5301 	andeq	r5, sp, r1, lsl #6
    2e14:	9b016d00 	blls	5e21c <shift+0x5e21c>
    2e18:	6e00000f 	cdpvs	0, 0, cr0, cr0, cr15, {0}
    2e1c:	000a6e01 	andeq	r6, sl, r1, lsl #28
    2e20:	20016f00 	andcs	r6, r1, r0, lsl #30
    2e24:	70000009 	andvc	r0, r0, r9
    2e28:	00111f01 	andseq	r1, r1, r1, lsl #30
    2e2c:	fb017100 	blx	5f236 <shift+0x5f236>
    2e30:	7200000e 	andvc	r0, r0, #14
    2e34:	00067001 	andeq	r7, r6, r1
    2e38:	69017300 	stmdbvs	r1, {r8, r9, ip, sp, lr}
    2e3c:	7400000e 	strvc	r0, [r0], #-14
    2e40:	00097101 	andeq	r7, r9, r1, lsl #2
    2e44:	5b017500 	blpl	6024c <shift+0x6024c>
    2e48:	76000011 			; <UNDEFINED> instruction: 0x76000011
    2e4c:	000f8d01 	andeq	r8, pc, r1, lsl #26
    2e50:	d9017700 	stmdble	r1, {r8, r9, sl, ip, sp, lr}
    2e54:	7800000a 	stmdavc	r0, {r1, r3}
    2e58:	000a3801 	andeq	r3, sl, r1, lsl #16
    2e5c:	8a017900 	bhi	61264 <shift+0x61264>
    2e60:	7a00000b 	bvc	2e94 <shift+0x2e94>
    2e64:	00061801 	andeq	r1, r6, r1, lsl #16
    2e68:	24017b00 	strcs	r7, [r1], #-2816	; 0xfffff500
    2e6c:	7c00000f 	stcvc	0, cr0, [r0], {15}
    2e70:	000ec901 	andeq	ip, lr, r1, lsl #18
    2e74:	07017d00 	streq	r7, [r1, -r0, lsl #26]
    2e78:	7e00000a 	cdpvc	0, 0, cr0, cr0, cr10, {0}
    2e7c:	000fac01 	andeq	sl, pc, r1, lsl #24
    2e80:	00017f00 	andeq	r7, r1, r0, lsl #30
    2e84:	8000000d 	andhi	r0, r0, sp
    2e88:	000fe701 	andeq	lr, pc, r1, lsl #14
    2e8c:	18018100 	stmdane	r1, {r8, pc}
    2e90:	8200000b 	andhi	r0, r0, #11
    2e94:	000c4001 	andeq	r4, ip, r1
    2e98:	5a018300 	bpl	63aa0 <shift+0x63aa0>
    2e9c:	8400000a 	strhi	r0, [r0], #-10
    2ea0:	000d9e01 	andeq	r9, sp, r1, lsl #28
    2ea4:	99018500 	stmdbls	r1, {r8, sl, pc}
    2ea8:	86000009 	strhi	r0, [r0], -r9
    2eac:	00075701 	andeq	r5, r7, r1, lsl #14
    2eb0:	51018700 	tstpl	r1, r0, lsl #14
    2eb4:	8800000a 	stmdahi	r0, {r1, r3}
    2eb8:	00062101 	andeq	r2, r6, r1, lsl #2
    2ebc:	ab018900 	blge	652c4 <shift+0x652c4>
    2ec0:	8a00000d 	bhi	2efc <shift+0x2efc>
    2ec4:	00082101 	andeq	r2, r8, r1, lsl #2
    2ec8:	c0018b00 	andgt	r8, r1, r0, lsl #22
    2ecc:	8c00000a 	stchi	0, cr0, [r0], {10}
    2ed0:	000c5101 	andeq	r5, ip, r1, lsl #2
    2ed4:	4f018d00 	svcmi	0x00018d00
    2ed8:	8e000006 	cdphi	0, 0, cr0, cr0, cr6, {0}
    2edc:	000cf601 	andeq	pc, ip, r1, lsl #12
    2ee0:	c1018f00 	tstgt	r1, r0, lsl #30
    2ee4:	90000010 	andls	r0, r0, r0, lsl r0
    2ee8:	00087e01 	andeq	r7, r8, r1, lsl #28
    2eec:	21019100 	mrscs	r9, (UNDEF: 17)
    2ef0:	9200000d 	andls	r0, r0, #13
    2ef4:	00073401 	andeq	r3, r7, r1, lsl #8
    2ef8:	1a019300 	bne	67b00 <shift+0x67b00>
    2efc:	9400000f 	strls	r0, [r0], #-15
    2f00:	000a7f01 	andeq	r7, sl, r1, lsl #30
    2f04:	01019500 	tsteq	r1, r0, lsl #10
    2f08:	96000010 			; <UNDEFINED> instruction: 0x96000010
    2f0c:	000bca01 	andeq	ip, fp, r1, lsl #20
    2f10:	19019700 	stmdbne	r1, {r8, r9, sl, ip, pc}
    2f14:	9800000c 	stmdals	r0, {r2, r3}
    2f18:	0009ed01 	andeq	lr, r9, r1, lsl #26
    2f1c:	dc019900 			; <UNDEFINED> instruction: 0xdc019900
    2f20:	9a000009 	bls	2f4c <shift+0x2f4c>
    2f24:	0011af01 	andseq	sl, r1, r1, lsl #30
    2f28:	6c019b00 			; <UNDEFINED> instruction: 0x6c019b00
    2f2c:	9c00000d 	stcls	0, cr0, [r0], {13}
    2f30:	0008b601 	andeq	fp, r8, r1, lsl #12
    2f34:	c1019d00 	tstgt	r1, r0, lsl #26
    2f38:	9e00000f 	cdpls	0, 0, cr0, cr0, cr15, {0}
    2f3c:	00113701 	andseq	r3, r1, r1, lsl #14
    2f40:	08009f00 	stmdaeq	r0, {r8, r9, sl, fp, ip, pc}
    2f44:	0000092b 	andeq	r0, r0, fp, lsr #18
    2f48:	9103bf05 	tstls	r3, r5, lsl #30
    2f4c:	16000000 	strne	r0, [r0], -r0
    2f50:	34a60520 	strtcc	r0, [r6], #1312	; 0x520
    2f54:	0004b109 	andeq	fp, r4, r9, lsl #2
    2f58:	52440b00 	subpl	r0, r4, #0, 22
    2f5c:	7234a700 	eorsvc	sl, r4, #0, 14
    2f60:	00000000 	andeq	r0, r0, r0
    2f64:	00052a0a 	andeq	r2, r5, sl, lsl #20
    2f68:	34a80500 	strtcc	r0, [r8], #1280	; 0x500
    2f6c:	00007211 	andeq	r7, r0, r1, lsl r2
    2f70:	500b0400 	andpl	r0, fp, r0, lsl #8
    2f74:	a9005253 	stmdbge	r0, {r0, r1, r4, r6, r9, ip, lr}
    2f78:	00007234 	andeq	r7, r0, r4, lsr r2
    2f7c:	d00a0800 	andle	r0, sl, r0, lsl #16
    2f80:	05000005 	streq	r0, [r0, #-5]
    2f84:	721134aa 	andsvc	r3, r1, #-1442840576	; 0xaa000000
    2f88:	0c000000 	stceq	0, cr0, [r0], {-0}
    2f8c:	0005d50a 	andeq	sp, r5, sl, lsl #10
    2f90:	34ab0500 	strtcc	r0, [fp], #1280	; 0x500
    2f94:	00007211 	andeq	r7, r0, r1, lsl r2
    2f98:	490b1000 	stmdbmi	fp, {ip}
    2f9c:	ac00524d 	sfmge	f5, 4, [r0], {77}	; 0x4d
    2fa0:	00007234 	andeq	r7, r0, r4, lsr r2
    2fa4:	490b1400 	stmdbmi	fp, {sl, ip}
    2fa8:	ad005253 	sfmge	f5, 4, [r0, #-332]	; 0xfffffeb4
    2fac:	00007234 	andeq	r7, r0, r4, lsr r2
    2fb0:	c70a1800 	strgt	r1, [sl, -r0, lsl #16]
    2fb4:	05000005 	streq	r0, [r0, #-5]
    2fb8:	721134ae 	andsvc	r3, r1, #-1375731712	; 0xae000000
    2fbc:	1c000000 	stcne	0, cr0, [r0], {-0}
    2fc0:	05731200 	ldrbeq	r1, [r3, #-512]!	; 0xfffffe00
    2fc4:	af050000 	svcge	0x00050000
    2fc8:	00043f34 	andeq	r3, r4, r4, lsr pc
    2fcc:	00720300 	rsbseq	r0, r2, r0, lsl #6
    2fd0:	04cd0000 	strbeq	r0, [sp], #0
    2fd4:	7c040000 	stcvc	0, cr0, [r4], {-0}
    2fd8:	1f000000 	svcne	0x00000000
    2fdc:	04bd0900 	ldrteq	r0, [sp], #2304	; 0x900
    2fe0:	72030000 	andvc	r0, r3, #0
    2fe4:	e2000000 	and	r0, r0, #0
    2fe8:	04000004 	streq	r0, [r0], #-4
    2fec:	0000007c 	andeq	r0, r0, ip, ror r0
    2ff0:	d209000f 	andle	r0, r9, #15
    2ff4:	07000004 	streq	r0, [r0, -r4]
    2ff8:	00bc0704 	adcseq	r0, ip, r4, lsl #14
    2ffc:	04070000 	streq	r0, [r7], #-0
    3000:	00005205 	andeq	r5, r0, r5, lsl #4
    3004:	07041700 	streq	r1, [r4, -r0, lsl #14]
    3008:	00a80801 	adceq	r0, r8, r1, lsl #16
    300c:	04180000 	ldreq	r0, [r8], #-0
    3010:	021d0330 	andseq	r0, sp, #48, 6	; 0xc0000000
    3014:	00084b09 	andeq	r4, r8, r9, lsl #22
    3018:	0dbf0a00 			; <UNDEFINED> instruction: 0x0dbf0a00
    301c:	1f030000 	svcne	0x00030000
    3020:	084b1202 	stmdaeq	fp, {r1, r9, ip}^
    3024:	02000000 	andeq	r0, r0, #0
    3028:	00001192 	muleq	r0, r2, r1
    302c:	00720220 	rsbseq	r0, r2, r0, lsr #4
    3030:	10000000 	andne	r0, r0, r0
    3034:	00098202 	andeq	r8, r9, r2, lsl #4
    3038:	77022100 	strvc	r2, [r2, -r0, lsl #2]
    303c:	04000000 	streq	r0, [r0], #-0
    3040:	07f40210 			; <UNDEFINED> instruction: 0x07f40210
    3044:	02220000 	eoreq	r0, r2, #0
    3048:	00000077 	andeq	r0, r0, r7, ror r0
    304c:	c9021008 	stmdbgt	r2, {r3, ip}
    3050:	2300000d 	movwcs	r0, #13
    3054:	00085c02 	andeq	r5, r8, r2, lsl #24
    3058:	02100c00 	andseq	r0, r0, #0, 24
    305c:	00000ebf 			; <UNDEFINED> instruction: 0x00000ebf
    3060:	04e20224 	strbteq	r0, [r2], #548	; 0x224
    3064:	10800000 	addne	r0, r0, r0
    3068:	000dd302 	andeq	sp, sp, r2, lsl #6
    306c:	6c022500 	cfstr32vs	mvfx2, [r2], {-0}
    3070:	c0000008 	andgt	r0, r0, r8
    3074:	0c8a0210 	sfmeq	f0, 4, [sl], {16}
    3078:	02260000 	eoreq	r0, r6, #0
    307c:	000004e2 	andeq	r0, r0, r2, ror #9
    3080:	dd021100 	stfles	f1, [r2, #-0]
    3084:	2700000d 	strcs	r0, [r0, -sp]
    3088:	00086c02 	andeq	r6, r8, r2, lsl #24
    308c:	02114000 	andseq	r4, r1, #0
    3090:	00000f04 	andeq	r0, r0, r4, lsl #30
    3094:	04e20228 	strbteq	r0, [r2], #552	; 0x228
    3098:	11800000 	orrne	r0, r0, r0
    309c:	000de702 	andeq	lr, sp, r2, lsl #14
    30a0:	6c022900 			; <UNDEFINED> instruction: 0x6c022900
    30a4:	c0000008 	andgt	r0, r0, r8
    30a8:	0b0e0211 	bleq	3838f4 <shift+0x3838f4>
    30ac:	022a0000 	eoreq	r0, sl, #0
    30b0:	000004e2 	andeq	r0, r0, r2, ror #9
    30b4:	f1021200 			; <UNDEFINED> instruction: 0xf1021200
    30b8:	2b00000d 	blcs	30f4 <shift+0x30f4>
    30bc:	00086c02 	andeq	r6, r8, r2, lsl #24
    30c0:	02124000 	andseq	r4, r2, #0
    30c4:	00000f10 	andeq	r0, r0, r0, lsl pc
    30c8:	04e2022c 	strbteq	r0, [r2], #556	; 0x22c
    30cc:	12800000 	addne	r0, r0, #0
    30d0:	000dfb02 	andeq	pc, sp, r2, lsl #22
    30d4:	6c022d00 	stcvs	13, cr2, [r2], {-0}
    30d8:	c0000008 	andgt	r0, r0, r8
    30dc:	069d0212 			; <UNDEFINED> instruction: 0x069d0212
    30e0:	022e0000 	eoreq	r0, lr, #0
    30e4:	000004e2 	andeq	r0, r0, r2, ror #9
    30e8:	05021300 	streq	r1, [r2, #-768]	; 0xfffffd00
    30ec:	2f00000e 	svccs	0x0000000e
    30f0:	00086c02 	andeq	r6, r8, r2, lsl #24
    30f4:	02134000 	andseq	r4, r3, #0
    30f8:	000008d9 	ldrdeq	r0, [r0], -r9
    30fc:	04e20230 	strbteq	r0, [r2], #560	; 0x230
    3100:	13800000 	orrne	r0, r0, #0
    3104:	00086002 	andeq	r6, r8, r2
    3108:	6c023100 	stfvss	f3, [r2], {-0}
    310c:	c0000008 	andgt	r0, r0, r8
    3110:	112a0213 			; <UNDEFINED> instruction: 0x112a0213
    3114:	02320000 	eorseq	r0, r2, #0
    3118:	0000088d 	andeq	r0, r0, sp, lsl #17
    311c:	17021400 	strne	r1, [r2, -r0, lsl #8]
    3120:	3300000e 	movwcc	r0, #14
    3124:	00089202 	andeq	r9, r8, r2, lsl #4
    3128:	02160000 	andseq	r0, r6, #0
    312c:	0000100c 	andeq	r1, r0, ip
    3130:	088d0234 	stmeq	sp, {r2, r4, r5, r9}
    3134:	18000000 	stmdane	r0, {}	; <UNPREDICTABLE>
    3138:	00103d02 	andseq	r3, r0, r2, lsl #26
    313c:	92023500 	andls	r3, r2, #0, 10
    3140:	00000008 	andeq	r0, r0, r8
    3144:	0d7d021a 	lfmeq	f0, 2, [sp, #-104]!	; 0xffffff98
    3148:	02360000 	eorseq	r0, r6, #0
    314c:	000004cd 	andeq	r0, r0, sp, asr #9
    3150:	48021c00 	stmdami	r2, {sl, fp, ip}
    3154:	37000010 	smladcc	r0, r0, r0, r0
    3158:	0008a202 	andeq	sl, r8, r2, lsl #4
    315c:	021c8000 	andseq	r8, ip, #0
    3160:	00000e0f 	andeq	r0, r0, pc, lsl #28
    3164:	00770238 	rsbseq	r0, r7, r8, lsr r2
    3168:	1d000000 	stcne	0, cr0, [r0, #-0]
    316c:	000d6402 	andeq	r6, sp, r2, lsl #8
    3170:	c7023900 	strgt	r3, [r2, -r0, lsl #18]
    3174:	04000008 	streq	r0, [r0], #-8
    3178:	1053021d 	subsne	r0, r3, sp, lsl r2
    317c:	023a0000 	eorseq	r0, sl, #0
    3180:	000008cc 	andeq	r0, r0, ip, asr #17
    3184:	c3021d40 	movwgt	r1, #11584	; 0x2d40
    3188:	3b00000b 	blcc	31bc <shift+0x31bc>
    318c:	00007202 	andeq	r7, r0, r2, lsl #4
    3190:	021f0000 	andseq	r0, pc, #0
    3194:	0000088f 	andeq	r0, r0, pc, lsl #17
    3198:	08dc023c 	ldmeq	ip, {r2, r3, r4, r5, r9}^
    319c:	1f040000 	svcne	0x00040000
    31a0:	00101802 	andseq	r1, r0, r2, lsl #16
    31a4:	fc023d00 	vdot.bf16	d3, d2, d0
    31a8:	10000008 	andne	r0, r0, r8
    31ac:	0af2021f 	beq	ffc83a30 <__bss_end+0x7fc7ec10>
    31b0:	023e0000 	eorseq	r0, lr, #0
    31b4:	000008fc 	strdeq	r0, [r0], -ip
    31b8:	5e021f20 	cdppl	15, 0, cr1, cr2, cr0, {1}
    31bc:	3f000010 	svccc	0x00000010
    31c0:	00090102 	andeq	r0, r9, r2, lsl #2
    31c4:	021f3000 	andseq	r3, pc, #0
    31c8:	00000cb6 			; <UNDEFINED> instruction: 0x00000cb6
    31cc:	00770240 	rsbseq	r0, r7, r0, asr #4
    31d0:	1fd00000 	svcne	0x00d00000
    31d4:	000cbe02 	andeq	fp, ip, r2, lsl #28
    31d8:	77024100 	strvc	r4, [r2, -r0, lsl #2]
    31dc:	d4000000 	strle	r0, [r0], #-0
    31e0:	0cc6021f 	sfmeq	f0, 2, [r6], {31}
    31e4:	02420000 	subeq	r0, r2, #0
    31e8:	00000077 	andeq	r0, r0, r7, ror r0
    31ec:	ce021fd8 	mcrgt	15, 0, r1, cr2, cr8, {6}
    31f0:	4300000c 	movwmi	r0, #12
    31f4:	00007702 	andeq	r7, r0, r2, lsl #14
    31f8:	021fdc00 	andseq	sp, pc, #0, 24
    31fc:	00000c96 	muleq	r0, r6, ip
    3200:	00770244 	rsbseq	r0, r7, r4, asr #4
    3204:	1fe00000 	svcne	0x00e00000
    3208:	000c9e02 	andeq	r9, ip, r2, lsl #28
    320c:	77024500 	strvc	r4, [r2, -r0, lsl #10]
    3210:	e4000000 	str	r0, [r0], #-0
    3214:	0ca6021f 	sfmeq	f0, 4, [r6], #124	; 0x7c
    3218:	02460000 	subeq	r0, r6, #0
    321c:	00000077 	andeq	r0, r0, r7, ror r0
    3220:	ae021fe8 	cdpge	15, 0, cr1, cr2, cr8, {7}
    3224:	4700000c 	strmi	r0, [r0, -ip]
    3228:	00007702 	andeq	r7, r0, r2, lsl #14
    322c:	021fec00 	andseq	lr, pc, #0, 24
    3230:	000006b7 			; <UNDEFINED> instruction: 0x000006b7
    3234:	00770248 	rsbseq	r0, r7, r8, asr #4
    3238:	1ff00000 	svcne	0x00f00000	; IMB
    323c:	0006bf02 	andeq	fp, r6, r2, lsl #30
    3240:	77024900 	strvc	r4, [r2, -r0, lsl #18]
    3244:	f4000000 	vst4.8	{d0-d3}, [r0], r0
    3248:	06c7021f 			; <UNDEFINED> instruction: 0x06c7021f
    324c:	024a0000 	subeq	r0, sl, #0
    3250:	00000077 	andeq	r0, r0, r7, ror r0
    3254:	cf021ff8 	svcgt	0x00021ff8
    3258:	4b000006 	blmi	3278 <shift+0x3278>
    325c:	00007702 	andeq	r7, r0, r2, lsl #14
    3260:	021ffc00 	andseq	pc, pc, #0, 24
    3264:	000011a8 	andeq	r1, r0, r8, lsr #3
    3268:	0072024d 	rsbseq	r0, r2, sp, asr #4
    326c:	20000000 	andcs	r0, r0, r0
    3270:	0008c702 	andeq	ip, r8, r2, lsl #14
    3274:	72024e00 	andvc	r4, r2, #0, 28
    3278:	04000000 	streq	r0, [r0], #-0
    327c:	10e00220 	rscne	r0, r0, r0, lsr #4
    3280:	024f0000 	subeq	r0, pc, #0
    3284:	00000072 	andeq	r0, r0, r2, ror r0
    3288:	99022008 	stmdbls	r2, {r3, sp}
    328c:	5000000e 	andpl	r0, r0, lr
    3290:	00007702 	andeq	r7, r0, r2, lsl #14
    3294:	02200c00 	eoreq	r0, r0, #0, 24
    3298:	00001180 	andeq	r1, r0, r0, lsl #3
    329c:	00720251 	rsbseq	r0, r2, r1, asr r2
    32a0:	20100000 	andscs	r0, r0, r0
    32a4:	00089a02 	andeq	r9, r8, r2, lsl #20
    32a8:	77025200 	strvc	r5, [r2, -r0, lsl #4]
    32ac:	14000000 	strne	r0, [r0], #-0
    32b0:	060f0220 	streq	r0, [pc], -r0, lsr #4
    32b4:	02530000 	subseq	r0, r3, #0
    32b8:	00000077 	andeq	r0, r0, r7, ror r0
    32bc:	54022018 	strpl	r2, [r2], #-24	; 0xffffffe8
    32c0:	54000011 	strpl	r0, [r0], #-17	; 0xffffffef
    32c4:	00007202 	andeq	r7, r0, r2, lsl #4
    32c8:	02201c00 	eoreq	r1, r0, #0, 24
    32cc:	00000ee4 	andeq	r0, r0, r4, ror #29
    32d0:	00770255 	rsbseq	r0, r7, r5, asr r2
    32d4:	20200000 	eorcs	r0, r0, r0
    32d8:	000e9f02 	andeq	r9, lr, r2, lsl #30
    32dc:	72025600 	andvc	r5, r2, #0, 12
    32e0:	24000000 	strcs	r0, [r0], #-0
    32e4:	0b490220 	bleq	1243b6c <shift+0x1243b6c>
    32e8:	02570000 	subseq	r0, r7, #0
    32ec:	00000077 	andeq	r0, r0, r7, ror r0
    32f0:	69022028 	stmdbvs	r2, {r3, r5, sp}
    32f4:	58000010 	stmdapl	r0, {r4}
    32f8:	00091102 	andeq	r1, r9, r2, lsl #2
    32fc:	02202c00 	eoreq	r2, r0, #0, 24
    3300:	00000d3e 	andeq	r0, r0, lr, lsr sp
    3304:	00720259 	rsbseq	r0, r2, r9, asr r2
    3308:	20d00000 	sbcscs	r0, r0, r0
    330c:	00107402 	andseq	r7, r0, r2, lsl #8
    3310:	dc025a00 			; <UNDEFINED> instruction: 0xdc025a00
    3314:	d4000008 	strle	r0, [r0], #-8
    3318:	0ea70220 	cdpeq	2, 10, cr0, cr7, cr0, {1}
    331c:	025b0000 	subseq	r0, fp, #0
    3320:	00000072 	andeq	r0, r0, r2, ror r0
    3324:	7f0220e0 	svcvc	0x000220e0
    3328:	5c000010 	stcpl	0, cr0, [r0], {16}
    332c:	00092102 	andeq	r2, r9, r2, lsl #2
    3330:	0220e400 	eoreq	lr, r0, #0, 8
    3334:	00000cd6 	ldrdeq	r0, [r0], -r6
    3338:	0077025d 	rsbseq	r0, r7, sp, asr r2
    333c:	20fc0000 	rscscs	r0, ip, r0
    3340:	00108a02 	andseq	r8, r0, r2, lsl #20
    3344:	31025e00 	tstcc	r2, r0, lsl #28
    3348:	00000009 	andeq	r0, r0, r9
    334c:	086a0221 	stmdaeq	sl!, {r0, r5, r9}^
    3350:	025f0000 	subseq	r0, pc, #0
    3354:	00000072 	andeq	r0, r0, r2, ror r0
    3358:	03003000 	movweq	r3, #0
    335c:	00000066 	andeq	r0, r0, r6, rrx
    3360:	0000085c 	andeq	r0, r0, ip, asr r8
    3364:	00007c0f 	andeq	r7, r0, pc, lsl #24
    3368:	0003ff00 	andeq	pc, r3, r0, lsl #30
    336c:	00006603 	andeq	r6, r0, r3, lsl #12
    3370:	00086c00 	andeq	r6, r8, r0, lsl #24
    3374:	007c0400 	rsbseq	r0, ip, r0, lsl #8
    3378:	001c0000 	andseq	r0, ip, r0
    337c:	00006603 	andeq	r6, r0, r3, lsl #12
    3380:	00087c00 	andeq	r7, r8, r0, lsl #24
    3384:	007c0400 	rsbseq	r0, ip, r0, lsl #8
    3388:	000f0000 	andeq	r0, pc, r0
    338c:	00005303 	andeq	r5, r0, r3, lsl #6
    3390:	00088d00 	andeq	r8, r8, r0, lsl #26
    3394:	007c0f00 	rsbseq	r0, ip, r0, lsl #30
    3398:	01ff0000 	mvnseq	r0, r0
    339c:	087c0900 	ldmdaeq	ip!, {r8, fp}^
    33a0:	66030000 	strvs	r0, [r3], -r0
    33a4:	a2000000 	andge	r0, r0, #0
    33a8:	04000008 	streq	r0, [r0], #-8
    33ac:	0000007c 	andeq	r0, r0, ip, ror r0
    33b0:	6603007f 			; <UNDEFINED> instruction: 0x6603007f
    33b4:	b2000000 	andlt	r0, r0, #0
    33b8:	04000008 	streq	r0, [r0], #-8
    33bc:	0000007c 	andeq	r0, r0, ip, ror r0
    33c0:	7703001f 	smladvc	r3, pc, r0, r0	; <UNPREDICTABLE>
    33c4:	c2000000 	andgt	r0, r0, #0
    33c8:	04000008 	streq	r0, [r0], #-8
    33cc:	0000007c 	andeq	r0, r0, ip, ror r0
    33d0:	b211000e 	andslt	r0, r1, #14
    33d4:	09000008 	stmdbeq	r0, {r3}
    33d8:	000008c2 	andeq	r0, r0, r2, asr #17
    33dc:	00006603 	andeq	r6, r0, r3, lsl #12
    33e0:	0008dc00 	andeq	sp, r8, r0, lsl #24
    33e4:	007c0400 	rsbseq	r0, ip, r0, lsl #8
    33e8:	006f0000 	rsbeq	r0, pc, r0
    33ec:	00006603 	andeq	r6, r0, r3, lsl #12
    33f0:	0008ec00 	andeq	lr, r8, r0, lsl #24
    33f4:	007c0400 	rsbseq	r0, ip, r0, lsl #8
    33f8:	00020000 	andeq	r0, r2, r0
    33fc:	00005303 	andeq	r5, r0, r3, lsl #6
    3400:	0008fc00 	andeq	pc, r8, r0, lsl #24
    3404:	007c0400 	rsbseq	r0, ip, r0, lsl #8
    3408:	000f0000 	andeq	r0, pc, r0
    340c:	0008ec09 	andeq	lr, r8, r9, lsl #24
    3410:	00660300 	rsbeq	r0, r6, r0, lsl #6
    3414:	09110000 	ldmdbeq	r1, {}	; <UNPREDICTABLE>
    3418:	7c040000 	stcvc	0, cr0, [r4], {-0}
    341c:	27000000 	strcs	r0, [r0, -r0]
    3420:	00660300 	rsbeq	r0, r6, r0, lsl #6
    3424:	09210000 	stmdbeq	r1!, {}	; <UNPREDICTABLE>
    3428:	7c040000 	stcvc	0, cr0, [r4], {-0}
    342c:	28000000 	stmdacs	r0, {}	; <UNPREDICTABLE>
    3430:	00660300 	rsbeq	r0, r6, r0, lsl #6
    3434:	09310000 	ldmdbeq	r1!, {}	; <UNPREDICTABLE>
    3438:	7c040000 	stcvc	0, cr0, [r4], {-0}
    343c:	05000000 	streq	r0, [r0, #-0]
    3440:	00660300 	rsbeq	r0, r6, r0, lsl #6
    3444:	09420000 	stmdbeq	r2, {}^	; <UNPREDICTABLE>
    3448:	7c0f0000 	stcvc	0, cr0, [pc], {-0}
    344c:	bf000000 	svclt	0x00000000
    3450:	2f120003 	svccs	0x00120003
    3454:	0300000a 	movweq	r0, #10
    3458:	04fe0260 	ldrbteq	r0, [lr], #608	; 0x260
    345c:	d2080000 	andle	r0, r8, #0
    3460:	0600000f 	streq	r0, [r0], -pc
    3464:	095a1006 	ldmdbeq	sl, {r1, r2, ip}^
    3468:	5f0c0000 	svcpl	0x000c0000
    346c:	19000009 	stmdbne	r0, {r0, r3}
    3470:	0000096f 	andeq	r0, r0, pc, ror #18
    3474:	00007c05 	andeq	r7, r0, r5, lsl #24
    3478:	04f50500 	ldrbteq	r0, [r5], #1280	; 0x500
    347c:	0e000000 	cdpeq	0, 0, cr0, cr0, cr0, {0}
    3480:	00001203 	andeq	r1, r0, r3, lsl #4
    3484:	00007c07 	andeq	r7, r0, r7, lsl #24
    3488:	8c070700 	stchi	7, cr0, [r7], {-0}
    348c:	01000009 	tsteq	r0, r9
    3490:	0000126a 	andeq	r1, r0, sl, ror #4
    3494:	13820100 	orrne	r0, r2, #0, 2
    3498:	00010000 	andeq	r0, r1, r0
    349c:	00130d08 	andseq	r0, r3, r8, lsl #26
    34a0:	030b0700 	movweq	r0, #46848	; 0xb700
    34a4:	0000096f 	andeq	r0, r0, pc, ror #18
    34a8:	0013590e 	andseq	r5, r3, lr, lsl #18
    34ac:	007c0700 	rsbseq	r0, ip, r0, lsl #14
    34b0:	10070000 	andne	r0, r7, r0
    34b4:	000009cd 	andeq	r0, r0, sp, asr #19
    34b8:	00139601 	andseq	r9, r3, r1, lsl #12
    34bc:	f1010000 	setend	le
    34c0:	01000011 	tsteq	r0, r1, lsl r0
    34c4:	00124a01 	andseq	r4, r2, r1, lsl #20
    34c8:	b4010200 	strlt	r0, [r1], #-512	; 0xfffffe00
    34cc:	03000012 	movweq	r0, #18
    34d0:	00127d01 	andseq	r7, r2, r1, lsl #26
    34d4:	17010400 	strne	r0, [r1, -r0, lsl #8]
    34d8:	05000012 	streq	r0, [r0, #-18]	; 0xffffffee
    34dc:	12340800 	eorsne	r0, r4, #0, 16
    34e0:	18070000 	stmdane	r7, {}	; <UNPREDICTABLE>
    34e4:	00099803 	andeq	r9, r9, r3, lsl #16
    34e8:	13221a00 			; <UNDEFINED> instruction: 0x13221a00
    34ec:	070c0000 	streq	r0, [ip, -r0]
    34f0:	0a0b101b 	beq	2c7564 <shift+0x2c7564>
    34f4:	0d100000 	ldceq	0, cr0, [r0, #-0]
    34f8:	1c000012 	stcne	0, cr0, [r0], {18}
    34fc:	00098c1a 	andeq	r8, r9, sl, lsl ip
    3500:	da100000 	ble	403508 <shift+0x403508>
    3504:	1d000012 	stcne	0, cr0, [r0, #-72]	; 0xffffffb8
    3508:	0000470d 	andeq	r4, r0, sp, lsl #14
    350c:	f5100400 			; <UNDEFINED> instruction: 0xf5100400
    3510:	1e000012 	mcrne	0, 0, r0, cr0, cr2, {0}
    3514:	0009cd1b 	andeq	ip, r9, fp, lsl sp
    3518:	08000800 	stmdaeq	r0, {fp}
    351c:	000012c8 	andeq	r1, r0, r8, asr #5
    3520:	d9021f07 	stmdble	r2, {r0, r1, r2, r8, r9, sl, fp, ip}
    3524:	0d000009 	stceq	0, cr0, [r0, #-36]	; 0xffffffdc
    3528:	00001292 	muleq	r0, r2, r2
    352c:	0a2d2907 	beq	b4d950 <shift+0xb4d950>
    3530:	2d050000 	stccs	0, cr0, [r5, #-0]
    3534:	0500000a 	streq	r0, [r0, #-10]
    3538:	0000007c 	andeq	r0, r0, ip, ror r0
    353c:	04b10c00 	ldrteq	r0, [r1], #3072	; 0xc00
    3540:	a50d0000 	strge	r0, [sp, #-0]
    3544:	07000012 	smladeq	r0, r2, r0, r0
    3548:	000a4827 	andeq	r4, sl, r7, lsr #16
    354c:	0a2d0500 	beq	b44954 <shift+0xb44954>
    3550:	7c050000 	stcvc	0, cr0, [r5], {-0}
    3554:	00000000 	andeq	r0, r0, r0
    3558:	0011650d 	andseq	r6, r1, sp, lsl #10
    355c:	63130600 	tstvs	r3, #0, 12
    3560:	0500000a 	streq	r0, [r0, #-10]
    3564:	00000433 	andeq	r0, r0, r3, lsr r4
    3568:	00094e05 	andeq	r4, r9, r5, lsl #28
    356c:	04f50500 	ldrbteq	r0, [r5], #1280	; 0x500
    3570:	0d000000 	stceq	0, cr0, [r0, #-0]
    3574:	00001303 	andeq	r1, r0, r3, lsl #6
    3578:	0a7e2307 	beq	1f8c19c <shift+0x1f8c19c>
    357c:	2d050000 	stccs	0, cr0, [r5, #-0]
    3580:	0500000a 	streq	r0, [r0, #-10]
    3584:	00000040 	andeq	r0, r0, r0, asr #32
    3588:	000a7e05 	andeq	r7, sl, r5, lsl #28
    358c:	0b0c0000 	bleq	303594 <shift+0x303594>
    3590:	1b00000a 	blne	35c0 <shift+0x35c0>
    3594:	000019a2 	andeq	r1, r0, r2, lsr #19
    3598:	64062102 	strvs	r2, [r6], #-258	; 0xfffffefe
    359c:	16800011 	pkhbtne	r0, r0, r1
    35a0:	01000000 	mrseq	r0, (UNDEF: 0)
    35a4:	19cc1c9c 	stmibne	ip, {r2, r3, r4, r7, sl, fp, ip}^
    35a8:	09020000 	stmdbeq	r2, {}	; <UNPREDICTABLE>
    35ac:	0010b006 	andseq	fp, r0, r6
    35b0:	0000b480 	andeq	fp, r0, r0, lsl #9
    35b4:	ed9c0100 	ldfs	f0, [ip]
    35b8:	1d00000a 	stcne	0, cr0, [r0, #-40]	; 0xffffffd8
    35bc:	000013e0 	andeq	r1, r0, r0, ror #7
    35c0:	0b140b02 	bleq	5061d0 <shift+0x5061d0>
    35c4:	0200000a 	andeq	r0, r0, #10
    35c8:	ed1e6491 	cfldrs	mvf6, [lr, #-580]	; 0xfffffdbc
    35cc:	1600000a 	strne	r0, [r0], -sl
    35d0:	24800011 	strcs	r0, [r0], #17
    35d4:	02000000 	andeq	r0, r0, #0
    35d8:	fb1f0217 	blx	7c3e3e <shift+0x7c3e3e>
    35dc:	0200000a 	andeq	r0, r0, #10
    35e0:	08207491 	stmdaeq	r0!, {r0, r4, r7, sl, ip, sp, lr}
    35e4:	0200000b 	andeq	r0, r0, #11
    35e8:	1b217091 	blne	85f834 <shift+0x85f834>
    35ec:	1600000b 	strne	r0, [r0], -fp
    35f0:	04800011 	streq	r0, [r0], #17
    35f4:	03000000 	movweq	r0, #0
    35f8:	00210287 	eoreq	r0, r1, r7, lsl #5
    35fc:	08702200 	ldmdaeq	r0!, {r9, sp}^
    3600:	85030000 	strhi	r0, [r3, #-0]
    3604:	16032302 	strne	r2, [r3], -r2, lsl #6
    3608:	2300000b 	movwcs	r0, #11
    360c:	00000fa7 	andeq	r0, r0, r7, lsr #31
    3610:	3b028503 	blcc	a4a24 <shift+0xa4a24>
    3614:	00000433 	andeq	r0, r0, r3, lsr r4
    3618:	63696724 	cmnvs	r9, #36, 14	; 0x900000
    361c:	02870300 	addeq	r0, r7, #0, 6
    3620:	000b160e 	andeq	r1, fp, lr, lsl #12
    3624:	420c0000 	andmi	r0, ip, #0
    3628:	25000009 	strcs	r0, [r0, #-9]
    362c:	00000665 	andeq	r0, r0, r5, ror #12
    3630:	27020d03 	strcs	r0, [r2, -r3, lsl #26]
    3634:	00000066 	andeq	r0, r0, r6, rrx
    3638:	05982603 	ldreq	r2, [r8, #1539]	; 0x603
    363c:	44010000 	strmi	r0, [r1], #-0
    3640:	108a1404 	addne	r1, sl, r4, lsl #8
    3644:	00268000 	eoreq	r8, r6, r0
    3648:	9c010000 	stcls	0, cr0, [r1], {-0}
    364c:	00000b9b 	muleq	r0, fp, fp
    3650:	00052f06 	andeq	r2, r5, r6, lsl #30
    3654:	31044400 	tstcc	r4, r0, lsl #8
    3658:	00000066 	andeq	r0, r0, r6, rrx
    365c:	06749102 	ldrbteq	r9, [r4], -r2, lsl #2
    3660:	0000050b 	andeq	r0, r0, fp, lsl #10
    3664:	66310445 	ldrtvs	r0, [r1], -r5, asr #8
    3668:	02000000 	andeq	r0, r0, #0
    366c:	13067091 	movwne	r7, #24721	; 0x6091
    3670:	46000005 	strmi	r0, [r0], -r5
    3674:	00663104 	rsbeq	r3, r6, r4, lsl #2
    3678:	91020000 	mrsls	r0, (UNDEF: 2)
    367c:	0568066c 	strbeq	r0, [r8, #-1644]!	; 0xfffff994
    3680:	04470000 	strbeq	r0, [r7], #-0
    3684:	00006631 	andeq	r6, r0, r1, lsr r6
    3688:	68910200 	ldmvs	r1, {r9}
    368c:	0005ac06 	andeq	sl, r5, r6, lsl #24
    3690:	31044800 	tstcc	r4, r0, lsl #16
    3694:	00000066 	andeq	r0, r0, r6, rrx
    3698:	06009102 	streq	r9, [r0], -r2, lsl #2
    369c:	000005bb 			; <UNDEFINED> instruction: 0x000005bb
    36a0:	66310449 	ldrtvs	r0, [r1], -r9, asr #8
    36a4:	02000000 	andeq	r0, r0, #0
    36a8:	27000491 			; <UNDEFINED> instruction: 0x27000491
    36ac:	00000550 	andeq	r0, r0, r0, asr r5
    36b0:	14042401 	strne	r2, [r4], #-1025	; 0xfffffbff
    36b4:	8000104c 	andhi	r1, r0, ip, asr #32
    36b8:	0000003e 	andeq	r0, r0, lr, lsr r0
    36bc:	2f069c01 	svccs	0x00069c01
    36c0:	24000005 	strcs	r0, [r0], #-5
    36c4:	00662e04 	rsbeq	r2, r6, r4, lsl #28
    36c8:	91020000 	mrsls	r0, (UNDEF: 2)
    36cc:	050b0674 	streq	r0, [fp, #-1652]	; 0xfffff98c
    36d0:	04250000 	strteq	r0, [r5], #-0
    36d4:	0000662e 	andeq	r6, r0, lr, lsr #12
    36d8:	70910200 	addsvc	r0, r1, r0, lsl #4
    36dc:	00051306 	andeq	r1, r5, r6, lsl #6
    36e0:	2e042600 	cfmadd32cs	mvax0, mvfx2, mvfx4, mvfx0
    36e4:	00000066 	andeq	r0, r0, r6, rrx
    36e8:	066c9102 	strbteq	r9, [ip], -r2, lsl #2
    36ec:	00000568 	andeq	r0, r0, r8, ror #10
    36f0:	662e0427 	strtvs	r0, [lr], -r7, lsr #8
    36f4:	02000000 	andeq	r0, r0, #0
    36f8:	ac066891 	stcge	8, cr6, [r6], {145}	; 0x91
    36fc:	28000005 	stmdacs	r0, {r0, r2}
    3700:	00662e04 	rsbeq	r2, r6, r4, lsl #28
    3704:	91020000 	mrsls	r0, (UNDEF: 2)
    3708:	05430600 	strbeq	r0, [r3, #-1536]	; 0xfffffa00
    370c:	04290000 	strteq	r0, [r9], #-0
    3710:	0000662e 	andeq	r6, r0, lr, lsr #12
    3714:	04910200 	ldreq	r0, [r1], #512	; 0x200
    3718:	0a820000 	beq	fe083720 <__bss_end+0x7e07e900>
    371c:	00050000 	andeq	r0, r5, r0
    3720:	0e5f0401 	cdpeq	4, 5, cr0, cr15, cr1, {0}
    3724:	e9170000 	ldmdb	r7, {}	; <UNPREDICTABLE>
    3728:	1d000000 	stcne	0, cr0, [r0, #-0]
    372c:	000019d6 	ldrdeq	r1, [r0], -r6
    3730:	00000010 	andeq	r0, r0, r0, lsl r0
    3734:	8000117c 	andhi	r1, r0, ip, ror r1
    3738:	000000ee 	andeq	r0, r0, lr, ror #1
    373c:	00000bf2 	strdeq	r0, [r0], -r2
    3740:	a1060105 	tstge	r6, r5, lsl #2
    3744:	05000000 	streq	r0, [r0, #-0]
    3748:	01450502 	cmpeq	r5, r2, lsl #10
    374c:	22080000 	andcs	r0, r8, #0
    3750:	03000003 	movweq	r0, #3
    3754:	0040140d 	subeq	r1, r0, sp, lsl #8
    3758:	04180000 	ldreq	r0, [r8], #-0
    375c:	746e6905 	strbtvc	r6, [lr], #-2309	; 0xfffff6fb
    3760:	02480800 	subeq	r0, r8, #0, 16
    3764:	0e030000 	cdpeq	0, 0, cr0, cr3, cr0, {0}
    3768:	00005817 	andeq	r5, r0, r7, lsl r8
    376c:	00470600 	subeq	r0, r7, r0, lsl #12
    3770:	01050000 	mrseq	r0, (UNDEF: 5)
    3774:	00009f08 	andeq	r9, r0, r8, lsl #30
    3778:	07020500 	streq	r0, [r2, -r0, lsl #10]
    377c:	000000ce 	andeq	r0, r0, lr, asr #1
    3780:	00032108 	andeq	r2, r3, r8, lsl #2
    3784:	16100300 	ldrne	r0, [r0], -r0, lsl #6
    3788:	0000007c 	andeq	r0, r0, ip, ror r0
    378c:	00006606 	andeq	r6, r0, r6, lsl #12
    3790:	00720d00 	rsbseq	r0, r2, r0, lsl #26
    3794:	04050000 	streq	r0, [r5], #-0
    3798:	0000c107 	andeq	ip, r0, r7, lsl #2
    379c:	07080500 	streq	r0, [r8, -r0, lsl #10]
    37a0:	000000b7 	strheq	r0, [r0], -r7
    37a4:	4d050805 	stcmi	8, cr0, [r5, #-20]	; 0xffffffec
    37a8:	19000000 	stmdbne	r0, {}	; <UNPREDICTABLE>
    37ac:	00000fa7 	andeq	r0, r0, r7, lsr #31
    37b0:	00400405 	subeq	r0, r0, r5, lsl #8
    37b4:	21040000 	mrscs	r0, (UNDEF: 4)
    37b8:	0004350e 	andeq	r3, r4, lr, lsl #10
    37bc:	0e8b1a00 	vdiveq.f32	s2, s22, s0
    37c0:	7f800000 	svcvc	0x00800000
    37c4:	0007c701 	andeq	ip, r7, r1, lsl #14
    37c8:	73010000 	movwvc	r0, #4096	; 0x1000
    37cc:	0100000e 	tsteq	r0, lr
    37d0:	00098a01 	andeq	r8, r9, r1, lsl #20
    37d4:	99010200 	stmdbls	r1, {r9}
    37d8:	03000011 	movweq	r0, #17
    37dc:	000bda01 	andeq	sp, fp, r1, lsl #20
    37e0:	82010400 	andhi	r0, r1, #0, 8
    37e4:	05000007 	streq	r0, [r0, #-7]
    37e8:	000f7401 	andeq	r7, pc, r1, lsl #8
    37ec:	48010600 	stmdami	r1, {r9, sl}
    37f0:	07000009 	streq	r0, [r0, -r9]
    37f4:	00114501 	andseq	r4, r1, r1, lsl #10
    37f8:	12010800 	andne	r0, r1, #0, 16
    37fc:	0900000d 	stmdbeq	r0, {r0, r2, r3}
    3800:	000ff101 	andeq	pc, pc, r1, lsl #2
    3804:	9c010a00 			; <UNDEFINED> instruction: 0x9c010a00
    3808:	0b000010 	bleq	3850 <shift+0x3850>
    380c:	000be901 	andeq	lr, fp, r1, lsl #18
    3810:	91010c00 	tstls	r1, r0, lsl #24
    3814:	0d000007 	stceq	0, cr0, [r0, #-28]	; 0xffffffe4
    3818:	000e2101 	andeq	r2, lr, r1, lsl #2
    381c:	57010e00 	strpl	r0, [r1, -r0, lsl #28]
    3820:	0f000009 	svceq	0x00000009
    3824:	000b9b01 	andeq	r9, fp, r1, lsl #22
    3828:	6d011900 	vstrvs.16	s2, [r1, #-0]	; <UNPREDICTABLE>
    382c:	1a00000b 	bne	3860 <shift+0x3860>
    3830:	000c6f01 	andeq	r6, ip, r1, lsl #30
    3834:	89011b00 	stmdbhi	r1, {r8, r9, fp, ip}
    3838:	1c00000a 	stcne	0, cr0, [r0], {10}
    383c:	0006eb01 	andeq	lr, r6, r1, lsl #22
    3840:	e8011d00 	stmda	r1, {r8, sl, fp, ip}
    3844:	1e000006 	cdpne	0, 0, cr0, cr0, cr6, {0}
    3848:	000b2201 	andeq	r2, fp, r1, lsl #4
    384c:	31011f00 	tstcc	r1, r0, lsl #30
    3850:	2000000b 	andcs	r0, r0, fp
    3854:	000f4f01 	andeq	r4, pc, r1, lsl #30
    3858:	6a012100 	bvs	4bc60 <shift+0x4bc60>
    385c:	2200000f 	andcs	r0, r0, #15
    3860:	000c0601 	andeq	r0, ip, r1, lsl #12
    3864:	fd012300 	stc2	3, cr2, [r1, #-0]
    3868:	24000009 	strcs	r0, [r0], #-9
    386c:	00090501 	andeq	r0, r9, r1, lsl #10
    3870:	0f012500 	svceq	0x00012500
    3874:	2600000c 	strcs	r0, [r0], -ip
    3878:	0007eb01 	andeq	lr, r7, r1, lsl #22
    387c:	cb012700 	blgt	4d484 <shift+0x4d484>
    3880:	2800000a 	stmdacs	r0, {r1, r3}
    3884:	000eb001 	andeq	fp, lr, r1
    3888:	20012900 	andcs	r2, r1, r0, lsl #18
    388c:	2a00000a 	bcs	38bc <shift+0x38bc>
    3890:	000b6201 	andeq	r6, fp, r1, lsl #4
    3894:	fe012b00 	vseleq.f64	d2, d1, d0
    3898:	2c00000a 	stccs	0, cr0, [r0], {10}
    389c:	00068801 	andeq	r8, r6, r1, lsl #16
    38a0:	64012d00 	strvs	r2, [r1], #-3328	; 0xfffff300
    38a4:	2e00000a 	cdpcs	0, 0, cr0, cr0, cr10, {0}
    38a8:	0007ab01 	andeq	sl, r7, r1, lsl #22
    38ac:	58012f00 	stmdapl	r1, {r8, r9, sl, fp, sp}
    38b0:	3000000f 	andcc	r0, r0, pc
    38b4:	000ae701 	andeq	lr, sl, r1, lsl #14
    38b8:	7a013100 	bvc	4fcc0 <shift+0x4fcc0>
    38bc:	32000006 	andcc	r0, r0, #6
    38c0:	0009c501 	andeq	ip, r9, r1, lsl #10
    38c4:	56013300 	strpl	r3, [r1], -r0, lsl #6
    38c8:	3400000e 	strcc	r0, [r0], #-14
    38cc:	000c6601 	andeq	r6, ip, r1, lsl #12
    38d0:	24013500 	strcs	r3, [r1], #-1280	; 0xfffffb00
    38d4:	3600000c 	strcc	r0, [r0], -ip
    38d8:	00065901 	andeq	r5, r6, r1, lsl #18
    38dc:	f9013700 			; <UNDEFINED> instruction: 0xf9013700
    38e0:	3800000b 	stmdacc	r0, {r0, r1, r3}
    38e4:	000d8501 	andeq	r8, sp, r1, lsl #10
    38e8:	ba013900 	blt	51cf0 <shift+0x51cf0>
    38ec:	3a000009 	bcc	3918 <shift+0x3918>
    38f0:	0010ac01 	andseq	sl, r0, r1, lsl #24
    38f4:	f7013b00 			; <UNDEFINED> instruction: 0xf7013b00
    38f8:	3c000005 	stccc	0, cr0, [r0], {5}
    38fc:	0007bc01 	andeq	fp, r7, r1, lsl #24
    3900:	4b013d00 	blmi	52d08 <shift+0x52d08>
    3904:	3e00000e 	cdpcc	0, 0, cr0, cr0, cr14, {0}
    3908:	000b3d01 	andeq	r3, fp, r1, lsl #26
    390c:	ff013f00 			; <UNDEFINED> instruction: 0xff013f00
    3910:	40000006 	andmi	r0, r0, r6
    3914:	000d9201 	andeq	r9, sp, r1, lsl #4
    3918:	cd014100 	stfgts	f4, [r1, #-0]
    391c:	42000008 	andmi	r0, r0, #8
    3920:	0007e101 	andeq	lr, r7, r1, lsl #2
    3924:	a1014300 	mrsge	r4, SP_irq
    3928:	44000007 	strmi	r0, [r0], #-7
    392c:	000f8301 	andeq	r8, pc, r1, lsl #6
    3930:	67014500 	strvs	r4, [r1, -r0, lsl #10]
    3934:	46000009 	strmi	r0, [r0], -r9
    3938:	00118701 	andseq	r8, r1, r1, lsl #14
    393c:	2b014700 	blcs	55544 <shift+0x55544>
    3940:	4800000d 	stmdami	r0, {r0, r2, r3}
    3944:	000bb301 	andeq	fp, fp, r1, lsl #6
    3948:	45014900 	strmi	r4, [r1, #-2304]	; 0xfffff700
    394c:	4a00000d 	bmi	3988 <shift+0x3988>
    3950:	0006a901 	andeq	sl, r6, r1, lsl #18
    3954:	2b014b00 	blcs	5655c <shift+0x5655c>
    3958:	4c000008 	stcmi	0, cr0, [r0], {8}
    395c:	0010d201 	andseq	sp, r0, r1, lsl #4
    3960:	02014d00 	andeq	r4, r1, #0, 26
    3964:	4e000006 	cdpmi	0, 0, cr0, cr0, cr6, {0}
    3968:	00084301 	andeq	r4, r8, r1, lsl #6
    396c:	23014f00 	movwcs	r4, #7936	; 0x1f00
    3970:	50000007 	andpl	r0, r0, r7
    3974:	0007fb01 	andeq	pc, r7, r1, lsl #22
    3978:	17015100 	strne	r5, [r1, -r0, lsl #2]
    397c:	52000006 	andpl	r0, r0, #6
    3980:	000ab601 	andeq	fp, sl, r1, lsl #12
    3984:	92015300 	andls	r5, r1, #0, 6
    3988:	54000006 	strpl	r0, [r0], #-6
    398c:	0009aa01 	andeq	sl, r9, r1, lsl #20
    3990:	3a015500 	bcc	58d98 <shift+0x58d98>
    3994:	56000009 	strpl	r0, [r0], -r9
    3998:	0010b701 	andseq	fp, r0, r1, lsl #14
    399c:	5b015700 	blpl	595a4 <shift+0x595a4>
    39a0:	5800000c 	stmdapl	r0, {r2, r3}
    39a4:	0007d601 	andeq	sp, r7, r1, lsl #12
    39a8:	30015900 	andcc	r5, r1, r0, lsl #18
    39ac:	5a00000c 	bpl	39e4 <shift+0x39e4>
    39b0:	0010e601 	andseq	lr, r0, r1, lsl #12
    39b4:	e5015b00 	str	r5, [r1, #-2816]	; 0xfffff500
    39b8:	5c000008 	stcpl	0, cr0, [r0], {8}
    39bc:	000eeb01 	andeq	lr, lr, r1, lsl #22
    39c0:	0b015d00 	bleq	5adc8 <shift+0x5adc8>
    39c4:	5e000007 	cdppl	0, 0, cr0, cr0, cr7, {0}
    39c8:	000b5201 	andeq	r5, fp, r1, lsl #4
    39cc:	0f015f00 	svceq	0x00015f00
    39d0:	60000011 	andvs	r0, r0, r1, lsl r0
    39d4:	00091001 	andeq	r1, r9, r1
    39d8:	3e016100 	adfccs	f6, f1, f0
    39dc:	62000007 	andvs	r0, r0, #7
    39e0:	00076801 	andeq	r6, r7, r1, lsl #16
    39e4:	24016300 	strcs	r6, [r1], #-768	; 0xfffffd00
    39e8:	64000010 	strvs	r0, [r0], #-16
    39ec:	000f3501 	andeq	r3, pc, r1, lsl #10
    39f0:	08016500 	stmdaeq	r1, {r8, sl, sp, lr}
    39f4:	66000008 	strvs	r0, [r0], -r8
    39f8:	000a9c01 	andeq	r9, sl, r1, lsl #24
    39fc:	dd016700 	stcle	7, cr6, [r1, #-0]
    3a00:	6800000c 	stmdavs	r0, {r2, r3}
    3a04:	00063501 	andeq	r3, r6, r1, lsl #10
    3a08:	f6016900 			; <UNDEFINED> instruction: 0xf6016900
    3a0c:	6a000010 	bvs	3a54 <shift+0x3a54>
    3a10:	000e3101 	andeq	r3, lr, r1, lsl #2
    3a14:	d7016b00 	strle	r6, [r1, -r0, lsl #22]
    3a18:	6c000006 	stcvs	0, cr0, [r0], {6}
    3a1c:	000d5301 	andeq	r5, sp, r1, lsl #6
    3a20:	9b016d00 	blls	5ee28 <shift+0x5ee28>
    3a24:	6e00000f 	cdpvs	0, 0, cr0, cr0, cr15, {0}
    3a28:	000a6e01 	andeq	r6, sl, r1, lsl #28
    3a2c:	20016f00 	andcs	r6, r1, r0, lsl #30
    3a30:	70000009 	andvc	r0, r0, r9
    3a34:	00111f01 	andseq	r1, r1, r1, lsl #30
    3a38:	fb017100 	blx	5fe42 <shift+0x5fe42>
    3a3c:	7200000e 	andvc	r0, r0, #14
    3a40:	00067001 	andeq	r7, r6, r1
    3a44:	69017300 	stmdbvs	r1, {r8, r9, ip, sp, lr}
    3a48:	7400000e 	strvc	r0, [r0], #-14
    3a4c:	00097101 	andeq	r7, r9, r1, lsl #2
    3a50:	5b017500 	blpl	60e58 <shift+0x60e58>
    3a54:	76000011 			; <UNDEFINED> instruction: 0x76000011
    3a58:	000f8d01 	andeq	r8, pc, r1, lsl #26
    3a5c:	d9017700 	stmdble	r1, {r8, r9, sl, ip, sp, lr}
    3a60:	7800000a 	stmdavc	r0, {r1, r3}
    3a64:	000a3801 	andeq	r3, sl, r1, lsl #16
    3a68:	8a017900 	bhi	61e70 <shift+0x61e70>
    3a6c:	7a00000b 	bvc	3aa0 <shift+0x3aa0>
    3a70:	00061801 	andeq	r1, r6, r1, lsl #16
    3a74:	24017b00 	strcs	r7, [r1], #-2816	; 0xfffff500
    3a78:	7c00000f 	stcvc	0, cr0, [r0], {15}
    3a7c:	000ec901 	andeq	ip, lr, r1, lsl #18
    3a80:	07017d00 	streq	r7, [r1, -r0, lsl #26]
    3a84:	7e00000a 	cdpvc	0, 0, cr0, cr0, cr10, {0}
    3a88:	000fac01 	andeq	sl, pc, r1, lsl #24
    3a8c:	00017f00 	andeq	r7, r1, r0, lsl #30
    3a90:	8000000d 	andhi	r0, r0, sp
    3a94:	000fe701 	andeq	lr, pc, r1, lsl #14
    3a98:	18018100 	stmdane	r1, {r8, pc}
    3a9c:	8200000b 	andhi	r0, r0, #11
    3aa0:	000c4001 	andeq	r4, ip, r1
    3aa4:	5a018300 	bpl	646ac <shift+0x646ac>
    3aa8:	8400000a 	strhi	r0, [r0], #-10
    3aac:	000d9e01 	andeq	r9, sp, r1, lsl #28
    3ab0:	99018500 	stmdbls	r1, {r8, sl, pc}
    3ab4:	86000009 	strhi	r0, [r0], -r9
    3ab8:	00075701 	andeq	r5, r7, r1, lsl #14
    3abc:	51018700 	tstpl	r1, r0, lsl #14
    3ac0:	8800000a 	stmdahi	r0, {r1, r3}
    3ac4:	00062101 	andeq	r2, r6, r1, lsl #2
    3ac8:	ab018900 	blge	65ed0 <shift+0x65ed0>
    3acc:	8a00000d 	bhi	3b08 <shift+0x3b08>
    3ad0:	00082101 	andeq	r2, r8, r1, lsl #2
    3ad4:	c0018b00 	andgt	r8, r1, r0, lsl #22
    3ad8:	8c00000a 	stchi	0, cr0, [r0], {10}
    3adc:	000c5101 	andeq	r5, ip, r1, lsl #2
    3ae0:	4f018d00 	svcmi	0x00018d00
    3ae4:	8e000006 	cdphi	0, 0, cr0, cr0, cr6, {0}
    3ae8:	000cf601 	andeq	pc, ip, r1, lsl #12
    3aec:	c1018f00 	tstgt	r1, r0, lsl #30
    3af0:	90000010 	andls	r0, r0, r0, lsl r0
    3af4:	00087e01 	andeq	r7, r8, r1, lsl #28
    3af8:	21019100 	mrscs	r9, (UNDEF: 17)
    3afc:	9200000d 	andls	r0, r0, #13
    3b00:	00073401 	andeq	r3, r7, r1, lsl #8
    3b04:	1a019300 	bne	6870c <shift+0x6870c>
    3b08:	9400000f 	strls	r0, [r0], #-15
    3b0c:	000a7f01 	andeq	r7, sl, r1, lsl #30
    3b10:	01019500 	tsteq	r1, r0, lsl #10
    3b14:	96000010 			; <UNDEFINED> instruction: 0x96000010
    3b18:	000bca01 	andeq	ip, fp, r1, lsl #20
    3b1c:	19019700 	stmdbne	r1, {r8, r9, sl, ip, pc}
    3b20:	9800000c 	stmdals	r0, {r2, r3}
    3b24:	0009ed01 	andeq	lr, r9, r1, lsl #26
    3b28:	dc019900 			; <UNDEFINED> instruction: 0xdc019900
    3b2c:	9a000009 	bls	3b58 <shift+0x3b58>
    3b30:	0011af01 	andseq	sl, r1, r1, lsl #30
    3b34:	6c019b00 			; <UNDEFINED> instruction: 0x6c019b00
    3b38:	9c00000d 	stcls	0, cr0, [r0], {13}
    3b3c:	0008b601 	andeq	fp, r8, r1, lsl #12
    3b40:	c1019d00 	tstgt	r1, r0, lsl #26
    3b44:	9e00000f 	cdpls	0, 0, cr0, cr0, cr15, {0}
    3b48:	00113701 	andseq	r3, r1, r1, lsl #14
    3b4c:	08009f00 	stmdaeq	r0, {r8, r9, sl, fp, ip, pc}
    3b50:	0000092b 	andeq	r0, r0, fp, lsr #18
    3b54:	9103bf04 	tstls	r3, r4, lsl #30
    3b58:	1b000000 	blne	3b60 <shift+0x3b60>
    3b5c:	31c20414 	biccc	r0, r2, r4, lsl r4
    3b60:	00048709 	andeq	r8, r4, r9, lsl #14
    3b64:	52430900 	subpl	r0, r3, #0, 18
    3b68:	7231c300 	eorsvc	ip, r1, #0, 6
    3b6c:	00000000 	andeq	r0, r0, r0
    3b70:	00525309 	subseq	r5, r2, r9, lsl #6
    3b74:	007231c4 	rsbseq	r3, r2, r4, asr #3
    3b78:	09040000 	stmdbeq	r4, {}	; <UNPREDICTABLE>
    3b7c:	c500524c 	strgt	r5, [r0, #-588]	; 0xfffffdb4
    3b80:	00007231 	andeq	r7, r0, r1, lsr r2
    3b84:	190e0800 	stmdbne	lr, {fp}
    3b88:	0400001a 	streq	r0, [r0], #-26	; 0xffffffe6
    3b8c:	721131c6 	andsvc	r3, r1, #-2147483599	; 0x80000031
    3b90:	0c000000 	stceq	0, cr0, [r0], {-0}
    3b94:	524e4309 	subpl	r4, lr, #603979776	; 0x24000000
    3b98:	7231c700 	eorsvc	ip, r1, #0, 14
    3b9c:	10000000 	andne	r0, r0, r0
    3ba0:	1a0a0f00 	bne	2877a8 <shift+0x2877a8>
    3ba4:	c8040000 	stmdagt	r4, {}	; <UNPREDICTABLE>
    3ba8:	00044131 	andeq	r4, r4, r1, lsr r1
    3bac:	00720300 	rsbseq	r0, r2, r0, lsl #6
    3bb0:	04a30000 	strteq	r0, [r3], #0
    3bb4:	7c040000 	stcvc	0, cr0, [r4], {-0}
    3bb8:	1f000000 	svcne	0x00000000
    3bbc:	04930600 	ldreq	r0, [r3], #1536	; 0x600
    3bc0:	72030000 	andvc	r0, r3, #0
    3bc4:	b8000000 	stmdalt	r0, {}	; <UNPREDICTABLE>
    3bc8:	04000004 	streq	r0, [r0], #-4
    3bcc:	0000007c 	andeq	r0, r0, ip, ror r0
    3bd0:	a806000f 	stmdage	r6, {r0, r1, r2, r3}
    3bd4:	05000004 	streq	r0, [r0, #-4]
    3bd8:	00bc0704 	adcseq	r0, ip, r4, lsl #14
    3bdc:	04050000 	streq	r0, [r5], #-0
    3be0:	00005205 	andeq	r5, r0, r5, lsl #4
    3be4:	05041c00 	streq	r1, [r4, #-3072]	; 0xfffff400
    3be8:	00a80801 	adceq	r0, r8, r1, lsl #16
    3bec:	041d0000 	ldreq	r0, [sp], #-0
    3bf0:	021d0230 	andseq	r0, sp, #48, 4
    3bf4:	00082109 	andeq	r2, r8, r9, lsl #2
    3bf8:	0dbf0e00 	ldceq	14, cr0, [pc]	; 3c00 <shift+0x3c00>
    3bfc:	1f020000 	svcne	0x00020000
    3c00:	08211202 	stmdaeq	r1!, {r1, r9, ip}
    3c04:	02000000 	andeq	r0, r0, #0
    3c08:	00001192 	muleq	r0, r2, r1
    3c0c:	00720220 	rsbseq	r0, r2, r0, lsr #4
    3c10:	10000000 	andne	r0, r0, r0
    3c14:	00098202 	andeq	r8, r9, r2, lsl #4
    3c18:	77022100 	strvc	r2, [r2, -r0, lsl #2]
    3c1c:	04000000 	streq	r0, [r0], #-0
    3c20:	07f40210 			; <UNDEFINED> instruction: 0x07f40210
    3c24:	02220000 	eoreq	r0, r2, #0
    3c28:	00000077 	andeq	r0, r0, r7, ror r0
    3c2c:	c9021008 	stmdbgt	r2, {r3, ip}
    3c30:	2300000d 	movwcs	r0, #13
    3c34:	00083202 	andeq	r3, r8, r2, lsl #4
    3c38:	02100c00 	andseq	r0, r0, #0, 24
    3c3c:	00000ebf 			; <UNDEFINED> instruction: 0x00000ebf
    3c40:	04b80224 	ldrteq	r0, [r8], #548	; 0x224
    3c44:	10800000 	addne	r0, r0, r0
    3c48:	000dd302 	andeq	sp, sp, r2, lsl #6
    3c4c:	42022500 	andmi	r2, r2, #0, 10
    3c50:	c0000008 	andgt	r0, r0, r8
    3c54:	0c8a0210 	sfmeq	f0, 4, [sl], {16}
    3c58:	02260000 	eoreq	r0, r6, #0
    3c5c:	000004b8 			; <UNDEFINED> instruction: 0x000004b8
    3c60:	dd021100 	stfles	f1, [r2, #-0]
    3c64:	2700000d 	strcs	r0, [r0, -sp]
    3c68:	00084202 	andeq	r4, r8, r2, lsl #4
    3c6c:	02114000 	andseq	r4, r1, #0
    3c70:	00000f04 	andeq	r0, r0, r4, lsl #30
    3c74:	04b80228 	ldrteq	r0, [r8], #552	; 0x228
    3c78:	11800000 	orrne	r0, r0, r0
    3c7c:	000de702 	andeq	lr, sp, r2, lsl #14
    3c80:	42022900 	andmi	r2, r2, #0, 18
    3c84:	c0000008 	andgt	r0, r0, r8
    3c88:	0b0e0211 	bleq	3844d4 <shift+0x3844d4>
    3c8c:	022a0000 	eoreq	r0, sl, #0
    3c90:	000004b8 			; <UNDEFINED> instruction: 0x000004b8
    3c94:	f1021200 			; <UNDEFINED> instruction: 0xf1021200
    3c98:	2b00000d 	blcs	3cd4 <shift+0x3cd4>
    3c9c:	00084202 	andeq	r4, r8, r2, lsl #4
    3ca0:	02124000 	andseq	r4, r2, #0
    3ca4:	00000f10 	andeq	r0, r0, r0, lsl pc
    3ca8:	04b8022c 	ldrteq	r0, [r8], #556	; 0x22c
    3cac:	12800000 	addne	r0, r0, #0
    3cb0:	000dfb02 	andeq	pc, sp, r2, lsl #22
    3cb4:	42022d00 	andmi	r2, r2, #0, 26
    3cb8:	c0000008 	andgt	r0, r0, r8
    3cbc:	069d0212 			; <UNDEFINED> instruction: 0x069d0212
    3cc0:	022e0000 	eoreq	r0, lr, #0
    3cc4:	000004b8 			; <UNDEFINED> instruction: 0x000004b8
    3cc8:	05021300 	streq	r1, [r2, #-768]	; 0xfffffd00
    3ccc:	2f00000e 	svccs	0x0000000e
    3cd0:	00084202 	andeq	r4, r8, r2, lsl #4
    3cd4:	02134000 	andseq	r4, r3, #0
    3cd8:	000008d9 	ldrdeq	r0, [r0], -r9
    3cdc:	04b80230 	ldrteq	r0, [r8], #560	; 0x230
    3ce0:	13800000 	orrne	r0, r0, #0
    3ce4:	00086002 	andeq	r6, r8, r2
    3ce8:	42023100 	andmi	r3, r2, #0, 2
    3cec:	c0000008 	andgt	r0, r0, r8
    3cf0:	112a0213 			; <UNDEFINED> instruction: 0x112a0213
    3cf4:	02320000 	eorseq	r0, r2, #0
    3cf8:	00000863 	andeq	r0, r0, r3, ror #16
    3cfc:	17021400 	strne	r1, [r2, -r0, lsl #8]
    3d00:	3300000e 	movwcc	r0, #14
    3d04:	00086802 	andeq	r6, r8, r2, lsl #16
    3d08:	02160000 	andseq	r0, r6, #0
    3d0c:	0000100c 	andeq	r1, r0, ip
    3d10:	08630234 	stmdaeq	r3!, {r2, r4, r5, r9}^
    3d14:	18000000 	stmdane	r0, {}	; <UNPREDICTABLE>
    3d18:	00103d02 	andseq	r3, r0, r2, lsl #26
    3d1c:	68023500 	stmdavs	r2, {r8, sl, ip, sp}
    3d20:	00000008 	andeq	r0, r0, r8
    3d24:	0d7d021a 	lfmeq	f0, 2, [sp, #-104]!	; 0xffffff98
    3d28:	02360000 	eorseq	r0, r6, #0
    3d2c:	000004a3 	andeq	r0, r0, r3, lsr #9
    3d30:	48021c00 	stmdami	r2, {sl, fp, ip}
    3d34:	37000010 	smladcc	r0, r0, r0, r0
    3d38:	00087802 	andeq	r7, r8, r2, lsl #16
    3d3c:	021c8000 	andseq	r8, ip, #0
    3d40:	00000e0f 	andeq	r0, r0, pc, lsl #28
    3d44:	00770238 	rsbseq	r0, r7, r8, lsr r2
    3d48:	1d000000 	stcne	0, cr0, [r0, #-0]
    3d4c:	000d6402 	andeq	r6, sp, r2, lsl #8
    3d50:	9d023900 	vstrls.16	s6, [r2, #-0]	; <UNPREDICTABLE>
    3d54:	04000008 	streq	r0, [r0], #-8
    3d58:	1053021d 	subsne	r0, r3, sp, lsl r2
    3d5c:	023a0000 	eorseq	r0, sl, #0
    3d60:	000008a2 	andeq	r0, r0, r2, lsr #17
    3d64:	c3021d40 	movwgt	r1, #11584	; 0x2d40
    3d68:	3b00000b 	blcc	3d9c <shift+0x3d9c>
    3d6c:	00007202 	andeq	r7, r0, r2, lsl #4
    3d70:	021f0000 	andseq	r0, pc, #0
    3d74:	0000088f 	andeq	r0, r0, pc, lsl #17
    3d78:	08b2023c 	ldmeq	r2!, {r2, r3, r4, r5, r9}
    3d7c:	1f040000 	svcne	0x00040000
    3d80:	00101802 	andseq	r1, r0, r2, lsl #16
    3d84:	d2023d00 	andle	r3, r2, #0, 26
    3d88:	10000008 	andne	r0, r0, r8
    3d8c:	0af2021f 	beq	ffc84610 <__bss_end+0x7fc7f7f0>
    3d90:	023e0000 	eorseq	r0, lr, #0
    3d94:	000008d2 	ldrdeq	r0, [r0], -r2
    3d98:	5e021f20 	cdppl	15, 0, cr1, cr2, cr0, {1}
    3d9c:	3f000010 	svccc	0x00000010
    3da0:	0008d702 	andeq	sp, r8, r2, lsl #14
    3da4:	021f3000 	andseq	r3, pc, #0
    3da8:	00000cb6 			; <UNDEFINED> instruction: 0x00000cb6
    3dac:	00770240 	rsbseq	r0, r7, r0, asr #4
    3db0:	1fd00000 	svcne	0x00d00000
    3db4:	000cbe02 	andeq	fp, ip, r2, lsl #28
    3db8:	77024100 	strvc	r4, [r2, -r0, lsl #2]
    3dbc:	d4000000 	strle	r0, [r0], #-0
    3dc0:	0cc6021f 	sfmeq	f0, 2, [r6], {31}
    3dc4:	02420000 	subeq	r0, r2, #0
    3dc8:	00000077 	andeq	r0, r0, r7, ror r0
    3dcc:	ce021fd8 	mcrgt	15, 0, r1, cr2, cr8, {6}
    3dd0:	4300000c 	movwmi	r0, #12
    3dd4:	00007702 	andeq	r7, r0, r2, lsl #14
    3dd8:	021fdc00 	andseq	sp, pc, #0, 24
    3ddc:	00000c96 	muleq	r0, r6, ip
    3de0:	00770244 	rsbseq	r0, r7, r4, asr #4
    3de4:	1fe00000 	svcne	0x00e00000
    3de8:	000c9e02 	andeq	r9, ip, r2, lsl #28
    3dec:	77024500 	strvc	r4, [r2, -r0, lsl #10]
    3df0:	e4000000 	str	r0, [r0], #-0
    3df4:	0ca6021f 	sfmeq	f0, 4, [r6], #124	; 0x7c
    3df8:	02460000 	subeq	r0, r6, #0
    3dfc:	00000077 	andeq	r0, r0, r7, ror r0
    3e00:	ae021fe8 	cdpge	15, 0, cr1, cr2, cr8, {7}
    3e04:	4700000c 	strmi	r0, [r0, -ip]
    3e08:	00007702 	andeq	r7, r0, r2, lsl #14
    3e0c:	021fec00 	andseq	lr, pc, #0, 24
    3e10:	000006b7 			; <UNDEFINED> instruction: 0x000006b7
    3e14:	00770248 	rsbseq	r0, r7, r8, asr #4
    3e18:	1ff00000 	svcne	0x00f00000	; IMB
    3e1c:	0006bf02 	andeq	fp, r6, r2, lsl #30
    3e20:	77024900 	strvc	r4, [r2, -r0, lsl #18]
    3e24:	f4000000 	vst4.8	{d0-d3}, [r0], r0
    3e28:	06c7021f 			; <UNDEFINED> instruction: 0x06c7021f
    3e2c:	024a0000 	subeq	r0, sl, #0
    3e30:	00000077 	andeq	r0, r0, r7, ror r0
    3e34:	cf021ff8 	svcgt	0x00021ff8
    3e38:	4b000006 	blmi	3e58 <shift+0x3e58>
    3e3c:	00007702 	andeq	r7, r0, r2, lsl #14
    3e40:	021ffc00 	andseq	pc, pc, #0, 24
    3e44:	000011a8 	andeq	r1, r0, r8, lsr #3
    3e48:	0072024d 	rsbseq	r0, r2, sp, asr #4
    3e4c:	20000000 	andcs	r0, r0, r0
    3e50:	0008c702 	andeq	ip, r8, r2, lsl #14
    3e54:	72024e00 	andvc	r4, r2, #0, 28
    3e58:	04000000 	streq	r0, [r0], #-0
    3e5c:	10e00220 	rscne	r0, r0, r0, lsr #4
    3e60:	024f0000 	subeq	r0, pc, #0
    3e64:	00000072 	andeq	r0, r0, r2, ror r0
    3e68:	99022008 	stmdbls	r2, {r3, sp}
    3e6c:	5000000e 	andpl	r0, r0, lr
    3e70:	00007702 	andeq	r7, r0, r2, lsl #14
    3e74:	02200c00 	eoreq	r0, r0, #0, 24
    3e78:	00001180 	andeq	r1, r0, r0, lsl #3
    3e7c:	00720251 	rsbseq	r0, r2, r1, asr r2
    3e80:	20100000 	andscs	r0, r0, r0
    3e84:	00089a02 	andeq	r9, r8, r2, lsl #20
    3e88:	77025200 	strvc	r5, [r2, -r0, lsl #4]
    3e8c:	14000000 	strne	r0, [r0], #-0
    3e90:	060f0220 	streq	r0, [pc], -r0, lsr #4
    3e94:	02530000 	subseq	r0, r3, #0
    3e98:	00000077 	andeq	r0, r0, r7, ror r0
    3e9c:	54022018 	strpl	r2, [r2], #-24	; 0xffffffe8
    3ea0:	54000011 	strpl	r0, [r0], #-17	; 0xffffffef
    3ea4:	00007202 	andeq	r7, r0, r2, lsl #4
    3ea8:	02201c00 	eoreq	r1, r0, #0, 24
    3eac:	00000ee4 	andeq	r0, r0, r4, ror #29
    3eb0:	00770255 	rsbseq	r0, r7, r5, asr r2
    3eb4:	20200000 	eorcs	r0, r0, r0
    3eb8:	000e9f02 	andeq	r9, lr, r2, lsl #30
    3ebc:	72025600 	andvc	r5, r2, #0, 12
    3ec0:	24000000 	strcs	r0, [r0], #-0
    3ec4:	0b490220 	bleq	124474c <shift+0x124474c>
    3ec8:	02570000 	subseq	r0, r7, #0
    3ecc:	00000077 	andeq	r0, r0, r7, ror r0
    3ed0:	69022028 	stmdbvs	r2, {r3, r5, sp}
    3ed4:	58000010 	stmdapl	r0, {r4}
    3ed8:	0008e702 	andeq	lr, r8, r2, lsl #14
    3edc:	02202c00 	eoreq	r2, r0, #0, 24
    3ee0:	00000d3e 	andeq	r0, r0, lr, lsr sp
    3ee4:	00720259 	rsbseq	r0, r2, r9, asr r2
    3ee8:	20d00000 	sbcscs	r0, r0, r0
    3eec:	00107402 	andseq	r7, r0, r2, lsl #8
    3ef0:	b2025a00 	andlt	r5, r2, #0, 20
    3ef4:	d4000008 	strle	r0, [r0], #-8
    3ef8:	0ea70220 	cdpeq	2, 10, cr0, cr7, cr0, {1}
    3efc:	025b0000 	subseq	r0, fp, #0
    3f00:	00000072 	andeq	r0, r0, r2, ror r0
    3f04:	7f0220e0 	svcvc	0x000220e0
    3f08:	5c000010 	stcpl	0, cr0, [r0], {16}
    3f0c:	0008f702 	andeq	pc, r8, r2, lsl #14
    3f10:	0220e400 	eoreq	lr, r0, #0, 8
    3f14:	00000cd6 	ldrdeq	r0, [r0], -r6
    3f18:	0077025d 	rsbseq	r0, r7, sp, asr r2
    3f1c:	20fc0000 	rscscs	r0, ip, r0
    3f20:	00108a02 	andseq	r8, r0, r2, lsl #20
    3f24:	07025e00 	streq	r5, [r2, -r0, lsl #28]
    3f28:	00000009 	andeq	r0, r0, r9
    3f2c:	086a0221 	stmdaeq	sl!, {r0, r5, r9}^
    3f30:	025f0000 	subseq	r0, pc, #0
    3f34:	00000072 	andeq	r0, r0, r2, ror r0
    3f38:	03003000 	movweq	r3, #0
    3f3c:	00000066 	andeq	r0, r0, r6, rrx
    3f40:	00000832 	andeq	r0, r0, r2, lsr r8
    3f44:	00007c0a 	andeq	r7, r0, sl, lsl #24
    3f48:	0003ff00 	andeq	pc, r3, r0, lsl #30
    3f4c:	00006603 	andeq	r6, r0, r3, lsl #12
    3f50:	00084200 	andeq	r4, r8, r0, lsl #4
    3f54:	007c0400 	rsbseq	r0, ip, r0, lsl #8
    3f58:	001c0000 	andseq	r0, ip, r0
    3f5c:	00006603 	andeq	r6, r0, r3, lsl #12
    3f60:	00085200 	andeq	r5, r8, r0, lsl #4
    3f64:	007c0400 	rsbseq	r0, ip, r0, lsl #8
    3f68:	000f0000 	andeq	r0, pc, r0
    3f6c:	00005303 	andeq	r5, r0, r3, lsl #6
    3f70:	00086300 	andeq	r6, r8, r0, lsl #6
    3f74:	007c0a00 	rsbseq	r0, ip, r0, lsl #20
    3f78:	01ff0000 	mvnseq	r0, r0
    3f7c:	08520600 	ldmdaeq	r2, {r9, sl}^
    3f80:	66030000 	strvs	r0, [r3], -r0
    3f84:	78000000 	stmdavc	r0, {}	; <UNPREDICTABLE>
    3f88:	04000008 	streq	r0, [r0], #-8
    3f8c:	0000007c 	andeq	r0, r0, ip, ror r0
    3f90:	6603007f 			; <UNDEFINED> instruction: 0x6603007f
    3f94:	88000000 	stmdahi	r0, {}	; <UNPREDICTABLE>
    3f98:	04000008 	streq	r0, [r0], #-8
    3f9c:	0000007c 	andeq	r0, r0, ip, ror r0
    3fa0:	7703001f 	smladvc	r3, pc, r0, r0	; <UNPREDICTABLE>
    3fa4:	98000000 	stmdals	r0, {}	; <UNPREDICTABLE>
    3fa8:	04000008 	streq	r0, [r0], #-8
    3fac:	0000007c 	andeq	r0, r0, ip, ror r0
    3fb0:	880d000e 	stmdahi	sp, {r1, r2, r3}
    3fb4:	06000008 	streq	r0, [r0], -r8
    3fb8:	00000898 	muleq	r0, r8, r8
    3fbc:	00006603 	andeq	r6, r0, r3, lsl #12
    3fc0:	0008b200 	andeq	fp, r8, r0, lsl #4
    3fc4:	007c0400 	rsbseq	r0, ip, r0, lsl #8
    3fc8:	006f0000 	rsbeq	r0, pc, r0
    3fcc:	00006603 	andeq	r6, r0, r3, lsl #12
    3fd0:	0008c200 	andeq	ip, r8, r0, lsl #4
    3fd4:	007c0400 	rsbseq	r0, ip, r0, lsl #8
    3fd8:	00020000 	andeq	r0, r2, r0
    3fdc:	00005303 	andeq	r5, r0, r3, lsl #6
    3fe0:	0008d200 	andeq	sp, r8, r0, lsl #4
    3fe4:	007c0400 	rsbseq	r0, ip, r0, lsl #8
    3fe8:	000f0000 	andeq	r0, pc, r0
    3fec:	0008c206 	andeq	ip, r8, r6, lsl #4
    3ff0:	00660300 	rsbeq	r0, r6, r0, lsl #6
    3ff4:	08e70000 	stmiaeq	r7!, {}^	; <UNPREDICTABLE>
    3ff8:	7c040000 	stcvc	0, cr0, [r4], {-0}
    3ffc:	27000000 	strcs	r0, [r0, -r0]
    4000:	00660300 	rsbeq	r0, r6, r0, lsl #6
    4004:	08f70000 	ldmeq	r7!, {}^	; <UNPREDICTABLE>
    4008:	7c040000 	stcvc	0, cr0, [r4], {-0}
    400c:	28000000 	stmdacs	r0, {}	; <UNPREDICTABLE>
    4010:	00660300 	rsbeq	r0, r6, r0, lsl #6
    4014:	09070000 	stmdbeq	r7, {}	; <UNPREDICTABLE>
    4018:	7c040000 	stcvc	0, cr0, [r4], {-0}
    401c:	05000000 	streq	r0, [r0, #-0]
    4020:	00660300 	rsbeq	r0, r6, r0, lsl #6
    4024:	09180000 	ldmdbeq	r8, {}	; <UNPREDICTABLE>
    4028:	7c0a0000 	stcvc	0, cr0, [sl], {-0}
    402c:	bf000000 	svclt	0x00000000
    4030:	2f0f0003 	svccs	0x000f0003
    4034:	0200000a 	andeq	r0, r0, #10
    4038:	04d40260 	ldrbeq	r0, [r4], #608	; 0x260
    403c:	d2080000 	andle	r0, r8, #0
    4040:	0500000f 	streq	r0, [r0, #-15]
    4044:	09301006 	ldmdbeq	r0!, {r1, r2, ip}
    4048:	35100000 	ldrcc	r0, [r0, #-0]
    404c:	1e000009 	cdpne	0, 0, cr0, cr0, cr9, {0}
    4050:	00000945 	andeq	r0, r0, r5, asr #18
    4054:	00007c07 	andeq	r7, r0, r7, lsl #24
    4058:	04cb0700 	strbeq	r0, [fp], #1792	; 0x700
    405c:	11000000 	mrsne	r0, (UNDEF: 0)
    4060:	000019f4 	strdeq	r1, [r0], -r4
    4064:	09560d06 	ldmdbeq	r6, {r1, r2, r8, sl, fp}^
    4068:	58070000 	stmdapl	r7, {}	; <UNPREDICTABLE>
    406c:	00000000 	andeq	r0, r0, r0
    4070:	00116511 	andseq	r6, r1, r1, lsl r5
    4074:	71060500 	tstvc	r6, r0, lsl #10
    4078:	07000009 	streq	r0, [r0, -r9]
    407c:	00000435 	andeq	r0, r0, r5, lsr r4
    4080:	00092407 	andeq	r2, r9, r7, lsl #8
    4084:	04cb0700 	strbeq	r0, [fp], #1792	; 0x700
    4088:	1f000000 	svcne	0x00000000
    408c:	000019f9 	strdeq	r1, [r0], -r9
    4090:	48062f01 	stmdami	r6, {r0, r8, r9, sl, fp, sp}
    4094:	22800012 	addcs	r0, r0, #18
    4098:	01000000 	mrseq	r0, (UNDEF: 0)
    409c:	006f209c 	mlseq	pc, ip, r0, r2	; <UNPREDICTABLE>
    40a0:	0c010000 	stceq	0, cr0, [r1], {-0}
    40a4:	00117c06 	andseq	r7, r1, r6, lsl #24
    40a8:	0000cc80 	andeq	ip, r0, r0, lsl #25
    40ac:	209c0100 	addscs	r0, ip, r0, lsl #2
    40b0:	1200000a 	andne	r0, r0, #10
    40b4:	00001a14 	andeq	r1, r0, r4, lsl sl
    40b8:	00007c1e 	andeq	r7, r0, lr, lsl ip
    40bc:	5c910200 	lfmpl	f0, 4, [r1], {0}
    40c0:	0013aa12 	andseq	sl, r3, r2, lsl sl
    40c4:	007c3100 	rsbseq	r3, ip, r0, lsl #2
    40c8:	91020000 	mrsls	r0, (UNDEF: 2)
    40cc:	0a542158 	beq	150c634 <shift+0x150c634>
    40d0:	11ca0000 	bicne	r0, sl, r0
    40d4:	002c8000 	eoreq	r8, ip, r0
    40d8:	22010000 	andcs	r0, r1, #0
    40dc:	0009e702 	andeq	lr, r9, r2, lsl #14
    40e0:	0a5f0b00 	beq	17c6ce8 <shift+0x17c6ce8>
    40e4:	91020000 	mrsls	r0, (UNDEF: 2)
    40e8:	0a6b1368 	beq	1ac8e90 <shift+0x1ac8e90>
    40ec:	91020000 	mrsls	r0, (UNDEF: 2)
    40f0:	0a771464 	beq	1dc9288 <shift+0x1dc9288>
    40f4:	11ca0000 	bicne	r0, sl, r0
    40f8:	00048000 	andeq	r8, r4, r0
    40fc:	02870000 	addeq	r0, r7, #0
    4100:	0a202200 	beq	80c908 <shift+0x80c908>
    4104:	11f60000 	mvnsne	r0, r0
    4108:	00228000 	eoreq	r8, r2, r0
    410c:	23010000 	movwcs	r0, #4096	; 0x1000
    4110:	0a370b02 	beq	dc6d20 <shift+0xdc6d20>
    4114:	91020000 	mrsls	r0, (UNDEF: 2)
    4118:	0a2b0b70 	beq	ac6ee0 <shift+0xac6ee0>
    411c:	91020000 	mrsls	r0, (UNDEF: 2)
    4120:	0a431374 	beq	10c8ef8 <shift+0x10c8ef8>
    4124:	91020000 	mrsls	r0, (UNDEF: 2)
    4128:	0a77146c 	beq	1dc92e0 <shift+0x1dc92e0>
    412c:	11f60000 	mvnsne	r0, r0
    4130:	00048000 	andeq	r8, r4, r0
    4134:	02c80000 	sbceq	r0, r8, #0
    4138:	41150000 	tstmi	r5, r0
    413c:	c600000a 	strgt	r0, [r0], -sl
    4140:	000a4f02 	andeq	r4, sl, r2, lsl #30
    4144:	0fa70c00 	svceq	0x00a70c00
    4148:	02c60000 	sbceq	r0, r6, #0
    414c:	0004353d 	andeq	r3, r4, sp, lsr r5
    4150:	0e820c00 	cdpeq	12, 8, cr0, cr2, cr0, {0}
    4154:	02c60000 	sbceq	r0, r6, #0
    4158:	0000664c 	andeq	r6, r0, ip, asr #12
    415c:	69671600 	stmdbvs	r7!, {r9, sl, ip}^
    4160:	02c80063 	sbceq	r0, r8, #99	; 0x63
    4164:	00000a4f 	andeq	r0, r0, pc, asr #20
    4168:	09181000 	ldmdbeq	r8, {ip}
    416c:	70150000 	andsvc	r0, r5, r0
    4170:	85000008 	strhi	r0, [r0, #-8]
    4174:	000a7702 	andeq	r7, sl, r2, lsl #14
    4178:	0fa70c00 	svceq	0x00a70c00
    417c:	02850000 	addeq	r0, r5, #0
    4180:	0004353b 	andeq	r3, r4, fp, lsr r5
    4184:	69671600 	stmdbvs	r7!, {r9, sl, ip}^
    4188:	02870063 	addeq	r0, r7, #99	; 0x63
    418c:	00000a4f 	andeq	r0, r0, pc, asr #20
    4190:	06652300 	strbteq	r2, [r5], -r0, lsl #6
    4194:	0d020000 	stceq	0, cr0, [r2, #-0]
    4198:	00662702 	rsbeq	r2, r6, r2, lsl #14
    419c:	00030000 	andeq	r0, r3, r0
    41a0:	000004a2 	andeq	r0, r0, r2, lsr #9
    41a4:	04010005 	streq	r0, [r1], #-5
    41a8:	0000105e 	andeq	r1, r0, lr, asr r0
    41ac:	0000e90d 	andeq	lr, r0, sp, lsl #18
    41b0:	1a3b1d00 	bne	ecb5b8 <shift+0xecb5b8>
    41b4:	00100000 	andseq	r0, r0, r0
    41b8:	126c0000 	rsbne	r0, ip, #0
    41bc:	06268000 	strteq	r8, [r6], -r0
    41c0:	0d1d0000 	ldceq	0, cr0, [sp, #-0]
    41c4:	01030000 	mrseq	r0, (UNDEF: 3)
    41c8:	0000a106 	andeq	sl, r0, r6, lsl #2
    41cc:	05020300 	streq	r0, [r2, #-768]	; 0xfffffd00
    41d0:	00000145 	andeq	r0, r0, r5, asr #2
    41d4:	6905040e 	stmdbvs	r5, {r1, r2, r3, sl}
    41d8:	0800746e 	stmdaeq	r0, {r1, r2, r3, r5, r6, sl, ip, sp, lr}
    41dc:	00000248 	andeq	r0, r0, r8, asr #4
    41e0:	0046170e 	subeq	r1, r6, lr, lsl #14
    41e4:	01030000 	mrseq	r0, (UNDEF: 3)
    41e8:	00009f08 	andeq	r9, r0, r8, lsl #30
    41ec:	07020300 	streq	r0, [r2, -r0, lsl #6]
    41f0:	000000ce 	andeq	r0, r0, lr, asr #1
    41f4:	00032108 	andeq	r2, r3, r8, lsl #2
    41f8:	64161000 	ldrvs	r1, [r6], #-0
    41fc:	0f000000 	svceq	0x00000000
    4200:	00000054 	andeq	r0, r0, r4, asr r0
    4204:	c1070403 	tstgt	r7, r3, lsl #8
    4208:	08000000 	stmdaeq	r0, {}	; <UNPREDICTABLE>
    420c:	00001a32 	andeq	r1, r0, r2, lsr sl
    4210:	00761c11 	rsbseq	r1, r6, r1, lsl ip
    4214:	08030000 	stmdaeq	r3, {}	; <UNPREDICTABLE>
    4218:	0000b707 	andeq	fp, r0, r7, lsl #14
    421c:	05080300 	streq	r0, [r8, #-768]	; 0xfffffd00
    4220:	0000004d 	andeq	r0, r0, sp, asr #32
    4224:	00003b10 	andeq	r3, r0, r0, lsl fp
    4228:	00009400 	andeq	r9, r0, r0, lsl #8
    422c:	00641100 	rsbeq	r1, r4, r0, lsl #2
    4230:	003b0000 	eorseq	r0, fp, r0
    4234:	c604bc12 			; <UNDEFINED> instruction: 0xc604bc12
    4238:	01970992 			; <UNDEFINED> instruction: 0x01970992
    423c:	33010000 	movwcc	r0, #4096	; 0x1000
    4240:	c700001b 	smladgt	r0, fp, r0, r0
    4244:	005f1192 			; <UNDEFINED> instruction: 0x005f1192
    4248:	01000000 	mrseq	r0, (UNDEF: 0)
    424c:	000003d5 	ldrdeq	r0, [r0], -r5
    4250:	841092c8 	ldrhi	r9, [r0], #-712	; 0xfffffd38
    4254:	04000000 	streq	r0, [r0], #-0
    4258:	001aba01 	andseq	fp, sl, r1, lsl #20
    425c:	1192c900 	orrsne	ip, r2, r0, lsl #18
    4260:	0000005f 	andeq	r0, r0, pc, asr r0
    4264:	03e00140 	mvneq	r0, #64, 2
    4268:	92ca0000 	sbcls	r0, sl, #0
    426c:	00008410 	andeq	r8, r0, r0, lsl r4
    4270:	1e014400 	cfcpysne	mvf4, mvf1
    4274:	cb00001a 	blgt	42e4 <shift+0x42e4>
    4278:	005f1192 			; <UNDEFINED> instruction: 0x005f1192
    427c:	01800000 	orreq	r0, r0, r0
    4280:	00001a23 	andeq	r1, r0, r3, lsr #20
    4284:	5f1192cc 	svcpl	0x001192cc
    4288:	84000000 	strhi	r0, [r0], #-0
    428c:	001a2801 	andseq	r2, sl, r1, lsl #16
    4290:	1192cd00 	orrsne	ip, r2, r0, lsl #26
    4294:	0000005f 	andeq	r0, r0, pc, asr r0
    4298:	1a2d0188 	bne	b448c0 <shift+0xb448c0>
    429c:	92ce0000 	sbcls	r0, lr, #0
    42a0:	00005f11 	andeq	r5, r0, r1, lsl pc
    42a4:	cd018c00 	stcgt	12, cr8, [r1, #-0]
    42a8:	cf00001a 	svcgt	0x0000001a
    42ac:	005f1192 			; <UNDEFINED> instruction: 0x005f1192
    42b0:	01900000 	orrseq	r0, r0, r0
    42b4:	00001a96 	muleq	r0, r6, sl
    42b8:	5f1192d0 	svcpl	0x001192d0
    42bc:	94000000 	strls	r0, [r0], #-0
    42c0:	001a5401 	andseq	r5, sl, r1, lsl #8
    42c4:	1192d100 	orrsne	sp, r2, r0, lsl #2
    42c8:	0000005f 	andeq	r0, r0, pc, asr r0
    42cc:	1a4f0198 	bne	13c4934 <shift+0x13c4934>
    42d0:	92d20000 	sbcsls	r0, r2, #0
    42d4:	00005f11 	andeq	r5, r0, r1, lsl pc
    42d8:	c8019c00 	stmdagt	r1, {sl, fp, ip, pc}
    42dc:	d300001a 	movwle	r0, #26
    42e0:	005f1192 			; <UNDEFINED> instruction: 0x005f1192
    42e4:	01a00000 	moveq	r0, r0
    42e8:	00001ae2 	andeq	r1, r0, r2, ror #21
    42ec:	5f1192d4 	svcpl	0x001192d4
    42f0:	a4000000 	strge	r0, [r0], #-0
    42f4:	001a9b01 	andseq	r9, sl, r1, lsl #22
    42f8:	1192d500 	orrsne	sp, r2, r0, lsl #10
    42fc:	0000005f 	andeq	r0, r0, pc, asr r0
    4300:	1a5901a8 	bne	16449a8 <shift+0x16449a8>
    4304:	92d60000 	sbcsls	r0, r6, #0
    4308:	00005f11 	andeq	r5, r0, r1, lsl pc
    430c:	dc01ac00 	stcle	12, cr10, [r1], {-0}
    4310:	d700001a 	smladle	r0, sl, r0, r0
    4314:	005f1192 			; <UNDEFINED> instruction: 0x005f1192
    4318:	13b00000 	movsne	r0, #0
    431c:	00535455 	subseq	r5, r3, r5, asr r4
    4320:	1192d804 	orrsne	sp, r2, r4, lsl #16
    4324:	0000005f 	andeq	r0, r0, pc, asr r0
    4328:	1b4d01b4 	blne	1344a00 <shift+0x1344a00>
    432c:	92d90000 	sbcsls	r0, r9, #0
    4330:	00005f11 	andeq	r5, r0, r1, lsl pc
    4334:	1400b800 	strne	fp, [r0], #-2048	; 0xfffff800
    4338:	00001ad2 	ldrdeq	r1, [r0], -r2
    433c:	0392da04 	orrseq	sp, r2, #4, 20	; 0x4000
    4340:	00000094 	muleq	r0, r4, r0
    4344:	bc070403 	cfstrslt	mvf0, [r7], {3}
    4348:	03000000 	movweq	r0, #0
    434c:	00520504 	subseq	r0, r2, r4, lsl #10
    4350:	b7090000 	strlt	r0, [r9, -r0]
    4354:	03000001 	movweq	r0, #1
    4358:	00a80801 	adceq	r0, r8, r1, lsl #16
    435c:	90150000 	andsls	r0, r5, r0
    4360:	0200001a 	andeq	r0, r0, #26
    4364:	7e060110 	fltvcs	f6, r0
    4368:	14800018 	strne	r0, [r0], #24
    436c:	01000000 	mrseq	r0, (UNDEF: 0)
    4370:	0001e69c 	muleq	r1, ip, r6
    4374:	1a890200 	bne	fe244b7c <__bss_end+0x7e23fd5c>
    4378:	10020000 	andne	r0, r2, r0
    437c:	00341001 	eorseq	r1, r4, r1
    4380:	91020000 	mrsls	r0, (UNDEF: 2)
    4384:	69160074 	ldmdbvs	r6, {r2, r4, r5, r6}
    4388:	0200001a 	andeq	r0, r0, #26
    438c:	460f0105 	strmi	r0, [pc], -r5, lsl #2
    4390:	52000000 	andpl	r0, r0, #0
    4394:	2c800018 	stccs	0, cr0, [r0], {24}
    4398:	01000000 	mrseq	r0, (UNDEF: 0)
    439c:	09350a9c 	ldmdbeq	r5!, {r2, r3, r4, r7, r9, fp}
    43a0:	24f80000 	ldrbtcs	r0, [r8], #0
    43a4:	2e800018 	mcrcs	0, 4, r0, cr0, cr8, {0}
    43a8:	01000000 	mrseq	r0, (UNDEF: 0)
    43ac:	00022c9c 	muleq	r2, ip, ip
    43b0:	74730b00 	ldrbtvc	r0, [r3], #-2816	; 0xfffff500
    43b4:	11f80072 	mvnsne	r0, r2, ror r0
    43b8:	000001b2 			; <UNDEFINED> instruction: 0x000001b2
    43bc:	066c9102 	strbteq	r9, [ip], -r2, lsl #2
    43c0:	08fa0070 	ldmeq	sl!, {r4, r5, r6}^
    43c4:	000001b2 			; <UNDEFINED> instruction: 0x000001b2
    43c8:	00749102 	rsbseq	r9, r4, r2, lsl #2
    43cc:	0019f407 	andseq	pc, r9, r7, lsl #8
    43d0:	17f0ed00 	ldrbne	lr, [r0, r0, lsl #26]!
    43d4:	00348000 	eorseq	r8, r4, r0
    43d8:	9c010000 	stcls	0, cr0, [r1], {-0}
    43dc:	0000024d 	andeq	r0, r0, sp, asr #4
    43e0:	ed00630b 	stc	3, cr6, [r0, #-44]	; 0xffffffd4
    43e4:	00004619 	andeq	r4, r0, r9, lsl r6
    43e8:	77910200 	ldrvc	r0, [r1, r0, lsl #4]
    43ec:	1ae70700 	bne	ff9c5ff4 <__bss_end+0x7f9c11d4>
    43f0:	bae20000 	blt	ff8843f8 <__bss_end+0x7f87f5d8>
    43f4:	36800017 	pkhbtcc	r0, r0, r7
    43f8:	01000000 	mrseq	r0, (UNDEF: 0)
    43fc:	0002709c 	muleq	r2, ip, r0
    4400:	1d720500 	cfldr64ne	mvdx0, [r2, #-0]
    4404:	20e20000 	rsccs	r0, r2, r0
    4408:	00000270 	andeq	r0, r0, r0, ror r2
    440c:	00749102 	rsbseq	r9, r4, r2, lsl #2
    4410:	00019709 	andeq	r9, r1, r9, lsl #14
    4414:	1aa00700 	bne	fe80601c <__bss_end+0x7e8011fc>
    4418:	96d80000 	ldrbls	r0, [r8], r0
    441c:	24800017 	strcs	r0, [r0], #23
    4420:	01000000 	mrseq	r0, (UNDEF: 0)
    4424:	0002989c 	muleq	r2, ip, r8
    4428:	1d720500 	cfldr64ne	mvdx0, [r2, #-0]
    442c:	1dd80000 	ldclne	0, cr0, [r8]
    4430:	00000270 	andeq	r0, r0, r0, ror r2
    4434:	00749102 	rsbseq	r9, r4, r2, lsl #2
    4438:	001af607 	andseq	pc, sl, r7, lsl #12
    443c:	1772ce00 	ldrbne	ip, [r2, -r0, lsl #28]!
    4440:	00248000 	eoreq	r8, r4, r0
    4444:	9c010000 	stcls	0, cr0, [r1], {-0}
    4448:	000002bb 			; <UNDEFINED> instruction: 0x000002bb
    444c:	001d7205 	andseq	r7, sp, r5, lsl #4
    4450:	701ece00 	andsvc	ip, lr, r0, lsl #28
    4454:	02000002 	andeq	r0, r0, #2
    4458:	0a007491 	beq	216a4 <shift+0x216a4>
    445c:	00001a6e 	andeq	r1, r0, lr, ror #20
    4460:	00140a64 	andseq	r0, r4, r4, ror #20
    4464:	00036880 	andeq	r6, r3, r0, lsl #17
    4468:	999c0100 	ldmibls	ip, {r8}
    446c:	05000003 	streq	r0, [r0, #-3]
    4470:	00001d72 	andeq	r1, r0, r2, ror sp
    4474:	02702264 	rsbseq	r2, r0, #100, 4	; 0x40000006
    4478:	91030000 	mrsls	r0, (UNDEF: 3)
    447c:	76057fa4 	strvc	r7, [r5], -r4, lsr #31
    4480:	6400001a 	strvs	r0, [r0], #-26	; 0xffffffe6
    4484:	00006435 	andeq	r6, r0, r5, lsr r4
    4488:	a0910300 	addsge	r0, r1, r0, lsl #6
    448c:	1b0b057f 	blne	2c5a90 <shift+0x2c5a90>
    4490:	4c640000 	stclmi	0, cr0, [r4], #-0
    4494:	00000064 	andeq	r0, r0, r4, rrx
    4498:	7f9c9103 	svcvc	0x009c9103
    449c:	001a7f04 	andseq	r7, sl, r4, lsl #30
    44a0:	00546600 	subseq	r6, r4, r0, lsl #12
    44a4:	91020000 	mrsls	r0, (UNDEF: 2)
    44a8:	1b17045c 	blne	5c5620 <shift+0x5c5620>
    44ac:	54670000 	strbtpl	r0, [r7], #-0
    44b0:	02000000 	andeq	r0, r0, #0
    44b4:	03045891 	movweq	r5, #18577	; 0x4891
    44b8:	6800001b 	stmdavs	r0, {r0, r1, r3, r4}
    44bc:	00000054 	andeq	r0, r0, r4, asr r0
    44c0:	04549102 	ldrbeq	r9, [r4], #-258	; 0xfffffefe
    44c4:	00001a5e 	andeq	r1, r0, lr, asr sl
    44c8:	00005469 	andeq	r5, r0, r9, ror #8
    44cc:	50910200 	addspl	r0, r1, r0, lsl #4
    44d0:	001b3804 	andseq	r3, fp, r4, lsl #16
    44d4:	00546a00 	subseq	r6, r4, r0, lsl #20
    44d8:	91020000 	mrsls	r0, (UNDEF: 2)
    44dc:	1abf0440 	bne	fefc55e4 <__bss_end+0x7efc07c4>
    44e0:	6b6b0000 	blvs	1ac44e8 <shift+0x1ac44e8>
    44e4:	03000000 	movweq	r0, #0
    44e8:	047fb891 	ldrbteq	fp, [pc], #-2193	; 44f0 <shift+0x44f0>
    44ec:	00001aac 	andeq	r1, r0, ip, lsr #21
    44f0:	00006b6c 	andeq	r6, r0, ip, ror #22
    44f4:	48910200 	ldmmi	r1, {r9}
    44f8:	001b2304 	andseq	r2, fp, r4, lsl #6
    44fc:	00546d00 	subseq	r6, r4, r0, lsl #26
    4500:	91020000 	mrsls	r0, (UNDEF: 2)
    4504:	14d01744 	ldrbne	r1, [r0], #1860	; 0x744
    4508:	007e8000 	rsbseq	r8, lr, r0
    450c:	6d060000 	stcvs	0, cr0, [r6, #-0]
    4510:	54128200 	ldrpl	r8, [r2], #-512	; 0xfffffe00
    4514:	03000000 	movweq	r0, #0
    4518:	067fb491 			; <UNDEFINED> instruction: 0x067fb491
    451c:	1283006e 	addne	r0, r3, #110	; 0x6e
    4520:	00000054 	andeq	r0, r0, r4, asr r0
    4524:	7fb09103 	svcvc	0x00b09103
    4528:	78616d06 	stmdavc	r1!, {r1, r2, r8, sl, fp, sp, lr}^
    452c:	54128400 	ldrpl	r8, [r2], #-1024	; 0xfffffc00
    4530:	03000000 	movweq	r0, #0
    4534:	007fac91 			; <UNDEFINED> instruction: 0x007fac91
    4538:	1b400c00 	blne	1007540 <shift+0x1007540>
    453c:	76440000 	strbvc	r0, [r4], -r0
    4540:	94800013 	strls	r0, [r0], #19
    4544:	01000000 	mrseq	r0, (UNDEF: 0)
    4548:	00ad0c9c 	umlaleq	r0, sp, ip, ip
    454c:	d0080000 	andle	r0, r8, r0
    4550:	a6800012 	pkhbtge	r0, r0, r2
    4554:	01000000 	mrseq	r0, (UNDEF: 0)
    4558:	0598189c 	ldreq	r1, [r8, #2204]	; 0x89c
    455c:	44010000 	strmi	r0, [r1], #-0
    4560:	12aa1404 	adcne	r1, sl, #4, 8	; 0x4000000
    4564:	00268000 	eoreq	r8, r6, r0
    4568:	9c010000 	stcls	0, cr0, [r1], {-0}
    456c:	00000431 	andeq	r0, r0, r1, lsr r4
    4570:	00052f02 	andeq	r2, r5, r2, lsl #30
    4574:	04440100 	strbeq	r0, [r4], #-256	; 0xffffff00
    4578:	00005431 	andeq	r5, r0, r1, lsr r4
    457c:	74910200 	ldrvc	r0, [r1], #512	; 0x200
    4580:	00050b02 	andeq	r0, r5, r2, lsl #22
    4584:	04450100 	strbeq	r0, [r5], #-256	; 0xffffff00
    4588:	00005431 	andeq	r5, r0, r1, lsr r4
    458c:	70910200 	addsvc	r0, r1, r0, lsl #4
    4590:	00051302 	andeq	r1, r5, r2, lsl #6
    4594:	04460100 	strbeq	r0, [r6], #-256	; 0xffffff00
    4598:	00005431 	andeq	r5, r0, r1, lsr r4
    459c:	6c910200 	lfmvs	f0, 4, [r1], {0}
    45a0:	00056802 	andeq	r6, r5, r2, lsl #16
    45a4:	04470100 	strbeq	r0, [r7], #-256	; 0xffffff00
    45a8:	00005431 	andeq	r5, r0, r1, lsr r4
    45ac:	68910200 	ldmvs	r1, {r9}
    45b0:	0005ac02 	andeq	sl, r5, r2, lsl #24
    45b4:	04480100 	strbeq	r0, [r8], #-256	; 0xffffff00
    45b8:	00005431 	andeq	r5, r0, r1, lsr r4
    45bc:	00910200 	addseq	r0, r1, r0, lsl #4
    45c0:	0005bb02 	andeq	fp, r5, r2, lsl #22
    45c4:	04490100 	strbeq	r0, [r9], #-256	; 0xffffff00
    45c8:	00005431 	andeq	r5, r0, r1, lsr r4
    45cc:	04910200 	ldreq	r0, [r1], #512	; 0x200
    45d0:	05501900 	ldrbeq	r1, [r0, #-2304]	; 0xfffff700
    45d4:	24010000 	strcs	r0, [r1], #-0
    45d8:	126c1404 	rsbne	r1, ip, #4, 8	; 0x4000000
    45dc:	003e8000 	eorseq	r8, lr, r0
    45e0:	9c010000 	stcls	0, cr0, [r1], {-0}
    45e4:	00052f02 	andeq	r2, r5, r2, lsl #30
    45e8:	04240100 	strteq	r0, [r4], #-256	; 0xffffff00
    45ec:	0000542e 	andeq	r5, r0, lr, lsr #8
    45f0:	74910200 	ldrvc	r0, [r1], #512	; 0x200
    45f4:	00050b02 	andeq	r0, r5, r2, lsl #22
    45f8:	04250100 	strteq	r0, [r5], #-256	; 0xffffff00
    45fc:	0000542e 	andeq	r5, r0, lr, lsr #8
    4600:	70910200 	addsvc	r0, r1, r0, lsl #4
    4604:	00051302 	andeq	r1, r5, r2, lsl #6
    4608:	04260100 	strteq	r0, [r6], #-256	; 0xffffff00
    460c:	0000542e 	andeq	r5, r0, lr, lsr #8
    4610:	6c910200 	lfmvs	f0, 4, [r1], {0}
    4614:	00056802 	andeq	r6, r5, r2, lsl #16
    4618:	04270100 	strteq	r0, [r7], #-256	; 0xffffff00
    461c:	0000542e 	andeq	r5, r0, lr, lsr #8
    4620:	68910200 	ldmvs	r1, {r9}
    4624:	0005ac02 	andeq	sl, r5, r2, lsl #24
    4628:	04280100 	strteq	r0, [r8], #-256	; 0xffffff00
    462c:	0000542e 	andeq	r5, r0, lr, lsr #8
    4630:	00910200 	addseq	r0, r1, r0, lsl #4
    4634:	00054302 	andeq	r4, r5, r2, lsl #6
    4638:	04290100 	strteq	r0, [r9], #-256	; 0xffffff00
    463c:	0000542e 	andeq	r5, r0, lr, lsr #8
    4640:	04910200 	ldreq	r0, [r1], #512	; 0x200
    4644:	00620000 	rsbeq	r0, r2, r0
    4648:	00050000 	andeq	r0, r5, r0
    464c:	121a0401 	andsne	r0, sl, #16777216	; 0x1000000
    4650:	e9030000 	stmdb	r3, {}	; <UNPREDICTABLE>
    4654:	1d000000 	stcne	0, cr0, [r0, #-0]
    4658:	00001b52 	andeq	r1, r0, r2, asr fp
    465c:	00000010 	andeq	r0, r0, r0, lsl r0
    4660:	00000f9c 	muleq	r0, ip, pc	; <UNPREDICTABLE>
    4664:	00002901 	andeq	r2, r0, r1, lsl #18
    4668:	00002900 	andeq	r2, r0, r0, lsl #18
    466c:	02000400 	andeq	r0, r0, #0, 8
    4670:	009f0801 	addseq	r0, pc, r1, lsl #16
    4674:	64050000 	strvs	r0, [r5], #-0
    4678:	0100001b 	tsteq	r0, fp, lsl r0
    467c:	001e160f 	andseq	r1, lr, pc, lsl #12
    4680:	29010000 	stmdbcs	r1, {}	; <UNPREDICTABLE>
    4684:	4c000000 	stcmi	0, cr0, [r0], {-0}
    4688:	06000000 	streq	r0, [r0], -r0
    468c:	0000004c 	andeq	r0, r0, ip, asr #32
    4690:	040200ff 	streq	r0, [r2], #-255	; 0xffffff01
    4694:	0000c107 	andeq	ip, r0, r7, lsl #2
    4698:	00300700 	eorseq	r0, r0, r0, lsl #14
    469c:	09020000 	stmdbeq	r2, {}	; <UNPREDICTABLE>
    46a0:	00003c0f 	andeq	r3, r0, pc, lsl #24
    46a4:	08030500 	stmdaeq	r3, {r8, sl}
    46a8:	00800040 	addeq	r0, r0, r0, asr #32
    46ac:	000000b2 	strheq	r0, [r0], -r2
    46b0:	04010005 	streq	r0, [r1], #-5
    46b4:	00001270 	andeq	r1, r0, r0, ror r2
    46b8:	0000e903 	andeq	lr, r0, r3, lsl #18
    46bc:	1b6b1d00 	blne	1acbac4 <shift+0x1acbac4>
    46c0:	00100000 	andseq	r0, r0, r0
    46c4:	18940000 	ldmne	r4, {}	; <UNPREDICTABLE>
    46c8:	017a8000 	cmneq	sl, r0
    46cc:	0fe70000 	svceq	0x00e70000
    46d0:	7d040000 	stcvc	0, cr0, [r4, #-0]
    46d4:	0100001b 	tsteq	r0, fp, lsl r0
    46d8:	00a30f15 	adceq	r0, r3, r5, lsl pc
    46dc:	18940000 	ldmne	r4, {}	; <UNPREDICTABLE>
    46e0:	017a8000 	cmneq	sl, r0
    46e4:	9c010000 	stcls	0, cr0, [r1], {-0}
    46e8:	000000a3 	andeq	r0, r0, r3, lsr #1
    46ec:	01006e05 	tsteq	r0, r5, lsl #28
    46f0:	00a92e15 	adceq	r2, r9, r5, lsl lr
    46f4:	91030000 	mrsls	r0, (UNDEF: 3)
    46f8:	72067fb4 	andvc	r7, r6, #180, 30	; 0x2d0
    46fc:	0100001d 	tsteq	r0, sp, lsl r0
    4700:	00a33e15 	adceq	r3, r3, r5, lsl lr
    4704:	91030000 	mrsls	r0, (UNDEF: 3)
    4708:	72017fb0 	andvc	r7, r1, #176, 30	; 0x2c0
    470c:	17006d65 	strne	r6, [r0, -r5, ror #26]
    4710:	0000af15 	andeq	sl, r0, r5, lsl pc
    4714:	58910200 	ldmpl	r1, {r9}
    4718:	18006201 	stmdane	r0, {r0, r9, sp, lr}
    471c:	0000af15 	andeq	sl, r0, r5, lsl pc
    4720:	50910200 	addspl	r0, r1, r0, lsl #4
    4724:	73657201 	cmnvc	r5, #268435456	; 0x10000000
    4728:	af151900 	svcge	0x00151900
    472c:	02000000 	andeq	r0, r0, #0
    4730:	64014891 	strvs	r4, [r1], #-2193	; 0xfffff76f
    4734:	af1a1900 	svcge	0x001a1900
    4738:	02000000 	andeq	r0, r0, #0
    473c:	88074091 	stmdahi	r7, {r0, r4, r7, lr}
    4740:	0100001b 	tsteq	r0, fp, lsl r0
    4744:	00a30f1a 	adceq	r0, r3, sl, lsl pc
    4748:	91030000 	mrsls	r0, (UNDEF: 3)
    474c:	02007fbc 	andeq	r7, r0, #188, 30	; 0x2f0
    4750:	0000c104 	andeq	ip, r0, r4, lsl #2
    4754:	af040800 	svcge	0x00040800
    4758:	02000000 	andeq	r0, r0, #0
    475c:	0000b708 	andeq	fp, r0, r8, lsl #14
    4760:	01470000 	mrseq	r0, (UNDEF: 71)
    4764:	00050000 	andeq	r0, r5, r0
    4768:	12fb0401 	rscsne	r0, fp, #16777216	; 0x1000000
    476c:	e9080000 	stmdb	r8, {}	; <UNPREDICTABLE>
    4770:	1d000000 	stcne	0, cr0, [r0, #-0]
    4774:	00001b8d 	andeq	r1, r0, sp, lsl #23
    4778:	00000010 	andeq	r0, r0, r0, lsl r0
    477c:	80001a0e 	andhi	r1, r0, lr, lsl #20
    4780:	0000008a 	andeq	r0, r0, sl, lsl #1
    4784:	0000107b 	andeq	r1, r0, fp, ror r0
    4788:	9f080101 	svcls	0x00080101
    478c:	02000000 	andeq	r0, r0, #0
    4790:	00001bab 	andeq	r1, r0, fp, lsr #23
    4794:	00381608 	eorseq	r1, r8, r8, lsl #12
    4798:	04090000 	streq	r0, [r9], #-0
    479c:	746e6905 	strbtvc	r6, [lr], #-2309	; 0xfffff6fb
    47a0:	1baa0200 	blne	fea84fa8 <__bss_end+0x7ea80188>
    47a4:	16090000 	strne	r0, [r9], -r0
    47a8:	0000004a 	andeq	r0, r0, sl, asr #32
    47ac:	c1070401 	tstgt	r7, r1, lsl #8
    47b0:	02000000 	andeq	r0, r0, #0
    47b4:	00002008 	andeq	r2, r0, r8
    47b8:	005c160a 	subseq	r1, ip, sl, lsl #12
    47bc:	08010000 	stmdaeq	r1, {}	; <UNPREDICTABLE>
    47c0:	00004d05 	andeq	r4, r0, r5, lsl #26
    47c4:	07080100 	streq	r0, [r8, -r0, lsl #2]
    47c8:	000000b7 	strheq	r0, [r0], -r7
    47cc:	001bb20a 	andseq	fp, fp, sl, lsl #4
    47d0:	11020800 	tstne	r2, r0, lsl #16
    47d4:	0000920a 	andeq	r9, r0, sl, lsl #4
    47d8:	6f6c0b00 	svcvs	0x006c0b00
    47dc:	11020077 	tstne	r2, r7, ror r0
    47e0:	00002d1b 	andeq	r2, r0, fp, lsl sp
    47e4:	880c0000 	stmdahi	ip, {}	; <UNPREDICTABLE>
    47e8:	0200001b 	andeq	r0, r0, #27
    47ec:	002d2011 	eoreq	r2, sp, r1, lsl r0
    47f0:	00040000 	andeq	r0, r4, r0
    47f4:	1402080d 	strne	r0, [r2], #-2061	; 0xfffff7f3
    47f8:	0000af09 	andeq	sl, r0, r9, lsl #30
    47fc:	00730500 	rsbseq	r0, r3, r0, lsl #10
    4800:	006a1316 	rsbeq	r1, sl, r6, lsl r3
    4804:	6c050000 	stcvs	0, cr0, [r5], {-0}
    4808:	0a17006c 	beq	5c49c0 <shift+0x5c49c0>
    480c:	00000051 	andeq	r0, r0, r1, asr r0
    4810:	1bc00200 	blne	ff005018 <__bss_end+0x7f0001f8>
    4814:	03180000 	tsteq	r8, #0
    4818:	00000092 	muleq	r0, r2, r0
    481c:	001bc80e 	andseq	ip, fp, lr, lsl #16
    4820:	013f0100 	teqeq	pc, r0, lsl #2
    4824:	00000051 	andeq	r0, r0, r1, asr r0
    4828:	80001a0e 	andhi	r1, r0, lr, lsl #20
    482c:	0000008a 	andeq	r0, r0, sl, lsl #1
    4830:	75069c01 	strvc	r9, [r6, #-3073]	; 0xfffff3ff
    4834:	00511200 	subseq	r1, r1, r0, lsl #4
    4838:	91020000 	mrsls	r0, (UNDEF: 2)
    483c:	00760650 	rsbseq	r0, r6, r0, asr r6
    4840:	0000511c 	andeq	r5, r0, ip, lsl r1
    4844:	48910200 	ldmmi	r1, {r9}
    4848:	41007703 	tstmi	r0, r3, lsl #14
    484c:	0000af0b 	andeq	sl, r0, fp, lsl #30
    4850:	70910200 	addsvc	r0, r1, r0, lsl #4
    4854:	00757503 	rsbseq	r7, r5, r3, lsl #10
    4858:	00af0b42 	adceq	r0, pc, r2, asr #22
    485c:	91020000 	mrsls	r0, (UNDEF: 2)
    4860:	76760368 	ldrbtvc	r0, [r6], -r8, ror #6
    4864:	af0f4200 	svcge	0x000f4200
    4868:	02000000 	andeq	r0, r0, #0
    486c:	2c076091 	stccs	0, cr6, [r7], {145}	; 0x91
    4870:	3e80001a 	mcrcc	0, 4, r0, cr0, cr10, {0}
    4874:	03000000 	movweq	r0, #0
    4878:	00775f5f 	rsbseq	r5, r7, pc, asr pc
    487c:	00af0a47 	adceq	r0, pc, r7, asr #20
    4880:	91020000 	mrsls	r0, (UNDEF: 2)
    4884:	1a2c0758 	bne	b065ec <shift+0xb065ec>
    4888:	003a8000 	eorseq	r8, sl, r0
    488c:	bb040000 	bllt	104894 <shift+0x104894>
    4890:	3f00001b 	svccc	0x0000001b
    4894:	04000000 	streq	r0, [r0], #-0
    4898:	00001ba0 	andeq	r1, r0, r0, lsr #23
    489c:	0000003f 	andeq	r0, r0, pc, lsr r0
    48a0:	001ba504 	andseq	sl, fp, r4, lsl #10
    48a4:	00003f00 	andeq	r3, r0, r0, lsl #30
    48a8:	00000000 	andeq	r0, r0, r0
    48ac:	00035b00 	andeq	r5, r3, r0, lsl #22
    48b0:	01000500 	tsteq	r0, r0, lsl #10
    48b4:	0013e304 	andseq	lr, r3, r4, lsl #6
    48b8:	00e90b00 	rsceq	r0, r9, r0, lsl #22
    48bc:	ea1d0000 	b	7448c4 <shift+0x7448c4>
    48c0:	1000001b 	andne	r0, r0, fp, lsl r0
    48c4:	98000000 	stmdals	r0, {}	; <UNPREDICTABLE>
    48c8:	e880001a 	stm	r0, {r1, r3, r4}
    48cc:	05000000 	streq	r0, [r0, #-0]
    48d0:	07000011 	smladeq	r0, r1, r0, r0
    48d4:	00001bd1 	ldrdeq	r1, [r0], -r1	; <UNPREDICTABLE>
    48d8:	32160b02 	andscc	r0, r6, #2048	; 0x800
    48dc:	02000000 	andeq	r0, r0, #0
    48e0:	00c10704 	sbceq	r0, r1, r4, lsl #14
    48e4:	e2070000 	and	r0, r7, #0
    48e8:	0300001b 	movweq	r0, #27
    48ec:	00450f0e 	subeq	r0, r5, lr, lsl #30
    48f0:	4a080000 	bmi	2048f8 <shift+0x2048f8>
    48f4:	02000000 	andeq	r0, r0, #0
    48f8:	00a80801 	adceq	r0, r8, r1, lsl #16
    48fc:	4a0c0000 	bmi	304904 <shift+0x304904>
    4900:	02000000 	andeq	r0, r0, #0
    4904:	00a10601 	adceq	r0, r1, r1, lsl #12
    4908:	02020000 	andeq	r0, r2, #0
    490c:	00014505 	andeq	r4, r1, r5, lsl #10
    4910:	05040d00 	streq	r0, [r4, #-3328]	; 0xfffff300
    4914:	00746e69 	rsbseq	r6, r4, r9, ror #28
    4918:	9f080102 	svcls	0x00080102
    491c:	02000000 	andeq	r0, r0, #0
    4920:	00ce0702 	sbceq	r0, lr, r2, lsl #14
    4924:	08020000 	stmdaeq	r2, {}	; <UNPREDICTABLE>
    4928:	0000b707 	andeq	fp, r0, r7, lsl #14
    492c:	05080200 	streq	r0, [r8, #-512]	; 0xfffffe00
    4930:	0000004d 	andeq	r0, r0, sp, asr #32
    4934:	0017960e 	andseq	r9, r7, lr, lsl #12
    4938:	32040700 	andcc	r0, r4, #0, 14
    493c:	06000000 	streq	r0, [r0], -r0
    4940:	0208061d 	andeq	r0, r8, #30408704	; 0x1d00000
    4944:	6b010000 	blvs	4494c <shift+0x4494c>
    4948:	00000014 	andeq	r0, r0, r4, lsl r0
    494c:	0016b801 	andseq	fp, r6, r1, lsl #16
    4950:	56010100 	strpl	r0, [r1], -r0, lsl #2
    4954:	04000018 	streq	r0, [r0], #-24	; 0xffffffe8
    4958:	00170801 	andseq	r0, r7, r1, lsl #16
    495c:	3a010500 	bcc	45d64 <shift+0x45d64>
    4960:	06000015 			; <UNDEFINED> instruction: 0x06000015
    4964:	00140a01 	andseq	r0, r4, r1, lsl #20
    4968:	de010700 	cdple	7, 0, cr0, cr1, cr0, {0}
    496c:	08000017 	stmdaeq	r0, {r0, r1, r2, r4}
    4970:	0018fe01 	andseq	pc, r8, r1, lsl #28
    4974:	a3010900 	movwge	r0, #6400	; 0x1900
    4978:	0a000014 	beq	49d0 <shift+0x49d0>
    497c:	00180901 	andseq	r0, r8, r1, lsl #18
    4980:	51010b00 	tstpl	r1, r0, lsl #22
    4984:	0c000019 	stceq	0, cr0, [r0], {25}
    4988:	0017a501 	andseq	sl, r7, r1, lsl #10
    498c:	4e010d00 	cdpmi	13, 0, cr0, cr1, cr0, {0}
    4990:	0e000017 	mcreq	0, 0, r0, cr0, cr7, {0}
    4994:	0017cc01 	andseq	ip, r7, r1, lsl #24
    4998:	b5010f00 	strlt	r0, [r1, #-3840]	; 0xfffff100
    499c:	10000014 	andne	r0, r0, r4, lsl r0
    49a0:	00164301 	andseq	r4, r6, r1, lsl #6
    49a4:	eb011100 	bl	48dac <shift+0x48dac>
    49a8:	12000018 	andne	r0, r0, #24
    49ac:	00142301 	andseq	r2, r4, r1, lsl #6
    49b0:	16011300 	strne	r1, [r1], -r0, lsl #6
    49b4:	14000016 	strne	r0, [r0], #-22	; 0xffffffea
    49b8:	0018da01 	andseq	sp, r8, r1, lsl #20
    49bc:	80011500 	andhi	r1, r1, r0, lsl #10
    49c0:	16000015 			; <UNDEFINED> instruction: 0x16000015
    49c4:	0016cb01 	andseq	ip, r6, r1, lsl #22
    49c8:	f0011700 			; <UNDEFINED> instruction: 0xf0011700
    49cc:	18000014 	stmdane	r0, {r2, r4}
    49d0:	00182b01 	andseq	r2, r8, r1, lsl #22
    49d4:	69011900 	stmdbvs	r1, {r8, fp, ip}
    49d8:	1a000018 	bne	4a40 <shift+0x4a40>
    49dc:	00181a01 	andseq	r1, r8, r1, lsl #20
    49e0:	f5011b00 			; <UNDEFINED> instruction: 0xf5011b00
    49e4:	1c000016 	stcne	0, cr0, [r0], {22}
    49e8:	00166601 	andseq	r6, r6, r1, lsl #12
    49ec:	34011d00 	strcc	r1, [r1], #-3328	; 0xfffff300
    49f0:	23000014 	movwcs	r0, #20
    49f4:	00160301 	andseq	r0, r6, r1, lsl #6
    49f8:	91012700 	tstls	r1, r0, lsl #14
    49fc:	28000014 	stmdacs	r0, {r2, r4}
    4a00:	00197e01 	andseq	r7, r9, r1, lsl #28
    4a04:	5f012900 	svcpl	0x00012900
    4a08:	2a000017 	bcs	4a6c <shift+0x4a6c>
    4a0c:	00192301 	andseq	r2, r9, r1, lsl #6
    4a10:	3a012b00 	bcc	4f618 <shift+0x4f618>
    4a14:	2c000019 	stccs	0, cr0, [r0], {25}
    4a18:	00154c01 	andseq	r4, r5, r1, lsl #24
    4a1c:	55012d00 	strpl	r2, [r1, #-3328]	; 0xfffff300
    4a20:	32000016 	andcc	r0, r0, #22
    4a24:	0018b101 	andseq	fp, r8, r1, lsl #2
    4a28:	d4013300 	strle	r3, [r1], #-768	; 0xfffffd00
    4a2c:	34000015 	strcc	r0, [r0], #-21	; 0xffffffeb
    4a30:	0015a901 	andseq	sl, r5, r1, lsl #18
    4a34:	80013500 	andhi	r3, r1, r0, lsl #10
    4a38:	36000014 			; <UNDEFINED> instruction: 0x36000014
    4a3c:	0015e801 	andseq	lr, r5, r1, lsl #16
    4a40:	db013700 	blle	52648 <shift+0x52648>
    4a44:	38000014 	stmdacc	r0, {r2, r4}
    4a48:	0018c301 	andseq	ip, r8, r1, lsl #6
    4a4c:	27013900 	strcs	r3, [r1, -r0, lsl #18]
    4a50:	3a000016 	bcc	4ab0 <shift+0x4ab0>
    4a54:	00169101 	andseq	r9, r6, r1, lsl #2
    4a58:	b9013b00 	stmdblt	r1, {r8, r9, fp, ip, sp}
    4a5c:	3c000017 	stccc	0, cr0, [r0], {23}
    4a60:	00152901 	andseq	r2, r5, r1, lsl #18
    4a64:	c9013d00 	stmdbgt	r1, {r8, sl, fp, ip, sp}
    4a68:	3e000014 	mcrcc	0, 0, r0, cr0, cr4, {0}
    4a6c:	00172001 	andseq	r2, r7, r1
    4a70:	f6013f00 			; <UNDEFINED> instruction: 0xf6013f00
    4a74:	40000017 	andmi	r0, r0, r7, lsl r0
    4a78:	00145801 	andseq	r5, r4, r1, lsl #16
    4a7c:	14014100 	strne	r4, [r1], #-256	; 0xffffff00
    4a80:	42000015 	andmi	r0, r0, #21
    4a84:	00196401 	andseq	r6, r9, r1, lsl #8
    4a88:	41014500 	tstmi	r1, r0, lsl #10
    4a8c:	46000018 			; <UNDEFINED> instruction: 0x46000018
    4a90:	00155e01 	andseq	r5, r5, r1, lsl #28
    4a94:	9d014700 	stcls	7, cr4, [r1, #-0]
    4a98:	48000018 	stmdami	r0, {r3, r4}
    4a9c:	00191101 	andseq	r1, r9, r1, lsl #2
    4aa0:	be014900 	vmlalt.f16	s8, s2, s0	; <UNPREDICTABLE>
    4aa4:	62000015 	andvs	r0, r0, #21
    4aa8:	00188301 	andseq	r8, r8, r1, lsl #6
    4aac:	73016300 	movwvc	r6, #4864	; 0x1300
    4ab0:	64000017 	strvs	r0, [r0], #-23	; 0xffffffe9
    4ab4:	07040200 	streq	r0, [r4, -r0, lsl #4]
    4ab8:	000000bc 	strheq	r0, [r0], -ip
    4abc:	52050402 	andpl	r0, r5, #33554432	; 0x2000000
    4ac0:	0f000000 	svceq	0x00000000
    4ac4:	0000004a 	andeq	r0, r0, sl, asr #32
    4ac8:	00000227 	andeq	r0, r0, r7, lsr #4
    4acc:	00003210 	andeq	r3, r0, r0, lsl r2
    4ad0:	0003ff00 	andeq	pc, r3, r0, lsl #30
    4ad4:	001c1204 	andseq	r1, ip, r4, lsl #4
    4ad8:	160d0d00 	strne	r0, [sp], -r0, lsl #26
    4adc:	05000002 	streq	r0, [r0, #-2]
    4ae0:	00461c03 	subeq	r1, r6, r3, lsl #24
    4ae4:	1bd80480 	blne	ff605cec <__bss_end+0x7f600ecc>
    4ae8:	0d0e0000 	stceq	0, cr0, [lr, #-0]
    4aec:	00000216 	andeq	r0, r0, r6, lsl r2
    4af0:	4a1c0305 	bmi	70570c <shift+0x70570c>
    4af4:	1d068000 	stcne	0, cr8, [r6, #-0]
    4af8:	0400001c 	streq	r0, [r0], #-28	; 0xffffffe4
    4afc:	00640c10 	rsbeq	r0, r4, r0, lsl ip
    4b00:	02690000 	rsbeq	r0, r9, #0
    4b04:	69030000 	stmdbvs	r3, {}	; <UNPREDICTABLE>
    4b08:	03000002 	movweq	r0, #2
    4b0c:	00000269 	andeq	r0, r0, r9, ror #4
    4b10:	00003903 	andeq	r3, r0, r3, lsl #18
    4b14:	51080000 	mrspl	r0, (UNDEF: 8)
    4b18:	11000000 	mrsne	r0, (UNDEF: 0)
    4b1c:	00001a69 	andeq	r1, r0, r9, ror #20
    4b20:	6b160701 	blvs	58672c <shift+0x58672c>
    4b24:	06000000 	streq	r0, [r0], -r0
    4b28:	00001c02 	andeq	r1, r0, r2, lsl #24
    4b2c:	260f3505 	strcs	r3, [pc], -r5, lsl #10
    4b30:	90000000 	andls	r0, r0, r0
    4b34:	03000002 	movweq	r0, #2
    4b38:	00000269 	andeq	r0, r0, r9, ror #4
    4b3c:	19f41200 	ldmibne	r4!, {r9, ip}^
    4b40:	06010000 	streq	r0, [r1], -r0
    4b44:	0002a20d 	andeq	sl, r2, sp, lsl #4
    4b48:	006b0300 	rsbeq	r0, fp, r0, lsl #6
    4b4c:	06000000 	streq	r0, [r0], -r0
    4b50:	00001c09 	andeq	r1, r0, r9, lsl #24
    4b54:	640c0e04 	strvs	r0, [ip], #-3588	; 0xfffff1fc
    4b58:	c2000000 	andgt	r0, r0, #0
    4b5c:	03000002 	movweq	r0, #2
    4b60:	00000045 	andeq	r0, r0, r5, asr #32
    4b64:	00026903 	andeq	r6, r2, r3, lsl #18
    4b68:	00390300 	eorseq	r0, r9, r0, lsl #6
    4b6c:	13000000 	movwne	r0, #0
    4b70:	00001c1f 	andeq	r1, r0, pc, lsl ip
    4b74:	64052301 	strvs	r2, [r5], #-769	; 0xfffffcff
    4b78:	04000000 	streq	r0, [r0], #-0
    4b7c:	7c80001b 	stcvc	0, cr0, [r0], {27}
    4b80:	01000000 	mrseq	r0, (UNDEF: 0)
    4b84:	0003119c 	muleq	r3, ip, r1
    4b88:	6d660900 			; <UNDEFINED> instruction: 0x6d660900
    4b8c:	69230074 	stmdbvs	r3!, {r2, r4, r5, r6}
    4b90:	02000002 	andeq	r0, r0, #2
    4b94:	050a7091 	streq	r7, [sl, #-145]	; 0xffffff6f
    4b98:	06250069 	strteq	r0, [r5], -r9, rrx
    4b9c:	00000064 	andeq	r0, r0, r4, rrx
    4ba0:	05649102 	strbeq	r9, [r4, #-258]!	; 0xfffffefe
    4ba4:	10260063 	eorne	r0, r6, r3, rrx
    4ba8:	0000006b 	andeq	r0, r0, fp, rrx
    4bac:	04639102 	strbteq	r9, [r3], #-258	; 0xfffffefe
    4bb0:	00001bfd 	strdeq	r1, [r0], -sp
    4bb4:	00390a27 	eorseq	r0, r9, r7, lsr #20
    4bb8:	91020000 	mrsls	r0, (UNDEF: 2)
    4bbc:	d014005c 	andsle	r0, r4, ip, asr r0
    4bc0:	0100001d 	tsteq	r0, sp, lsl r0
    4bc4:	00640511 	rsbeq	r0, r4, r1, lsl r5
    4bc8:	1a980000 	bne	fe604bd0 <__bss_end+0x7e5ffdb0>
    4bcc:	006c8000 	rsbeq	r8, ip, r0
    4bd0:	9c010000 	stcls	0, cr0, [r1], {-0}
    4bd4:	746d6609 	strbtvc	r6, [sp], #-1545	; 0xfffff9f7
    4bd8:	02691100 	rsbeq	r1, r9, #0, 2
    4bdc:	91020000 	mrsls	r0, (UNDEF: 2)
    4be0:	69050a70 	stmdbvs	r5, {r4, r5, r6, r9, fp}
    4be4:	64061300 	strvs	r1, [r6], #-768	; 0xfffffd00
    4be8:	02000000 	andeq	r0, r0, #0
    4bec:	6c056491 	cfstrsvs	mvf6, [r5], {145}	; 0x91
    4bf0:	14006e65 	strne	r6, [r0], #-3685	; 0xfffff19b
    4bf4:	00006406 	andeq	r6, r0, r6, lsl #8
    4bf8:	5c910200 	lfmpl	f0, 4, [r1], {0}
    4bfc:	001bfd04 	andseq	pc, fp, r4, lsl #26
    4c00:	390a1500 	stmdbcc	sl, {r8, sl, ip}
    4c04:	02000000 	andeq	r0, r0, #0
    4c08:	00006091 	muleq	r0, r1, r0
    4c0c:	0000081a 	andeq	r0, r0, sl, lsl r8
    4c10:	04010005 	streq	r0, [r1], #-5
    4c14:	00001519 	andeq	r1, r0, r9, lsl r5
    4c18:	0000e911 	andeq	lr, r0, r1, lsl r9
    4c1c:	1c711d00 	ldclne	13, cr1, [r1], #-0
    4c20:	00100000 	andseq	r0, r0, r0
    4c24:	1b800000 	blne	fe004c2c <__bss_end+0x7dfffe0c>
    4c28:	072e8000 	streq	r8, [lr, -r0]!
    4c2c:	12070000 	andne	r0, r7, #0
    4c30:	31120000 	tstcc	r2, r0
    4c34:	31000000 	mrscc	r0, (UNDEF: 0)
    4c38:	13000000 	movwne	r0, #0
    4c3c:	08010b00 	stmdaeq	r1, {r8, r9, fp}
    4c40:	0000009f 	muleq	r0, pc, r0	; <UNPREDICTABLE>
    4c44:	0000310d 	andeq	r3, r0, sp, lsl #2
    4c48:	1b640e00 	blne	1908450 <shift+0x1908450>
    4c4c:	0f010000 	svceq	0x00010000
    4c50:	00002616 	andeq	r2, r0, r6, lsl r6
    4c54:	1bd11400 	blne	ff449c5c <__bss_end+0x7f444e3c>
    4c58:	0b040000 	bleq	104c60 <shift+0x104c60>
    4c5c:	00005516 	andeq	r5, r0, r6, lsl r5
    4c60:	07040b00 	streq	r0, [r4, -r0, lsl #22]
    4c64:	000000c1 	andeq	r0, r0, r1, asr #1
    4c68:	001caa0e 	andseq	sl, ip, lr, lsl #20
    4c6c:	0f0a0300 	svceq	0x000a0300
    4c70:	00000068 	andeq	r0, r0, r8, rrx
    4c74:	00006d09 	andeq	r6, r0, r9, lsl #26
    4c78:	08010b00 	stmdaeq	r1, {r8, r9, fp}
    4c7c:	000000a8 	andeq	r0, r0, r8, lsr #1
    4c80:	00006d0d 	andeq	r6, r0, sp, lsl #26
    4c84:	005c1500 	subseq	r1, ip, r0, lsl #10
    4c88:	38020000 	stmdacc	r2, {}	; <UNPREDICTABLE>
    4c8c:	1c030508 	cfstr32ne	mvfx0, [r3], {8}
    4c90:	0880004e 	stmeq	r0, {r1, r2, r3, r6}
    4c94:	00001cb4 			; <UNDEFINED> instruction: 0x00001cb4
    4c98:	d607020a 	strle	r0, [r7], -sl, lsl #4
    4c9c:	6e000000 	cdpvs	0, 0, cr0, cr0, cr0, {0}
    4ca0:	40800022 	addmi	r0, r0, r2, lsr #32
    4ca4:	01000000 	mrseq	r0, (UNDEF: 0)
    4ca8:	0000d69c 	muleq	r0, ip, r6
    4cac:	00730100 	rsbseq	r0, r3, r0, lsl #2
    4cb0:	d81a020a 	ldmdale	sl, {r1, r3, r9}
    4cb4:	02000000 	andeq	r0, r0, #0
    4cb8:	63016c91 	movwvs	r6, #7313	; 0x1c91
    4cbc:	21020a00 	tstcs	r2, r0, lsl #20
    4cc0:	000000de 	ldrdeq	r0, [r0], -lr
    4cc4:	01689102 	cmneq	r8, r2, lsl #2
    4cc8:	020a006e 	andeq	r0, sl, #110	; 0x6e
    4ccc:	0000492b 	andeq	r4, r0, fp, lsr #18
    4cd0:	64910200 	ldrvs	r0, [r1], #512	; 0x200
    4cd4:	0c007003 	stceq	0, cr7, [r0], {3}
    4cd8:	00e51702 	rsceq	r1, r5, r2, lsl #14
    4cdc:	91020000 	mrsls	r0, (UNDEF: 2)
    4ce0:	04160074 	ldreq	r0, [r6], #-116	; 0xffffff8c
    4ce4:	0000dd09 	andeq	sp, r0, r9, lsl #26
    4ce8:	04181700 	ldreq	r1, [r8], #-1792	; 0xfffff900
    4cec:	746e6905 	strbtvc	r6, [lr], #-2309	; 0xfffff6fb
    4cf0:	00380900 	eorseq	r0, r8, r0, lsl #18
    4cf4:	110c0000 	mrsne	r0, (UNDEF: 12)
    4cf8:	ee00001d 	mcr	0, 0, r0, cr0, cr13, {0}
    4cfc:	00006801 	andeq	r6, r0, r1, lsl #16
    4d00:	00221000 	eoreq	r1, r2, r0
    4d04:	00005e80 	andeq	r5, r0, r0, lsl #29
    4d08:	3c9c0100 	ldfccs	f0, [ip], {0}
    4d0c:	01000001 	tsteq	r0, r1
    4d10:	ee003173 	mcr	1, 0, r3, cr0, cr3, {3}
    4d14:	013c1c01 	teqeq	ip, r1, lsl #24
    4d18:	91020000 	mrsls	r0, (UNDEF: 2)
    4d1c:	3273016c 	rsbscc	r0, r3, #108, 2
    4d20:	2c01ee00 	stccs	14, cr14, [r1], {-0}
    4d24:	0000013c 	andeq	r0, r0, ip, lsr r1
    4d28:	03689102 	cmneq	r8, #-2147483648	; 0x80000000
    4d2c:	f000316c 			; <UNDEFINED> instruction: 0xf000316c
    4d30:	00de0601 	sbcseq	r0, lr, r1, lsl #12
    4d34:	91020000 	mrsls	r0, (UNDEF: 2)
    4d38:	326c0374 	rsbcc	r0, ip, #116, 6	; 0xd0000001
    4d3c:	0a01f000 	beq	80d44 <shift+0x80d44>
    4d40:	000000de 	ldrdeq	r0, [r0], -lr
    4d44:	00709102 	rsbseq	r9, r0, r2, lsl #2
    4d48:	00007409 	andeq	r7, r0, r9, lsl #8
    4d4c:	1c410800 	mcrrne	8, 0, r0, r1, cr0
    4d50:	01da0000 	bicseq	r0, sl, r0
    4d54:	0000d608 	andeq	sp, r0, r8, lsl #12
    4d58:	0021ce00 	eoreq	ip, r1, r0, lsl #28
    4d5c:	00004280 	andeq	r4, r0, r0, lsl #5
    4d60:	949c0100 	ldrls	r0, [ip], #256	; 0x100
    4d64:	04000001 	streq	r0, [r0], #-1
    4d68:	00001c96 	muleq	r0, r6, ip
    4d6c:	d61701da 			; <UNDEFINED> instruction: 0xd61701da
    4d70:	02000000 	andeq	r0, r0, #0
    4d74:	63016c91 	movwvs	r6, #7313	; 0x1c91
    4d78:	2101da00 	tstcs	r1, r0, lsl #20
    4d7c:	000000de 	ldrdeq	r0, [r0], -lr
    4d80:	04689102 	strbteq	r9, [r8], #-258	; 0xfffffefe
    4d84:	00001d18 	andeq	r1, r0, r8, lsl sp
    4d88:	492b01da 	stmdbmi	fp!, {r1, r3, r4, r6, r7, r8}
    4d8c:	02000000 	andeq	r0, r0, #0
    4d90:	70036491 	mulvc	r3, r1, r4
    4d94:	1201dc00 	andne	sp, r1, #0, 24
    4d98:	00000194 	muleq	r0, r4, r1
    4d9c:	00749102 	rsbseq	r9, r4, r2, lsl #2
    4da0:	00003109 	andeq	r3, r0, r9, lsl #2
    4da4:	1c340800 	ldcne	8, cr0, [r4], #-0
    4da8:	01c40000 	biceq	r0, r4, r0
    4dac:	0000de05 	andeq	sp, r0, r5, lsl #28
    4db0:	00217600 	eoreq	r7, r1, r0, lsl #12
    4db4:	00005880 	andeq	r5, r0, r0, lsl #17
    4db8:	0c9c0100 	ldfeqs	f0, [ip], {0}
    4dbc:	01000002 	tsteq	r0, r2
    4dc0:	c4007363 	strgt	r7, [r0], #-867	; 0xfffffc9d
    4dc4:	00d81901 	sbcseq	r1, r8, r1, lsl #18
    4dc8:	91020000 	mrsls	r0, (UNDEF: 2)
    4dcc:	74630164 	strbtvc	r0, [r3], #-356	; 0xfffffe9c
    4dd0:	2901c400 	stmdbcs	r1, {sl, lr, pc}
    4dd4:	000000d8 	ldrdeq	r0, [r0], -r8
    4dd8:	04609102 	strbteq	r9, [r0], #-258	; 0xfffffefe
    4ddc:	00001c3b 	andeq	r1, r0, fp, lsr ip
    4de0:	493301c4 	ldmdbmi	r3!, {r2, r6, r7, r8}
    4de4:	02000000 	andeq	r0, r0, #0
    4de8:	73035c91 	movwvc	r5, #15505	; 0x3c91
    4dec:	c6003175 			; <UNDEFINED> instruction: 0xc6003175
    4df0:	00e51701 	rsceq	r1, r5, r1, lsl #14
    4df4:	91020000 	mrsls	r0, (UNDEF: 2)
    4df8:	75730374 	ldrbvc	r0, [r3, #-884]!	; 0xfffffc8c
    4dfc:	01c60032 	biceq	r0, r6, r2, lsr r0
    4e00:	0000e51d 	andeq	lr, r0, sp, lsl r5
    4e04:	70910200 	addsvc	r0, r1, r0, lsl #4
    4e08:	73657203 	cmnvc	r5, #805306368	; 0x30000000
    4e0c:	0601c700 	streq	ip, [r1], -r0, lsl #14
    4e10:	000000de 	ldrdeq	r0, [r0], -lr
    4e14:	006c9102 	rsbeq	r9, ip, r2, lsl #2
    4e18:	001c2c08 	andseq	r2, ip, r8, lsl #24
    4e1c:	0801a800 	stmdaeq	r1, {fp, sp, pc}
    4e20:	000000d6 	ldrdeq	r0, [r0], -r6
    4e24:	800020fe 	strdhi	r2, [r0], -lr
    4e28:	00000078 	andeq	r0, r0, r8, ror r0
    4e2c:	02709c01 	rsbseq	r9, r0, #256	; 0x100
    4e30:	84040000 	strhi	r0, [r4], #-0
    4e34:	a800001c 	stmdage	r0, {r2, r3, r4}
    4e38:	00d61701 	sbcseq	r1, r6, r1, lsl #14
    4e3c:	91020000 	mrsls	r0, (UNDEF: 2)
    4e40:	7273016c 	rsbsvc	r0, r3, #108, 2
    4e44:	01a80063 			; <UNDEFINED> instruction: 0x01a80063
    4e48:	0000d828 	andeq	sp, r0, r8, lsr #16
    4e4c:	68910200 	ldmvs	r1, {r9}
    4e50:	001c3b04 	andseq	r3, ip, r4, lsl #22
    4e54:	3301a800 	movwcc	sl, #6144	; 0x1800
    4e58:	00000049 	andeq	r0, r0, r9, asr #32
    4e5c:	03649102 	cmneq	r4, #-2147483648	; 0x80000000
    4e60:	00706d74 	rsbseq	r6, r0, r4, ror sp
    4e64:	680801aa 	stmdavs	r8, {r1, r3, r5, r7, r8}
    4e68:	02000000 	andeq	r0, r0, #0
    4e6c:	73037491 	movwvc	r7, #13457	; 0x3491
    4e70:	0e01aa00 	vmlaeq.f32	s20, s2, s0
    4e74:	00000068 	andeq	r0, r0, r8, rrx
    4e78:	00709102 	rsbseq	r9, r0, r2, lsl #2
    4e7c:	001ce408 	andseq	lr, ip, r8, lsl #8
    4e80:	08019400 	stmdaeq	r1, {sl, ip, pc}
    4e84:	000000d6 	ldrdeq	r0, [r0], -r6
    4e88:	800020c0 	andhi	r2, r0, r0, asr #1
    4e8c:	0000003e 	andeq	r0, r0, lr, lsr r0
    4e90:	02d49c01 	sbcseq	r9, r4, #256	; 0x100
    4e94:	84040000 	strhi	r0, [r4], #-0
    4e98:	9400001c 	strls	r0, [r0], #-28	; 0xffffffe4
    4e9c:	00d61601 	sbcseq	r1, r6, r1, lsl #12
    4ea0:	91020000 	mrsls	r0, (UNDEF: 2)
    4ea4:	7273016c 	rsbsvc	r0, r3, #108, 2
    4ea8:	01940063 	orrseq	r0, r4, r3, rrx
    4eac:	0000d827 	andeq	sp, r0, r7, lsr #16
    4eb0:	68910200 	ldmvs	r1, {r9}
    4eb4:	001c3b04 	andseq	r3, ip, r4, lsl #22
    4eb8:	32019400 	andcc	r9, r1, #0, 8
    4ebc:	00000049 	andeq	r0, r0, r9, asr #32
    4ec0:	03649102 	cmneq	r4, #-2147483648	; 0x80000000
    4ec4:	00706d74 	rsbseq	r6, r0, r4, ror sp
    4ec8:	68080196 	stmdavs	r8, {r1, r2, r4, r7, r8}
    4ecc:	02000000 	andeq	r0, r0, #0
    4ed0:	73037491 	movwvc	r7, #13457	; 0x3491
    4ed4:	1e019600 	cfmadd32ne	mvax0, mvfx9, mvfx1, mvfx0
    4ed8:	00000068 	andeq	r0, r0, r8, rrx
    4edc:	00709102 	rsbseq	r9, r0, r2, lsl #2
    4ee0:	001c8919 	andseq	r8, ip, r9, lsl r9
    4ee4:	01800200 	orreq	r0, r0, r0, lsl #4
    4ee8:	00208206 	eoreq	r8, r0, r6, lsl #4
    4eec:	00003e80 	andeq	r3, r0, r0, lsl #29
    4ef0:	379c0100 	ldrcc	r0, [ip, r0, lsl #2]
    4ef4:	01000003 	tsteq	r0, r3
    4ef8:	00637273 	rsbeq	r7, r3, r3, ror r2
    4efc:	d8180180 	ldmdale	r8, {r7, r8}
    4f00:	02000000 	andeq	r0, r0, #0
    4f04:	84046c91 	strhi	r6, [r4], #-3217	; 0xfffff36f
    4f08:	8000001c 	andhi	r0, r0, ip, lsl r0
    4f0c:	00d62301 	sbcseq	r2, r6, r1, lsl #6
    4f10:	91020000 	mrsls	r0, (UNDEF: 2)
    4f14:	1c3b0468 	cfldrsne	mvf0, [fp], #-416	; 0xfffffe60
    4f18:	01800000 	orreq	r0, r0, r0
    4f1c:	00004930 	andeq	r4, r0, r0, lsr r9
    4f20:	64910200 	ldrvs	r0, [r1], #512	; 0x200
    4f24:	001c610a 	andseq	r6, ip, sl, lsl #2
    4f28:	08018200 	stmdaeq	r1, {r9, pc}
    4f2c:	00000068 	andeq	r0, r0, r8, rrx
    4f30:	0a749102 	beq	1d29340 <shift+0x1d29340>
    4f34:	00001cf2 	strdeq	r1, [r0], -r2
    4f38:	68080183 	stmdavs	r8, {r0, r1, r7, r8}
    4f3c:	02000000 	andeq	r0, r0, #0
    4f40:	08007091 	stmdaeq	r0, {r0, r4, r7, ip, sp, lr}
    4f44:	00001cf9 	strdeq	r1, [r0], -r9
    4f48:	d6080168 	strle	r0, [r8], -r8, ror #2
    4f4c:	4c000000 	stcmi	0, cr0, [r0], {-0}
    4f50:	36800020 	strcc	r0, [r0], r0, lsr #32
    4f54:	01000000 	mrseq	r0, (UNDEF: 0)
    4f58:	0003899c 	muleq	r3, ip, r9
    4f5c:	00730100 	rsbseq	r0, r3, r0, lsl #2
    4f60:	d6160168 	ldrle	r0, [r6], -r8, ror #2
    4f64:	02000000 	andeq	r0, r0, #0
    4f68:	63016c91 	movwvs	r6, #7313	; 0x1c91
    4f6c:	1c016800 	stcne	8, cr6, [r1], {-0}
    4f70:	000000de 	ldrdeq	r0, [r0], -lr
    4f74:	04689102 	strbteq	r9, [r8], #-258	; 0xfffffefe
    4f78:	00001c3b 	andeq	r1, r0, fp, lsr ip
    4f7c:	49250168 	stmdbmi	r5!, {r3, r5, r6, r8}
    4f80:	02000000 	andeq	r0, r0, #0
    4f84:	78036491 	stmdavc	r3, {r0, r4, r7, sl, sp, lr}
    4f88:	016a0073 	smceq	40963	; 0xa003
    4f8c:	00006808 	andeq	r6, r0, r8, lsl #16
    4f90:	74910200 	ldrvc	r0, [r1], #512	; 0x200
    4f94:	1c250c00 	stcne	12, cr0, [r5], #-0
    4f98:	014f0000 	mrseq	r0, SPSR
    4f9c:	00000068 	andeq	r0, r0, r8, rrx
    4fa0:	80002008 	andhi	r2, r0, r8
    4fa4:	00000044 	andeq	r0, r0, r4, asr #32
    4fa8:	03dc9c01 	bicseq	r9, ip, #256	; 0x100
    4fac:	73010000 	movwvc	r0, #4096	; 0x1000
    4fb0:	16014f00 	strne	r4, [r1], -r0, lsl #30
    4fb4:	000003dc 	ldrdeq	r0, [r0], -ip
    4fb8:	016c9102 	cmneq	ip, r2, lsl #2
    4fbc:	4f007463 	svcmi	0x00007463
    4fc0:	013c2501 	teqeq	ip, r1, lsl #10
    4fc4:	91020000 	mrsls	r0, (UNDEF: 2)
    4fc8:	1ceb0a68 	vstmiane	fp!, {s1-s104}
    4fcc:	01510000 	cmpeq	r1, r0
    4fd0:	00006808 	andeq	r6, r0, r8, lsl #16
    4fd4:	70910200 	addsvc	r0, r1, r0, lsl #4
    4fd8:	646e6503 	strbtvs	r6, [lr], #-1283	; 0xfffffafd
    4fdc:	16015100 	strne	r5, [r1], -r0, lsl #2
    4fe0:	00000068 	andeq	r0, r0, r8, rrx
    4fe4:	00749102 	rsbseq	r9, r4, r2, lsl #2
    4fe8:	00006809 	andeq	r6, r0, r9, lsl #16
    4fec:	1cad0c00 	stcne	12, cr0, [sp]
    4ff0:	012e0000 			; <UNDEFINED> instruction: 0x012e0000
    4ff4:	00000068 	andeq	r0, r0, r8, rrx
    4ff8:	80001f7e 	andhi	r1, r0, lr, ror pc
    4ffc:	0000008a 	andeq	r0, r0, sl, lsl #1
    5000:	04349c01 	ldrteq	r9, [r4], #-3073	; 0xfffff3ff
    5004:	73010000 	movwvc	r0, #4096	; 0x1000
    5008:	16012e00 	strne	r2, [r1], -r0, lsl #28
    500c:	00000068 	andeq	r0, r0, r8, rrx
    5010:	016c9102 	cmneq	ip, r2, lsl #2
    5014:	2e007463 	cdpcs	4, 0, cr7, cr0, cr3, {3}
    5018:	013c2501 	teqeq	ip, r1, lsl #10
    501c:	91020000 	mrsls	r0, (UNDEF: 2)
    5020:	1ceb0a68 	vstmiane	fp!, {s1-s104}
    5024:	01300000 	teqeq	r0, r0
    5028:	00006808 	andeq	r6, r0, r8, lsl #16
    502c:	70910200 	addsvc	r0, r1, r0, lsl #4
    5030:	001cc10a 	andseq	ip, ip, sl, lsl #2
    5034:	11013000 	mrsne	r3, (UNDEF: 1)
    5038:	00000068 	andeq	r0, r0, r8, rrx
    503c:	00749102 	rsbseq	r9, r4, r2, lsl #2
    5040:	001cd508 	andseq	sp, ip, r8, lsl #10
    5044:	08011800 	stmdaeq	r1, {fp, ip}
    5048:	00000068 	andeq	r0, r0, r8, rrx
    504c:	80001f2e 	andhi	r1, r0, lr, lsr #30
    5050:	00000050 	andeq	r0, r0, r0, asr r0
    5054:	04899c01 	streq	r9, [r9], #3073	; 0xc01
    5058:	63010000 	movwvs	r0, #4096	; 0x1000
    505c:	01180073 	tsteq	r8, r3, ror r0
    5060:	00013c1d 	andeq	r3, r1, sp, lsl ip
    5064:	6c910200 	lfmvs	f0, 4, [r1], {0}
    5068:	00746301 	rsbseq	r6, r4, r1, lsl #6
    506c:	3c2d0118 	stfccs	f0, [sp], #-96	; 0xffffffa0
    5070:	02000001 	andeq	r0, r0, #1
    5074:	73036891 	movwvc	r6, #14481	; 0x3891
    5078:	1a003163 	bne	1160c <shift+0x1160c>
    507c:	013c0e01 	teqeq	ip, r1, lsl #28
    5080:	91020000 	mrsls	r0, (UNDEF: 2)
    5084:	63730374 	cmnvs	r3, #116, 6	; 0xd0000001
    5088:	011a0032 	tsteq	sl, r2, lsr r0
    508c:	00013c13 	andeq	r3, r1, r3, lsl ip
    5090:	70910200 	addsvc	r0, r1, r0, lsl #4
    5094:	1cdd0500 	cfldr64ne	mvdx0, [sp], {0}
    5098:	08fe0000 	ldmeq	lr!, {}^	; <UNPREDICTABLE>
    509c:	00000049 	andeq	r0, r0, r9, asr #32
    50a0:	80001ec8 	andhi	r1, r0, r8, asr #29
    50a4:	00000066 	andeq	r0, r0, r6, rrx
    50a8:	04e79c01 	strbteq	r9, [r7], #3073	; 0xc01
    50ac:	73020000 	movwvc	r0, #8192	; 0x2000
    50b0:	1bfe0200 	blne	fff858b8 <__bss_end+0x7ff80a98>
    50b4:	0000013c 	andeq	r0, r0, ip, lsr r1
    50b8:	06649102 	strbteq	r9, [r4], -r2, lsl #2
    50bc:	00001c49 	andeq	r1, r0, r9, asr #24
    50c0:	013c2afe 	teqeq	ip, lr	; <illegal shifter operand>
    50c4:	91020000 	mrsls	r0, (UNDEF: 2)
    50c8:	00700360 	rsbseq	r0, r0, r0, ror #6
    50cc:	3c0e0100 	stfccs	f0, [lr], {-0}
    50d0:	02000001 	andeq	r0, r0, #1
    50d4:	61037491 			; <UNDEFINED> instruction: 0x61037491
    50d8:	0e010100 	adfeqs	f0, f1, f0
    50dc:	0000013c 	andeq	r0, r0, ip, lsr r1
    50e0:	0a709102 	beq	1c294f0 <shift+0x1c294f0>
    50e4:	00001c3b 	andeq	r1, r0, fp, lsr ip
    50e8:	49090102 	stmdbmi	r9, {r1, r8}
    50ec:	02000000 	andeq	r0, r0, #0
    50f0:	05006c91 	streq	r6, [r0, #-3217]	; 0xfffff36f
    50f4:	00001cc6 	andeq	r1, r0, r6, asr #25
    50f8:	004908ed 	subeq	r0, r9, sp, ror #17
    50fc:	1e8e0000 	cdpne	0, 8, cr0, cr14, cr0, {0}
    5100:	003a8000 	eorseq	r8, sl, r0
    5104:	9c010000 	stcls	0, cr0, [r1], {-0}
    5108:	00000529 	andeq	r0, r0, r9, lsr #10
    510c:	02007302 	andeq	r7, r0, #134217728	; 0x8000000
    5110:	013c1ded 	teqeq	ip, sp, ror #27
    5114:	91020000 	mrsls	r0, (UNDEF: 2)
    5118:	1c3b066c 	ldcne	6, cr0, [fp], #-432	; 0xfffffe50
    511c:	27ed0000 	strbcs	r0, [sp, r0]!
    5120:	00000049 	andeq	r0, r0, r9, asr #32
    5124:	07689102 	strbeq	r9, [r8, -r2, lsl #2]!
    5128:	ef006373 	svc	0x00006373
    512c:	00013c0e 	andeq	r3, r1, lr, lsl #24
    5130:	74910200 	ldrvc	r0, [r1], #512	; 0x200
    5134:	1c020500 	cfstr32ne	mvfx0, [r2], {-0}
    5138:	08dd0000 	ldmeq	sp, {}^	; <UNPREDICTABLE>
    513c:	00000049 	andeq	r0, r0, r9, asr #32
    5140:	80001e60 	andhi	r1, r0, r0, ror #28
    5144:	0000002e 	andeq	r0, r0, lr, lsr #32
    5148:	055d9c01 	ldrbeq	r9, [sp, #-3073]	; 0xfffff3ff
    514c:	73020000 	movwvc	r0, #8192	; 0x2000
    5150:	1cdd0200 	lfmne	f0, 2, [sp], {0}
    5154:	0000013c 	andeq	r0, r0, ip, lsr r1
    5158:	076c9102 	strbeq	r9, [ip, -r2, lsl #2]!
    515c:	df006373 	svcle	0x00006373
    5160:	00013c0e 	andeq	r3, r1, lr, lsl #24
    5164:	74910200 	ldrvc	r0, [r1], #512	; 0x200
    5168:	1d000f00 	stcne	15, cr0, [r0, #-0]
    516c:	08cd0000 	stmiaeq	sp, {}^	; <UNPREDICTABLE>
    5170:	00000068 	andeq	r0, r0, r8, rrx
    5174:	80001e20 	andhi	r1, r0, r0, lsr #28
    5178:	00000040 	andeq	r0, r0, r0, asr #32
    517c:	059d9c01 	ldreq	r9, [sp, #3073]	; 0xc01
    5180:	73020000 	movwvc	r0, #8192	; 0x2000
    5184:	1dcd0200 	sfmne	f0, 2, [sp]
    5188:	0000013c 	andeq	r0, r0, ip, lsr r1
    518c:	026c9102 	rsbeq	r9, ip, #-2147483648	; 0x80000000
    5190:	cd020063 	stcgt	0, cr0, [r2, #-396]	; 0xfffffe74
    5194:	0000de24 	andeq	sp, r0, r4, lsr #28
    5198:	68910200 	ldmvs	r1, {r9}
    519c:	cf007007 	svcgt	0x00007007
    51a0:	00013c14 	andeq	r3, r1, r4, lsl ip
    51a4:	74910200 	ldrvc	r0, [r1], #512	; 0x200
    51a8:	1c5a0500 	cfldr64ne	mvdx0, [sl], {-0}
    51ac:	08be0000 	ldmeq	lr!, {}	; <UNPREDICTABLE>
    51b0:	00000068 	andeq	r0, r0, r8, rrx
    51b4:	80001de8 	andhi	r1, r0, r8, ror #27
    51b8:	00000038 	andeq	r0, r0, r8, lsr r0
    51bc:	05d19c01 	ldrbeq	r9, [r1, #3073]	; 0xc01
    51c0:	73020000 	movwvc	r0, #8192	; 0x2000
    51c4:	1cbe0200 	lfmne	f0, 4, [lr]
    51c8:	0000013c 	andeq	r0, r0, ip, lsr r1
    51cc:	02749102 	rsbseq	r9, r4, #-2147483648	; 0x80000000
    51d0:	be020063 	cdplt	0, 0, cr0, cr2, cr3, {3}
    51d4:	0000de23 	andeq	sp, r0, r3, lsr #28
    51d8:	70910200 	addsvc	r0, r1, r0, lsl #4
    51dc:	1d1d0500 	cfldr32ne	mvfx0, [sp, #-0]
    51e0:	05aa0000 	streq	r0, [sl, #0]!
    51e4:	000000de 	ldrdeq	r0, [r0], -lr
    51e8:	80001d9e 	mulhi	r0, lr, sp
    51ec:	0000004a 	andeq	r0, r0, sl, asr #32
    51f0:	06219c01 	strteq	r9, [r1], -r1, lsl #24
    51f4:	63020000 	movwvs	r0, #8192	; 0x2000
    51f8:	aa020073 	bge	853cc <shift+0x853cc>
    51fc:	00013c1a 	andeq	r3, r1, sl, lsl ip
    5200:	74910200 	ldrvc	r0, [r1], #512	; 0x200
    5204:	00746302 	rsbseq	r6, r4, r2, lsl #6
    5208:	3c2aaa02 			; <UNDEFINED> instruction: 0x3c2aaa02
    520c:	02000001 	andeq	r0, r0, #1
    5210:	3b067091 	blcc	1a145c <shift+0x1a145c>
    5214:	aa00001c 	bge	528c <shift+0x528c>
    5218:	00004934 	andeq	r4, r0, r4, lsr r9
    521c:	6c910200 	lfmvs	f0, 4, [r1], {0}
    5220:	001cbb10 	andseq	fp, ip, r0, lsl fp
    5224:	0621ac00 	strteq	sl, [r1], -r0, lsl #24
    5228:	54010000 	strpl	r0, [r1], #-0
    522c:	06010b00 	streq	r0, [r1], -r0, lsl #22
    5230:	000000a1 	andeq	r0, r0, r1, lsr #1
    5234:	001cce05 	andseq	ip, ip, r5, lsl #28
    5238:	de059600 	cfmadd32le	mvax0, mvfx9, mvfx5, mvfx0
    523c:	64000000 	strvs	r0, [r0], #-0
    5240:	3a80001d 	bcc	fe0052bc <__bss_end+0x7e00049c>
    5244:	01000000 	mrseq	r0, (UNDEF: 0)
    5248:	00066a9c 	muleq	r6, ip, sl
    524c:	73630200 	cmnvc	r3, #0, 4
    5250:	19960200 	ldmibne	r6, {r9}
    5254:	0000013c 	andeq	r0, r0, ip, lsr r1
    5258:	02749102 	rsbseq	r9, r4, #-2147483648	; 0x80000000
    525c:	02007463 	andeq	r7, r0, #1660944384	; 0x63000000
    5260:	013c2996 	teqeq	ip, r6	; <illegal shifter operand>
    5264:	91020000 	mrsls	r0, (UNDEF: 2)
    5268:	1cbb1070 	ldcne	0, cr1, [fp], #448	; 0x1c0
    526c:	21980000 	orrscs	r0, r8, r0
    5270:	01000006 	tsteq	r0, r6
    5274:	69050054 	stmdbvs	r5, {r2, r4, r6}
    5278:	7d00001c 	stcvc	0, cr0, [r0, #-112]	; 0xffffff90
    527c:	00006808 	andeq	r6, r0, r8, lsl #16
    5280:	001d0400 	andseq	r0, sp, r0, lsl #8
    5284:	00006080 	andeq	r6, r0, r0, lsl #1
    5288:	bd9c0100 	ldflts	f0, [ip]
    528c:	06000006 	streq	r0, [r0], -r6
    5290:	00001c84 	andeq	r1, r0, r4, lsl #25
    5294:	0068167d 	rsbeq	r1, r8, sp, ror r6
    5298:	91020000 	mrsls	r0, (UNDEF: 2)
    529c:	7273026c 	rsbsvc	r0, r3, #108, 4	; 0xc0000006
    52a0:	7d020063 	stcvc	0, cr0, [r2, #-396]	; 0xfffffe74
    52a4:	00013c28 	andeq	r3, r1, r8, lsr #24
    52a8:	68910200 	ldmvs	r1, {r9}
    52ac:	001c3b06 	andseq	r3, ip, r6, lsl #22
    52b0:	49347d00 	ldmdbmi	r4!, {r8, sl, fp, ip, sp, lr}
    52b4:	02000000 	andeq	r0, r0, #0
    52b8:	74076491 	strvc	r6, [r7], #-1169	; 0xfffffb6f
    52bc:	7f00706d 	svcvc	0x0000706d
    52c0:	00006808 	andeq	r6, r0, r8, lsl #16
    52c4:	74910200 	ldrvc	r0, [r1], #512	; 0x200
    52c8:	1c9b0500 	cfldr32ne	mvfx0, [fp], {0}
    52cc:	08660000 	stmdaeq	r6!, {}^	; <UNPREDICTABLE>
    52d0:	00000068 	andeq	r0, r0, r8, rrx
    52d4:	80001cc0 	andhi	r1, r0, r0, asr #25
    52d8:	00000044 	andeq	r0, r0, r4, asr #32
    52dc:	07029c01 	streq	r9, [r2, -r1, lsl #24]
    52e0:	84060000 	strhi	r0, [r6], #-0
    52e4:	6600001c 			; <UNDEFINED> instruction: 0x6600001c
    52e8:	00006816 	andeq	r6, r0, r6, lsl r8
    52ec:	6c910200 	lfmvs	f0, 4, [r1], {0}
    52f0:	63727302 	cmnvs	r2, #134217728	; 0x8000000
    52f4:	29660200 	stmdbcs	r6!, {r9}^
    52f8:	0000013c 	andeq	r0, r0, ip, lsr r1
    52fc:	07689102 	strbeq	r9, [r8, -r2, lsl #2]!
    5300:	00706d74 	rsbseq	r6, r0, r4, ror sp
    5304:	00680868 	rsbeq	r0, r8, r8, ror #16
    5308:	91020000 	mrsls	r0, (UNDEF: 2)
    530c:	a2050074 	andge	r0, r5, #116	; 0x74
    5310:	5500001c 	strpl	r0, [r0, #-28]	; 0xffffffe4
    5314:	00006808 	andeq	r6, r0, r8, lsl #16
    5318:	001c8000 	andseq	r8, ip, r0
    531c:	00004080 	andeq	r4, r0, r0, lsl #1
    5320:	559c0100 	ldrpl	r0, [ip, #256]	; 0x100
    5324:	06000007 	streq	r0, [r0], -r7
    5328:	00001c84 	andeq	r1, r0, r4, lsl #25
    532c:	00681755 	rsbeq	r1, r8, r5, asr r7
    5330:	91020000 	mrsls	r0, (UNDEF: 2)
    5334:	7273026c 	rsbsvc	r0, r3, #108, 4	; 0xc0000006
    5338:	55020063 	strpl	r0, [r2, #-99]	; 0xffffff9d
    533c:	00013c28 	andeq	r3, r1, r8, lsr #24
    5340:	68910200 	ldmvs	r1, {r9}
    5344:	001c3b06 	andseq	r3, ip, r6, lsl #22
    5348:	49335500 	ldmdbmi	r3!, {r8, sl, ip, lr}
    534c:	02000000 	andeq	r0, r0, #0
    5350:	74076491 	strvc	r6, [r7], #-1169	; 0xfffffb6f
    5354:	5700706d 	strpl	r7, [r0, -sp, rrx]
    5358:	00006808 	andeq	r6, r0, r8, lsl #16
    535c:	74910200 	ldrvc	r0, [r1], #512	; 0x200
    5360:	1c8f0500 	cfstr32ne	mvfx0, [pc], {0}
    5364:	08400000 	stmdaeq	r0, {}^	; <UNPREDICTABLE>
    5368:	00000068 	andeq	r0, r0, r8, rrx
    536c:	80001c4c 	andhi	r1, r0, ip, asr #24
    5370:	00000034 	andeq	r0, r0, r4, lsr r0
    5374:	079a9c01 	ldreq	r9, [sl, r1, lsl #24]
    5378:	84060000 	strhi	r0, [r6], #-0
    537c:	4000001c 	andmi	r0, r0, ip, lsl r0
    5380:	00006816 	andeq	r6, r0, r6, lsl r8
    5384:	6c910200 	lfmvs	f0, 4, [r1], {0}
    5388:	63727302 	cmnvs	r2, #134217728	; 0x8000000
    538c:	27400200 	strbcs	r0, [r0, -r0, lsl #4]
    5390:	0000013c 	andeq	r0, r0, ip, lsr r1
    5394:	07689102 	strbeq	r9, [r8, -r2, lsl #2]!
    5398:	00706d74 	rsbseq	r6, r0, r4, ror sp
    539c:	00680842 	rsbeq	r0, r8, r2, asr #16
    53a0:	91020000 	mrsls	r0, (UNDEF: 2)
    53a4:	080f0074 	stmdaeq	pc, {r2, r4, r5, r6}	; <UNPREDICTABLE>
    53a8:	1e00001d 	mcrne	0, 0, r0, cr0, cr13, {0}
    53ac:	0000de05 	andeq	sp, r0, r5, lsl #28
    53b0:	001bbc00 	andseq	fp, fp, r0, lsl #24
    53b4:	00009080 	andeq	r9, r0, r0, lsl #1
    53b8:	f99c0100 			; <UNDEFINED> instruction: 0xf99c0100
    53bc:	02000007 	andeq	r0, r0, #7
    53c0:	02003173 	andeq	r3, r0, #-1073741796	; 0xc000001c
    53c4:	013c1a1e 	teqeq	ip, lr, lsl sl
    53c8:	91020000 	mrsls	r0, (UNDEF: 2)
    53cc:	3273026c 	rsbscc	r0, r3, #108, 4	; 0xc0000006
    53d0:	2a1e0200 	bcs	785bd8 <shift+0x785bd8>
    53d4:	0000013c 	andeq	r0, r0, ip, lsr r1
    53d8:	02689102 	rsbeq	r9, r8, #-2147483648	; 0x80000000
    53dc:	006e656c 	rsbeq	r6, lr, ip, ror #10
    53e0:	49351e02 	ldmdbmi	r5!, {r1, r9, sl, fp, ip}
    53e4:	02000000 	andeq	r0, r0, #0
    53e8:	63076491 	movwvs	r6, #29841	; 0x7491
    53ec:	10210031 	eorne	r0, r1, r1, lsr r0
    53f0:	00000031 	andeq	r0, r0, r1, lsr r0
    53f4:	07779102 	ldrbeq	r9, [r7, -r2, lsl #2]!
    53f8:	21003263 	tstcs	r0, r3, ror #4
    53fc:	00003114 	andeq	r3, r0, r4, lsl r1
    5400:	76910200 	ldrvc	r0, [r1], r0, lsl #4
    5404:	1c501a00 	mrrcne	10, 0, r1, r0, cr0
    5408:	22010000 	andcs	r0, r1, #0
    540c:	0000311d 	andeq	r3, r0, sp, lsl r1
    5410:	001b8000 	andseq	r8, fp, r0
    5414:	00003c80 	andeq	r3, r0, r0, lsl #25
    5418:	029c0100 	addseq	r0, ip, #0, 2
    541c:	22010063 	andcs	r0, r1, #99	; 0x63
    5420:	00003135 	andeq	r3, r0, r5, lsr r1
    5424:	77910200 	ldrvc	r0, [r1, r0, lsl #4]
    5428:	0b2b0000 	bleq	ac5430 <shift+0xac5430>
    542c:	00050000 	andeq	r0, r5, r0
    5430:	16dc0401 	ldrbne	r0, [ip], r1, lsl #8
    5434:	e9180000 	ldmdb	r8, {}	; <UNPREDICTABLE>
    5438:	1d000000 	stcne	0, cr0, [r0, #-0]
    543c:	00001df9 	strdeq	r1, [r0], -r9
    5440:	00000010 	andeq	r0, r0, r0, lsl r0
    5444:	800022b0 			; <UNDEFINED> instruction: 0x800022b0
    5448:	0000191a 	andeq	r1, r0, sl, lsl r9
    544c:	00001728 	andeq	r1, r0, r8, lsr #14
    5450:	001bd111 	andseq	sp, fp, r1, lsl r1
    5454:	160b0300 	strne	r0, [fp], -r0, lsl #6
    5458:	00000032 	andeq	r0, r0, r2, lsr r0
    545c:	c1070408 	tstgt	r7, r8, lsl #8
    5460:	12000000 	andne	r0, r0, #0
    5464:	00000044 	andeq	r0, r0, r4, asr #32
    5468:	00000044 	andeq	r0, r0, r4, asr #32
    546c:	01080019 	tsteq	r8, r9, lsl r0
    5470:	00009f08 	andeq	r9, r0, r8, lsl #30
    5474:	1b641a00 	blne	190bc7c <shift+0x190bc7c>
    5478:	0f010000 	svceq	0x00010000
    547c:	00003916 	andeq	r3, r0, r6, lsl r9
    5480:	005c0500 	subseq	r0, ip, r0, lsl #10
    5484:	01080000 	mrseq	r0, (UNDEF: 8)
    5488:	0000a808 	andeq	sl, r0, r8, lsl #16
    548c:	005c1400 	subseq	r1, ip, r0, lsl #8
    5490:	e2110000 	ands	r0, r1, #0
    5494:	0400001b 	streq	r0, [r0], #-27	; 0xffffffe5
    5498:	00570f0e 	subseq	r0, r7, lr, lsl #30
    549c:	01080000 	mrseq	r0, (UNDEF: 8)
    54a0:	0000a106 	andeq	sl, r0, r6, lsl #2
    54a4:	05020800 	streq	r0, [r2, #-2048]	; 0xfffff800
    54a8:	00000145 	andeq	r0, r0, r5, asr #2
    54ac:	6905041b 	stmdbvs	r5, {r0, r1, r3, r4, sl}
    54b0:	0800746e 	stmdaeq	r0, {r1, r2, r3, r5, r6, sl, ip, sp, lr}
    54b4:	00ce0702 	sbceq	r0, lr, r2, lsl #14
    54b8:	32110000 	andscc	r0, r1, #0
    54bc:	0500001a 	streq	r0, [r0, #-26]	; 0xffffffe6
    54c0:	009c1c11 	addseq	r1, ip, r1, lsl ip
    54c4:	08080000 	stmdaeq	r8, {}	; <UNPREDICTABLE>
    54c8:	0000b707 	andeq	fp, r0, r7, lsl #14
    54cc:	05080800 	streq	r0, [r8, #-2048]	; 0xfffff800
    54d0:	0000004d 	andeq	r0, r0, sp, asr #32
    54d4:	bc070408 	cfstrslt	mvf0, [r7], {8}
    54d8:	08000000 	stmdaeq	r0, {}	; <UNPREDICTABLE>
    54dc:	00520504 	subseq	r0, r2, r4, lsl #10
    54e0:	c6150000 	ldrgt	r0, [r5], -r0
    54e4:	0600001c 			; <UNDEFINED> instruction: 0x0600001c
    54e8:	00260f38 	eoreq	r0, r6, r8, lsr pc
    54ec:	00d30000 	sbcseq	r0, r3, r0
    54f0:	d30e0000 	movwle	r0, #57344	; 0xe000
    54f4:	0e000000 	cdpeq	0, 0, cr0, cr0, cr0, {0}
    54f8:	00000026 	andeq	r0, r0, r6, lsr #32
    54fc:	00630500 	rsbeq	r0, r3, r0, lsl #10
    5500:	7d150000 	ldcvc	0, cr0, [r5, #-0]
    5504:	0700001b 	smladeq	r0, fp, r0, r0
    5508:	00321514 	eorseq	r1, r2, r4, lsl r5
    550c:	00f30000 	rscseq	r0, r3, r0
    5510:	f30e0000 	vhadd.u8	d0, d14, d0
    5514:	0e000000 	cdpeq	0, 0, cr0, cr0, cr0, {0}
    5518:	00000032 	andeq	r0, r0, r2, lsr r0
    551c:	009c0500 	addseq	r0, ip, r0, lsl #10
    5520:	1e0a0000 	cdpne	0, 0, cr0, cr10, cr0, {0}
    5524:	1f00001c 	svcne	0x0000001c
    5528:	00008204 	andeq	r8, r0, r4, lsl #4
    552c:	003b9c00 	eorseq	r9, fp, r0, lsl #24
    5530:	00002e80 	andeq	r2, r0, r0, lsl #29
    5534:	4d9c0100 	ldfmis	f0, [ip]
    5538:	03000001 	movweq	r0, #1
    553c:	00667562 	rsbeq	r7, r6, r2, ror #10
    5540:	d319041f 	tstle	r9, #520093696	; 0x1f000000
    5544:	02000000 	andeq	r0, r0, #0
    5548:	66035c91 			; <UNDEFINED> instruction: 0x66035c91
    554c:	1f00746d 	svcne	0x0000746d
    5550:	00d32b04 	sbcseq	r2, r3, r4, lsl #22
    5554:	91020000 	mrsls	r0, (UNDEF: 2)
    5558:	fd020f74 	stc2	15, cr0, [r2, #-464]	; 0xfffffe30
    555c:	2100001b 	tstcs	r0, fp, lsl r0
    5560:	00680a04 	rsbeq	r0, r8, r4, lsl #20
    5564:	91020000 	mrsls	r0, (UNDEF: 2)
    5568:	00690164 	rsbeq	r0, r9, r4, ror #2
    556c:	82060422 	andhi	r0, r6, #570425344	; 0x22000000
    5570:	02000000 	andeq	r0, r0, #0
    5574:	0a006091 	beq	1d7c0 <shift+0x1d7c0>
    5578:	00001c1d 	andeq	r1, r0, sp, lsl ip
    557c:	00820345 	addeq	r0, r2, r5, asr #6
    5580:	34b00000 	ldrtcc	r0, [r0], #0
    5584:	06ec8000 	strbteq	r8, [ip], r0
    5588:	9c010000 	stcls	0, cr0, [r1], {-0}
    558c:	0000038f 	andeq	r0, r0, pc, lsl #7
    5590:	66756203 	ldrbtvs	r6, [r5], -r3, lsl #4
    5594:	1a034500 	bne	d699c <shift+0xd699c>
    5598:	000000d3 	ldrdeq	r0, [r0], -r3
    559c:	7f949103 	svcvc	0x00949103
    55a0:	746d6603 	strbtvc	r6, [sp], #-1539	; 0xfffff9fd
    55a4:	2c034500 	cfstr32cs	mvfx4, [r3], {-0}
    55a8:	000000d3 	ldrdeq	r0, [r0], -r3
    55ac:	7f909103 	svcvc	0x00909103
    55b0:	001bfd0b 	andseq	pc, fp, fp, lsl #26
    55b4:	39034500 	stmdbcc	r3, {r8, sl, lr}
    55b8:	00000068 	andeq	r0, r0, r8, rrx
    55bc:	7f8c9103 	svcvc	0x008c9103
    55c0:	72747301 	rsbsvc	r7, r4, #67108864	; 0x4000000
    55c4:	0e034700 	cdpeq	7, 0, cr4, cr3, cr0, {0}
    55c8:	000000d3 	ldrdeq	r0, [r0], -r3
    55cc:	026c9102 	rsbeq	r9, ip, #-2147483648	; 0x80000000
    55d0:	00001e39 	andeq	r1, r0, r9, lsr lr
    55d4:	57080348 	strpl	r0, [r8, -r8, asr #6]
    55d8:	03000000 	movweq	r0, #0
    55dc:	027f9891 	rsbseq	r9, pc, #9502720	; 0x910000
    55e0:	00001e22 	andeq	r1, r0, r2, lsr #28
    55e4:	5c070349 	stcpl	3, cr0, [r7], {73}	; 0x49
    55e8:	02000000 	andeq	r0, r0, #0
    55ec:	6e016b91 	vmovvs.32	d17[0], r6
    55f0:	4a006d75 	bmi	20bcc <shift+0x20bcc>
    55f4:	00820603 	addeq	r0, r2, r3, lsl #12
    55f8:	91020000 	mrsls	r0, (UNDEF: 2)
    55fc:	1de50264 	sfmne	f0, 2, [r5, #400]!	; 0x190
    5600:	034b0000 	movteq	r0, #45056	; 0xb000
    5604:	00008206 	andeq	r8, r0, r6, lsl #4
    5608:	60910200 	addsvs	r0, r1, r0, lsl #4
    560c:	001d7202 	andseq	r7, sp, r2, lsl #4
    5610:	06034c00 	streq	r4, [r3], -r0, lsl #24
    5614:	00000082 	andeq	r0, r0, r2, lsl #1
    5618:	025c9102 	subseq	r9, ip, #-2147483648	; 0x80000000
    561c:	00001d35 	andeq	r1, r0, r5, lsr sp
    5620:	8206034d 	andhi	r0, r6, #872415233	; 0x34000001
    5624:	02000000 	andeq	r0, r0, #0
    5628:	4f025891 	svcmi	0x00025891
    562c:	4e00001d 	mcrmi	0, 0, r0, cr0, cr13, {0}
    5630:	00820603 	addeq	r0, r2, r3, lsl #12
    5634:	91020000 	mrsls	r0, (UNDEF: 2)
    5638:	371c0454 			; <UNDEFINED> instruction: 0x371c0454
    563c:	00448000 	subeq	r8, r4, r0
    5640:	022a0000 	eoreq	r0, sl, #0
    5644:	73010000 	movwvc	r0, #4096	; 0x1000
    5648:	0a038f00 	beq	e9250 <shift+0xe9250>
    564c:	00000057 	andeq	r0, r0, r7, asr r0
    5650:	00509102 	subseq	r9, r0, r2, lsl #2
    5654:	00376204 	eorseq	r6, r7, r4, lsl #4
    5658:	00007e80 	andeq	r7, r0, r0, lsl #29
    565c:	00024500 	andeq	r4, r2, r0, lsl #10
    5660:	00730100 	rsbseq	r0, r3, r0, lsl #2
    5664:	570a039a 			; <UNDEFINED> instruction: 0x570a039a
    5668:	02000000 	andeq	r0, r0, #0
    566c:	04004c91 	streq	r4, [r0], #-3217	; 0xfffff36f
    5670:	800037e2 	andhi	r3, r0, r2, ror #15
    5674:	00000018 	andeq	r0, r0, r8, lsl r0
    5678:	00000260 	andeq	r0, r0, r0, ror #4
    567c:	ac006901 			; <UNDEFINED> instruction: 0xac006901
    5680:	038f0903 	orreq	r0, pc, #49152	; 0xc000
    5684:	91020000 	mrsls	r0, (UNDEF: 2)
    5688:	a8040048 	stmdage	r4, {r3, r6}
    568c:	24800039 	strcs	r0, [r0], #57	; 0x39
    5690:	7c000000 	stcvc	0, cr0, [r0], {-0}
    5694:	01000002 	tsteq	r0, r2
    5698:	03db0073 	bicseq	r0, fp, #115	; 0x73
    569c:	00039412 	andeq	r9, r3, r2, lsl r4
    56a0:	a4910300 	ldrge	r0, [r1], #768	; 0x300
    56a4:	ce04007f 	mcrgt	0, 0, r0, cr4, cr15, {3}
    56a8:	24800039 	strcs	r0, [r0], #57	; 0x39
    56ac:	98000000 	stmdals	r0, {}	; <UNPREDICTABLE>
    56b0:	01000002 	tsteq	r0, r2
    56b4:	03de0073 	bicseq	r0, lr, #115	; 0x73
    56b8:	00039914 	andeq	r9, r3, r4, lsl r9
    56bc:	a8910300 	ldmge	r1, {r8, r9}
    56c0:	fa04007f 	blx	1058c4 <shift+0x1058c4>
    56c4:	24800039 	strcs	r0, [r0], #57	; 0x39
    56c8:	b4000000 	strlt	r0, [r0], #-0
    56cc:	01000002 	tsteq	r0, r2
    56d0:	03e40073 	mvneq	r0, #115	; 0x73
    56d4:	00039e0c 	andeq	r9, r3, ip, lsl #28
    56d8:	b8910300 	ldmlt	r1, {r8, r9}
    56dc:	2004007f 	andcs	r0, r4, pc, ror r0
    56e0:	2480003a 	strcs	r0, [r0], #58	; 0x3a
    56e4:	d0000000 	andle	r0, r0, r0
    56e8:	01000002 	tsteq	r0, r2
    56ec:	03e70073 	mvneq	r0, #115	; 0x73
    56f0:	0003a315 	andeq	sl, r3, r5, lsl r3
    56f4:	bc910300 	ldclt	3, cr0, [r1], {0}
    56f8:	4c04007f 	stcmi	0, cr0, [r4], {127}	; 0x7f
    56fc:	2280003a 	addcs	r0, r0, #58	; 0x3a
    5700:	eb000000 	bl	5708 <shift+0x5708>
    5704:	01000002 	tsteq	r0, r2
    5708:	03ed006c 	mvneq	r0, #108	; 0x6c
    570c:	0003a80b 	andeq	sl, r3, fp, lsl #16
    5710:	40910200 	addsmi	r0, r1, r0, lsl #4
    5714:	3a700400 	bcc	1c0671c <shift+0x1c0671c>
    5718:	00228000 	eoreq	r8, r2, r0
    571c:	03060000 	movweq	r0, #24576	; 0x6000
    5720:	6c010000 	stcvs	0, cr0, [r1], {-0}
    5724:	1403f000 	strne	pc, [r3], #-0
    5728:	000003ad 	andeq	r0, r0, sp, lsr #7
    572c:	00449102 	subeq	r9, r4, r2, lsl #2
    5730:	003a9a04 	eorseq	r9, sl, r4, lsl #20
    5734:	00002680 	andeq	r2, r0, r0, lsl #13
    5738:	00032200 	andeq	r2, r3, r0, lsl #4
    573c:	006c0100 	rsbeq	r0, ip, r0, lsl #2
    5740:	b21003f6 	andslt	r0, r0, #-671088637	; 0xd8000003
    5744:	03000003 	movweq	r0, #3
    5748:	007fac91 			; <UNDEFINED> instruction: 0x007fac91
    574c:	003ac204 	eorseq	ip, sl, r4, lsl #4
    5750:	00002680 	andeq	r2, r0, r0, lsl #13
    5754:	00033e00 	andeq	r3, r3, r0, lsl #28
    5758:	006c0100 	rsbeq	r0, ip, r0, lsl #2
    575c:	f31903f9 	vcge.u16	q0, <illegal reg q12.5>, <illegal reg q12.5>
    5760:	03000000 	movweq	r0, #0
    5764:	007fb091 			; <UNDEFINED> instruction: 0x007fb091
    5768:	003aea04 	eorseq	lr, sl, r4, lsl #20
    576c:	00002280 	andeq	r2, r0, r0, lsl #5
    5770:	00035a00 	andeq	r5, r3, r0, lsl #20
    5774:	00730100 	rsbseq	r0, r3, r0, lsl #2
    5778:	b70c0400 	strlt	r0, [ip, -r0, lsl #8]
    577c:	03000003 	movweq	r0, #3
    5780:	007fb491 			; <UNDEFINED> instruction: 0x007fb491
    5784:	003b1404 	eorseq	r1, fp, r4, lsl #8
    5788:	00002280 	andeq	r2, r0, r0, lsl #5
    578c:	00037600 	andeq	r7, r3, r0, lsl #12
    5790:	00690100 	rsbeq	r0, r9, r0, lsl #2
    5794:	8f0a0406 	svchi	0x000a0406
    5798:	03000003 	movweq	r0, #3
    579c:	007f9c91 			; <UNDEFINED> instruction: 0x007f9c91
    57a0:	003b380d 	eorseq	r3, fp, sp, lsl #16
    57a4:	00002280 	andeq	r2, r0, r0, lsl #5
    57a8:	00690100 	rsbeq	r0, r9, r0, lsl #2
    57ac:	bc130409 	cfldrslt	mvf0, [r3], {9}
    57b0:	03000003 	movweq	r0, #3
    57b4:	007fa091 			; <UNDEFINED> instruction: 0x007fa091
    57b8:	00820500 	addeq	r0, r2, r0, lsl #10
    57bc:	74050000 	strvc	r0, [r5], #-0
    57c0:	05000000 	streq	r0, [r0, #-0]
    57c4:	00000044 	andeq	r0, r0, r4, asr #32
    57c8:	00007b05 	andeq	r7, r0, r5, lsl #22
    57cc:	00890500 	addeq	r0, r9, r0, lsl #10
    57d0:	b1050000 	mrslt	r0, (UNDEF: 5)
    57d4:	05000000 	streq	r0, [r0, #-0]
    57d8:	000000aa 	andeq	r0, r0, sl, lsr #1
    57dc:	0000a305 	andeq	sl, r0, r5, lsl #6
    57e0:	00260500 	eoreq	r0, r6, r0, lsl #10
    57e4:	32050000 	andcc	r0, r5, #0
    57e8:	0a000000 	beq	57f0 <shift+0x57f0>
    57ec:	00001c0a 	andeq	r1, r0, sl, lsl #24
    57f0:	0082032a 	addeq	r0, r2, sl, lsr #6
    57f4:	34820000 	strcc	r0, [r2], #0
    57f8:	002e8000 	eoreq	r8, lr, r0
    57fc:	9c010000 	stcls	0, cr0, [r1], {-0}
    5800:	00000416 	andeq	r0, r0, r6, lsl r4
    5804:	66756203 	ldrbtvs	r6, [r5], -r3, lsl #4
    5808:	14032a00 	strne	r2, [r3], #-2560	; 0xfffff600
    580c:	00000057 	andeq	r0, r0, r7, asr r0
    5810:	035c9102 	cmpeq	ip, #-2147483648	; 0x80000000
    5814:	00746d66 	rsbseq	r6, r4, r6, ror #26
    5818:	d325032a 			; <UNDEFINED> instruction: 0xd325032a
    581c:	02000000 	andeq	r0, r0, #0
    5820:	020f7491 	andeq	r7, pc, #-1862270976	; 0x91000000
    5824:	00001bfd 	strdeq	r1, [r0], -sp
    5828:	680a032c 	stmdavs	sl, {r2, r3, r5, r8, r9}
    582c:	02000000 	andeq	r0, r0, #0
    5830:	69016491 	stmdbvs	r1, {r0, r4, r7, sl, sp, lr}
    5834:	06032d00 	streq	r2, [r3], -r0, lsl #26
    5838:	00000082 	andeq	r0, r0, r2, lsl #1
    583c:	00609102 	rsbeq	r9, r0, r2, lsl #2
    5840:	001c090a 	andseq	r0, ip, sl, lsl #18
    5844:	82031900 	andhi	r1, r3, #0, 18
    5848:	5e000000 	cdppl	0, 0, cr0, cr0, cr0, {0}
    584c:	24800034 	strcs	r0, [r0], #52	; 0x34
    5850:	01000000 	mrseq	r0, (UNDEF: 0)
    5854:	00045d9c 	muleq	r4, ip, sp
    5858:	75620300 	strbvc	r0, [r2, #-768]!	; 0xfffffd00
    585c:	03190066 	tsteq	r9, #102	; 0x66
    5860:	00005714 	andeq	r5, r0, r4, lsl r7
    5864:	74910200 	ldrvc	r0, [r1], #512	; 0x200
    5868:	746d6603 	strbtvc	r6, [sp], #-1539	; 0xfffff9fd
    586c:	25031900 	strcs	r1, [r3, #-2304]	; 0xfffff700
    5870:	000000d3 	ldrdeq	r0, [r0], -r3
    5874:	0b709102 	bleq	1c29c84 <shift+0x1c29c84>
    5878:	00001bfd 	strdeq	r1, [r0], -sp
    587c:	68320319 	ldmdavs	r2!, {r0, r3, r4, r8, r9}
    5880:	02000000 	andeq	r0, r0, #0
    5884:	0a006c91 	beq	20ad0 <shift+0x20ad0>
    5888:	00001dcd 	andeq	r1, r0, sp, asr #27
    588c:	008202ff 	strdeq	r0, [r2], pc	; <UNPREDICTABLE>
    5890:	34200000 	strtcc	r0, [r0], #-0
    5894:	003e8000 	eorseq	r8, lr, r0
    5898:	9c010000 	stcls	0, cr0, [r1], {-0}
    589c:	000004c1 	andeq	r0, r0, r1, asr #9
    58a0:	66756203 	ldrbtvs	r6, [r5], -r3, lsl #4
    58a4:	1602ff00 	strne	pc, [r2], -r0, lsl #30
    58a8:	00000057 	andeq	r0, r0, r7, asr r0
    58ac:	0b649102 	bleq	1929cbc <shift+0x1929cbc>
    58b0:	00001d18 	andeq	r1, r0, r8, lsl sp
    58b4:	262202ff 			; <UNDEFINED> instruction: 0x262202ff
    58b8:	02000000 	andeq	r0, r0, #0
    58bc:	66036091 			; <UNDEFINED> instruction: 0x66036091
    58c0:	ff00746d 			; <UNDEFINED> instruction: 0xff00746d
    58c4:	00d33402 	sbcseq	r3, r3, r2, lsl #8
    58c8:	91020000 	mrsls	r0, (UNDEF: 2)
    58cc:	fd020f78 	stc2	15, cr0, [r2, #-480]	; 0xfffffe20
    58d0:	0100001b 	tsteq	r0, fp, lsl r0
    58d4:	00680a03 	rsbeq	r0, r8, r3, lsl #20
    58d8:	91020000 	mrsls	r0, (UNDEF: 2)
    58dc:	0069016c 	rsbeq	r0, r9, ip, ror #2
    58e0:	82060302 	andhi	r0, r6, #134217728	; 0x8000000
    58e4:	02000000 	andeq	r0, r0, #0
    58e8:	0a006891 	beq	1fb34 <shift+0x1fb34>
    58ec:	00001dc3 	andeq	r1, r0, r3, asr #27
    58f0:	008202e6 	addeq	r0, r2, r6, ror #5
    58f4:	33f00000 	mvnscc	r0, #0
    58f8:	00308000 	eorseq	r8, r0, r0
    58fc:	9c010000 	stcls	0, cr0, [r1], {-0}
    5900:	00000525 	andeq	r0, r0, r5, lsr #10
    5904:	66756203 	ldrbtvs	r6, [r5], -r3, lsl #4
    5908:	1502e600 	strne	lr, [r2, #-1536]	; 0xfffffa00
    590c:	00000057 	andeq	r0, r0, r7, asr r0
    5910:	0b649102 	bleq	1929d20 <shift+0x1929d20>
    5914:	00001d18 	andeq	r1, r0, r8, lsl sp
    5918:	262102e6 	strtcs	r0, [r1], -r6, ror #5
    591c:	02000000 	andeq	r0, r0, #0
    5920:	66036091 			; <UNDEFINED> instruction: 0x66036091
    5924:	e600746d 	str	r7, [r0], -sp, ror #8
    5928:	00d33302 	sbcseq	r3, r3, r2, lsl #6
    592c:	91020000 	mrsls	r0, (UNDEF: 2)
    5930:	fd020f78 	stc2	15, cr0, [r2, #-480]	; 0xfffffe20
    5934:	e800001b 	stmda	r0, {r0, r1, r3, r4}
    5938:	00680a02 	rsbeq	r0, r8, r2, lsl #20
    593c:	91020000 	mrsls	r0, (UNDEF: 2)
    5940:	0069016c 	rsbeq	r0, r9, ip, ror #2
    5944:	820602e9 	andhi	r0, r6, #-1879048178	; 0x9000000e
    5948:	02000000 	andeq	r0, r0, #0
    594c:	0a006891 	beq	1fb98 <shift+0x1fb98>
    5950:	00001dcc 	andeq	r1, r0, ip, asr #27
    5954:	008202d0 	ldrdeq	r0, [r2], r0	; <UNPREDICTABLE>
    5958:	33bc0000 			; <UNDEFINED> instruction: 0x33bc0000
    595c:	00348000 	eorseq	r8, r4, r0
    5960:	9c010000 	stcls	0, cr0, [r1], {-0}
    5964:	00000588 	andeq	r0, r0, r8, lsl #11
    5968:	66756203 	ldrbtvs	r6, [r5], -r3, lsl #4
    596c:	1602d000 	strne	sp, [r2], -r0
    5970:	00000057 	andeq	r0, r0, r7, asr r0
    5974:	0b6c9102 	bleq	1b29d84 <shift+0x1b29d84>
    5978:	00001d18 	andeq	r1, r0, r8, lsl sp
    597c:	262202d0 			; <UNDEFINED> instruction: 0x262202d0
    5980:	02000000 	andeq	r0, r0, #0
    5984:	66036891 			; <UNDEFINED> instruction: 0x66036891
    5988:	d000746d 	andle	r7, r0, sp, ror #8
    598c:	00d33402 	sbcseq	r3, r3, r2, lsl #8
    5990:	91020000 	mrsls	r0, (UNDEF: 2)
    5994:	1bfd0b64 	blne	fff4872c <__bss_end+0x7ff4390c>
    5998:	02d00000 	sbcseq	r0, r0, #0
    599c:	00006841 	andeq	r6, r0, r1, asr #16
    59a0:	60910200 	addsvs	r0, r1, r0, lsl #4
    59a4:	d2006901 	andle	r6, r0, #16384	; 0x4000
    59a8:	00820602 	addeq	r0, r2, r2, lsl #12
    59ac:	91020000 	mrsls	r0, (UNDEF: 2)
    59b0:	c20a0074 	andgt	r0, sl, #116	; 0x74
    59b4:	d200001d 	andle	r0, r0, #29
    59b8:	00008201 	andeq	r8, r0, r1, lsl #4
    59bc:	002cb000 	eoreq	fp, ip, r0
    59c0:	00070c80 	andeq	r0, r7, r0, lsl #25
    59c4:	f79c0100 			; <UNDEFINED> instruction: 0xf79c0100
    59c8:	03000006 	movweq	r0, #6
    59cc:	00667562 	rsbeq	r7, r6, r2, ror #10
    59d0:	571501d2 			; <UNDEFINED> instruction: 0x571501d2
    59d4:	03000000 	movweq	r0, #0
    59d8:	0b7f9491 	bleq	1feac24 <shift+0x1feac24>
    59dc:	00001d18 	andeq	r1, r0, r8, lsl sp
    59e0:	262101d2 			; <UNDEFINED> instruction: 0x262101d2
    59e4:	03000000 	movweq	r0, #0
    59e8:	037f9091 	cmneq	pc, #145	; 0x91
    59ec:	00746d66 	rsbseq	r6, r4, r6, ror #26
    59f0:	d33301d2 	teqle	r3, #-2147483596	; 0x80000034
    59f4:	03000000 	movweq	r0, #0
    59f8:	0b7f8c91 	bleq	1fe8c44 <shift+0x1fe8c44>
    59fc:	00001bfd 	strdeq	r1, [r0], -sp
    5a00:	684001d2 	stmdavs	r0, {r1, r4, r6, r7, r8}^
    5a04:	03000000 	movweq	r0, #0
    5a08:	017f8891 			; <UNDEFINED> instruction: 0x017f8891
    5a0c:	006e656c 	rsbeq	r6, lr, ip, ror #10
    5a10:	820601d4 	andhi	r0, r6, #212, 2	; 0x35
    5a14:	03000000 	movweq	r0, #0
    5a18:	017fa891 			; <UNDEFINED> instruction: 0x017fa891
    5a1c:	006d756e 	rsbeq	r7, sp, lr, ror #10
    5a20:	9c1501d5 	ldflss	f0, [r5], {213}	; 0xd5
    5a24:	02000000 	andeq	r0, r0, #0
    5a28:	69015091 	stmdbvs	r1, {r0, r4, r7, ip, lr}
    5a2c:	0601d600 	streq	sp, [r1], -r0, lsl #12
    5a30:	00000082 	andeq	r0, r0, r2, lsl #1
    5a34:	024c9102 	subeq	r9, ip, #-2147483648	; 0x80000000
    5a38:	00001d72 	andeq	r1, r0, r2, ror sp
    5a3c:	820901d6 	andhi	r0, r9, #-2147483595	; 0x80000035
    5a40:	02000000 	andeq	r0, r0, #0
    5a44:	73014891 	movwvc	r4, #6289	; 0x1891
    5a48:	d7007274 	smlsdxle	r0, r4, r2, r7
    5a4c:	00570801 	subseq	r0, r7, r1, lsl #16
    5a50:	91020000 	mrsls	r0, (UNDEF: 2)
    5a54:	6e650144 	powvssm	f0, f5, f4
    5a58:	01d70064 	bicseq	r0, r7, r4, rrx
    5a5c:	0000570e 	andeq	r5, r0, lr, lsl #14
    5a60:	40910200 	addsmi	r0, r1, r0, lsl #4
    5a64:	d7006301 	strle	r6, [r0, -r1, lsl #6]
    5a68:	005c1301 	subseq	r1, ip, r1, lsl #6
    5a6c:	91030000 	mrsls	r0, (UNDEF: 3)
    5a70:	73017f9b 	movwvc	r7, #8091	; 0x1f9b
    5a74:	0e01d800 	cdpeq	8, 0, cr13, cr1, cr0, {0}
    5a78:	000000d3 	ldrdeq	r0, [r0], -r3
    5a7c:	7fbc9103 	svcvc	0x00bc9103
    5a80:	00129f02 	andseq	r9, r2, r2, lsl #30
    5a84:	0601da00 	streq	sp, [r1], -r0, lsl #20
    5a88:	00000082 	andeq	r0, r0, r2, lsl #1
    5a8c:	7fb89103 	svcvc	0x00b89103
    5a90:	001d3502 	andseq	r3, sp, r2, lsl #10
    5a94:	0601dc00 	streq	sp, [r1], -r0, lsl #24
    5a98:	00000082 	andeq	r0, r0, r2, lsl #1
    5a9c:	7fb49103 	svcvc	0x00b49103
    5aa0:	001e2f02 	andseq	r2, lr, r2, lsl #30
    5aa4:	0601dd00 	streq	sp, [r1], -r0, lsl #26
    5aa8:	00000082 	andeq	r0, r0, r2, lsl #1
    5aac:	7fb09103 	svcvc	0x00b09103
    5ab0:	001de502 	andseq	lr, sp, r2, lsl #10
    5ab4:	0601df00 	streq	sp, [r1], -r0, lsl #30
    5ab8:	00000082 	andeq	r0, r0, r2, lsl #1
    5abc:	7fac9103 	svcvc	0x00ac9103
    5ac0:	001d571c 	andseq	r5, sp, ip, lsl r7
    5ac4:	01fe0200 	mvnseq	r0, r0, lsl #4
    5ac8:	002d2403 	eoreq	r2, sp, r3, lsl #8
    5acc:	319a0480 	orrscc	r0, sl, r0, lsl #9
    5ad0:	00188000 	andseq	r8, r8, r0
    5ad4:	06c00000 	strbeq	r0, [r0], r0
    5ad8:	69010000 	stmdbvs	r1, {}	; <UNPREDICTABLE>
    5adc:	02710070 	rsbseq	r0, r1, #112	; 0x70
    5ae0:	0003a80d 	andeq	sl, r3, sp, lsl #16
    5ae4:	9c910300 	ldcls	3, cr0, [r1], {0}
    5ae8:	c004007f 	andgt	r0, r4, pc, ror r0
    5aec:	1a800031 	bne	fe005bb8 <__bss_end+0x7e000d98>
    5af0:	dd000000 	stcle	0, cr0, [r0, #-0]
    5af4:	01000006 	tsteq	r0, r6
    5af8:	74007069 	strvc	r7, [r0], #-105	; 0xffffff97
    5afc:	03b70f02 			; <UNDEFINED> instruction: 0x03b70f02
    5b00:	91030000 	mrsls	r0, (UNDEF: 3)
    5b04:	0d007fa0 	stceq	15, cr7, [r0, #-640]	; 0xfffffd80
    5b08:	800031de 	ldrdhi	r3, [r0], -lr
    5b0c:	00000018 	andeq	r0, r0, r8, lsl r0
    5b10:	00706901 	rsbseq	r6, r0, r1, lsl #18
    5b14:	8f0c0277 	svchi	0x000c0277
    5b18:	03000003 	movweq	r0, #3
    5b1c:	007fa491 			; <UNDEFINED> instruction: 0x007fa491
    5b20:	1e281600 	cfmadda32ne	mvax0, mvax1, mvfx8, mvfx0
    5b24:	57fc0000 	ldrbpl	r0, [ip, r0]!
    5b28:	6a000000 	bvs	5b30 <shift+0x5b30>
    5b2c:	46800029 	strmi	r0, [r0], r9, lsr #32
    5b30:	01000003 	tsteq	r0, r3
    5b34:	0008169c 	muleq	r8, ip, r6
    5b38:	75620600 	strbvc	r0, [r2, #-1536]!	; 0xfffffa00
    5b3c:	fc020066 	stc2	0, cr0, [r2], {102}	; 0x66
    5b40:	0000571b 	andeq	r5, r0, fp, lsl r7
    5b44:	dc910300 	ldcle	3, cr0, [r1], {0}
    5b48:	6e65067e 	mcrvs	6, 3, r0, cr5, cr14, {3}
    5b4c:	fc020064 	stc2	0, cr0, [r2], {100}	; 0x64
    5b50:	00005726 	andeq	r5, r0, r6, lsr #14
    5b54:	d8910300 	ldmle	r1, {r8, r9}
    5b58:	756e067e 	strbvc	r0, [lr, #-1662]!	; 0xfffff982
    5b5c:	fc02006d 	stc2	0, cr0, [r2], {109}	; 0x6d
    5b60:	0000a33c 	andeq	sl, r0, ip, lsr r3
    5b64:	d0910300 	addsle	r0, r1, r0, lsl #6
    5b68:	1d72077e 	ldclne	7, cr0, [r2, #-504]!	; 0xfffffe08
    5b6c:	45fc0000 	ldrbmi	r0, [ip, #0]!
    5b70:	00000082 	andeq	r0, r0, r2, lsl #1
    5b74:	07009102 	streq	r9, [r0, -r2, lsl #2]
    5b78:	00001d18 	andeq	r1, r0, r8, lsl sp
    5b7c:	00824ffc 	strdeq	r4, [r2], ip
    5b80:	91020000 	mrsls	r0, (UNDEF: 2)
    5b84:	1e2f0704 	cdpne	7, 2, cr0, cr15, cr4, {0}
    5b88:	59fc0000 	ldmibpl	ip!, {}^	; <UNPREDICTABLE>
    5b8c:	00000082 	andeq	r0, r0, r2, lsl #1
    5b90:	07089102 	streq	r9, [r8, -r2, lsl #2]
    5b94:	0000200a 	andeq	r2, r0, sl
    5b98:	008268fc 	strdeq	r6, [r2], ip
    5b9c:	91020000 	mrsls	r0, (UNDEF: 2)
    5ba0:	1d940c0c 	ldcne	12, cr0, [r4, #48]	; 0x30
    5ba4:	14ff0000 	ldrbtne	r0, [pc], #0	; 5bac <shift+0x5bac>
    5ba8:	00000826 	andeq	r0, r0, r6, lsr #16
    5bac:	3fec0305 	svccc	0x00ec0305
    5bb0:	74018000 	strvc	r8, [r1], #-0
    5bb4:	0100706d 	tsteq	r0, sp, rrx
    5bb8:	082b0701 	stmdaeq	fp!, {r0, r8, r9, sl}
    5bbc:	91030000 	mrsls	r0, (UNDEF: 3)
    5bc0:	52027ee0 	andpl	r7, r2, #224, 28	; 0xe00
    5bc4:	0200001d 	andeq	r0, r0, #29
    5bc8:	005c0701 	subseq	r0, ip, r1, lsl #14
    5bcc:	91020000 	mrsls	r0, (UNDEF: 2)
    5bd0:	1d5e025f 	lfmne	f0, 2, [lr, #-380]	; 0xfffffe84
    5bd4:	01030000 	mrseq	r0, (UNDEF: 3)
    5bd8:	00005c07 	andeq	r5, r0, r7, lsl #24
    5bdc:	4f910200 	svcmi	0x00910200
    5be0:	001d2c02 	andseq	r2, sp, r2, lsl #24
    5be4:	06010400 	streq	r0, [r1], -r0, lsl #8
    5be8:	00000082 	andeq	r0, r0, r2, lsl #1
    5bec:	01509102 	cmpeq	r0, r2, lsl #2
    5bf0:	01050069 	tsteq	r5, r9, rrx
    5bf4:	00008206 	andeq	r8, r0, r6, lsl #4
    5bf8:	58910200 	ldmpl	r1, {r9}
    5bfc:	002a8604 	eoreq	r8, sl, r4, lsl #12
    5c00:	00007a80 	andeq	r7, r0, r0, lsl #21
    5c04:	0007fe00 	andeq	pc, r7, r0, lsl #28
    5c08:	1e0e0200 	cdpne	2, 0, cr0, cr14, cr0, {0}
    5c0c:	012d0000 			; <UNDEFINED> instruction: 0x012d0000
    5c10:	00008207 	andeq	r8, r0, r7, lsl #4
    5c14:	48910200 	ldmmi	r1, {r9}
    5c18:	001d8e02 	andseq	r8, sp, r2, lsl #28
    5c1c:	07012e00 	streq	r2, [r1, -r0, lsl #28]
    5c20:	00000082 	andeq	r0, r0, r2, lsl #1
    5c24:	00549102 	subseq	r9, r4, r2, lsl #2
    5c28:	002bda0d 	eoreq	sp, fp, sp, lsl #20
    5c2c:	00004080 	andeq	r4, r0, r0, lsl #1
    5c30:	00630100 	rsbeq	r0, r3, r0, lsl #2
    5c34:	5c08014f 	stfpls	f0, [r8], {79}	; 0x4f
    5c38:	02000000 	andeq	r0, r0, #0
    5c3c:	00004791 	muleq	r0, r1, r7
    5c40:	00006312 	andeq	r6, r0, r2, lsl r3
    5c44:	00082600 	andeq	r2, r8, r0, lsl #12
    5c48:	00321700 	eorseq	r1, r2, r0, lsl #14
    5c4c:	000f0000 	andeq	r0, pc, r0
    5c50:	00081614 	andeq	r1, r8, r4, lsl r6
    5c54:	005c1200 	subseq	r1, ip, r0, lsl #4
    5c58:	083b0000 	ldmdaeq	fp!, {}	; <UNPREDICTABLE>
    5c5c:	32170000 	andscc	r0, r7, #0
    5c60:	63000000 	movwvs	r0, #0
    5c64:	1daa1600 	stcne	6, cr1, [sl]
    5c68:	57f10000 	ldrbpl	r0, [r1, r0]!
    5c6c:	c6000000 	strgt	r0, [r0], -r0
    5c70:	a4800028 	strge	r0, [r0], #40	; 0x28
    5c74:	01000000 	mrseq	r0, (UNDEF: 0)
    5c78:	0008b09c 	muleq	r8, ip, r0
    5c7c:	75620600 	strbvc	r0, [r2, #-1536]!	; 0xfffffa00
    5c80:	f1020066 			; <UNDEFINED> instruction: 0xf1020066
    5c84:	0000571c 	andeq	r5, r0, ip, lsl r7
    5c88:	5c910200 	lfmpl	f0, 4, [r1], {0}
    5c8c:	6d756e06 	ldclvs	14, cr6, [r5, #-24]!	; 0xffffffe8
    5c90:	2af10200 	bcs	ffc46498 <__bss_end+0x7fc41678>
    5c94:	00000090 	muleq	r0, r0, r0
    5c98:	0d509102 	ldfeqp	f1, [r0, #-8]
    5c9c:	800028d2 	ldrdhi	r2, [r0], -r2	; <UNPREDICTABLE>
    5ca0:	0000008e 	andeq	r0, r0, lr, lsl #1
    5ca4:	6d657209 	sfmvs	f7, 2, [r5, #-36]!	; 0xffffffdc
    5ca8:	320cf400 	andcc	pc, ip, #0, 8
    5cac:	02000000 	andeq	r0, r0, #0
    5cb0:	f80d6491 			; <UNDEFINED> instruction: 0xf80d6491
    5cb4:	5c800028 	stcpl	0, cr0, [r0], {40}	; 0x28
    5cb8:	0c000000 	stceq	0, cr0, [r0], {-0}
    5cbc:	00001d70 	andeq	r1, r0, r0, ror sp
    5cc0:	003209f7 	ldrshteq	r0, [r2], -r7
    5cc4:	91020000 	mrsls	r0, (UNDEF: 2)
    5cc8:	1d650c68 	stclne	12, cr0, [r5, #-416]!	; 0xfffffe60
    5ccc:	09f70000 	ldmibeq	r7!, {}^	; <UNPREDICTABLE>
    5cd0:	00000032 	andeq	r0, r0, r2, lsr r0
    5cd4:	006c9102 	rsbeq	r9, ip, r2, lsl #2
    5cd8:	77130000 	ldrvc	r0, [r3, -r0]
    5cdc:	c600001d 			; <UNDEFINED> instruction: 0xc600001d
    5ce0:	0000570e 	andeq	r5, r0, lr, lsl #14
    5ce4:	00279200 	eoreq	r9, r7, r0, lsl #4
    5ce8:	00013480 	andeq	r3, r1, r0, lsl #9
    5cec:	1a9c0100 	bne	fe7060f4 <__bss_end+0x7e7012d4>
    5cf0:	06000009 	streq	r0, [r0], -r9
    5cf4:	00667562 	rsbeq	r7, r6, r2, ror #10
    5cf8:	5721c602 	strpl	ip, [r1, -r2, lsl #12]!
    5cfc:	02000000 	andeq	r0, r0, #0
    5d00:	71066491 			; <UNDEFINED> instruction: 0x71066491
    5d04:	2fc60200 	svccs	0x00c60200
    5d08:	00000032 	andeq	r0, r0, r2, lsr r0
    5d0c:	09609102 	stmdbeq	r0!, {r1, r8, ip, pc}^
    5d10:	ca003364 	bgt	12aa8 <shift+0x12aa8>
    5d14:	0000320b 	andeq	r3, r0, fp, lsl #4
    5d18:	6c910200 	lfmvs	f0, 4, [r1], {0}
    5d1c:	00326409 	eorseq	r6, r2, r9, lsl #8
    5d20:	00320fca 	eorseq	r0, r2, sl, asr #31
    5d24:	91020000 	mrsls	r0, (UNDEF: 2)
    5d28:	31640970 	smccc	16528	; 0x4090
    5d2c:	3213ca00 	andscc	ip, r3, #0, 20
    5d30:	02000000 	andeq	r0, r0, #0
    5d34:	64097491 	strvs	r7, [r9], #-1169	; 0xfffffb6f
    5d38:	17ca0030 			; <UNDEFINED> instruction: 0x17ca0030
    5d3c:	00000032 	andeq	r0, r0, r2, lsr r0
    5d40:	00689102 	rsbeq	r9, r8, r2, lsl #2
    5d44:	001dd713 	andseq	sp, sp, r3, lsl r7
    5d48:	570ea100 	strpl	sl, [lr, -r0, lsl #2]
    5d4c:	40000000 	andmi	r0, r0, r0
    5d50:	52800026 	addpl	r0, r0, #38	; 0x26
    5d54:	01000001 	tsteq	r0, r1
    5d58:	0009849c 	muleq	r9, ip, r4
    5d5c:	75620600 	strbvc	r0, [r2, #-1536]!	; 0xfffffa00
    5d60:	a1020066 	tstge	r2, r6, rrx
    5d64:	00005722 	andeq	r5, r0, r2, lsr #14
    5d68:	64910200 	ldrvs	r0, [r1], #512	; 0x200
    5d6c:	02007106 	andeq	r7, r0, #-2147483647	; 0x80000001
    5d70:	003230a1 	eorseq	r3, r2, r1, lsr #1
    5d74:	91020000 	mrsls	r0, (UNDEF: 2)
    5d78:	33640960 	cmncc	r4, #96, 18	; 0x180000
    5d7c:	320ba300 	andcc	sl, fp, #0, 6
    5d80:	02000000 	andeq	r0, r0, #0
    5d84:	64096c91 	strvs	r6, [r9], #-3217	; 0xfffff36f
    5d88:	0fa30032 	svceq	0x00a30032
    5d8c:	00000032 	andeq	r0, r0, r2, lsr r0
    5d90:	09709102 	ldmdbeq	r0!, {r1, r8, ip, pc}^
    5d94:	a3003164 	movwge	r3, #356	; 0x164
    5d98:	00003213 	andeq	r3, r0, r3, lsl r2
    5d9c:	74910200 	ldrvc	r0, [r1], #512	; 0x200
    5da0:	00306409 	eorseq	r6, r0, r9, lsl #8
    5da4:	003217a3 	eorseq	r1, r2, r3, lsr #15
    5da8:	91020000 	mrsls	r0, (UNDEF: 2)
    5dac:	ef130068 	svc	0x00130068
    5db0:	8b00001d 	blhi	5e2c <shift+0x5e2c>
    5db4:	0000820c 	andeq	r8, r0, ip, lsl #4
    5db8:	0025e800 	eoreq	lr, r5, r0, lsl #16
    5dbc:	00005880 	andeq	r5, r0, r0, lsl #17
    5dc0:	b79c0100 	ldrlt	r0, [ip, r0, lsl #2]
    5dc4:	06000009 	streq	r0, [r0], -r9
    5dc8:	8b020073 	blhi	85f9c <shift+0x85f9c>
    5dcc:	0009b723 	andeq	fp, r9, r3, lsr #14
    5dd0:	6c910200 	lfmvs	f0, 4, [r1], {0}
    5dd4:	8d006909 	vstrhi.16	s12, [r0, #-18]	; 0xffffffee	; <UNPREDICTABLE>
    5dd8:	00008206 	andeq	r8, r0, r6, lsl #4
    5ddc:	74910200 	ldrvc	r0, [r1], #512	; 0x200
    5de0:	00d30500 	sbcseq	r0, r3, r0, lsl #10
    5de4:	9b100000 	blls	405dec <shift+0x405dec>
    5de8:	8400001d 	strhi	r0, [r0], #-29	; 0xffffffe3
    5dec:	0000a30b 	andeq	sl, r0, fp, lsl #6
    5df0:	00259c00 	eoreq	r9, r5, r0, lsl #24
    5df4:	00004c80 	andeq	r4, r0, r0, lsl #25
    5df8:	009c0100 	addseq	r0, ip, r0, lsl #2
    5dfc:	0600000a 	streq	r0, [r0], -sl
    5e00:	02007063 	andeq	r7, r0, #99	; 0x63
    5e04:	00d32684 	sbcseq	r2, r3, r4, lsl #13
    5e08:	91020000 	mrsls	r0, (UNDEF: 2)
    5e0c:	1d6b076c 	stclne	7, cr0, [fp, #-432]!	; 0xfffffe50
    5e10:	30840000 	addcc	r0, r4, r0
    5e14:	00000a00 	andeq	r0, r0, r0, lsl #20
    5e18:	07689102 	strbeq	r9, [r8, -r2, lsl #2]!
    5e1c:	00001d72 	andeq	r1, r0, r2, ror sp
    5e20:	00324284 	eorseq	r4, r2, r4, lsl #5
    5e24:	91020000 	mrsls	r0, (UNDEF: 2)
    5e28:	57050064 	strpl	r0, [r5, -r4, rrx]
    5e2c:	10000000 	andne	r0, r0, r0
    5e30:	00001db2 			; <UNDEFINED> instruction: 0x00001db2
    5e34:	009c1460 	addseq	r1, ip, r0, ror #8
    5e38:	242c0000 	strtcs	r0, [ip], #-0
    5e3c:	01708000 	cmneq	r0, r0
    5e40:	9c010000 	stcls	0, cr0, [r1], {-0}
    5e44:	00000a66 	andeq	r0, r0, r6, ror #20
    5e48:	00706306 	rsbseq	r6, r0, r6, lsl #6
    5e4c:	d3306002 	teqle	r0, #2
    5e50:	02000000 	andeq	r0, r0, #0
    5e54:	6b074491 	blvs	1d70a0 <shift+0x1d70a0>
    5e58:	6000001d 	andvs	r0, r0, sp, lsl r0
    5e5c:	000a003a 	andeq	r0, sl, sl, lsr r0
    5e60:	40910200 	addsmi	r0, r1, r0, lsl #4
    5e64:	001d7207 	andseq	r7, sp, r7, lsl #4
    5e68:	324c6000 	subcc	r6, ip, #0
    5e6c:	03000000 	movweq	r0, #0
    5e70:	0c7fbc91 	ldcleq	12, cr11, [pc], #-580	; 5c34 <shift+0x5c34>
    5e74:	00001d25 	andeq	r1, r0, r5, lsr #26
    5e78:	009c1562 	addseq	r1, ip, r2, ror #10
    5e7c:	91020000 	mrsls	r0, (UNDEF: 2)
    5e80:	13aa0c50 			; <UNDEFINED> instruction: 0x13aa0c50
    5e84:	20620000 	rsbcs	r0, r2, r0
    5e88:	0000009c 	muleq	r0, ip, r0
    5e8c:	00489102 	subeq	r9, r8, r2, lsl #2
    5e90:	001d4110 	andseq	r4, sp, r0, lsl r1
    5e94:	b1065100 	mrslt	r5, (UNDEF: 22)
    5e98:	f0000000 			; <UNDEFINED> instruction: 0xf0000000
    5e9c:	3c800023 	stccc	0, cr0, [r0], {35}	; 0x23
    5ea0:	01000000 	mrseq	r0, (UNDEF: 0)
    5ea4:	000aaa9c 	muleq	sl, ip, sl
    5ea8:	70630600 	rsbvc	r0, r3, r0, lsl #12
    5eac:	20510200 	subscs	r0, r1, r0, lsl #4
    5eb0:	000000d3 	ldrdeq	r0, [r0], -r3
    5eb4:	07749102 	ldrbeq	r9, [r4, -r2, lsl #2]!
    5eb8:	00001d6b 	andeq	r1, r0, fp, ror #26
    5ebc:	0a002a51 	beq	10808 <shift+0x10808>
    5ec0:	91020000 	mrsls	r0, (UNDEF: 2)
    5ec4:	1d720770 	ldclne	7, cr0, [r2, #-448]!	; 0xfffffe40
    5ec8:	3c510000 	mracc	r0, r1, acc0
    5ecc:	00000032 	andeq	r0, r0, r2, lsr r0
    5ed0:	006c9102 	rsbeq	r9, ip, r2, lsl #2
    5ed4:	001e1310 	andseq	r1, lr, r0, lsl r3
    5ed8:	aa0f2d00 	bge	3d12e0 <shift+0x3d12e0>
    5edc:	ec000000 	stc	0, cr0, [r0], {-0}
    5ee0:	04800022 	streq	r0, [r0], #34	; 0x22
    5ee4:	01000001 	tsteq	r0, r1
    5ee8:	000b0a9c 	muleq	fp, ip, sl
    5eec:	70630600 	rsbvc	r0, r3, r0, lsl #12
    5ef0:	2a2d0200 	bcs	b466f8 <shift+0xb466f8>
    5ef4:	000000d3 	ldrdeq	r0, [r0], -r3
    5ef8:	07649102 	strbeq	r9, [r4, -r2, lsl #2]!
    5efc:	00001d6b 	andeq	r1, r0, fp, ror #26
    5f00:	0a00342d 	beq	12fbc <shift+0x12fbc>
    5f04:	91020000 	mrsls	r0, (UNDEF: 2)
    5f08:	1d720760 	ldclne	7, cr0, [r2, #-384]!	; 0xfffffe80
    5f0c:	462d0000 	strtmi	r0, [sp], -r0
    5f10:	00000032 	andeq	r0, r0, r2, lsr r0
    5f14:	0c5c9102 	ldfeqp	f1, [ip], {2}
    5f18:	00001d25 	andeq	r1, r0, r5, lsr #26
    5f1c:	00aa102f 	adceq	r1, sl, pc, lsr #32
    5f20:	91020000 	mrsls	r0, (UNDEF: 2)
    5f24:	13aa0c6c 			; <UNDEFINED> instruction: 0x13aa0c6c
    5f28:	1b2f0000 	blne	bc5f30 <shift+0xbc5f30>
    5f2c:	000000aa 	andeq	r0, r0, sl, lsr #1
    5f30:	00689102 	rsbeq	r9, r8, r2, lsl #2
    5f34:	001d841d 	andseq	r8, sp, sp, lsl r4
    5f38:	1d290100 	stfnes	f0, [r9, #-0]
    5f3c:	00000044 	andeq	r0, r0, r4, asr #32
    5f40:	800022b0 			; <UNDEFINED> instruction: 0x800022b0
    5f44:	0000003c 	andeq	r0, r0, ip, lsr r0
    5f48:	63069c01 	movwvs	r9, #27649	; 0x6c01
    5f4c:	35290100 	strcc	r0, [r9, #-256]!	; 0xffffff00
    5f50:	00000044 	andeq	r0, r0, r4, asr #32
    5f54:	00779102 	rsbseq	r9, r7, r2, lsl #2
    5f58:	0001bb00 	andeq	fp, r1, r0, lsl #22
    5f5c:	b4000200 	strlt	r0, [r0], #-512	; 0xfffffe00
    5f60:	04000018 	streq	r0, [r0], #-24	; 0xffffffe8
    5f64:	00237001 	eoreq	r7, r3, r1
    5f68:	003bd000 	eorseq	sp, fp, r0
    5f6c:	003e4680 	eorseq	r4, lr, r0, lsl #13
    5f70:	6f682f80 	svcvs	0x00682f80
    5f74:	742f656d 	strtvc	r6, [pc], #-1389	; 5f7c <shift+0x5f7c>
    5f78:	2d677763 	stclcs	7, cr7, [r7, #-396]!	; 0xfffffe74
    5f7c:	6c697562 	cfstr64vs	mvdx7, [r9], #-392	; 0xfffffe78
    5f80:	616c7364 	cmnvs	ip, r4, ror #6
    5f84:	772f6576 			; <UNDEFINED> instruction: 0x772f6576
    5f88:	736b726f 	cmnvc	fp, #-268435450	; 0xf0000006
    5f8c:	65636170 	strbvs	r6, [r3, #-368]!	; 0xfffffe90
    5f90:	7763742f 	strbvc	r7, [r3, -pc, lsr #8]!
    5f94:	616d2d67 	cmnvs	sp, r7, ror #26
    5f98:	722d656b 	eorvc	r6, sp, #448790528	; 0x1ac00000
    5f9c:	61656c65 	cmnvs	r5, r5, ror #24
    5fa0:	6c2f6573 	cfstr32vs	mvfx6, [pc], #-460	; 5ddc <shift+0x5ddc>
    5fa4:	6c656261 	sfmvs	f6, 2, [r5], #-388	; 0xfffffe7c
    5fa8:	636f642f 	cmnvs	pc, #788529152	; 0x2f000000
    5fac:	2d72656b 	cfldr64cs	mvdx6, [r2, #-428]!	; 0xfffffe54
    5fb0:	73757274 	cmnvc	r5, #116, 4	; 0x40000007
    5fb4:	612d7974 			; <UNDEFINED> instruction: 0x612d7974
    5fb8:	3436646d 	ldrtcc	r6, [r6], #-1133	; 0xfffffb93
    5fbc:	7763742d 	strbvc	r7, [r3, -sp, lsr #8]!
    5fc0:	75622d67 	strbvc	r2, [r2, #-3431]!	; 0xfffff299
    5fc4:	2f646c69 	svccs	0x00646c69
    5fc8:	67726174 			; <UNDEFINED> instruction: 0x67726174
    5fcc:	612f7465 			; <UNDEFINED> instruction: 0x612f7465
    5fd0:	6c2d6d72 	stcvs	13, cr6, [sp], #-456	; 0xfffffe38
    5fd4:	78756e69 	ldmdavc	r5!, {r0, r3, r5, r6, r9, sl, fp, sp, lr}^
    5fd8:	756e672d 	strbvc	r6, [lr, #-1837]!	; 0xfffff8d3
    5fdc:	69626165 	stmdbvs	r2!, {r0, r2, r5, r6, r8, sp, lr}^
    5fe0:	732f6668 			; <UNDEFINED> instruction: 0x732f6668
    5fe4:	7370616e 	cmnvc	r0, #-2147483621	; 0x8000001b
    5fe8:	73746f68 	cmnvc	r4, #104, 30	; 0x1a0
    5fec:	6363672f 	cmnvs	r3, #12320768	; 0xbc0000
    5ff0:	6e696c2d 	cdpvs	12, 6, cr6, cr9, cr13, {1}
    5ff4:	2d6f7261 	sfmcs	f7, 2, [pc, #-388]!	; 5e78 <shift+0x5e78>
    5ff8:	2d392e34 	ldccs	14, cr2, [r9, #-208]!	; 0xffffff30
    5ffc:	37313032 			; <UNDEFINED> instruction: 0x37313032
    6000:	2f31302e 	svccs	0x0031302e
    6004:	6762696c 	strbvs	r6, [r2, -ip, ror #18]!
    6008:	632f6363 			; <UNDEFINED> instruction: 0x632f6363
    600c:	69666e6f 	stmdbvs	r6!, {r0, r1, r2, r3, r5, r6, r9, sl, fp, sp, lr}^
    6010:	72612f67 	rsbvc	r2, r1, #412	; 0x19c
    6014:	696c2f6d 	stmdbvs	ip!, {r0, r2, r3, r5, r6, r8, r9, sl, fp, sp}^
    6018:	75663162 	strbvc	r3, [r6, #-354]!	; 0xfffffe9e
    601c:	2e73636e 	cdpcs	3, 7, cr6, cr3, cr14, {3}
    6020:	682f0053 	stmdavs	pc!, {r0, r1, r4, r6}	; <UNPREDICTABLE>
    6024:	2f656d6f 	svccs	0x00656d6f
    6028:	67776374 			; <UNDEFINED> instruction: 0x67776374
    602c:	6975622d 	ldmdbvs	r5!, {r0, r2, r3, r5, r9, sp, lr}^
    6030:	6c73646c 	cfldrdvs	mvd6, [r3], #-432	; 0xfffffe50
    6034:	2f657661 	svccs	0x00657661
    6038:	6b726f77 	blvs	1ca1e1c <shift+0x1ca1e1c>
    603c:	63617073 	cmnvs	r1, #115	; 0x73
    6040:	63742f65 	cmnvs	r4, #404	; 0x194
    6044:	6d2d6777 	stcvs	7, cr6, [sp, #-476]!	; 0xfffffe24
    6048:	2d656b61 	fstmdbxcs	r5!, {d22-d69}	;@ Deprecated
    604c:	656c6572 	strbvs	r6, [ip, #-1394]!	; 0xfffffa8e
    6050:	2f657361 	svccs	0x00657361
    6054:	6562616c 	strbvs	r6, [r2, #-364]!	; 0xfffffe94
    6058:	6f642f6c 	svcvs	0x00642f6c
    605c:	72656b63 	rsbvc	r6, r5, #101376	; 0x18c00
    6060:	7572742d 	ldrbvc	r7, [r2, #-1069]!	; 0xfffffbd3
    6064:	2d797473 	cfldrdcs	mvd7, [r9, #-460]!	; 0xfffffe34
    6068:	36646d61 	strbtcc	r6, [r4], -r1, ror #26
    606c:	63742d34 	cmnvs	r4, #52, 26	; 0xd00
    6070:	622d6777 	eorvs	r6, sp, #31195136	; 0x1dc0000
    6074:	646c6975 	strbtvs	r6, [ip], #-2421	; 0xfffff68b
    6078:	7261742f 	rsbvc	r7, r1, #788529152	; 0x2f000000
    607c:	2f746567 	svccs	0x00746567
    6080:	2d6d7261 	sfmcs	f7, 2, [sp, #-388]!	; 0xfffffe7c
    6084:	756e696c 	strbvc	r6, [lr, #-2412]!	; 0xfffff694
    6088:	6e672d78 	mcrvs	13, 3, r2, cr7, cr8, {3}
    608c:	62616575 	rsbvs	r6, r1, #490733568	; 0x1d400000
    6090:	2f666869 	svccs	0x00666869
    6094:	6975625f 	ldmdbvs	r5!, {r0, r1, r2, r3, r4, r6, r9, sp, lr}^
    6098:	622f646c 	eorvs	r6, pc, #108, 8	; 0x6c000000
    609c:	646c6975 	strbtvs	r6, [ip], #-2421	; 0xfffff68b
    60a0:	38782f73 	ldmdacc	r8!, {r0, r1, r4, r5, r6, r8, r9, sl, fp, sp}^
    60a4:	34365f36 	ldrtcc	r5, [r6], #-3894	; 0xfffff0ca
    60a8:	6b6e752d 	blvs	1ba3564 <shift+0x1ba3564>
    60ac:	6e776f6e 	cdpvs	15, 7, cr6, cr7, cr14, {3}
    60b0:	6e696c2d 	cdpvs	12, 6, cr6, cr9, cr13, {1}
    60b4:	672d7875 			; <UNDEFINED> instruction: 0x672d7875
    60b8:	612f756e 			; <UNDEFINED> instruction: 0x612f756e
    60bc:	6c2d6d72 	stcvs	13, cr6, [sp], #-456	; 0xfffffe38
    60c0:	78756e69 	ldmdavc	r5!, {r0, r3, r5, r6, r9, sl, fp, sp, lr}^
    60c4:	756e672d 	strbvc	r6, [lr, #-1837]!	; 0xfffff8d3
    60c8:	69626165 	stmdbvs	r2!, {r0, r2, r5, r6, r8, sp, lr}^
    60cc:	672f6668 	strvs	r6, [pc, -r8, ror #12]!
    60d0:	6c2d6363 	stcvs	3, cr6, [sp], #-396	; 0xfffffe74
    60d4:	72616e69 	rsbvc	r6, r1, #1680	; 0x690
    60d8:	2e342d6f 	cdpcs	13, 3, cr2, cr4, cr15, {3}
    60dc:	30322d39 	eorscc	r2, r2, r9, lsr sp
    60e0:	302e3731 	eorcc	r3, lr, r1, lsr r7
    60e4:	74732d31 	ldrbtvc	r2, [r3], #-3377	; 0xfffff2cf
    60e8:	32656761 	rsbcc	r6, r5, #25427968	; 0x1840000
    60ec:	6d72612f 	ldfvse	f6, [r2, #-188]!	; 0xffffff44
    60f0:	6e696c2d 	cdpvs	12, 6, cr6, cr9, cr13, {1}
    60f4:	672d7875 			; <UNDEFINED> instruction: 0x672d7875
    60f8:	6165756e 	cmnvs	r5, lr, ror #10
    60fc:	66686962 	strbtvs	r6, [r8], -r2, ror #18
    6100:	62696c2f 	rsbvs	r6, r9, #12032	; 0x2f00
    6104:	00636367 	rsbeq	r6, r3, r7, ror #6
    6108:	20554e47 	subscs	r4, r5, r7, asr #28
    610c:	32205341 	eorcc	r5, r0, #67108865	; 0x4000001
    6110:	2e34322e 	cdpcs	2, 3, cr3, cr4, cr14, {1}
    6114:	80010030 	andhi	r0, r1, r0, lsr r0
    6118:	000001b7 			; <UNDEFINED> instruction: 0x000001b7
    611c:	18c80002 	stmiane	r8, {r1}^
    6120:	01040000 	mrseq	r0, (UNDEF: 4)
    6124:	00002474 	andeq	r2, r0, r4, ror r4
    6128:	80003e48 	andhi	r3, r0, r8, asr #28
    612c:	80003e78 	andhi	r3, r0, r8, ror lr
    6130:	6d6f682f 	stclvs	8, cr6, [pc, #-188]!	; 607c <shift+0x607c>
    6134:	63742f65 	cmnvs	r4, #404	; 0x194
    6138:	622d6777 	eorvs	r6, sp, #31195136	; 0x1dc0000
    613c:	646c6975 	strbtvs	r6, [ip], #-2421	; 0xfffff68b
    6140:	76616c73 			; <UNDEFINED> instruction: 0x76616c73
    6144:	6f772f65 	svcvs	0x00772f65
    6148:	70736b72 	rsbsvc	r6, r3, r2, ror fp
    614c:	2f656361 	svccs	0x00656361
    6150:	67776374 			; <UNDEFINED> instruction: 0x67776374
    6154:	6b616d2d 	blvs	1861610 <shift+0x1861610>
    6158:	65722d65 	ldrbvs	r2, [r2, #-3429]!	; 0xfffff29b
    615c:	7361656c 	cmnvc	r1, #108, 10	; 0x1b000000
    6160:	616c2f65 	cmnvs	ip, r5, ror #30
    6164:	2f6c6562 	svccs	0x006c6562
    6168:	6b636f64 	blvs	18e1f00 <shift+0x18e1f00>
    616c:	742d7265 	strtvc	r7, [sp], #-613	; 0xfffffd9b
    6170:	74737572 	ldrbtvc	r7, [r3], #-1394	; 0xfffffa8e
    6174:	6d612d79 	stclvs	13, cr2, [r1, #-484]!	; 0xfffffe1c
    6178:	2d343664 	ldccs	6, cr3, [r4, #-400]!	; 0xfffffe70
    617c:	67776374 			; <UNDEFINED> instruction: 0x67776374
    6180:	6975622d 	ldmdbvs	r5!, {r0, r2, r3, r5, r9, sp, lr}^
    6184:	742f646c 	strtvc	r6, [pc], #-1132	; 618c <shift+0x618c>
    6188:	65677261 	strbvs	r7, [r7, #-609]!	; 0xfffffd9f
    618c:	72612f74 	rsbvc	r2, r1, #116, 30	; 0x1d0
    6190:	696c2d6d 	stmdbvs	ip!, {r0, r2, r3, r5, r6, r8, sl, fp, sp}^
    6194:	2d78756e 	cfldr64cs	mvdx7, [r8, #-440]!	; 0xfffffe48
    6198:	65756e67 	ldrbvs	r6, [r5, #-3687]!	; 0xfffff199
    619c:	68696261 	stmdavs	r9!, {r0, r5, r6, r9, sp, lr}^
    61a0:	6e732f66 	cdpvs	15, 7, cr2, cr3, cr6, {3}
    61a4:	68737061 	ldmdavs	r3!, {r0, r5, r6, ip, sp, lr}^
    61a8:	2f73746f 	svccs	0x0073746f
    61ac:	2d636367 	stclcs	3, cr6, [r3, #-412]!	; 0xfffffe64
    61b0:	616e696c 	cmnvs	lr, ip, ror #18
    61b4:	342d6f72 	strtcc	r6, [sp], #-3954	; 0xfffff08e
    61b8:	322d392e 	eorcc	r3, sp, #753664	; 0xb8000
    61bc:	2e373130 	mrccs	1, 1, r3, cr7, cr0, {1}
    61c0:	6c2f3130 	stfvss	f3, [pc], #-192	; 6108 <shift+0x6108>
    61c4:	63676269 	cmnvs	r7, #-1879048186	; 0x90000006
    61c8:	6f632f63 	svcvs	0x00632f63
    61cc:	6769666e 	strbvs	r6, [r9, -lr, ror #12]!
    61d0:	6d72612f 	ldfvse	f6, [r2, #-188]!	; 0xffffff44
    61d4:	6170622f 	cmnvs	r0, pc, lsr #4
    61d8:	532e6962 			; <UNDEFINED> instruction: 0x532e6962
    61dc:	6f682f00 	svcvs	0x00682f00
    61e0:	742f656d 	strtvc	r6, [pc], #-1389	; 61e8 <shift+0x61e8>
    61e4:	2d677763 	stclcs	7, cr7, [r7, #-396]!	; 0xfffffe74
    61e8:	6c697562 	cfstr64vs	mvdx7, [r9], #-392	; 0xfffffe78
    61ec:	616c7364 	cmnvs	ip, r4, ror #6
    61f0:	772f6576 			; <UNDEFINED> instruction: 0x772f6576
    61f4:	736b726f 	cmnvc	fp, #-268435450	; 0xf0000006
    61f8:	65636170 	strbvs	r6, [r3, #-368]!	; 0xfffffe90
    61fc:	7763742f 	strbvc	r7, [r3, -pc, lsr #8]!
    6200:	616d2d67 	cmnvs	sp, r7, ror #26
    6204:	722d656b 	eorvc	r6, sp, #448790528	; 0x1ac00000
    6208:	61656c65 	cmnvs	r5, r5, ror #24
    620c:	6c2f6573 	cfstr32vs	mvfx6, [pc], #-460	; 6048 <shift+0x6048>
    6210:	6c656261 	sfmvs	f6, 2, [r5], #-388	; 0xfffffe7c
    6214:	636f642f 	cmnvs	pc, #788529152	; 0x2f000000
    6218:	2d72656b 	cfldr64cs	mvdx6, [r2, #-428]!	; 0xfffffe54
    621c:	73757274 	cmnvc	r5, #116, 4	; 0x40000007
    6220:	612d7974 			; <UNDEFINED> instruction: 0x612d7974
    6224:	3436646d 	ldrtcc	r6, [r6], #-1133	; 0xfffffb93
    6228:	7763742d 	strbvc	r7, [r3, -sp, lsr #8]!
    622c:	75622d67 	strbvc	r2, [r2, #-3431]!	; 0xfffff299
    6230:	2f646c69 	svccs	0x00646c69
    6234:	67726174 			; <UNDEFINED> instruction: 0x67726174
    6238:	612f7465 			; <UNDEFINED> instruction: 0x612f7465
    623c:	6c2d6d72 	stcvs	13, cr6, [sp], #-456	; 0xfffffe38
    6240:	78756e69 	ldmdavc	r5!, {r0, r3, r5, r6, r9, sl, fp, sp, lr}^
    6244:	756e672d 	strbvc	r6, [lr, #-1837]!	; 0xfffff8d3
    6248:	69626165 	stmdbvs	r2!, {r0, r2, r5, r6, r8, sp, lr}^
    624c:	5f2f6668 	svcpl	0x002f6668
    6250:	6c697562 	cfstr64vs	mvdx7, [r9], #-392	; 0xfffffe78
    6254:	75622f64 	strbvc	r2, [r2, #-3940]!	; 0xfffff09c
    6258:	73646c69 	cmnvc	r4, #26880	; 0x6900
    625c:	3638782f 	ldrtcc	r7, [r8], -pc, lsr #16
    6260:	2d34365f 	ldccs	6, cr3, [r4, #-380]!	; 0xfffffe84
    6264:	6e6b6e75 	mcrvs	14, 3, r6, cr11, cr5, {3}
    6268:	2d6e776f 	stclcs	7, cr7, [lr, #-444]!	; 0xfffffe44
    626c:	756e696c 	strbvc	r6, [lr, #-2412]!	; 0xfffff694
    6270:	6e672d78 	mcrvs	13, 3, r2, cr7, cr8, {3}
    6274:	72612f75 	rsbvc	r2, r1, #468	; 0x1d4
    6278:	696c2d6d 	stmdbvs	ip!, {r0, r2, r3, r5, r6, r8, sl, fp, sp}^
    627c:	2d78756e 	cfldr64cs	mvdx7, [r8, #-440]!	; 0xfffffe48
    6280:	65756e67 	ldrbvs	r6, [r5, #-3687]!	; 0xfffff199
    6284:	68696261 	stmdavs	r9!, {r0, r5, r6, r9, sp, lr}^
    6288:	63672f66 	cmnvs	r7, #408	; 0x198
    628c:	696c2d63 	stmdbvs	ip!, {r0, r1, r5, r6, r8, sl, fp, sp}^
    6290:	6f72616e 	svcvs	0x0072616e
    6294:	392e342d 	stmdbcc	lr!, {r0, r2, r3, r5, sl, ip, sp}
    6298:	3130322d 	teqcc	r0, sp, lsr #4
    629c:	31302e37 	teqcc	r0, r7, lsr lr
    62a0:	6174732d 	cmnvs	r4, sp, lsr #6
    62a4:	2f326567 	svccs	0x00326567
    62a8:	2d6d7261 	sfmcs	f7, 2, [sp, #-388]!	; 0xfffffe7c
    62ac:	756e696c 	strbvc	r6, [lr, #-2412]!	; 0xfffff694
    62b0:	6e672d78 	mcrvs	13, 3, r2, cr7, cr8, {3}
    62b4:	62616575 	rsbvs	r6, r1, #490733568	; 0x1d400000
    62b8:	2f666869 	svccs	0x00666869
    62bc:	6762696c 	strbvs	r6, [r2, -ip, ror #18]!
    62c0:	47006363 	strmi	r6, [r0, -r3, ror #6]
    62c4:	4120554e 			; <UNDEFINED> instruction: 0x4120554e
    62c8:	2e322053 	mrccs	0, 1, r2, cr2, cr3, {2}
    62cc:	302e3432 	eorcc	r3, lr, r2, lsr r4
    62d0:	bb800100 	bllt	fe0066d8 <__bss_end+0x7e0018b8>
    62d4:	02000001 	andeq	r0, r0, #1
    62d8:	0018dc00 	andseq	sp, r8, r0, lsl #24
    62dc:	55010400 	strpl	r0, [r1, #-1024]	; 0xfffffc00
    62e0:	78000025 	stmdavc	r0, {r0, r2, r5}
    62e4:	8480003e 	strhi	r0, [r0], #62	; 0x3e
    62e8:	2f80003e 	svccs	0x0080003e
    62ec:	656d6f68 	strbvs	r6, [sp, #-3944]!	; 0xfffff098
    62f0:	7763742f 	strbvc	r7, [r3, -pc, lsr #8]!
    62f4:	75622d67 	strbvc	r2, [r2, #-3431]!	; 0xfffff299
    62f8:	73646c69 	cmnvc	r4, #26880	; 0x6900
    62fc:	6576616c 	ldrbvs	r6, [r6, #-364]!	; 0xfffffe94
    6300:	726f772f 	rsbvc	r7, pc, #12320768	; 0xbc0000
    6304:	6170736b 	cmnvs	r0, fp, ror #6
    6308:	742f6563 	strtvc	r6, [pc], #-1379	; 6310 <shift+0x6310>
    630c:	2d677763 	stclcs	7, cr7, [r7, #-396]!	; 0xfffffe74
    6310:	656b616d 	strbvs	r6, [fp, #-365]!	; 0xfffffe93
    6314:	6c65722d 	sfmvs	f7, 2, [r5], #-180	; 0xffffff4c
    6318:	65736165 	ldrbvs	r6, [r3, #-357]!	; 0xfffffe9b
    631c:	62616c2f 	rsbvs	r6, r1, #12032	; 0x2f00
    6320:	642f6c65 	strtvs	r6, [pc], #-3173	; 6328 <shift+0x6328>
    6324:	656b636f 	strbvs	r6, [fp, #-879]!	; 0xfffffc91
    6328:	72742d72 	rsbsvc	r2, r4, #7296	; 0x1c80
    632c:	79747375 	ldmdbvc	r4!, {r0, r2, r4, r5, r6, r8, r9, ip, sp, lr}^
    6330:	646d612d 	strbtvs	r6, [sp], #-301	; 0xfffffed3
    6334:	742d3436 	strtvc	r3, [sp], #-1078	; 0xfffffbca
    6338:	2d677763 	stclcs	7, cr7, [r7, #-396]!	; 0xfffffe74
    633c:	6c697562 	cfstr64vs	mvdx7, [r9], #-392	; 0xfffffe78
    6340:	61742f64 	cmnvs	r4, r4, ror #30
    6344:	74656772 	strbtvc	r6, [r5], #-1906	; 0xfffff88e
    6348:	6d72612f 	ldfvse	f6, [r2, #-188]!	; 0xffffff44
    634c:	6e696c2d 	cdpvs	12, 6, cr6, cr9, cr13, {1}
    6350:	672d7875 			; <UNDEFINED> instruction: 0x672d7875
    6354:	6165756e 	cmnvs	r5, lr, ror #10
    6358:	66686962 	strbtvs	r6, [r8], -r2, ror #18
    635c:	616e732f 	cmnvs	lr, pc, lsr #6
    6360:	6f687370 	svcvs	0x00687370
    6364:	672f7374 			; <UNDEFINED> instruction: 0x672f7374
    6368:	6c2d6363 	stcvs	3, cr6, [sp], #-396	; 0xfffffe74
    636c:	72616e69 	rsbvc	r6, r1, #1680	; 0x690
    6370:	2e342d6f 	cdpcs	13, 3, cr2, cr4, cr15, {3}
    6374:	30322d39 	eorscc	r2, r2, r9, lsr sp
    6378:	302e3731 	eorcc	r3, lr, r1, lsr r7
    637c:	696c2f31 	stmdbvs	ip!, {r0, r4, r5, r8, r9, sl, fp, sp}^
    6380:	63636762 	cmnvs	r3, #25690112	; 0x1880000
    6384:	6e6f632f 	cdpvs	3, 6, cr6, cr15, cr15, {1}
    6388:	2f676966 	svccs	0x00676966
    638c:	2f6d7261 	svccs	0x006d7261
    6390:	3162696c 	cmncc	r2, ip, ror #18
    6394:	636e7566 	cmnvs	lr, #427819008	; 0x19800000
    6398:	00532e73 	subseq	r2, r3, r3, ror lr
    639c:	6d6f682f 	stclvs	8, cr6, [pc, #-188]!	; 62e8 <shift+0x62e8>
    63a0:	63742f65 	cmnvs	r4, #404	; 0x194
    63a4:	622d6777 	eorvs	r6, sp, #31195136	; 0x1dc0000
    63a8:	646c6975 	strbtvs	r6, [ip], #-2421	; 0xfffff68b
    63ac:	76616c73 			; <UNDEFINED> instruction: 0x76616c73
    63b0:	6f772f65 	svcvs	0x00772f65
    63b4:	70736b72 	rsbsvc	r6, r3, r2, ror fp
    63b8:	2f656361 	svccs	0x00656361
    63bc:	67776374 			; <UNDEFINED> instruction: 0x67776374
    63c0:	6b616d2d 	blvs	186187c <shift+0x186187c>
    63c4:	65722d65 	ldrbvs	r2, [r2, #-3429]!	; 0xfffff29b
    63c8:	7361656c 	cmnvc	r1, #108, 10	; 0x1b000000
    63cc:	616c2f65 	cmnvs	ip, r5, ror #30
    63d0:	2f6c6562 	svccs	0x006c6562
    63d4:	6b636f64 	blvs	18e216c <shift+0x18e216c>
    63d8:	742d7265 	strtvc	r7, [sp], #-613	; 0xfffffd9b
    63dc:	74737572 	ldrbtvc	r7, [r3], #-1394	; 0xfffffa8e
    63e0:	6d612d79 	stclvs	13, cr2, [r1, #-484]!	; 0xfffffe1c
    63e4:	2d343664 	ldccs	6, cr3, [r4, #-400]!	; 0xfffffe70
    63e8:	67776374 			; <UNDEFINED> instruction: 0x67776374
    63ec:	6975622d 	ldmdbvs	r5!, {r0, r2, r3, r5, r9, sp, lr}^
    63f0:	742f646c 	strtvc	r6, [pc], #-1132	; 63f8 <shift+0x63f8>
    63f4:	65677261 	strbvs	r7, [r7, #-609]!	; 0xfffffd9f
    63f8:	72612f74 	rsbvc	r2, r1, #116, 30	; 0x1d0
    63fc:	696c2d6d 	stmdbvs	ip!, {r0, r2, r3, r5, r6, r8, sl, fp, sp}^
    6400:	2d78756e 	cfldr64cs	mvdx7, [r8, #-440]!	; 0xfffffe48
    6404:	65756e67 	ldrbvs	r6, [r5, #-3687]!	; 0xfffff199
    6408:	68696261 	stmdavs	r9!, {r0, r5, r6, r9, sp, lr}^
    640c:	625f2f66 	subsvs	r2, pc, #408	; 0x198
    6410:	646c6975 	strbtvs	r6, [ip], #-2421	; 0xfffff68b
    6414:	6975622f 	ldmdbvs	r5!, {r0, r1, r2, r3, r5, r9, sp, lr}^
    6418:	2f73646c 	svccs	0x0073646c
    641c:	5f363878 	svcpl	0x00363878
    6420:	752d3436 	strvc	r3, [sp, #-1078]!	; 0xfffffbca
    6424:	6f6e6b6e 	svcvs	0x006e6b6e
    6428:	6c2d6e77 	stcvs	14, cr6, [sp], #-476	; 0xfffffe24
    642c:	78756e69 	ldmdavc	r5!, {r0, r3, r5, r6, r9, sl, fp, sp, lr}^
    6430:	756e672d 	strbvc	r6, [lr, #-1837]!	; 0xfffff8d3
    6434:	6d72612f 	ldfvse	f6, [r2, #-188]!	; 0xffffff44
    6438:	6e696c2d 	cdpvs	12, 6, cr6, cr9, cr13, {1}
    643c:	672d7875 			; <UNDEFINED> instruction: 0x672d7875
    6440:	6165756e 	cmnvs	r5, lr, ror #10
    6444:	66686962 	strbtvs	r6, [r8], -r2, ror #18
    6448:	6363672f 	cmnvs	r3, #12320768	; 0xbc0000
    644c:	6e696c2d 	cdpvs	12, 6, cr6, cr9, cr13, {1}
    6450:	2d6f7261 	sfmcs	f7, 2, [pc, #-388]!	; 62d4 <shift+0x62d4>
    6454:	2d392e34 	ldccs	14, cr2, [r9, #-208]!	; 0xffffff30
    6458:	37313032 			; <UNDEFINED> instruction: 0x37313032
    645c:	2d31302e 	ldccs	0, cr3, [r1, #-184]!	; 0xffffff48
    6460:	67617473 			; <UNDEFINED> instruction: 0x67617473
    6464:	612f3265 			; <UNDEFINED> instruction: 0x612f3265
    6468:	6c2d6d72 	stcvs	13, cr6, [sp], #-456	; 0xfffffe38
    646c:	78756e69 	ldmdavc	r5!, {r0, r3, r5, r6, r9, sl, fp, sp, lr}^
    6470:	756e672d 	strbvc	r6, [lr, #-1837]!	; 0xfffff8d3
    6474:	69626165 	stmdbvs	r2!, {r0, r2, r5, r6, r8, sp, lr}^
    6478:	6c2f6668 	stcvs	6, cr6, [pc], #-416	; 62e0 <shift+0x62e0>
    647c:	63676269 	cmnvs	r7, #-1879048186	; 0x90000006
    6480:	4e470063 	cdpmi	0, 4, cr0, cr7, cr3, {3}
    6484:	53412055 	movtpl	r2, #4181	; 0x1055
    6488:	322e3220 	eorcc	r3, lr, #32, 4
    648c:	00302e34 	eorseq	r2, r0, r4, lsr lr
    6490:	015a8001 	cmpeq	sl, r1
    6494:	00040000 	andeq	r0, r4, r0
    6498:	000018f0 	strdeq	r1, [r0], -r0
    649c:	1f310104 	svcne	0x00310104
    64a0:	35010000 	strcc	r0, [r1, #-0]
    64a4:	4b000020 	blmi	652c <shift+0x652c>
    64a8:	8400001e 	strhi	r0, [r0], #-30	; 0xffffffe2
    64ac:	1680003e 			; <UNDEFINED> instruction: 0x1680003e
    64b0:	3c000001 	stccc	0, cr0, [r0], {1}
    64b4:	02000026 	andeq	r0, r0, #38	; 0x26
    64b8:	00b70708 	adcseq	r0, r7, r8, lsl #14
    64bc:	04030000 	streq	r0, [r3], #-0
    64c0:	746e6905 	strbtvc	r6, [lr], #-2309	; 0xfffff6fb
    64c4:	07040200 	streq	r0, [r4, -r0, lsl #4]
    64c8:	000000c1 	andeq	r0, r0, r1, asr #1
    64cc:	9f080102 	svcls	0x00080102
    64d0:	02000000 	andeq	r0, r0, #0
    64d4:	00ce0702 	sbceq	r0, lr, r2, lsl #14
    64d8:	04020000 	streq	r0, [r2], #-0
    64dc:	0000bc07 	andeq	fp, r0, r7, lsl #24
    64e0:	06010200 	streq	r0, [r1], -r0, lsl #4
    64e4:	000000a1 	andeq	r0, r0, r1, lsr #1
    64e8:	45050202 	strmi	r0, [r5, #-514]	; 0xfffffdfe
    64ec:	02000001 	andeq	r0, r0, #1
    64f0:	004d0508 	subeq	r0, sp, r8, lsl #10
    64f4:	04020000 	streq	r0, [r2], #-0
    64f8:	00005205 	andeq	r5, r0, r5, lsl #4
    64fc:	07040200 	streq	r0, [r4, -r0, lsl #4]
    6500:	0000201d 	andeq	r2, r0, sp, lsl r0
    6504:	a8080102 	stmdage	r8, {r1, r8}
    6508:	04000000 	streq	r0, [r0], #-0
    650c:	00001baa 	andeq	r1, r0, sl, lsr #23
    6510:	00338202 	eorseq	r8, r3, r2, lsl #4
    6514:	07040000 	streq	r0, [r4, -r0]
    6518:	02000020 	andeq	r0, r0, #32
    651c:	00002586 	andeq	r2, r0, r6, lsl #11
    6520:	04040200 	streq	r0, [r4], #-512	; 0xfffffe00
    6524:	00002017 	andeq	r2, r0, r7, lsl r0
    6528:	0f030802 	svceq	0x00030802
    652c:	02000020 	andeq	r0, r0, #32
    6530:	202e0408 	eorcs	r0, lr, r8, lsl #8
    6534:	10020000 	andne	r0, r2, r0
    6538:	00202603 	eoreq	r2, r0, r3, lsl #12
    653c:	1e3e0500 	cfabs32ne	mvfx0, mvfx14
    6540:	b0010000 	andlt	r0, r1, r0
    6544:	00008403 	andeq	r8, r0, r3, lsl #8
    6548:	003e8400 	eorseq	r8, lr, r0, lsl #8
    654c:	00011680 	andeq	r1, r1, r0, lsl #13
    6550:	579c0100 	ldrpl	r0, [ip, r0, lsl #2]
    6554:	06000001 	streq	r0, [r0], -r1
    6558:	b001006e 	andlt	r0, r1, lr, rrx
    655c:	00008403 	andeq	r8, r0, r3, lsl #8
    6560:	00000000 	andeq	r0, r0, r0
    6564:	00640600 	rsbeq	r0, r4, r0, lsl #12
    6568:	8403b001 	strhi	fp, [r3], #-1
    656c:	28000000 	stmdacs	r0, {}	; <UNPREDICTABLE>
    6570:	06000000 	streq	r0, [r0], -r0
    6574:	01007072 	tsteq	r0, r2, ror r0
    6578:	015703b0 	ldrheq	r0, [r7, #-48]	; 0xffffffd0
    657c:	00500000 	subseq	r0, r0, r0
    6580:	71070000 	mrsvc	r0, (UNDEF: 7)
    6584:	03b20100 			; <UNDEFINED> instruction: 0x03b20100
    6588:	00000084 	andeq	r0, r0, r4, lsl #1
    658c:	00000070 	andeq	r0, r0, r0, ror r0
    6590:	01007207 	tsteq	r0, r7, lsl #4
    6594:	008403b2 			; <UNDEFINED> instruction: 0x008403b2
    6598:	00d00000 	sbcseq	r0, r0, r0
    659c:	79070000 	stmdbvc	r7, {}	; <UNPREDICTABLE>
    65a0:	03b20100 			; <UNDEFINED> instruction: 0x03b20100
    65a4:	00000084 	andeq	r0, r0, r4, lsl #1
    65a8:	00000128 	andeq	r0, r0, r8, lsr #2
    65ac:	317a6c07 	cmncc	sl, r7, lsl #24
    65b0:	03b30100 			; <UNDEFINED> instruction: 0x03b30100
    65b4:	00000079 	andeq	r0, r0, r9, ror r0
    65b8:	00000150 	andeq	r0, r0, r0, asr r1
    65bc:	327a6c07 	rsbscc	r6, sl, #1792	; 0x700
    65c0:	03b30100 			; <UNDEFINED> instruction: 0x03b30100
    65c4:	00000079 	andeq	r0, r0, r9, ror r0
    65c8:	00000163 	andeq	r0, r0, r3, ror #2
    65cc:	01006907 	tsteq	r0, r7, lsl #18
    65d0:	007903b3 	ldrhteq	r0, [r9], #-51	; 0xffffffcd
    65d4:	01760000 	cmneq	r6, r0
    65d8:	6b070000 	blvs	1c65e0 <shift+0x1c65e0>
    65dc:	03b30100 			; <UNDEFINED> instruction: 0x03b30100
    65e0:	00000079 	andeq	r0, r0, r9, ror r0
    65e4:	000001b9 			; <UNDEFINED> instruction: 0x000001b9
    65e8:	84040800 	strhi	r0, [r4], #-2048	; 0xfffff800
    65ec:	00000000 	andeq	r0, r0, r0

Disassembly of section .debug_abbrev:

00000000 <.debug_abbrev>:
       0:	10001101 	andne	r1, r0, r1, lsl #2
       4:	12011117 	andne	r1, r1, #-1073741819	; 0xc0000005
       8:	1b0e030f 	blne	380c4c <shift+0x380c4c>
       c:	130e250e 	movwne	r2, #58638	; 0xe50e
      10:	00000005 	andeq	r0, r0, r5
      14:	10001101 	andne	r1, r0, r1, lsl #2
      18:	12011117 	andne	r1, r1, #-1073741819	; 0xc0000005
      1c:	1b0e030f 	blne	380c60 <shift+0x380c60>
      20:	130e250e 	movwne	r2, #58638	; 0xe50e
      24:	00000005 	andeq	r0, r0, r5
      28:	0b002401 	bleq	9034 <shift+0x9034>
      2c:	030b3e0b 	movweq	r3, #48651	; 0xbe0b
      30:	0200000e 	andeq	r0, r0, #14
      34:	193f002e 	ldmdbne	pc!, {r1, r2, r3, r5}	; <UNPREDICTABLE>
      38:	0b3a0e03 	bleq	e8384c <shift+0xe8384c>
      3c:	21390b3b 	teqcs	r9, fp, lsr fp
      40:	3c192706 	ldccc	7, cr2, [r9], {6}
      44:	03000019 	movweq	r0, #25
      48:	13490005 	movtne	r0, #36869	; 0x9005
      4c:	2e040000 	cdpcs	0, 0, cr0, cr4, cr0, {0}
      50:	03193f01 	tsteq	r9, #1, 30
      54:	3b0b3a0e 	blcc	2ce894 <shift+0x2ce894>
      58:	0621390b 	strteq	r3, [r1], -fp, lsl #18
      5c:	193c1927 	ldmdbne	ip!, {r0, r1, r2, r5, r8, fp, ip}
      60:	00001301 	andeq	r1, r0, r1, lsl #6
      64:	25011105 	strcs	r1, [r1, #-261]	; 0xfffffefb
      68:	030b130e 	movweq	r1, #45838	; 0xb30e
      6c:	110e1b0e 	tstne	lr, lr, lsl #22
      70:	10061201 	andne	r1, r6, r1, lsl #4
      74:	06000017 			; <UNDEFINED> instruction: 0x06000017
      78:	0b0b0024 	bleq	2c0110 <shift+0x2c0110>
      7c:	08030b3e 	stmdaeq	r3, {r1, r2, r3, r4, r5, r8, r9, fp}
      80:	26070000 	strcs	r0, [r7], -r0
      84:	00134900 	andseq	r4, r3, r0, lsl #18
      88:	012e0800 			; <UNDEFINED> instruction: 0x012e0800
      8c:	0e03193f 			; <UNDEFINED> instruction: 0x0e03193f
      90:	0b3b0b3a 	bleq	ec2d80 <shift+0xec2d80>
      94:	19270b39 	stmdbne	r7!, {r0, r3, r4, r5, r8, r9, fp}
      98:	193c1349 	ldmdbne	ip!, {r0, r3, r6, r8, r9, ip}
      9c:	00001301 	andeq	r1, r0, r1, lsl #6
      a0:	00001809 	andeq	r1, r0, r9, lsl #16
      a4:	000f0a00 	andeq	r0, pc, r0, lsl #20
      a8:	13490b0b 	movtne	r0, #39691	; 0x9b0b
      ac:	2e0b0000 	cdpcs	0, 0, cr0, cr11, cr0, {0}
      b0:	03193f00 	tsteq	r9, #0, 30
      b4:	3b0b3a0e 	blcc	2ce8f4 <shift+0x2ce8f4>
      b8:	270b390b 	strcs	r3, [fp, -fp, lsl #18]
      bc:	11134919 	tstne	r3, r9, lsl r9
      c0:	40061201 	andmi	r1, r6, r1, lsl #4
      c4:	00197c18 	andseq	r7, r9, r8, lsl ip
      c8:	0d010000 	stceq	0, cr0, [r1, #-0]
      cc:	3a0e0300 	bcc	380cd4 <shift+0x380cd4>
      d0:	053b0321 	ldreq	r0, [fp, #-801]!	; 0xfffffcdf
      d4:	13490b39 	movtne	r0, #39737	; 0x9b39
      d8:	00000b38 	andeq	r0, r0, r8, lsr fp
      dc:	03000d02 	movweq	r0, #3330	; 0xd02
      e0:	03213a0e 			; <UNDEFINED> instruction: 0x03213a0e
      e4:	0b39053b 	bleq	e415d8 <shift+0xe415d8>
      e8:	05381349 	ldreq	r1, [r8, #-841]!	; 0xfffffcb7
      ec:	24030000 	strcs	r0, [r3], #-0
      f0:	3e0b0b00 	vmlacc.f64	d0, d11, d0
      f4:	000e030b 	andeq	r0, lr, fp, lsl #6
      f8:	01010400 	tsteq	r1, r0, lsl #8
      fc:	13011349 	movwne	r1, #4937	; 0x1349
     100:	21050000 	mrscs	r0, (UNDEF: 5)
     104:	2f134900 	svccs	0x00134900
     108:	0600000b 	streq	r0, [r0], -fp
     10c:	0e030016 	mcreq	0, 0, r0, cr3, cr6, {0}
     110:	3b02213a 	blcc	88600 <shift+0x88600>
     114:	490b390b 	stmdbmi	fp, {r0, r1, r3, r8, fp, ip, sp}
     118:	07000013 	smladeq	r0, r3, r0, r0
     11c:	0803000d 	stmdaeq	r3, {r0, r2, r3}
     120:	3b03213a 	blcc	c8610 <shift+0xc8610>
     124:	11213905 			; <UNDEFINED> instruction: 0x11213905
     128:	0b381349 	bleq	e04e54 <shift+0xe04e54>
     12c:	16080000 	strne	r0, [r8], -r0
     130:	3a0e0300 	bcc	380d38 <shift+0x380d38>
     134:	053b0321 	ldreq	r0, [fp, #-801]!	; 0xfffffcdf
     138:	49032139 	stmdbmi	r3, {r0, r3, r4, r5, r8, sp}
     13c:	09000013 	stmdbeq	r0, {r0, r1, r4}
     140:	0e250111 	mcreq	1, 1, r0, cr5, cr1, {0}
     144:	0e030b13 	vmoveq.32	d3[0], r0
     148:	01110e1b 	tsteq	r1, fp, lsl lr
     14c:	17100612 			; <UNDEFINED> instruction: 0x17100612
     150:	240a0000 	strcs	r0, [sl], #-0
     154:	3e0b0b00 	vmlacc.f64	d0, d11, d0
     158:	0008030b 	andeq	r0, r8, fp, lsl #6
     15c:	00350b00 	eorseq	r0, r5, r0, lsl #22
     160:	00001349 	andeq	r1, r0, r9, asr #6
     164:	0b01130c 	bleq	44d9c <shift+0x44d9c>
     168:	3b0b3a0b 	blcc	2ce99c <shift+0x2ce99c>
     16c:	010b3905 	tsteq	fp, r5, lsl #18
     170:	0d000013 	stceq	0, cr0, [r0, #-76]	; 0xffffffb4
     174:	050b0113 	streq	r0, [fp, #-275]	; 0xfffffeed
     178:	053b0b3a 	ldreq	r0, [fp, #-2874]!	; 0xfffff4c6
     17c:	13010b39 	movwne	r0, #6969	; 0x1b39
     180:	2e0e0000 	cdpcs	0, 0, cr0, cr14, cr0, {0}
     184:	03193f01 	tsteq	r9, #1, 30
     188:	3b0b3a0e 	blcc	2ce9c8 <shift+0x2ce9c8>
     18c:	270b390b 	strcs	r3, [fp, -fp, lsl #18]
     190:	12011119 	andne	r1, r1, #1073741830	; 0x40000006
     194:	7a184006 	bvc	6101b4 <shift+0x6101b4>
     198:	00130119 	andseq	r0, r3, r9, lsl r1
     19c:	00340f00 	eorseq	r0, r4, r0, lsl #30
     1a0:	0b3a0803 	bleq	e821b4 <shift+0xe821b4>
     1a4:	0b390b3b 	bleq	e42e98 <shift+0xe42e98>
     1a8:	18021349 	stmdane	r2, {r0, r3, r6, r8, r9, ip}
     1ac:	2e100000 	cdpcs	0, 1, cr0, cr0, cr0, {0}
     1b0:	03193f00 	tsteq	r9, #0, 30
     1b4:	3b0b3a0e 	blcc	2ce9f4 <shift+0x2ce9f4>
     1b8:	270b390b 	strcs	r3, [fp, -fp, lsl #18]
     1bc:	12011119 	andne	r1, r1, #1073741830	; 0x40000006
     1c0:	7a184006 	bvc	6101e0 <shift+0x6101e0>
     1c4:	00000019 	andeq	r0, r0, r9, lsl r0
     1c8:	03000501 	movweq	r0, #1281	; 0x501
     1cc:	01213a0e 			; <UNDEFINED> instruction: 0x01213a0e
     1d0:	0b39053b 	bleq	e416c4 <shift+0xe416c4>
     1d4:	18021349 	stmdane	r2, {r0, r3, r6, r8, r9, ip}
     1d8:	24020000 	strcs	r0, [r2], #-0
     1dc:	3e0b0b00 	vmlacc.f64	d0, d11, d0
     1e0:	000e030b 	andeq	r0, lr, fp, lsl #6
     1e4:	00050300 	andeq	r0, r5, r0, lsl #6
     1e8:	00001349 	andeq	r1, r0, r9, asr #6
     1ec:	03000d04 	movweq	r0, #3332	; 0xd04
     1f0:	03213a08 			; <UNDEFINED> instruction: 0x03213a08
     1f4:	2139053b 	teqcs	r9, fp, lsr r5
     1f8:	38134911 	ldmdacc	r3, {r0, r4, r8, fp, lr}
     1fc:	0500000b 	streq	r0, [r0, #-11]
     200:	0e03000d 	cdpeq	0, 0, cr0, cr3, cr13, {0}
     204:	3b03213a 	blcc	c86f4 <shift+0xc86f4>
     208:	11213905 			; <UNDEFINED> instruction: 0x11213905
     20c:	0b381349 	bleq	e04f38 <shift+0xe04f38>
     210:	2e060000 	cdpcs	0, 0, cr0, cr6, cr0, {0}
     214:	03193f00 	tsteq	r9, #0, 30
     218:	02213a0e 	eoreq	r3, r1, #57344	; 0xe000
     21c:	21390b3b 	teqcs	r9, fp, lsr fp
     220:	11192706 	tstne	r9, r6, lsl #14
     224:	40061201 	andmi	r1, r6, r1, lsl #4
     228:	00197a18 	andseq	r7, r9, r8, lsl sl
     22c:	01110700 	tsteq	r1, r0, lsl #14
     230:	0b130e25 	bleq	4c3acc <shift+0x4c3acc>
     234:	0e1b0e03 	cdpeq	14, 1, cr0, cr11, cr3, {0}
     238:	06120111 			; <UNDEFINED> instruction: 0x06120111
     23c:	00001710 	andeq	r1, r0, r0, lsl r7
     240:	0b002408 	bleq	9268 <shift+0x9268>
     244:	030b3e0b 	movweq	r3, #48651	; 0xbe0b
     248:	09000008 	stmdbeq	r0, {r3}
     24c:	0e030016 	mcreq	0, 0, r0, cr3, cr6, {0}
     250:	0b3b0b3a 	bleq	ec2f40 <shift+0xec2f40>
     254:	13490b39 	movtne	r0, #39737	; 0x9b39
     258:	350a0000 	strcc	r0, [sl, #-0]
     25c:	00134900 	andseq	r4, r3, r0, lsl #18
     260:	01130b00 	tsteq	r3, r0, lsl #22
     264:	0b3a0b0b 	bleq	e82e98 <shift+0xe82e98>
     268:	0b39053b 	bleq	e4175c <shift+0xe4175c>
     26c:	00001301 	andeq	r1, r0, r1, lsl #6
     270:	0300160c 	movweq	r1, #1548	; 0x60c
     274:	3b0b3a0e 	blcc	2ceab4 <shift+0x2ceab4>
     278:	490b3905 	stmdbmi	fp, {r0, r2, r8, fp, ip, sp}
     27c:	0d000013 	stceq	0, cr0, [r0, #-76]	; 0xffffffb4
     280:	193f012e 	ldmdbne	pc!, {r1, r2, r3, r5, r8}	; <UNPREDICTABLE>
     284:	0b3a0e03 	bleq	e83a98 <shift+0xe83a98>
     288:	0b390b3b 	bleq	e42f7c <shift+0xe42f7c>
     28c:	193c1927 	ldmdbne	ip!, {r0, r1, r2, r5, r8, fp, ip}
     290:	00001301 	andeq	r1, r0, r1, lsl #6
     294:	0b000f0e 	bleq	3ed4 <shift+0x3ed4>
     298:	0013490b 	andseq	r4, r3, fp, lsl #18
     29c:	012e0f00 			; <UNDEFINED> instruction: 0x012e0f00
     2a0:	0e03193f 			; <UNDEFINED> instruction: 0x0e03193f
     2a4:	0b3b0b3a 	bleq	ec2f94 <shift+0xec2f94>
     2a8:	19270b39 	stmdbne	r7!, {r0, r3, r4, r5, r8, r9, fp}
     2ac:	193c1349 	ldmdbne	ip!, {r0, r3, r6, r8, r9, ip}
     2b0:	00001301 	andeq	r1, r0, r1, lsl #6
     2b4:	3f012e10 	svccc	0x00012e10
     2b8:	3a0e0319 	bcc	380f24 <shift+0x380f24>
     2bc:	390b3b0b 	stmdbcc	fp, {r0, r1, r3, r8, r9, fp, ip, sp}
     2c0:	1119270b 	tstne	r9, fp, lsl #14
     2c4:	40061201 	andmi	r1, r6, r1, lsl #4
     2c8:	01197c18 	tsteq	r9, r8, lsl ip
     2cc:	11000013 	tstne	r0, r3, lsl r0
     2d0:	0e030005 	cdpeq	0, 0, cr0, cr3, cr5, {0}
     2d4:	0b3b0b3a 	bleq	ec2fc4 <shift+0xec2fc4>
     2d8:	13490b39 	movtne	r0, #39737	; 0x9b39
     2dc:	00001802 	andeq	r1, r0, r2, lsl #16
     2e0:	03000512 	movweq	r0, #1298	; 0x512
     2e4:	3b0b3a08 	blcc	2ceb0c <shift+0x2ceb0c>
     2e8:	490b390b 	stmdbmi	fp, {r0, r1, r3, r8, fp, ip, sp}
     2ec:	00180213 	andseq	r0, r8, r3, lsl r2
     2f0:	002e1300 	eoreq	r1, lr, r0, lsl #6
     2f4:	0e03193f 			; <UNDEFINED> instruction: 0x0e03193f
     2f8:	0b3b0b3a 	bleq	ec2fe8 <shift+0xec2fe8>
     2fc:	19270b39 	stmdbne	r7!, {r0, r3, r4, r5, r8, r9, fp}
     300:	06120111 			; <UNDEFINED> instruction: 0x06120111
     304:	197c1840 	ldmdbne	ip!, {r6, fp, ip}^
     308:	2e140000 	cdpcs	0, 1, cr0, cr4, cr0, {0}
     30c:	3a0e0301 	bcc	380f18 <shift+0x380f18>
     310:	39053b0b 	stmdbcc	r5, {r0, r1, r3, r8, r9, fp, ip, sp}
     314:	1119270b 	tstne	r9, fp, lsl #14
     318:	40061201 	andmi	r1, r6, r1, lsl #4
     31c:	01197a18 	tsteq	r9, r8, lsl sl
     320:	15000013 	strne	r0, [r0, #-19]	; 0xffffffed
     324:	0e03012e 	adfeqsp	f0, f3, #0.5
     328:	053b0b3a 	ldreq	r0, [fp, #-2874]!	; 0xfffff4c6
     32c:	19270b39 	stmdbne	r7!, {r0, r3, r4, r5, r8, r9, fp}
     330:	06120111 			; <UNDEFINED> instruction: 0x06120111
     334:	197a1840 	ldmdbne	sl!, {r6, fp, ip}^
     338:	01000000 	mrseq	r0, (UNDEF: 0)
     33c:	0e030028 	cdpeq	0, 0, cr0, cr3, cr8, {1}
     340:	00000b1c 	andeq	r0, r0, ip, lsl fp
     344:	03000d02 	movweq	r0, #3330	; 0xd02
     348:	02213a0e 	eoreq	r3, r1, #57344	; 0xe000
     34c:	2139053b 	teqcs	r9, fp, lsr r5
     350:	38134912 	ldmdacc	r3, {r1, r4, r8, fp, lr}
     354:	03000005 	movweq	r0, #5
     358:	13490101 	movtne	r0, #37121	; 0x9101
     35c:	00001301 	andeq	r1, r0, r1, lsl #6
     360:	49002104 	stmdbmi	r0, {r2, r8, sp}
     364:	000b2f13 	andeq	r2, fp, r3, lsl pc
     368:	00240500 	eoreq	r0, r4, r0, lsl #10
     36c:	0b3e0b0b 	bleq	f82fa0 <shift+0xf82fa0>
     370:	00000e03 	andeq	r0, r0, r3, lsl #28
     374:	49003506 	stmdbmi	r0, {r1, r2, r8, sl, ip, sp}
     378:	07000013 	smladeq	r0, r3, r0, r0
     37c:	0803000d 	stmdaeq	r3, {r0, r2, r3}
     380:	3b04213a 	blcc	108870 <shift+0x108870>
     384:	11213905 			; <UNDEFINED> instruction: 0x11213905
     388:	0b381349 	bleq	e050b4 <shift+0xe050b4>
     38c:	05080000 	streq	r0, [r8, #-0]
     390:	00134900 	andseq	r4, r3, r0, lsl #18
     394:	00160900 	andseq	r0, r6, r0, lsl #18
     398:	0b3a0e03 	bleq	e83bac <shift+0xe83bac>
     39c:	0b390b3b 	bleq	e43090 <shift+0xe43090>
     3a0:	00001349 	andeq	r1, r0, r9, asr #6
     3a4:	0b000f0a 	bleq	3fd4 <shift+0x3fd4>
     3a8:	13490421 	movtne	r0, #37921	; 0x9421
     3ac:	210b0000 	mrscs	r0, (UNDEF: 11)
     3b0:	2f134900 	svccs	0x00134900
     3b4:	0c000005 	stceq	0, cr0, [r0], {5}
     3b8:	193f012e 	ldmdbne	pc!, {r1, r2, r3, r5, r8}	; <UNPREDICTABLE>
     3bc:	213a0e03 	teqcs	sl, r3, lsl #28
     3c0:	390b3b01 	stmdbcc	fp, {r0, r8, r9, fp, ip, sp}
     3c4:	19270621 	stmdbne	r7!, {r0, r5, r9, sl}
     3c8:	06120111 			; <UNDEFINED> instruction: 0x06120111
     3cc:	197c1840 	ldmdbne	ip!, {r6, fp, ip}^
     3d0:	00001301 	andeq	r1, r0, r1, lsl #6
     3d4:	0300050d 	movweq	r0, #1293	; 0x50d
     3d8:	01213a0e 			; <UNDEFINED> instruction: 0x01213a0e
     3dc:	0b390b3b 	bleq	e430d0 <shift+0xe430d0>
     3e0:	18021349 	stmdane	r2, {r0, r3, r6, r8, r9, ip}
     3e4:	050e0000 	streq	r0, [lr, #-0]
     3e8:	02133100 	andseq	r3, r3, #0, 2
     3ec:	0f000018 	svceq	0x00000018
     3f0:	0e030034 	mcreq	0, 0, r0, cr3, cr4, {1}
     3f4:	3b01213a 	blcc	488e4 <shift+0x488e4>
     3f8:	490b390b 	stmdbmi	fp, {r0, r1, r3, r8, fp, ip, sp}
     3fc:	00180213 	andseq	r0, r8, r3, lsl r2
     400:	00051000 	andeq	r1, r5, r0
     404:	213a0e03 	teqcs	sl, r3, lsl #28
     408:	39053b02 	stmdbcc	r5, {r1, r8, r9, fp, ip, sp}
     40c:	0013490b 	andseq	r4, r3, fp, lsl #18
     410:	00261100 	eoreq	r1, r6, r0, lsl #2
     414:	00001349 	andeq	r1, r0, r9, asr #6
     418:	03001612 	movweq	r1, #1554	; 0x612
     41c:	3b0b3a0e 	blcc	2cec5c <shift+0x2cec5c>
     420:	03213905 			; <UNDEFINED> instruction: 0x03213905
     424:	00001349 	andeq	r1, r0, r9, asr #6
     428:	3f012e13 	svccc	0x00012e13
     42c:	3a0e0319 	bcc	381098 <shift+0x381098>
     430:	390b3b0b 	stmdbcc	fp, {r0, r1, r3, r8, r9, fp, ip, sp}
     434:	19270621 	stmdbne	r7!, {r0, r5, r9, sl}
     438:	1301193c 	movwne	r1, #6460	; 0x193c
     43c:	34140000 	ldrcc	r0, [r4], #-0
     440:	02133100 	andseq	r3, r3, #0, 2
     444:	15000018 	strne	r0, [r0, #-24]	; 0xffffffe8
     448:	1331001d 	teqne	r1, #29
     44c:	06120111 			; <UNDEFINED> instruction: 0x06120111
     450:	59022158 	stmdbpl	r2, {r3, r4, r6, r8, sp}
     454:	21215705 			; <UNDEFINED> instruction: 0x21215705
     458:	05160000 	ldreq	r0, [r6, #-0]
     45c:	3a080300 	bcc	201064 <shift+0x201064>
     460:	0b3b0121 	bleq	ec08ec <shift+0xec08ec>
     464:	13490b39 	movtne	r0, #39737	; 0x9b39
     468:	00001802 	andeq	r1, r0, r2, lsl #16
     46c:	3f012e17 	svccc	0x00012e17
     470:	3a0e0319 	bcc	3810dc <shift+0x3810dc>
     474:	0b3b0121 	bleq	ec0900 <shift+0xec0900>
     478:	27062139 	smladxcs	r6, r9, r1, r2
     47c:	12011119 	andne	r1, r1, #1073741830	; 0x40000006
     480:	7a184006 	bvc	6104a0 <shift+0x6104a0>
     484:	00130119 	andseq	r0, r3, r9, lsl r1
     488:	012e1800 			; <UNDEFINED> instruction: 0x012e1800
     48c:	213a0e03 	teqcs	sl, r3, lsl #28
     490:	39053b02 	stmdbcc	r5, {r1, r8, r9, fp, ip, sp}
     494:	19272321 	stmdbne	r7!, {r0, r5, r8, r9, sp}
     498:	01032120 	tsteq	r3, r0, lsr #2
     49c:	19000013 	stmdbne	r0, {r0, r1, r4}
     4a0:	08030034 	stmdaeq	r3, {r2, r4, r5}
     4a4:	3b02213a 	blcc	88994 <shift+0x88994>
     4a8:	0e213905 	vmuleq.f16	s6, s2, s10	; <UNPREDICTABLE>
     4ac:	00001349 	andeq	r1, r0, r9, asr #6
     4b0:	2501111a 	strcs	r1, [r1, #-282]	; 0xfffffee6
     4b4:	030b130e 	movweq	r1, #45838	; 0xb30e
     4b8:	110e1b0e 	tstne	lr, lr, lsl #22
     4bc:	10061201 	andne	r1, r6, r1, lsl #4
     4c0:	1b000017 	blne	524 <shift+0x524>
     4c4:	0b0b0024 	bleq	2c055c <shift+0x2c055c>
     4c8:	08030b3e 	stmdaeq	r3, {r1, r2, r3, r4, r5, r8, r9, fp}
     4cc:	041c0000 	ldreq	r0, [ip], #-0
     4d0:	3e0e0301 	cdpcc	3, 0, cr0, cr14, cr1, {0}
     4d4:	490b0b0b 	stmdbmi	fp, {r0, r1, r3, r8, r9, fp}
     4d8:	3b0b3a13 	blcc	2ced2c <shift+0x2ced2c>
     4dc:	010b390b 	tsteq	fp, fp, lsl #18
     4e0:	1d000013 	stcne	0, cr0, [r0, #-76]	; 0xffffffb4
     4e4:	0e030028 	cdpeq	0, 0, cr0, cr3, cr8, {1}
     4e8:	00000d1c 	andeq	r0, r0, ip, lsl sp
     4ec:	0b01131e 	bleq	4516c <shift+0x4516c>
     4f0:	3b0b3a0b 	blcc	2ced24 <shift+0x2ced24>
     4f4:	010b3905 	tsteq	fp, r5, lsl #18
     4f8:	1f000013 	svcne	0x00000013
     4fc:	0b0b000f 	bleq	2c0540 <shift+0x2c0540>
     500:	13200000 	nopne	{0}	; <UNPREDICTABLE>
     504:	3a050b01 	bcc	143110 <shift+0x143110>
     508:	39053b0b 	stmdbcc	r5, {r0, r1, r3, r8, r9, fp, ip, sp}
     50c:	0013010b 	andseq	r0, r3, fp, lsl #2
     510:	000d2100 	andeq	r2, sp, r0, lsl #2
     514:	0b3a0e03 	bleq	e83d28 <shift+0xe83d28>
     518:	0b39053b 	bleq	e41a0c <shift+0xe41a0c>
     51c:	0b381349 	bleq	e05248 <shift+0xe05248>
     520:	15220000 	strne	r0, [r2, #-0]!
     524:	01192701 	tsteq	r9, r1, lsl #14
     528:	23000013 	movwcs	r0, #19
     52c:	193f002e 	ldmdbne	pc!, {r1, r2, r3, r5}	; <UNPREDICTABLE>
     530:	0b3a0e03 	bleq	e83d44 <shift+0xe83d44>
     534:	0b390b3b 	bleq	e43228 <shift+0xe43228>
     538:	01111927 	tsteq	r1, r7, lsr #18
     53c:	18400612 	stmdane	r0, {r1, r4, r9, sl}^
     540:	0000197c 	andeq	r1, r0, ip, ror r9
     544:	31011d24 	tstcc	r1, r4, lsr #26
     548:	12011113 	andne	r1, r1, #-1073741820	; 0xc0000004
     54c:	590b5806 	stmdbpl	fp, {r1, r2, fp, ip, lr}
     550:	010b570b 	tsteq	fp, fp, lsl #14
     554:	25000013 	strcs	r0, [r0, #-19]	; 0xffffffed
     558:	1331011d 	teqne	r1, #1073741831	; 0x40000007
     55c:	06120111 			; <UNDEFINED> instruction: 0x06120111
     560:	0b590b58 	bleq	16432c8 <shift+0x16432c8>
     564:	00000b57 	andeq	r0, r0, r7, asr fp
     568:	03003426 	movweq	r3, #1062	; 0x426
     56c:	3b0b3a08 	blcc	2ced94 <shift+0x2ced94>
     570:	490b390b 	stmdbmi	fp, {r0, r1, r3, r8, fp, ip, sp}
     574:	00180213 	andseq	r0, r8, r3, lsl r2
     578:	002e2700 	eoreq	r2, lr, r0, lsl #14
     57c:	0e03193f 			; <UNDEFINED> instruction: 0x0e03193f
     580:	0b3b0b3a 	bleq	ec3270 <shift+0xec3270>
     584:	19270b39 	stmdbne	r7!, {r0, r3, r4, r5, r8, r9, fp}
     588:	06120111 			; <UNDEFINED> instruction: 0x06120111
     58c:	197a1840 	ldmdbne	sl!, {r6, fp, ip}^
     590:	2e280000 	cdpcs	0, 2, cr0, cr8, cr0, {0}
     594:	3a0e0300 	bcc	38119c <shift+0x38119c>
     598:	39053b0b 	stmdbcc	r5, {r0, r1, r3, r8, r9, fp, ip, sp}
     59c:	4919270b 	ldmdbmi	r9, {r0, r1, r3, r8, r9, sl, sp}
     5a0:	000b2013 	andeq	r2, fp, r3, lsl r0
     5a4:	05010000 	streq	r0, [r1, #-0]
     5a8:	3a0e0300 	bcc	3811b0 <shift+0x3811b0>
     5ac:	053b0121 	ldreq	r0, [fp, #-289]!	; 0xfffffedf
     5b0:	13490b39 	movtne	r0, #39737	; 0x9b39
     5b4:	00001802 	andeq	r1, r0, r2, lsl #16
     5b8:	0b002402 	bleq	95c8 <shift+0x95c8>
     5bc:	030b3e0b 	movweq	r3, #48651	; 0xbe0b
     5c0:	0300000e 	movweq	r0, #14
     5c4:	0803000d 	stmdaeq	r3, {r0, r2, r3}
     5c8:	3b03213a 	blcc	c8ab8 <shift+0xc8ab8>
     5cc:	11213905 			; <UNDEFINED> instruction: 0x11213905
     5d0:	0b381349 	bleq	e052fc <shift+0xe052fc>
     5d4:	0d040000 	stceq	0, cr0, [r4, #-0]
     5d8:	3a0e0300 	bcc	3811e0 <shift+0x3811e0>
     5dc:	053b0321 	ldreq	r0, [fp, #-801]!	; 0xfffffcdf
     5e0:	49112139 	ldmdbmi	r1, {r0, r3, r4, r5, r8, sp}
     5e4:	000b3813 	andeq	r3, fp, r3, lsl r8
     5e8:	01110500 	tsteq	r1, r0, lsl #10
     5ec:	0b130e25 	bleq	4c3e88 <shift+0x4c3e88>
     5f0:	0e1b0e03 	cdpeq	14, 1, cr0, cr11, cr3, {0}
     5f4:	06120111 			; <UNDEFINED> instruction: 0x06120111
     5f8:	00001710 	andeq	r1, r0, r0, lsl r7
     5fc:	0b002406 	bleq	961c <shift+0x961c>
     600:	030b3e0b 	movweq	r3, #48651	; 0xbe0b
     604:	07000008 	streq	r0, [r0, -r8]
     608:	0e030016 	mcreq	0, 0, r0, cr3, cr6, {0}
     60c:	0b3b0b3a 	bleq	ec32fc <shift+0xec32fc>
     610:	13490b39 	movtne	r0, #39737	; 0x9b39
     614:	35080000 	strcc	r0, [r8, #-0]
     618:	00134900 	andseq	r4, r3, r0, lsl #18
     61c:	01130900 	tsteq	r3, r0, lsl #18
     620:	0b3a0b0b 	bleq	e83254 <shift+0xe83254>
     624:	0b39053b 	bleq	e41b18 <shift+0xe41b18>
     628:	00001301 	andeq	r1, r0, r1, lsl #6
     62c:	0300160a 	movweq	r1, #1546	; 0x60a
     630:	3b0b3a0e 	blcc	2cee70 <shift+0x2cee70>
     634:	490b3905 	stmdbmi	fp, {r0, r2, r8, fp, ip, sp}
     638:	0b000013 	bleq	68c <shift+0x68c>
     63c:	193f012e 	ldmdbne	pc!, {r1, r2, r3, r5, r8}	; <UNPREDICTABLE>
     640:	0b3a0e03 	bleq	e83e54 <shift+0xe83e54>
     644:	0b390b3b 	bleq	e43338 <shift+0xe43338>
     648:	01111927 	tsteq	r1, r7, lsr #18
     64c:	18400612 	stmdane	r0, {r1, r4, r9, sl}^
     650:	1301197a 	movwne	r1, #6522	; 0x197a
     654:	050c0000 	streq	r0, [ip, #-0]
     658:	3a0e0300 	bcc	381260 <shift+0x381260>
     65c:	390b3b0b 	stmdbcc	fp, {r0, r1, r3, r8, r9, fp, ip, sp}
     660:	0213490b 	andseq	r4, r3, #180224	; 0x2c000
     664:	0d000018 	stceq	0, cr0, [r0, #-96]	; 0xffffffa0
     668:	193f002e 	ldmdbne	pc!, {r1, r2, r3, r5}	; <UNPREDICTABLE>
     66c:	0b3a0e03 	bleq	e83e80 <shift+0xe83e80>
     670:	0b390b3b 	bleq	e43364 <shift+0xe43364>
     674:	01111927 	tsteq	r1, r7, lsr #18
     678:	18400612 	stmdane	r0, {r1, r4, r9, sl}^
     67c:	0000197c 	andeq	r1, r0, ip, ror r9
     680:	03012e0e 	movweq	r2, #7694	; 0x1e0e
     684:	3b0b3a0e 	blcc	2ceec4 <shift+0x2ceec4>
     688:	270b3905 	strcs	r3, [fp, -r5, lsl #18]
     68c:	12011119 	andne	r1, r1, #1073741830	; 0x40000006
     690:	7a184006 	bvc	6106b0 <shift+0x6106b0>
     694:	00130119 	andseq	r0, r3, r9, lsl r1
     698:	012e0f00 			; <UNDEFINED> instruction: 0x012e0f00
     69c:	0b3a0e03 	bleq	e83eb0 <shift+0xe83eb0>
     6a0:	0b39053b 	bleq	e41b94 <shift+0xe41b94>
     6a4:	01111927 	tsteq	r1, r7, lsr #18
     6a8:	18400612 	stmdane	r0, {r1, r4, r9, sl}^
     6ac:	0000197a 	andeq	r1, r0, sl, ror r9
     6b0:	00050100 	andeq	r0, r5, r0, lsl #2
     6b4:	213a0e03 	teqcs	sl, r3, lsl #28
     6b8:	390b3b01 	stmdbcc	fp, {r0, r8, r9, fp, ip, sp}
     6bc:	0213490b 	andseq	r4, r3, #180224	; 0x2c000
     6c0:	02000018 	andeq	r0, r0, #24
     6c4:	0b0b0024 	bleq	2c075c <shift+0x2c075c>
     6c8:	0e030b3e 	vmoveq.16	d3[0], r0
     6cc:	28030000 	stmdacs	r3, {}	; <UNPREDICTABLE>
     6d0:	1c0e0300 	stcne	3, cr0, [lr], {-0}
     6d4:	0400000b 	streq	r0, [r0], #-11
     6d8:	08030005 	stmdaeq	r3, {r0, r2}
     6dc:	3b01213a 	blcc	48bcc <shift+0x48bcc>
     6e0:	490b390b 	stmdbmi	fp, {r0, r1, r3, r8, fp, ip, sp}
     6e4:	00180213 	andseq	r0, r8, r3, lsl r2
     6e8:	012e0500 			; <UNDEFINED> instruction: 0x012e0500
     6ec:	0e03193f 			; <UNDEFINED> instruction: 0x0e03193f
     6f0:	3b01213a 	blcc	48be0 <shift+0x48be0>
     6f4:	0621390b 	strteq	r3, [r1], -fp, lsl #18
     6f8:	01111927 	tsteq	r1, r7, lsr #18
     6fc:	18400612 	stmdane	r0, {r1, r4, r9, sl}^
     700:	1301197a 	movwne	r1, #6522	; 0x197a
     704:	16060000 	strne	r0, [r6], -r0
     708:	3a0e0300 	bcc	381310 <shift+0x381310>
     70c:	390b3b0b 	stmdbcc	fp, {r0, r1, r3, r8, r9, fp, ip, sp}
     710:	0013490b 	andseq	r4, r3, fp, lsl #18
     714:	000d0700 	andeq	r0, sp, r0, lsl #14
     718:	213a0803 	teqcs	sl, r3, lsl #16
     71c:	39053b03 	stmdbcc	r5, {r0, r1, r8, r9, fp, ip, sp}
     720:	13491121 	movtne	r1, #37153	; 0x9121
     724:	00000b38 	andeq	r0, r0, r8, lsr fp
     728:	03000d08 	movweq	r0, #3336	; 0xd08
     72c:	03213a0e 			; <UNDEFINED> instruction: 0x03213a0e
     730:	2139053b 	teqcs	r9, fp, lsr r5
     734:	38134911 	ldmdacc	r3, {r0, r4, r8, fp, lr}
     738:	0900000b 	stmdbeq	r0, {r0, r1, r3}
     73c:	0e03000d 	cdpeq	0, 0, cr0, cr3, cr13, {0}
     740:	3b04213a 	blcc	108c30 <shift+0x108c30>
     744:	490b390b 	stmdbmi	fp, {r0, r1, r3, r8, fp, ip, sp}
     748:	000b3813 	andeq	r3, fp, r3, lsl r8
     74c:	000f0a00 	andeq	r0, pc, r0, lsl #20
     750:	4904210b 	stmdbmi	r4, {r0, r1, r3, r8, sp}
     754:	0b000013 	bleq	7a8 <shift+0x7a8>
     758:	0e030104 	adfeqs	f0, f3, f4
     75c:	0b07213e 	bleq	1c8c5c <shift+0x1c8c5c>
     760:	13490421 	movtne	r0, #37921	; 0x9421
     764:	3b04213a 	blcc	108c54 <shift+0x108c54>
     768:	0e21390b 	vmuleq.f16	s6, s2, s22	; <UNPREDICTABLE>
     76c:	00001301 	andeq	r1, r0, r1, lsl #6
     770:	2501110c 	strcs	r1, [r1, #-268]	; 0xfffffef4
     774:	030b130e 	movweq	r1, #45838	; 0xb30e
     778:	110e1b0e 	tstne	lr, lr, lsl #22
     77c:	10061201 	andne	r1, r6, r1, lsl #4
     780:	0d000017 	stceq	0, cr0, [r0, #-92]	; 0xffffffa4
     784:	0b0b0024 	bleq	2c081c <shift+0x2c081c>
     788:	08030b3e 	stmdaeq	r3, {r1, r2, r3, r4, r5, r8, r9, fp}
     78c:	350e0000 	strcc	r0, [lr, #-0]
     790:	00134900 	andseq	r4, r3, r0, lsl #18
     794:	01130f00 	tsteq	r3, r0, lsl #30
     798:	0b3a0b0b 	bleq	e833cc <shift+0xe833cc>
     79c:	0b39053b 	bleq	e41c90 <shift+0xe41c90>
     7a0:	00001301 	andeq	r1, r0, r1, lsl #6
     7a4:	03001610 	movweq	r1, #1552	; 0x610
     7a8:	3b0b3a0e 	blcc	2cefe8 <shift+0x2cefe8>
     7ac:	490b3905 	stmdbmi	fp, {r0, r2, r8, fp, ip, sp}
     7b0:	11000013 	tstne	r0, r3, lsl r0
     7b4:	0e030113 	mcreq	1, 0, r0, cr3, cr3, {0}
     7b8:	0b3a0b0b 	bleq	e833ec <shift+0xe833ec>
     7bc:	0b390b3b 	bleq	e434b0 <shift+0xe434b0>
     7c0:	00001301 	andeq	r1, r0, r1, lsl #6
     7c4:	03003412 	movweq	r3, #1042	; 0x412
     7c8:	3b0b3a08 	blcc	2ceff0 <shift+0x2ceff0>
     7cc:	490b390b 	stmdbmi	fp, {r0, r1, r3, r8, fp, ip, sp}
     7d0:	00180213 	andseq	r0, r8, r3, lsl r2
     7d4:	00341300 	eorseq	r1, r4, r0, lsl #6
     7d8:	0b3a0e03 	bleq	e83fec <shift+0xe83fec>
     7dc:	0b390b3b 	bleq	e434d0 <shift+0xe434d0>
     7e0:	18021349 	stmdane	r2, {r0, r3, r6, r8, r9, ip}
     7e4:	2e140000 	cdpcs	0, 1, cr0, cr4, cr0, {0}
     7e8:	03193f01 	tsteq	r9, #1, 30
     7ec:	3b0b3a0e 	blcc	2cf02c <shift+0x2cf02c>
     7f0:	270b390b 	strcs	r3, [fp, -fp, lsl #18]
     7f4:	12011119 	andne	r1, r1, #1073741830	; 0x40000006
     7f8:	7c184006 	ldcvc	0, cr4, [r8], {6}
     7fc:	00130119 	andseq	r0, r3, r9, lsl r1
     800:	012e1500 			; <UNDEFINED> instruction: 0x012e1500
     804:	0e03193f 			; <UNDEFINED> instruction: 0x0e03193f
     808:	0b3b0b3a 	bleq	ec34f8 <shift+0xec34f8>
     80c:	19270b39 	stmdbne	r7!, {r0, r3, r4, r5, r8, r9, fp}
     810:	01111349 	tsteq	r1, r9, asr #6
     814:	18400612 	stmdane	r0, {r1, r4, r9, sl}^
     818:	0000197a 	andeq	r1, r0, sl, ror r9
     81c:	00050100 	andeq	r0, r5, r0, lsl #2
     820:	213a0e03 	teqcs	sl, r3, lsl #28
     824:	39053b01 	stmdbcc	r5, {r0, r8, r9, fp, ip, sp}
     828:	0213490b 	andseq	r4, r3, #180224	; 0x2c000
     82c:	02000018 	andeq	r0, r0, #24
     830:	0b0b0024 	bleq	2c08c8 <shift+0x2c08c8>
     834:	0e030b3e 	vmoveq.16	d3[0], r0
     838:	28030000 	stmdacs	r3, {}	; <UNPREDICTABLE>
     83c:	1c0e0300 	stcne	3, cr0, [lr], {-0}
     840:	0400000b 	streq	r0, [r0], #-11
     844:	0e030016 	mcreq	0, 0, r0, cr3, cr6, {0}
     848:	0b3b0b3a 	bleq	ec3538 <shift+0xec3538>
     84c:	13490b39 	movtne	r0, #39737	; 0x9b39
     850:	05050000 	streq	r0, [r5, #-0]
     854:	00134900 	andseq	r4, r3, r0, lsl #18
     858:	000d0600 	andeq	r0, sp, r0, lsl #12
     85c:	213a0803 	teqcs	sl, r3, lsl #16
     860:	39053b04 	stmdbcc	r5, {r2, r8, r9, fp, ip, sp}
     864:	13491121 	movtne	r1, #37153	; 0x9121
     868:	00000b38 	andeq	r0, r0, r8, lsr fp
     86c:	03000d07 	movweq	r0, #3335	; 0xd07
     870:	04213a0e 	strteq	r3, [r1], #-2574	; 0xfffff5f2
     874:	2139053b 	teqcs	r9, fp, lsr r5
     878:	38134911 	ldmdacc	r3, {r0, r4, r8, fp, lr}
     87c:	0800000b 	stmdaeq	r0, {r0, r1, r3}
     880:	0e030104 	adfeqs	f0, f3, f4
     884:	0b07213e 	bleq	1c8d84 <shift+0x1c8d84>
     888:	13490421 	movtne	r0, #37921	; 0x9421
     88c:	0b3b0b3a 	bleq	ec357c <shift+0xec357c>
     890:	010e2139 	tsteq	lr, r9, lsr r1
     894:	09000013 	stmdbeq	r0, {r0, r1, r4}
     898:	0e03000d 	cdpeq	0, 0, cr0, cr3, cr13, {0}
     89c:	3b05213a 	blcc	148d8c <shift+0x148d8c>
     8a0:	490b390b 	stmdbmi	fp, {r0, r1, r3, r8, fp, ip, sp}
     8a4:	000b3813 	andeq	r3, fp, r3, lsl r8
     8a8:	00350a00 	eorseq	r0, r5, r0, lsl #20
     8ac:	00001349 	andeq	r1, r0, r9, asr #6
     8b0:	3f012e0b 	svccc	0x00012e0b
     8b4:	3a0e0319 	bcc	381520 <shift+0x381520>
     8b8:	390b3b0b 	stmdbcc	fp, {r0, r1, r3, r8, r9, fp, ip, sp}
     8bc:	19270621 	stmdbne	r7!, {r0, r5, r9, sl}
     8c0:	1301193c 	movwne	r1, #6460	; 0x193c
     8c4:	0f0c0000 	svceq	0x000c0000
     8c8:	04210b00 	strteq	r0, [r1], #-2816	; 0xfffff500
     8cc:	00001349 	andeq	r1, r0, r9, asr #6
     8d0:	0300340d 	movweq	r3, #1037	; 0x40d
     8d4:	02213a0e 	eoreq	r3, r1, #57344	; 0xe000
     8d8:	0b390b3b 	bleq	e435cc <shift+0xe435cc>
     8dc:	18021349 	stmdane	r2, {r0, r3, r6, r8, r9, ip}
     8e0:	110e0000 	mrsne	r0, (UNDEF: 14)
     8e4:	130e2501 	movwne	r2, #58625	; 0xe501
     8e8:	1b0e030b 	blne	38151c <shift+0x38151c>
     8ec:	1201110e 	andne	r1, r1, #-2147483645	; 0x80000003
     8f0:	00171006 	andseq	r1, r7, r6
     8f4:	00240f00 	eoreq	r0, r4, r0, lsl #30
     8f8:	0b3e0b0b 	bleq	f8352c <shift+0xf8352c>
     8fc:	00000803 	andeq	r0, r0, r3, lsl #16
     900:	0b011310 	bleq	45548 <shift+0x45548>
     904:	3b0b3a0b 	blcc	2cf138 <shift+0x2cf138>
     908:	010b3905 	tsteq	fp, r5, lsl #18
     90c:	11000013 	tstne	r0, r3, lsl r0
     910:	0e030016 	mcreq	0, 0, r0, cr3, cr6, {0}
     914:	053b0b3a 	ldreq	r0, [fp, #-2874]!	; 0xfffff4c6
     918:	13490b39 	movtne	r0, #39737	; 0x9b39
     91c:	13120000 	tstne	r2, #0
     920:	0b0e0301 	bleq	38152c <shift+0x38152c>
     924:	3b0b3a0b 	blcc	2cf158 <shift+0x2cf158>
     928:	010b390b 	tsteq	fp, fp, lsl #18
     92c:	13000013 	movwne	r0, #19
     930:	193f012e 	ldmdbne	pc!, {r1, r2, r3, r5, r8}	; <UNPREDICTABLE>
     934:	0b3a0e03 	bleq	e84148 <shift+0xe84148>
     938:	0b390b3b 	bleq	e4362c <shift+0xe4362c>
     93c:	13491927 	movtne	r1, #39207	; 0x9927
     940:	1301193c 	movwne	r1, #6460	; 0x193c
     944:	2e140000 	cdpcs	0, 1, cr0, cr4, cr0, {0}
     948:	03193f01 	tsteq	r9, #1, 30
     94c:	3b0b3a0e 	blcc	2cf18c <shift+0x2cf18c>
     950:	270b390b 	strcs	r3, [fp, -fp, lsl #18]
     954:	11134919 	tstne	r3, r9, lsl r9
     958:	40061201 	andmi	r1, r6, r1, lsl #4
     95c:	01197c18 	tsteq	r9, r8, lsl ip
     960:	15000013 	strne	r0, [r0, #-19]	; 0xffffffed
     964:	08030034 	stmdaeq	r3, {r2, r4, r5}
     968:	0b3b0b3a 	bleq	ec3658 <shift+0xec3658>
     96c:	13490b39 	movtne	r0, #39737	; 0x9b39
     970:	00001802 	andeq	r1, r0, r2, lsl #16
     974:	3f012e16 	svccc	0x00012e16
     978:	3a0e0319 	bcc	3815e4 <shift+0x3815e4>
     97c:	390b3b0b 	stmdbcc	fp, {r0, r1, r3, r8, r9, fp, ip, sp}
     980:	1119270b 	tstne	r9, fp, lsl #14
     984:	40061201 	andmi	r1, r6, r1, lsl #4
     988:	01197c18 	tsteq	r9, r8, lsl ip
     98c:	17000013 	smladne	r0, r3, r0, r0
     990:	0e03012e 	adfeqsp	f0, f3, #0.5
     994:	053b0b3a 	ldreq	r0, [fp, #-2874]!	; 0xfffff4c6
     998:	19270b39 	stmdbne	r7!, {r0, r3, r4, r5, r8, r9, fp}
     99c:	06120111 			; <UNDEFINED> instruction: 0x06120111
     9a0:	197a1840 	ldmdbne	sl!, {r6, fp, ip}^
     9a4:	00001301 	andeq	r1, r0, r1, lsl #6
     9a8:	03012e18 	movweq	r2, #7704	; 0x1e18
     9ac:	3b0b3a0e 	blcc	2cf1ec <shift+0x2cf1ec>
     9b0:	270b3905 	strcs	r3, [fp, -r5, lsl #18]
     9b4:	12011119 	andne	r1, r1, #1073741830	; 0x40000006
     9b8:	7a184006 	bvc	6109d8 <shift+0x6109d8>
     9bc:	00000019 	andeq	r0, r0, r9, lsl r0
     9c0:	03002801 	movweq	r2, #2049	; 0x801
     9c4:	000b1c0e 	andeq	r1, fp, lr, lsl #24
     9c8:	000d0200 	andeq	r0, sp, r0, lsl #4
     9cc:	213a0e03 	teqcs	sl, r3, lsl #28
     9d0:	39053b02 	stmdbcc	r5, {r1, r8, r9, fp, ip, sp}
     9d4:	13491221 	movtne	r1, #37409	; 0x9221
     9d8:	00000538 	andeq	r0, r0, r8, lsr r5
     9dc:	49010103 	stmdbmi	r1, {r0, r1, r8}
     9e0:	00130113 	andseq	r0, r3, r3, lsl r1
     9e4:	00210400 	eoreq	r0, r1, r0, lsl #8
     9e8:	0b2f1349 	bleq	bc5714 <shift+0xbc5714>
     9ec:	24050000 	strcs	r0, [r5], #-0
     9f0:	3e0b0b00 	vmlacc.f64	d0, d11, d0
     9f4:	000e030b 	andeq	r0, lr, fp, lsl #6
     9f8:	00350600 	eorseq	r0, r5, r0, lsl #12
     9fc:	00001349 	andeq	r1, r0, r9, asr #6
     a00:	03001607 	movweq	r1, #1543	; 0x607
     a04:	3b0b3a0e 	blcc	2cf244 <shift+0x2cf244>
     a08:	490b390b 	stmdbmi	fp, {r0, r1, r3, r8, fp, ip, sp}
     a0c:	08000013 	stmdaeq	r0, {r0, r1, r4}
     a10:	0e030005 	cdpeq	0, 0, cr0, cr3, cr5, {0}
     a14:	3b01213a 	blcc	48f04 <shift+0x48f04>
     a18:	490b390b 	stmdbmi	fp, {r0, r1, r3, r8, fp, ip, sp}
     a1c:	00180213 	andseq	r0, r8, r3, lsl r2
     a20:	012e0900 			; <UNDEFINED> instruction: 0x012e0900
     a24:	0e03193f 			; <UNDEFINED> instruction: 0x0e03193f
     a28:	3b01213a 	blcc	48f18 <shift+0x48f18>
     a2c:	0621390b 	strteq	r3, [r1], -fp, lsl #18
     a30:	01111927 	tsteq	r1, r7, lsr #18
     a34:	18400612 	stmdane	r0, {r1, r4, r9, sl}^
     a38:	1301197c 	movwne	r1, #6524	; 0x197c
     a3c:	260a0000 	strcs	r0, [sl], -r0
     a40:	00134900 	andseq	r4, r3, r0, lsl #18
     a44:	00210b00 	eoreq	r0, r1, r0, lsl #22
     a48:	052f1349 	streq	r1, [pc, #-841]!	; 707 <shift+0x707>
     a4c:	0f0c0000 	svceq	0x000c0000
     a50:	04210b00 	strteq	r0, [r1], #-2816	; 0xfffff500
     a54:	00001349 	andeq	r1, r0, r9, asr #6
     a58:	4900050d 	stmdbmi	r0, {r0, r2, r3, r8, sl}
     a5c:	0e000013 	mcreq	0, 0, r0, cr0, cr3, {0}
     a60:	0e030034 	mcreq	0, 0, r0, cr3, cr4, {1}
     a64:	3b01213a 	blcc	48f54 <shift+0x48f54>
     a68:	490b390b 	stmdbmi	fp, {r0, r1, r3, r8, fp, ip, sp}
     a6c:	00180213 	andseq	r0, r8, r3, lsl r2
     a70:	00340f00 	eorseq	r0, r4, r0, lsl #30
     a74:	18021331 	stmdane	r2, {r0, r4, r5, r8, r9, ip}
     a78:	04100000 	ldreq	r0, [r0], #-0
     a7c:	3e0e0301 	cdpcc	3, 0, cr0, cr14, cr1, {0}
     a80:	04210b0b 	strteq	r0, [r1], #-2827	; 0xfffff4f5
     a84:	0b3a1349 	bleq	e857b0 <shift+0xe857b0>
     a88:	0b390b3b 	bleq	e4377c <shift+0xe4377c>
     a8c:	00001301 	andeq	r1, r0, r1, lsl #6
     a90:	03000d11 	movweq	r0, #3345	; 0xd11
     a94:	06213a0e 	strteq	r3, [r1], -lr, lsl #20
     a98:	0b390b3b 	bleq	e4378c <shift+0xe4378c>
     a9c:	0b381349 	bleq	e057c8 <shift+0xe057c8>
     aa0:	34120000 	ldrcc	r0, [r2], #-0
     aa4:	3a080300 	bcc	2016ac <shift+0x2016ac>
     aa8:	053b0221 	ldreq	r0, [fp, #-545]!	; 0xfffffddf
     aac:	13490b39 	movtne	r0, #39737	; 0x9b39
     ab0:	11130000 	tstne	r3, r0
     ab4:	130e2501 	movwne	r2, #58625	; 0xe501
     ab8:	1b0e030b 	blne	3816ec <shift+0x3816ec>
     abc:	1201110e 	andne	r1, r1, #-2147483645	; 0x80000003
     ac0:	00171006 	andseq	r1, r7, r6
     ac4:	00241400 	eoreq	r1, r4, r0, lsl #8
     ac8:	0b3e0b0b 	bleq	f836fc <shift+0xf836fc>
     acc:	00000803 	andeq	r0, r0, r3, lsl #16
     ad0:	03002815 	movweq	r2, #2069	; 0x815
     ad4:	000d1c0e 	andeq	r1, sp, lr, lsl #24
     ad8:	000f1600 	andeq	r1, pc, r0, lsl #12
     adc:	00000b0b 	andeq	r0, r0, fp, lsl #22
     ae0:	0b011317 	bleq	45744 <shift+0x45744>
     ae4:	3b0b3a05 	blcc	2cf300 <shift+0x2cf300>
     ae8:	010b3905 	tsteq	fp, r5, lsl #18
     aec:	18000013 	stmdane	r0, {r0, r1, r4}
     af0:	0e03000d 	cdpeq	0, 0, cr0, cr3, cr13, {0}
     af4:	053b0b3a 	ldreq	r0, [fp, #-2874]!	; 0xfffff4c6
     af8:	13490b39 	movtne	r0, #39737	; 0x9b39
     afc:	00000b38 	andeq	r0, r0, r8, lsr fp
     b00:	03001619 	movweq	r1, #1561	; 0x619
     b04:	3b0b3a0e 	blcc	2cf344 <shift+0x2cf344>
     b08:	490b3905 	stmdbmi	fp, {r0, r2, r8, fp, ip, sp}
     b0c:	1a000013 	bne	b60 <shift+0xb60>
     b10:	19270115 	stmdbne	r7!, {r0, r2, r4, r8}
     b14:	00001301 	andeq	r1, r0, r1, lsl #6
     b18:	0301131b 	movweq	r1, #4891	; 0x131b
     b1c:	3a0b0b0e 	bcc	2c375c <shift+0x2c375c>
     b20:	390b3b0b 	stmdbcc	fp, {r0, r1, r3, r8, r9, fp, ip, sp}
     b24:	0013010b 	andseq	r0, r3, fp, lsl #2
     b28:	012e1c00 			; <UNDEFINED> instruction: 0x012e1c00
     b2c:	0e03193f 			; <UNDEFINED> instruction: 0x0e03193f
     b30:	0b3b0b3a 	bleq	ec3820 <shift+0xec3820>
     b34:	19270b39 	stmdbne	r7!, {r0, r3, r4, r5, r8, r9, fp}
     b38:	193c1349 	ldmdbne	ip!, {r0, r3, r6, r8, r9, ip}
     b3c:	00001301 	andeq	r1, r0, r1, lsl #6
     b40:	0000181d 	andeq	r1, r0, sp, lsl r8
     b44:	012e1e00 			; <UNDEFINED> instruction: 0x012e1e00
     b48:	0e03193f 			; <UNDEFINED> instruction: 0x0e03193f
     b4c:	0b3b0b3a 	bleq	ec383c <shift+0xec383c>
     b50:	19270b39 	stmdbne	r7!, {r0, r3, r4, r5, r8, r9, fp}
     b54:	06120111 			; <UNDEFINED> instruction: 0x06120111
     b58:	197a1840 	ldmdbne	sl!, {r6, fp, ip}^
     b5c:	00001301 	andeq	r1, r0, r1, lsl #6
     b60:	0300051f 	movweq	r0, #1311	; 0x51f
     b64:	3b0b3a08 	blcc	2cf38c <shift+0x2cf38c>
     b68:	490b390b 	stmdbmi	fp, {r0, r1, r3, r8, fp, ip, sp}
     b6c:	00180213 	andseq	r0, r8, r3, lsl r2
     b70:	00342000 	eorseq	r2, r4, r0
     b74:	0b3a0803 	bleq	e82b88 <shift+0xe82b88>
     b78:	0b390b3b 	bleq	e4386c <shift+0xe4386c>
     b7c:	18021349 	stmdane	r2, {r0, r3, r6, r8, r9, ip}
     b80:	1d210000 	stcne	0, cr0, [r1, #-0]
     b84:	11133101 	tstne	r3, r1, lsl #2
     b88:	58061201 	stmdapl	r6, {r0, r9, ip}
     b8c:	570b590b 	strpl	r5, [fp, -fp, lsl #18]
     b90:	0013010b 	andseq	r0, r3, fp, lsl #2
     b94:	001d2200 	andseq	r2, sp, r0, lsl #4
     b98:	01111331 	tsteq	r1, r1, lsr r3
     b9c:	0b580612 	bleq	16023ec <shift+0x16023ec>
     ba0:	0b570559 	bleq	15c210c <shift+0x15c210c>
     ba4:	1d230000 	stcne	0, cr0, [r3, #-0]
     ba8:	11133101 	tstne	r3, r1, lsl #2
     bac:	58061201 	stmdapl	r6, {r0, r9, ip}
     bb0:	570b590b 	strpl	r5, [fp, -fp, lsl #18]
     bb4:	2400000b 	strcs	r0, [r0], #-11
     bb8:	13310005 	teqne	r1, #5
     bbc:	00001802 	andeq	r1, r0, r2, lsl #16
     bc0:	03012e25 	movweq	r2, #7717	; 0x1e25
     bc4:	3b0b3a0e 	blcc	2cf404 <shift+0x2cf404>
     bc8:	270b3905 	strcs	r3, [fp, -r5, lsl #18]
     bcc:	010b2019 	tsteq	fp, r9, lsl r0
     bd0:	26000013 			; <UNDEFINED> instruction: 0x26000013
     bd4:	0e030034 	mcreq	0, 0, r0, cr3, cr4, {1}
     bd8:	053b0b3a 	ldreq	r0, [fp, #-2874]!	; 0xfffff4c6
     bdc:	13490b39 	movtne	r0, #39737	; 0x9b39
     be0:	2e270000 	cdpcs	0, 2, cr0, cr7, cr0, {0}
     be4:	3a0e0300 	bcc	3817ec <shift+0x3817ec>
     be8:	39053b0b 	stmdbcc	r5, {r0, r1, r3, r8, r9, fp, ip, sp}
     bec:	4919270b 	ldmdbmi	r9, {r0, r1, r3, r8, r9, sl, sp}
     bf0:	000b2013 	andeq	r2, fp, r3, lsl r0
     bf4:	012e2800 			; <UNDEFINED> instruction: 0x012e2800
     bf8:	0b3a0e03 	bleq	e8440c <shift+0xe8440c>
     bfc:	0b39053b 	bleq	e420f0 <shift+0xe420f0>
     c00:	0b201927 	bleq	8070a4 <shift+0x8070a4>
     c04:	05290000 	streq	r0, [r9, #-0]!
     c08:	3a0e0300 	bcc	381810 <shift+0x381810>
     c0c:	39053b0b 	stmdbcc	r5, {r0, r1, r3, r8, r9, fp, ip, sp}
     c10:	0013490b 	andseq	r4, r3, fp, lsl #18
     c14:	28010000 	stmdacs	r1, {}	; <UNPREDICTABLE>
     c18:	1c0e0300 	stcne	3, cr0, [lr], {-0}
     c1c:	0200000b 	andeq	r0, r0, #11
     c20:	0e03000d 	cdpeq	0, 0, cr0, cr3, cr13, {0}
     c24:	3b03213a 	blcc	c9114 <shift+0xc9114>
     c28:	12213905 	eorne	r3, r1, #81920	; 0x14000
     c2c:	05381349 	ldreq	r1, [r8, #-841]!	; 0xfffffcb7
     c30:	01030000 	mrseq	r0, (UNDEF: 3)
     c34:	01134901 	tsteq	r3, r1, lsl #18
     c38:	04000013 	streq	r0, [r0], #-19	; 0xffffffed
     c3c:	13490021 	movtne	r0, #36897	; 0x9021
     c40:	00000b2f 	andeq	r0, r0, pc, lsr #22
     c44:	49000505 	stmdbmi	r0, {r0, r2, r8, sl}
     c48:	06000013 			; <UNDEFINED> instruction: 0x06000013
     c4c:	0e030005 	cdpeq	0, 0, cr0, cr3, cr5, {0}
     c50:	3b01213a 	blcc	49140 <shift+0x49140>
     c54:	490b3905 	stmdbmi	fp, {r0, r2, r8, fp, ip, sp}
     c58:	00180213 	andseq	r0, r8, r3, lsl r2
     c5c:	00240700 	eoreq	r0, r4, r0, lsl #14
     c60:	0b3e0b0b 	bleq	f83894 <shift+0xf83894>
     c64:	00000e03 	andeq	r0, r0, r3, lsl #28
     c68:	03001608 	movweq	r1, #1544	; 0x608
     c6c:	3b0b3a0e 	blcc	2cf4ac <shift+0x2cf4ac>
     c70:	490b390b 	stmdbmi	fp, {r0, r1, r3, r8, fp, ip, sp}
     c74:	09000013 	stmdbeq	r0, {r0, r1, r4}
     c78:	13490035 	movtne	r0, #36917	; 0x9035
     c7c:	0d0a0000 	stceq	0, cr0, [sl, #-0]
     c80:	3a0e0300 	bcc	381888 <shift+0x381888>
     c84:	39053b0b 	stmdbcc	r5, {r0, r1, r3, r8, r9, fp, ip, sp}
     c88:	3813490b 	ldmdacc	r3, {r0, r1, r3, r8, fp, lr}
     c8c:	0b00000b 	bleq	cc0 <shift+0xcc0>
     c90:	0803000d 	stmdaeq	r3, {r0, r2, r3}
     c94:	3b05213a 	blcc	149184 <shift+0x149184>
     c98:	11213905 			; <UNDEFINED> instruction: 0x11213905
     c9c:	0b381349 	bleq	e059c8 <shift+0xe059c8>
     ca0:	0f0c0000 	svceq	0x000c0000
     ca4:	04210b00 	strteq	r0, [r1], #-2816	; 0xfffff500
     ca8:	00001349 	andeq	r1, r0, r9, asr #6
     cac:	3f012e0d 	svccc	0x00012e0d
     cb0:	3a0e0319 	bcc	38191c <shift+0x38191c>
     cb4:	390b3b0b 	stmdbcc	fp, {r0, r1, r3, r8, r9, fp, ip, sp}
     cb8:	19270621 	stmdbne	r7!, {r0, r5, r9, sl}
     cbc:	1301193c 	movwne	r1, #6460	; 0x193c
     cc0:	040e0000 	streq	r0, [lr], #-0
     cc4:	3e0e0301 	cdpcc	3, 0, cr0, cr14, cr1, {0}
     cc8:	04210b0b 	strteq	r0, [r1], #-2827	; 0xfffff4f5
     ccc:	0b3a1349 	bleq	e859f8 <shift+0xe859f8>
     cd0:	21390b3b 	teqcs	r9, fp, lsr fp
     cd4:	0013010e 	andseq	r0, r3, lr, lsl #2
     cd8:	00210f00 	eoreq	r0, r1, r0, lsl #30
     cdc:	052f1349 	streq	r1, [pc, #-841]!	; 99b <shift+0x99b>
     ce0:	0d100000 	ldceq	0, cr0, [r0, #-0]
     ce4:	3a0e0300 	bcc	3818ec <shift+0x3818ec>
     ce8:	0b3b0721 	bleq	ec2974 <shift+0xec2974>
     cec:	13490b39 	movtne	r0, #39737	; 0x9b39
     cf0:	00000b38 	andeq	r0, r0, r8, lsr fp
     cf4:	49002611 	stmdbmi	r0, {r0, r4, r9, sl, sp}
     cf8:	12000013 	andne	r0, r0, #19
     cfc:	0e030016 	mcreq	0, 0, r0, cr3, cr6, {0}
     d00:	053b0b3a 	ldreq	r0, [fp, #-2874]!	; 0xfffff4c6
     d04:	49032139 	stmdbmi	r3, {r0, r3, r4, r5, r8, sp}
     d08:	13000013 	movwne	r0, #19
     d0c:	0e250111 	mcreq	1, 1, r0, cr5, cr1, {0}
     d10:	0e030b13 	vmoveq.32	d3[0], r0
     d14:	01110e1b 	tsteq	r1, fp, lsl lr
     d18:	17100612 			; <UNDEFINED> instruction: 0x17100612
     d1c:	24140000 	ldrcs	r0, [r4], #-0
     d20:	3e0b0b00 	vmlacc.f64	d0, d11, d0
     d24:	0008030b 	andeq	r0, r8, fp, lsl #6
     d28:	00281500 	eoreq	r1, r8, r0, lsl #10
     d2c:	0d1c0e03 	ldceq	14, cr0, [ip, #-12]
     d30:	13160000 	tstne	r6, #0
     d34:	3a0b0b01 	bcc	2c3940 <shift+0x2c3940>
     d38:	39053b0b 	stmdbcc	r5, {r0, r1, r3, r8, r9, fp, ip, sp}
     d3c:	0013010b 	andseq	r0, r3, fp, lsl #2
     d40:	000f1700 	andeq	r1, pc, r0, lsl #14
     d44:	00000b0b 	andeq	r0, r0, fp, lsl #22
     d48:	0b011318 	bleq	459b0 <shift+0x459b0>
     d4c:	3b0b3a05 	blcc	2cf568 <shift+0x2cf568>
     d50:	010b3905 	tsteq	fp, r5, lsl #18
     d54:	19000013 	stmdbne	r0, {r0, r1, r4}
     d58:	19270115 	stmdbne	r7!, {r0, r2, r4, r8}
     d5c:	00001301 	andeq	r1, r0, r1, lsl #6
     d60:	0301131a 	movweq	r1, #4890	; 0x131a
     d64:	3a0b0b0e 	bcc	2c39a4 <shift+0x2c39a4>
     d68:	390b3b0b 	stmdbcc	fp, {r0, r1, r3, r8, r9, fp, ip, sp}
     d6c:	0013010b 	andseq	r0, r3, fp, lsl #2
     d70:	002e1b00 	eoreq	r1, lr, r0, lsl #22
     d74:	0e03193f 			; <UNDEFINED> instruction: 0x0e03193f
     d78:	0b3b0b3a 	bleq	ec3a68 <shift+0xec3a68>
     d7c:	19270b39 	stmdbne	r7!, {r0, r3, r4, r5, r8, r9, fp}
     d80:	06120111 			; <UNDEFINED> instruction: 0x06120111
     d84:	197c1840 	ldmdbne	ip!, {r6, fp, ip}^
     d88:	2e1c0000 	cdpcs	0, 1, cr0, cr12, cr0, {0}
     d8c:	03193f01 	tsteq	r9, #1, 30
     d90:	3b0b3a0e 	blcc	2cf5d0 <shift+0x2cf5d0>
     d94:	270b390b 	strcs	r3, [fp, -fp, lsl #18]
     d98:	12011119 	andne	r1, r1, #1073741830	; 0x40000006
     d9c:	7c184006 	ldcvc	0, cr4, [r8], {6}
     da0:	00130119 	andseq	r0, r3, r9, lsl r1
     da4:	00341d00 	eorseq	r1, r4, r0, lsl #26
     da8:	0b3a0e03 	bleq	e845bc <shift+0xe845bc>
     dac:	0b390b3b 	bleq	e43aa0 <shift+0xe43aa0>
     db0:	18021349 	stmdane	r2, {r0, r3, r6, r8, r9, ip}
     db4:	1d1e0000 	ldcne	0, cr0, [lr, #-0]
     db8:	11133101 	tstne	r3, r1, lsl #2
     dbc:	58061201 	stmdapl	r6, {r0, r9, ip}
     dc0:	570b590b 	strpl	r5, [fp, -fp, lsl #18]
     dc4:	1f00000b 	svcne	0x0000000b
     dc8:	13310005 	teqne	r1, #5
     dcc:	00001802 	andeq	r1, r0, r2, lsl #16
     dd0:	31003420 	tstcc	r0, r0, lsr #8
     dd4:	00180213 	andseq	r0, r8, r3, lsl r2
     dd8:	001d2100 	andseq	r2, sp, r0, lsl #2
     ddc:	01111331 	tsteq	r1, r1, lsr r3
     de0:	0b580612 	bleq	1602630 <shift+0x1602630>
     de4:	0b570559 	bleq	15c2350 <shift+0x15c2350>
     de8:	2e220000 	cdpcs	0, 2, cr0, cr2, cr0, {0}
     dec:	3a0e0301 	bcc	3819f8 <shift+0x3819f8>
     df0:	39053b0b 	stmdbcc	r5, {r0, r1, r3, r8, r9, fp, ip, sp}
     df4:	2019270b 	andscs	r2, r9, fp, lsl #14
     df8:	0013010b 	andseq	r0, r3, fp, lsl #2
     dfc:	00052300 	andeq	r2, r5, r0, lsl #6
     e00:	0b3a0e03 	bleq	e84614 <shift+0xe84614>
     e04:	0b39053b 	bleq	e422f8 <shift+0xe422f8>
     e08:	00001349 	andeq	r1, r0, r9, asr #6
     e0c:	03003424 	movweq	r3, #1060	; 0x424
     e10:	3b0b3a08 	blcc	2cf638 <shift+0x2cf638>
     e14:	490b3905 	stmdbmi	fp, {r0, r2, r8, fp, ip, sp}
     e18:	25000013 	strcs	r0, [r0, #-19]	; 0xffffffed
     e1c:	0e03002e 	cdpeq	0, 0, cr0, cr3, cr14, {1}
     e20:	053b0b3a 	ldreq	r0, [fp, #-2874]!	; 0xfffff4c6
     e24:	19270b39 	stmdbne	r7!, {r0, r3, r4, r5, r8, r9, fp}
     e28:	0b201349 	bleq	805b54 <shift+0x805b54>
     e2c:	2e260000 	cdpcs	0, 2, cr0, cr6, cr0, {0}
     e30:	3a0e0301 	bcc	381a3c <shift+0x381a3c>
     e34:	39053b0b 	stmdbcc	r5, {r0, r1, r3, r8, r9, fp, ip, sp}
     e38:	1119270b 	tstne	r9, fp, lsl #14
     e3c:	40061201 	andmi	r1, r6, r1, lsl #4
     e40:	01197a18 	tsteq	r9, r8, lsl sl
     e44:	27000013 	smladcs	r0, r3, r0, r0
     e48:	0e03012e 	adfeqsp	f0, f3, #0.5
     e4c:	053b0b3a 	ldreq	r0, [fp, #-2874]!	; 0xfffff4c6
     e50:	19270b39 	stmdbne	r7!, {r0, r3, r4, r5, r8, r9, fp}
     e54:	06120111 			; <UNDEFINED> instruction: 0x06120111
     e58:	197a1840 	ldmdbne	sl!, {r6, fp, ip}^
     e5c:	01000000 	mrseq	r0, (UNDEF: 0)
     e60:	0e030028 	cdpeq	0, 0, cr0, cr3, cr8, {1}
     e64:	00000b1c 	andeq	r0, r0, ip, lsl fp
     e68:	03000d02 	movweq	r0, #3330	; 0xd02
     e6c:	02213a0e 	eoreq	r3, r1, #57344	; 0xe000
     e70:	2139053b 	teqcs	r9, fp, lsr r5
     e74:	38134912 	ldmdacc	r3, {r1, r4, r8, fp, lr}
     e78:	03000005 	movweq	r0, #5
     e7c:	13490101 	movtne	r0, #37121	; 0x9101
     e80:	00001301 	andeq	r1, r0, r1, lsl #6
     e84:	49002104 	stmdbmi	r0, {r2, r8, sp}
     e88:	000b2f13 	andeq	r2, fp, r3, lsl pc
     e8c:	00240500 	eoreq	r0, r4, r0, lsl #10
     e90:	0b3e0b0b 	bleq	f83ac4 <shift+0xf83ac4>
     e94:	00000e03 	andeq	r0, r0, r3, lsl #28
     e98:	49003506 	stmdbmi	r0, {r1, r2, r8, sl, ip, sp}
     e9c:	07000013 	smladeq	r0, r3, r0, r0
     ea0:	13490005 	movtne	r0, #36869	; 0x9005
     ea4:	16080000 	strne	r0, [r8], -r0
     ea8:	3a0e0300 	bcc	381ab0 <shift+0x381ab0>
     eac:	390b3b0b 	stmdbcc	fp, {r0, r1, r3, r8, r9, fp, ip, sp}
     eb0:	0013490b 	andseq	r4, r3, fp, lsl #18
     eb4:	000d0900 	andeq	r0, sp, r0, lsl #18
     eb8:	213a0803 	teqcs	sl, r3, lsl #16
     ebc:	39053b04 	stmdbcc	r5, {r2, r8, r9, fp, ip, sp}
     ec0:	13491121 	movtne	r1, #37153	; 0x9121
     ec4:	00000b38 	andeq	r0, r0, r8, lsr fp
     ec8:	4900210a 	stmdbmi	r0, {r1, r3, r8, sp}
     ecc:	00052f13 	andeq	r2, r5, r3, lsl pc
     ed0:	00050b00 	andeq	r0, r5, r0, lsl #22
     ed4:	18021331 	stmdane	r2, {r0, r4, r5, r8, r9, ip}
     ed8:	050c0000 	streq	r0, [ip, #-0]
     edc:	3a0e0300 	bcc	381ae4 <shift+0x381ae4>
     ee0:	053b0221 	ldreq	r0, [fp, #-545]!	; 0xfffffddf
     ee4:	13490b39 	movtne	r0, #39737	; 0x9b39
     ee8:	260d0000 	strcs	r0, [sp], -r0
     eec:	00134900 	andseq	r4, r3, r0, lsl #18
     ef0:	000d0e00 	andeq	r0, sp, r0, lsl #28
     ef4:	0b3a0e03 	bleq	e84708 <shift+0xe84708>
     ef8:	0b39053b 	bleq	e423ec <shift+0xe423ec>
     efc:	0b381349 	bleq	e05c28 <shift+0xe05c28>
     f00:	160f0000 	strne	r0, [pc], -r0
     f04:	3a0e0300 	bcc	381b0c <shift+0x381b0c>
     f08:	39053b0b 	stmdbcc	r5, {r0, r1, r3, r8, r9, fp, ip, sp}
     f0c:	13490321 	movtne	r0, #37665	; 0x9321
     f10:	0f100000 	svceq	0x00100000
     f14:	04210b00 	strteq	r0, [r1], #-2816	; 0xfffff500
     f18:	00001349 	andeq	r1, r0, r9, asr #6
     f1c:	3f012e11 	svccc	0x00012e11
     f20:	3a0e0319 	bcc	381b8c <shift+0x381b8c>
     f24:	13213b0b 			; <UNDEFINED> instruction: 0x13213b0b
     f28:	19270b39 	stmdbne	r7!, {r0, r3, r4, r5, r8, r9, fp}
     f2c:	1301193c 	movwne	r1, #6460	; 0x193c
     f30:	05120000 	ldreq	r0, [r2, #-0]
     f34:	3a0e0300 	bcc	381b3c <shift+0x381b3c>
     f38:	213b0121 	teqcs	fp, r1, lsr #2
     f3c:	490b390c 	stmdbmi	fp, {r2, r3, r8, fp, ip, sp}
     f40:	00180213 	andseq	r0, r8, r3, lsl r2
     f44:	00341300 	eorseq	r1, r4, r0, lsl #6
     f48:	18021331 	stmdane	r2, {r0, r4, r5, r8, r9, ip}
     f4c:	1d140000 	ldcne	0, cr0, [r4, #-0]
     f50:	11133100 	tstne	r3, r0, lsl #2
     f54:	58061201 	stmdapl	r6, {r0, r9, ip}
     f58:	05590221 	ldrbeq	r0, [r9, #-545]	; 0xfffffddf
     f5c:	00212157 	eoreq	r2, r1, r7, asr r1
     f60:	012e1500 			; <UNDEFINED> instruction: 0x012e1500
     f64:	213a0e03 	teqcs	sl, r3, lsl #28
     f68:	39053b02 	stmdbcc	r5, {r1, r8, r9, fp, ip, sp}
     f6c:	19272321 	stmdbne	r7!, {r0, r5, r8, r9, sp}
     f70:	01032120 	tsteq	r3, r0, lsr #2
     f74:	16000013 			; <UNDEFINED> instruction: 0x16000013
     f78:	08030034 	stmdaeq	r3, {r2, r4, r5}
     f7c:	3b02213a 	blcc	8946c <shift+0x8946c>
     f80:	0e213905 	vmuleq.f16	s6, s2, s10	; <UNPREDICTABLE>
     f84:	00001349 	andeq	r1, r0, r9, asr #6
     f88:	25011117 	strcs	r1, [r1, #-279]	; 0xfffffee9
     f8c:	030b130e 	movweq	r1, #45838	; 0xb30e
     f90:	110e1b0e 	tstne	lr, lr, lsl #22
     f94:	10061201 	andne	r1, r6, r1, lsl #4
     f98:	18000017 	stmdane	r0, {r0, r1, r2, r4}
     f9c:	0b0b0024 	bleq	2c1034 <shift+0x2c1034>
     fa0:	08030b3e 	stmdaeq	r3, {r1, r2, r3, r4, r5, r8, r9, fp}
     fa4:	04190000 	ldreq	r0, [r9], #-0
     fa8:	3e0e0301 	cdpcc	3, 0, cr0, cr14, cr1, {0}
     fac:	490b0b0b 	stmdbmi	fp, {r0, r1, r3, r8, r9, fp}
     fb0:	3b0b3a13 	blcc	2cf804 <shift+0x2cf804>
     fb4:	010b390b 	tsteq	fp, fp, lsl #18
     fb8:	1a000013 	bne	100c <shift+0x100c>
     fbc:	0e030028 	cdpeq	0, 0, cr0, cr3, cr8, {1}
     fc0:	00000d1c 	andeq	r0, r0, ip, lsl sp
     fc4:	0b01131b 	bleq	45c38 <shift+0x45c38>
     fc8:	3b0b3a0b 	blcc	2cf7fc <shift+0x2cf7fc>
     fcc:	010b3905 	tsteq	fp, r5, lsl #18
     fd0:	1c000013 	stcne	0, cr0, [r0], {19}
     fd4:	0b0b000f 	bleq	2c1018 <shift+0x2c1018>
     fd8:	131d0000 	tstne	sp, #0
     fdc:	3a050b01 	bcc	143be8 <shift+0x143be8>
     fe0:	39053b0b 	stmdbcc	r5, {r0, r1, r3, r8, r9, fp, ip, sp}
     fe4:	0013010b 	andseq	r0, r3, fp, lsl #2
     fe8:	01151e00 	tsteq	r5, r0, lsl #28
     fec:	13011927 	movwne	r1, #6439	; 0x1927
     ff0:	2e1f0000 	cdpcs	0, 1, cr0, cr15, cr0, {0}
     ff4:	03193f00 	tsteq	r9, #0, 30
     ff8:	3b0b3a0e 	blcc	2cf838 <shift+0x2cf838>
     ffc:	270b390b 	strcs	r3, [fp, -fp, lsl #18]
    1000:	12011119 	andne	r1, r1, #1073741830	; 0x40000006
    1004:	7c184006 	ldcvc	0, cr4, [r8], {6}
    1008:	20000019 	andcs	r0, r0, r9, lsl r0
    100c:	193f012e 	ldmdbne	pc!, {r1, r2, r3, r5, r8}	; <UNPREDICTABLE>
    1010:	0b3a0e03 	bleq	e84824 <shift+0xe84824>
    1014:	0b390b3b 	bleq	e43d08 <shift+0xe43d08>
    1018:	01111927 	tsteq	r1, r7, lsr #18
    101c:	18400612 	stmdane	r0, {r1, r4, r9, sl}^
    1020:	1301197c 	movwne	r1, #6524	; 0x197c
    1024:	1d210000 	stcne	0, cr0, [r1, #-0]
    1028:	11133101 	tstne	r3, r1, lsl #2
    102c:	58061201 	stmdapl	r6, {r0, r9, ip}
    1030:	570b590b 	strpl	r5, [fp, -fp, lsl #18]
    1034:	0013010b 	andseq	r0, r3, fp, lsl #2
    1038:	011d2200 	tsteq	sp, r0, lsl #4
    103c:	01111331 	tsteq	r1, r1, lsr r3
    1040:	0b580612 	bleq	1602890 <shift+0x1602890>
    1044:	0b570b59 	bleq	15c3db0 <shift+0x15c3db0>
    1048:	2e230000 	cdpcs	0, 2, cr0, cr3, cr0, {0}
    104c:	3a0e0300 	bcc	381c54 <shift+0x381c54>
    1050:	39053b0b 	stmdbcc	r5, {r0, r1, r3, r8, r9, fp, ip, sp}
    1054:	4919270b 	ldmdbmi	r9, {r0, r1, r3, r8, r9, sl, sp}
    1058:	000b2013 	andeq	r2, fp, r3, lsl r0
    105c:	0d010000 	stceq	0, cr0, [r1, #-0]
    1060:	3a0e0300 	bcc	381c68 <shift+0x381c68>
    1064:	053b0421 	ldreq	r0, [fp, #-1057]!	; 0xfffffbdf
    1068:	13490b39 	movtne	r0, #39737	; 0x9b39
    106c:	00000b38 	andeq	r0, r0, r8, lsr fp
    1070:	03000502 	movweq	r0, #1282	; 0x502
    1074:	3b0b3a0e 	blcc	2cf8b4 <shift+0x2cf8b4>
    1078:	490b3905 	stmdbmi	fp, {r0, r2, r8, fp, ip, sp}
    107c:	00180213 	andseq	r0, r8, r3, lsl r2
    1080:	00240300 	eoreq	r0, r4, r0, lsl #6
    1084:	0b3e0b0b 	bleq	f83cb8 <shift+0xf83cb8>
    1088:	00000e03 	andeq	r0, r0, r3, lsl #28
    108c:	03003404 	movweq	r3, #1028	; 0x404
    1090:	02213a0e 	eoreq	r3, r1, #57344	; 0xe000
    1094:	21390b3b 	teqcs	r9, fp, lsr fp
    1098:	0213490e 	andseq	r4, r3, #229376	; 0x38000
    109c:	05000018 	streq	r0, [r0, #-24]	; 0xffffffe8
    10a0:	0e030005 	cdpeq	0, 0, cr0, cr3, cr5, {0}
    10a4:	3b02213a 	blcc	89594 <shift+0x89594>
    10a8:	490b390b 	stmdbmi	fp, {r0, r1, r3, r8, fp, ip, sp}
    10ac:	00180213 	andseq	r0, r8, r3, lsl r2
    10b0:	00340600 	eorseq	r0, r4, r0, lsl #12
    10b4:	213a0803 	teqcs	sl, r3, lsl #16
    10b8:	390b3b02 	stmdbcc	fp, {r1, r8, r9, fp, ip, sp}
    10bc:	0213490b 	andseq	r4, r3, #180224	; 0x2c000
    10c0:	07000018 	smladeq	r0, r8, r0, r0
    10c4:	193f012e 	ldmdbne	pc!, {r1, r2, r3, r5, r8}	; <UNPREDICTABLE>
    10c8:	213a0e03 	teqcs	sl, r3, lsl #28
    10cc:	390b3b02 	stmdbcc	fp, {r1, r8, r9, fp, ip, sp}
    10d0:	19270621 	stmdbne	r7!, {r0, r5, r9, sl}
    10d4:	06120111 			; <UNDEFINED> instruction: 0x06120111
    10d8:	197a1840 	ldmdbne	sl!, {r6, fp, ip}^
    10dc:	00001301 	andeq	r1, r0, r1, lsl #6
    10e0:	03001608 	movweq	r1, #1544	; 0x608
    10e4:	03213a0e 			; <UNDEFINED> instruction: 0x03213a0e
    10e8:	0b390b3b 	bleq	e43ddc <shift+0xe43ddc>
    10ec:	00001349 	andeq	r1, r0, r9, asr #6
    10f0:	0b000f09 	bleq	4d1c <shift+0x4d1c>
    10f4:	13490421 	movtne	r0, #37921	; 0x9421
    10f8:	2e0a0000 	cdpcs	0, 0, cr0, cr10, cr0, {0}
    10fc:	03193f01 	tsteq	r9, #1, 30
    1100:	02213a0e 	eoreq	r3, r1, #57344	; 0xe000
    1104:	21390b3b 	teqcs	r9, fp, lsr fp
    1108:	11192706 	tstne	r9, r6, lsl #14
    110c:	40061201 	andmi	r1, r6, r1, lsl #4
    1110:	01197c18 	tsteq	r9, r8, lsl ip
    1114:	0b000013 	bleq	1168 <shift+0x1168>
    1118:	08030005 	stmdaeq	r3, {r0, r2}
    111c:	3b02213a 	blcc	8960c <shift+0x8960c>
    1120:	490b390b 	stmdbmi	fp, {r0, r1, r3, r8, fp, ip, sp}
    1124:	00180213 	andseq	r0, r8, r3, lsl r2
    1128:	002e0c00 	eoreq	r0, lr, r0, lsl #24
    112c:	0e03193f 			; <UNDEFINED> instruction: 0x0e03193f
    1130:	3b02213a 	blcc	89620 <shift+0x89620>
    1134:	0621390b 	strteq	r3, [r1], -fp, lsl #18
    1138:	01111927 	tsteq	r1, r7, lsr #18
    113c:	18400612 	stmdane	r0, {r1, r4, r9, sl}^
    1140:	0000197c 	andeq	r1, r0, ip, ror r9
    1144:	2501110d 	strcs	r1, [r1, #-269]	; 0xfffffef3
    1148:	030b130e 	movweq	r1, #45838	; 0xb30e
    114c:	110e1b0e 	tstne	lr, lr, lsl #22
    1150:	10061201 	andne	r1, r6, r1, lsl #4
    1154:	0e000017 	mcreq	0, 0, r0, cr0, cr7, {0}
    1158:	0b0b0024 	bleq	2c11f0 <shift+0x2c11f0>
    115c:	08030b3e 	stmdaeq	r3, {r1, r2, r3, r4, r5, r8, r9, fp}
    1160:	350f0000 	strcc	r0, [pc, #-0]	; 1168 <shift+0x1168>
    1164:	00134900 	andseq	r4, r3, r0, lsl #18
    1168:	01011000 	mrseq	r1, (UNDEF: 1)
    116c:	13011349 	movwne	r1, #4937	; 0x1349
    1170:	21110000 	tstcs	r1, r0
    1174:	2f134900 	svccs	0x00134900
    1178:	1200000b 	andne	r0, r0, #11
    117c:	0b0b0113 	bleq	2c15d0 <shift+0x2c15d0>
    1180:	053b0b3a 	ldreq	r0, [fp, #-2874]!	; 0xfffff4c6
    1184:	13010b39 	movwne	r0, #6969	; 0x1b39
    1188:	0d130000 	ldceq	0, cr0, [r3, #-0]
    118c:	3a080300 	bcc	201d94 <shift+0x201d94>
    1190:	39053b0b 	stmdbcc	r5, {r0, r1, r3, r8, r9, fp, ip, sp}
    1194:	3813490b 	ldmdacc	r3, {r0, r1, r3, r8, fp, lr}
    1198:	1400000b 	strne	r0, [r0], #-11
    119c:	0e030016 	mcreq	0, 0, r0, cr3, cr6, {0}
    11a0:	053b0b3a 	ldreq	r0, [fp, #-2874]!	; 0xfffff4c6
    11a4:	13490b39 	movtne	r0, #39737	; 0x9b39
    11a8:	2e150000 	cdpcs	0, 1, cr0, cr5, cr0, {0}
    11ac:	03193f01 	tsteq	r9, #1, 30
    11b0:	3b0b3a0e 	blcc	2cf9f0 <shift+0x2cf9f0>
    11b4:	270b3905 	strcs	r3, [fp, -r5, lsl #18]
    11b8:	12011119 	andne	r1, r1, #1073741830	; 0x40000006
    11bc:	7a184006 	bvc	6111dc <shift+0x6111dc>
    11c0:	00130119 	andseq	r0, r3, r9, lsl r1
    11c4:	002e1600 	eoreq	r1, lr, r0, lsl #12
    11c8:	0e03193f 			; <UNDEFINED> instruction: 0x0e03193f
    11cc:	053b0b3a 	ldreq	r0, [fp, #-2874]!	; 0xfffff4c6
    11d0:	19270b39 	stmdbne	r7!, {r0, r3, r4, r5, r8, r9, fp}
    11d4:	01111349 	tsteq	r1, r9, asr #6
    11d8:	18400612 	stmdane	r0, {r1, r4, r9, sl}^
    11dc:	0000197a 	andeq	r1, r0, sl, ror r9
    11e0:	11010b17 	tstne	r1, r7, lsl fp
    11e4:	00061201 	andeq	r1, r6, r1, lsl #4
    11e8:	012e1800 			; <UNDEFINED> instruction: 0x012e1800
    11ec:	0b3a0e03 	bleq	e84a00 <shift+0xe84a00>
    11f0:	0b39053b 	bleq	e426e4 <shift+0xe426e4>
    11f4:	01111927 	tsteq	r1, r7, lsr #18
    11f8:	18400612 	stmdane	r0, {r1, r4, r9, sl}^
    11fc:	1301197a 	movwne	r1, #6522	; 0x197a
    1200:	2e190000 	cdpcs	0, 1, cr0, cr9, cr0, {0}
    1204:	3a0e0301 	bcc	381e10 <shift+0x381e10>
    1208:	39053b0b 	stmdbcc	r5, {r0, r1, r3, r8, r9, fp, ip, sp}
    120c:	1119270b 	tstne	r9, fp, lsl #14
    1210:	40061201 	andmi	r1, r6, r1, lsl #4
    1214:	00197a18 	andseq	r7, r9, r8, lsl sl
    1218:	01010000 	mrseq	r0, (UNDEF: 1)
    121c:	01134901 	tsteq	r3, r1, lsl #18
    1220:	02000013 	andeq	r0, r0, #19
    1224:	0b0b0024 	bleq	2c12bc <shift+0x2c12bc>
    1228:	0e030b3e 	vmoveq.16	d3[0], r0
    122c:	11030000 	mrsne	r0, (UNDEF: 3)
    1230:	130e2501 	movwne	r2, #58625	; 0xe501
    1234:	1b0e030b 	blne	381e68 <shift+0x381e68>
    1238:	0017100e 	andseq	r1, r7, lr
    123c:	00210400 	eoreq	r0, r1, r0, lsl #8
    1240:	34050000 	strcc	r0, [r5], #-0
    1244:	3a0e0300 	bcc	381e4c <shift+0x381e4c>
    1248:	390b3b0b 	stmdbcc	fp, {r0, r1, r3, r8, r9, fp, ip, sp}
    124c:	3f13490b 	svccc	0x0013490b
    1250:	00193c19 	andseq	r3, r9, r9, lsl ip
    1254:	00210600 	eoreq	r0, r1, r0, lsl #12
    1258:	0b2f1349 	bleq	bc5f84 <shift+0xbc5f84>
    125c:	34070000 	strcc	r0, [r7], #-0
    1260:	3a134700 	bcc	4d2e68 <shift+0x4d2e68>
    1264:	390b3b0b 	stmdbcc	fp, {r0, r1, r3, r8, r9, fp, ip, sp}
    1268:	0213490b 	andseq	r4, r3, #180224	; 0x2c000
    126c:	00000018 	andeq	r0, r0, r8, lsl r0
    1270:	03003401 	movweq	r3, #1025	; 0x401
    1274:	01213a08 			; <UNDEFINED> instruction: 0x01213a08
    1278:	0b390b3b 	bleq	e43f6c <shift+0xe43f6c>
    127c:	18021349 	stmdane	r2, {r0, r3, r6, r8, r9, ip}
    1280:	24020000 	strcs	r0, [r2], #-0
    1284:	3e0b0b00 	vmlacc.f64	d0, d11, d0
    1288:	0e030721 	cdpeq	7, 0, cr0, cr3, cr1, {1}
    128c:	11030000 	mrsne	r0, (UNDEF: 3)
    1290:	130e2501 	movwne	r2, #58625	; 0xe501
    1294:	1b0e030b 	blne	381ec8 <shift+0x381ec8>
    1298:	1201110e 	andne	r1, r1, #-2147483645	; 0x80000003
    129c:	00171006 	andseq	r1, r7, r6
    12a0:	012e0400 			; <UNDEFINED> instruction: 0x012e0400
    12a4:	0e03193f 			; <UNDEFINED> instruction: 0x0e03193f
    12a8:	0b3b0b3a 	bleq	ec3f98 <shift+0xec3f98>
    12ac:	19270b39 	stmdbne	r7!, {r0, r3, r4, r5, r8, r9, fp}
    12b0:	01111349 	tsteq	r1, r9, asr #6
    12b4:	18400612 	stmdane	r0, {r1, r4, r9, sl}^
    12b8:	1301197c 	movwne	r1, #6524	; 0x197c
    12bc:	05050000 	streq	r0, [r5, #-0]
    12c0:	3a080300 	bcc	201ec8 <shift+0x201ec8>
    12c4:	390b3b0b 	stmdbcc	fp, {r0, r1, r3, r8, r9, fp, ip, sp}
    12c8:	0213490b 	andseq	r4, r3, #180224	; 0x2c000
    12cc:	06000018 			; <UNDEFINED> instruction: 0x06000018
    12d0:	0e030005 	cdpeq	0, 0, cr0, cr3, cr5, {0}
    12d4:	0b3b0b3a 	bleq	ec3fc4 <shift+0xec3fc4>
    12d8:	13490b39 	movtne	r0, #39737	; 0x9b39
    12dc:	00001802 	andeq	r1, r0, r2, lsl #16
    12e0:	03003407 	movweq	r3, #1031	; 0x407
    12e4:	3b0b3a0e 	blcc	2cfb24 <shift+0x2cfb24>
    12e8:	490b390b 	stmdbmi	fp, {r0, r1, r3, r8, fp, ip, sp}
    12ec:	00180213 	andseq	r0, r8, r3, lsl r2
    12f0:	000f0800 	andeq	r0, pc, r0, lsl #16
    12f4:	13490b0b 	movtne	r0, #39691	; 0x9b0b
    12f8:	01000000 	mrseq	r0, (UNDEF: 0)
    12fc:	0b0b0024 	bleq	2c1394 <shift+0x2c1394>
    1300:	0e030b3e 	vmoveq.16	d3[0], r0
    1304:	16020000 	strne	r0, [r2], -r0
    1308:	3a0e0300 	bcc	381f10 <shift+0x381f10>
    130c:	0b3b0221 	bleq	ec1b98 <shift+0xec1b98>
    1310:	13490b39 	movtne	r0, #39737	; 0x9b39
    1314:	34030000 	strcc	r0, [r3], #-0
    1318:	3a080300 	bcc	201f20 <shift+0x201f20>
    131c:	0b3b0121 	bleq	ec17a8 <shift+0xec17a8>
    1320:	13490b39 	movtne	r0, #39737	; 0x9b39
    1324:	00001802 	andeq	r1, r0, r2, lsl #16
    1328:	03003404 	movweq	r3, #1028	; 0x404
    132c:	01213a0e 			; <UNDEFINED> instruction: 0x01213a0e
    1330:	00c7213b 	sbceq	r2, r7, fp, lsr r1
    1334:	490a2139 	stmdbmi	sl, {r0, r3, r4, r5, r8, sp}
    1338:	05000013 	streq	r0, [r0, #-19]	; 0xffffffed
    133c:	0803000d 	stmdaeq	r3, {r0, r2, r3}
    1340:	3b02213a 	blcc	89830 <shift+0x89830>
    1344:	490b390b 	stmdbmi	fp, {r0, r1, r3, r8, fp, ip, sp}
    1348:	06000013 			; <UNDEFINED> instruction: 0x06000013
    134c:	08030005 	stmdaeq	r3, {r0, r2}
    1350:	3b01213a 	blcc	49840 <shift+0x49840>
    1354:	0b393f21 	bleq	e50fe0 <shift+0xe50fe0>
    1358:	18021349 	stmdane	r2, {r0, r3, r6, r8, r9, ip}
    135c:	0b070000 	bleq	1c1364 <shift+0x1c1364>
    1360:	12011101 	andne	r1, r1, #1073741824	; 0x40000000
    1364:	08000006 	stmdaeq	r0, {r1, r2}
    1368:	0e250111 	mcreq	1, 1, r0, cr5, cr1, {0}
    136c:	0e030b13 	vmoveq.32	d3[0], r0
    1370:	01110e1b 	tsteq	r1, fp, lsl lr
    1374:	17100612 			; <UNDEFINED> instruction: 0x17100612
    1378:	24090000 	strcs	r0, [r9], #-0
    137c:	3e0b0b00 	vmlacc.f64	d0, d11, d0
    1380:	0008030b 	andeq	r0, r8, fp, lsl #6
    1384:	01130a00 	tsteq	r3, r0, lsl #20
    1388:	0b0b0e03 	bleq	2c4b9c <shift+0x2c4b9c>
    138c:	0b3b0b3a 	bleq	ec407c <shift+0xec407c>
    1390:	13010b39 	movwne	r0, #6969	; 0x1b39
    1394:	0d0b0000 	stceq	0, cr0, [fp, #-0]
    1398:	3a080300 	bcc	201fa0 <shift+0x201fa0>
    139c:	390b3b0b 	stmdbcc	fp, {r0, r1, r3, r8, r9, fp, ip, sp}
    13a0:	3813490b 	ldmdacc	r3, {r0, r1, r3, r8, fp, lr}
    13a4:	0c00000b 	stceq	0, cr0, [r0], {11}
    13a8:	0e03000d 	cdpeq	0, 0, cr0, cr3, cr13, {0}
    13ac:	0b3b0b3a 	bleq	ec409c <shift+0xec409c>
    13b0:	13490b39 	movtne	r0, #39737	; 0x9b39
    13b4:	00000b38 	andeq	r0, r0, r8, lsr fp
    13b8:	0b01170d 	bleq	46ff4 <shift+0x46ff4>
    13bc:	3b0b3a0b 	blcc	2cfbf0 <shift+0x2cfbf0>
    13c0:	010b390b 	tsteq	fp, fp, lsl #18
    13c4:	0e000013 	mcreq	0, 0, r0, cr0, cr3, {0}
    13c8:	193f012e 	ldmdbne	pc!, {r1, r2, r3, r5, r8}	; <UNPREDICTABLE>
    13cc:	0b3a0e03 	bleq	e84be0 <shift+0xe84be0>
    13d0:	0b390b3b 	bleq	e440c4 <shift+0xe440c4>
    13d4:	13491927 	movtne	r1, #39207	; 0x9927
    13d8:	06120111 			; <UNDEFINED> instruction: 0x06120111
    13dc:	197a1840 	ldmdbne	sl!, {r6, fp, ip}^
    13e0:	01000000 	mrseq	r0, (UNDEF: 0)
    13e4:	0e030028 	cdpeq	0, 0, cr0, cr3, cr8, {1}
    13e8:	00000b1c 	andeq	r0, r0, ip, lsl fp
    13ec:	0b002402 	bleq	a3fc <shift+0xa3fc>
    13f0:	030b3e0b 	movweq	r3, #48651	; 0xbe0b
    13f4:	0300000e 	movweq	r0, #14
    13f8:	13490005 	movtne	r0, #36869	; 0x9005
    13fc:	34040000 	strcc	r0, [r4], #-0
    1400:	3a0e0300 	bcc	382008 <shift+0x382008>
    1404:	0b3b0121 	bleq	ec1890 <shift+0xec1890>
    1408:	13490b39 	movtne	r0, #39737	; 0x9b39
    140c:	00001802 	andeq	r1, r0, r2, lsl #16
    1410:	03003405 	movweq	r3, #1029	; 0x405
    1414:	01213a08 			; <UNDEFINED> instruction: 0x01213a08
    1418:	0b390b3b 	bleq	e4410c <shift+0xe4410c>
    141c:	18021349 	stmdane	r2, {r0, r3, r6, r8, r9, ip}
    1420:	2e060000 	cdpcs	0, 0, cr0, cr6, cr0, {0}
    1424:	03193f01 	tsteq	r9, #1, 30
    1428:	3b0b3a0e 	blcc	2cfc68 <shift+0x2cfc68>
    142c:	270b390b 	strcs	r3, [fp, -fp, lsl #18]
    1430:	3c134919 			; <UNDEFINED> instruction: 0x3c134919
    1434:	00130119 	andseq	r0, r3, r9, lsl r1
    1438:	00160700 	andseq	r0, r6, r0, lsl #14
    143c:	0b3a0e03 	bleq	e84c50 <shift+0xe84c50>
    1440:	0b390b3b 	bleq	e44134 <shift+0xe44134>
    1444:	00001349 	andeq	r1, r0, r9, asr #6
    1448:	0b000f08 	bleq	5070 <shift+0x5070>
    144c:	13490421 	movtne	r0, #37921	; 0x9421
    1450:	05090000 	streq	r0, [r9, #-0]
    1454:	3a080300 	bcc	20205c <shift+0x20205c>
    1458:	0b3b0121 	bleq	ec18e4 <shift+0xec18e4>
    145c:	49182139 	ldmdbmi	r8, {r0, r3, r4, r5, r8, sp}
    1460:	00180213 	andseq	r0, r8, r3, lsl r2
    1464:	00180a00 	andseq	r0, r8, r0, lsl #20
    1468:	110b0000 	mrsne	r0, (UNDEF: 11)
    146c:	130e2501 	movwne	r2, #58625	; 0xe501
    1470:	1b0e030b 	blne	3820a4 <shift+0x3820a4>
    1474:	1201110e 	andne	r1, r1, #-2147483645	; 0x80000003
    1478:	00171006 	andseq	r1, r7, r6
    147c:	00260c00 	eoreq	r0, r6, r0, lsl #24
    1480:	00001349 	andeq	r1, r0, r9, asr #6
    1484:	0b00240d 	bleq	a4c0 <shift+0xa4c0>
    1488:	030b3e0b 	movweq	r3, #48651	; 0xbe0b
    148c:	0e000008 	cdpeq	0, 0, cr0, cr0, cr8, {0}
    1490:	0e030104 	adfeqs	f0, f3, f4
    1494:	0b0b0b3e 	bleq	2c4194 <shift+0x2c4194>
    1498:	0b3a1349 	bleq	e861c4 <shift+0xe861c4>
    149c:	0b390b3b 	bleq	e44190 <shift+0xe44190>
    14a0:	00001301 	andeq	r1, r0, r1, lsl #6
    14a4:	4901010f 	stmdbmi	r1, {r0, r1, r2, r3, r8}
    14a8:	00130113 	andseq	r0, r3, r3, lsl r1
    14ac:	00211000 	eoreq	r1, r1, r0
    14b0:	052f1349 	streq	r1, [pc, #-841]!	; 116f <shift+0x116f>
    14b4:	2e110000 	cdpcs	0, 1, cr0, cr1, cr0, {0}
    14b8:	03193f00 	tsteq	r9, #0, 30
    14bc:	3b0b3a0e 	blcc	2cfcfc <shift+0x2cfcfc>
    14c0:	270b390b 	strcs	r3, [fp, -fp, lsl #18]
    14c4:	3c134919 			; <UNDEFINED> instruction: 0x3c134919
    14c8:	12000019 	andne	r0, r0, #25
    14cc:	193f012e 	ldmdbne	pc!, {r1, r2, r3, r5, r8}	; <UNPREDICTABLE>
    14d0:	0b3a0e03 	bleq	e84ce4 <shift+0xe84ce4>
    14d4:	0b390b3b 	bleq	e441c8 <shift+0xe441c8>
    14d8:	193c1927 	ldmdbne	ip!, {r0, r1, r2, r5, r8, fp, ip}
    14dc:	00001301 	andeq	r1, r0, r1, lsl #6
    14e0:	3f012e13 	svccc	0x00012e13
    14e4:	3a0e0319 	bcc	382150 <shift+0x382150>
    14e8:	390b3b0b 	stmdbcc	fp, {r0, r1, r3, r8, r9, fp, ip, sp}
    14ec:	4919270b 	ldmdbmi	r9, {r0, r1, r3, r8, r9, sl, sp}
    14f0:	12011113 	andne	r1, r1, #-1073741820	; 0xc0000004
    14f4:	7c184006 	ldcvc	0, cr4, [r8], {6}
    14f8:	00130119 	andseq	r0, r3, r9, lsl r1
    14fc:	012e1400 			; <UNDEFINED> instruction: 0x012e1400
    1500:	0e03193f 			; <UNDEFINED> instruction: 0x0e03193f
    1504:	0b3b0b3a 	bleq	ec41f4 <shift+0xec41f4>
    1508:	19270b39 	stmdbne	r7!, {r0, r3, r4, r5, r8, r9, fp}
    150c:	01111349 	tsteq	r1, r9, asr #6
    1510:	18400612 	stmdane	r0, {r1, r4, r9, sl}^
    1514:	0000197c 	andeq	r1, r0, ip, ror r9
    1518:	00050100 	andeq	r0, r5, r0, lsl #2
    151c:	213a0803 	teqcs	sl, r3, lsl #16
    1520:	39053b02 	stmdbcc	r5, {r1, r8, r9, fp, ip, sp}
    1524:	0213490b 	andseq	r4, r3, #180224	; 0x2c000
    1528:	02000018 	andeq	r0, r0, #24
    152c:	08030005 	stmdaeq	r3, {r0, r2}
    1530:	0b3b0b3a 	bleq	ec4220 <shift+0xec4220>
    1534:	13490b39 	movtne	r0, #39737	; 0x9b39
    1538:	00001802 	andeq	r1, r0, r2, lsl #16
    153c:	03003403 	movweq	r3, #1027	; 0x403
    1540:	02213a08 	eoreq	r3, r1, #8, 20	; 0x8000
    1544:	0b39053b 	bleq	e42a38 <shift+0xe42a38>
    1548:	18021349 	stmdane	r2, {r0, r3, r6, r8, r9, ip}
    154c:	05040000 	streq	r0, [r4, #-0]
    1550:	3a0e0300 	bcc	382158 <shift+0x382158>
    1554:	053b0221 	ldreq	r0, [fp, #-545]!	; 0xfffffddf
    1558:	13490b39 	movtne	r0, #39737	; 0x9b39
    155c:	00001802 	andeq	r1, r0, r2, lsl #16
    1560:	3f012e05 	svccc	0x00012e05
    1564:	3a0e0319 	bcc	3821d0 <shift+0x3821d0>
    1568:	0b3b0221 	bleq	ec1df4 <shift+0xec1df4>
    156c:	19270b39 	stmdbne	r7!, {r0, r3, r4, r5, r8, r9, fp}
    1570:	01111349 	tsteq	r1, r9, asr #6
    1574:	18400612 	stmdane	r0, {r1, r4, r9, sl}^
    1578:	1301197a 	movwne	r1, #6522	; 0x197a
    157c:	05060000 	streq	r0, [r6, #-0]
    1580:	3a0e0300 	bcc	382188 <shift+0x382188>
    1584:	0b3b0221 	bleq	ec1e10 <shift+0xec1e10>
    1588:	13490b39 	movtne	r0, #39737	; 0x9b39
    158c:	00001802 	andeq	r1, r0, r2, lsl #16
    1590:	03003407 	movweq	r3, #1031	; 0x407
    1594:	02213a08 	eoreq	r3, r1, #8, 20	; 0x8000
    1598:	0b390b3b 	bleq	e4428c <shift+0xe4428c>
    159c:	18021349 	stmdane	r2, {r0, r3, r6, r8, r9, ip}
    15a0:	2e080000 	cdpcs	0, 0, cr0, cr8, cr0, {0}
    15a4:	03193f01 	tsteq	r9, #1, 30
    15a8:	02213a0e 	eoreq	r3, r1, #57344	; 0xe000
    15ac:	0b39053b 	bleq	e42aa0 <shift+0xe42aa0>
    15b0:	13491927 	movtne	r1, #39207	; 0x9927
    15b4:	06120111 			; <UNDEFINED> instruction: 0x06120111
    15b8:	197a1840 	ldmdbne	sl!, {r6, fp, ip}^
    15bc:	00001301 	andeq	r1, r0, r1, lsl #6
    15c0:	0b000f09 	bleq	51ec <shift+0x51ec>
    15c4:	13490421 	movtne	r0, #37921	; 0x9421
    15c8:	340a0000 	strcc	r0, [sl], #-0
    15cc:	3a0e0300 	bcc	3821d4 <shift+0x3821d4>
    15d0:	053b0221 	ldreq	r0, [fp, #-545]!	; 0xfffffddf
    15d4:	13490b39 	movtne	r0, #39737	; 0x9b39
    15d8:	00001802 	andeq	r1, r0, r2, lsl #16
    15dc:	0b00240b 	bleq	a610 <shift+0xa610>
    15e0:	030b3e0b 	movweq	r3, #48651	; 0xbe0b
    15e4:	0c00000e 	stceq	0, cr0, [r0], {14}
    15e8:	193f012e 	ldmdbne	pc!, {r1, r2, r3, r5, r8}	; <UNPREDICTABLE>
    15ec:	213a0e03 	teqcs	sl, r3, lsl #28
    15f0:	39053b02 	stmdbcc	r5, {r1, r8, r9, fp, ip, sp}
    15f4:	19270821 	stmdbne	r7!, {r0, r5, fp}
    15f8:	01111349 	tsteq	r1, r9, asr #6
    15fc:	18400612 	stmdane	r0, {r1, r4, r9, sl}^
    1600:	1301197c 	movwne	r1, #6524	; 0x197c
    1604:	260d0000 	strcs	r0, [sp], -r0
    1608:	00134900 	andseq	r4, r3, r0, lsl #18
    160c:	00340e00 	eorseq	r0, r4, r0, lsl #28
    1610:	0b3a0e03 	bleq	e84e24 <shift+0xe84e24>
    1614:	0b390b3b 	bleq	e44308 <shift+0xe44308>
    1618:	193f1349 	ldmdbne	pc!, {r0, r3, r6, r8, r9, ip}	; <UNPREDICTABLE>
    161c:	0000193c 	andeq	r1, r0, ip, lsr r9
    1620:	3f012e0f 	svccc	0x00012e0f
    1624:	3a0e0319 	bcc	382290 <shift+0x382290>
    1628:	0b3b0221 	bleq	ec1eb4 <shift+0xec1eb4>
    162c:	19270b39 	stmdbne	r7!, {r0, r3, r4, r5, r8, r9, fp}
    1630:	01111349 	tsteq	r1, r9, asr #6
    1634:	18400612 	stmdane	r0, {r1, r4, r9, sl}^
    1638:	1301197c 	movwne	r1, #6524	; 0x197c
    163c:	34100000 	ldrcc	r0, [r0], #-0
    1640:	3a0e0300 	bcc	382248 <shift+0x382248>
    1644:	0b3b0221 	bleq	ec1ed0 <shift+0xec1ed0>
    1648:	49172139 	ldmdbmi	r7, {r0, r3, r4, r5, r8, sp}
    164c:	00180213 	andseq	r0, r8, r3, lsl r2
    1650:	01111100 	tsteq	r1, r0, lsl #2
    1654:	0b130e25 	bleq	4c4ef0 <shift+0x4c4ef0>
    1658:	0e1b0e03 	cdpeq	14, 1, cr0, cr11, cr3, {0}
    165c:	06120111 			; <UNDEFINED> instruction: 0x06120111
    1660:	00001710 	andeq	r1, r0, r0, lsl r7
    1664:	49010112 	stmdbmi	r1, {r1, r4, r8}
    1668:	00130113 	andseq	r0, r3, r3, lsl r1
    166c:	00211300 	eoreq	r1, r1, r0, lsl #6
    1670:	16140000 	ldrne	r0, [r4], -r0
    1674:	3a0e0300 	bcc	38227c <shift+0x38227c>
    1678:	390b3b0b 	stmdbcc	fp, {r0, r1, r3, r8, r9, fp, ip, sp}
    167c:	0013490b 	andseq	r4, r3, fp, lsl #18
    1680:	00341500 	eorseq	r1, r4, r0, lsl #10
    1684:	0b3a1347 	bleq	e863a8 <shift+0xe863a8>
    1688:	0b390b3b 	bleq	e4437c <shift+0xe4437c>
    168c:	00001802 	andeq	r1, r0, r2, lsl #16
    1690:	0b000f16 	bleq	52f0 <shift+0x52f0>
    1694:	1700000b 	strne	r0, [r0, -fp]
    1698:	00000026 	andeq	r0, r0, r6, lsr #32
    169c:	0b002418 	bleq	a704 <shift+0xa704>
    16a0:	030b3e0b 	movweq	r3, #48651	; 0xbe0b
    16a4:	19000008 	stmdbne	r0, {r3}
    16a8:	193f012e 	ldmdbne	pc!, {r1, r2, r3, r5, r8}	; <UNPREDICTABLE>
    16ac:	0b3a0e03 	bleq	e84ec0 <shift+0xe84ec0>
    16b0:	0b39053b 	bleq	e42ba4 <shift+0xe42ba4>
    16b4:	01111927 	tsteq	r1, r7, lsr #18
    16b8:	18400612 	stmdane	r0, {r1, r4, r9, sl}^
    16bc:	1301197a 	movwne	r1, #6522	; 0x197a
    16c0:	2e1a0000 	cdpcs	0, 1, cr0, cr10, cr0, {0}
    16c4:	3a0e0301 	bcc	3822d0 <shift+0x3822d0>
    16c8:	390b3b0b 	stmdbcc	fp, {r0, r1, r3, r8, r9, fp, ip, sp}
    16cc:	4919270b 	ldmdbmi	r9, {r0, r1, r3, r8, r9, sl, sp}
    16d0:	12011113 	andne	r1, r1, #-1073741820	; 0xc0000004
    16d4:	7a184006 	bvc	6116f4 <shift+0x6116f4>
    16d8:	00000019 	andeq	r0, r0, r9, lsl r0
    16dc:	03003401 	movweq	r3, #1025	; 0x401
    16e0:	02213a08 	eoreq	r3, r1, #8, 20	; 0x8000
    16e4:	0b39053b 	bleq	e42bd8 <shift+0xe42bd8>
    16e8:	18021349 	stmdane	r2, {r0, r3, r6, r8, r9, ip}
    16ec:	34020000 	strcc	r0, [r2], #-0
    16f0:	3a0e0300 	bcc	3822f8 <shift+0x3822f8>
    16f4:	053b0221 	ldreq	r0, [fp, #-545]!	; 0xfffffddf
    16f8:	13490b39 	movtne	r0, #39737	; 0x9b39
    16fc:	00001802 	andeq	r1, r0, r2, lsl #16
    1700:	03000503 	movweq	r0, #1283	; 0x503
    1704:	02213a08 	eoreq	r3, r1, #8, 20	; 0x8000
    1708:	0b39053b 	bleq	e42bfc <shift+0xe42bfc>
    170c:	18021349 	stmdane	r2, {r0, r3, r6, r8, r9, ip}
    1710:	0b040000 	bleq	101718 <shift+0x101718>
    1714:	12011101 	andne	r1, r1, #1073741824	; 0x40000000
    1718:	00130106 	andseq	r0, r3, r6, lsl #2
    171c:	000f0500 	andeq	r0, pc, r0, lsl #10
    1720:	4904210b 	stmdbmi	r4, {r0, r1, r3, r8, sp}
    1724:	06000013 			; <UNDEFINED> instruction: 0x06000013
    1728:	08030005 	stmdaeq	r3, {r0, r2}
    172c:	0b3b0b3a 	bleq	ec441c <shift+0xec441c>
    1730:	13490b39 	movtne	r0, #39737	; 0x9b39
    1734:	00001802 	andeq	r1, r0, r2, lsl #16
    1738:	03000507 	movweq	r0, #1287	; 0x507
    173c:	02213a0e 	eoreq	r3, r1, #57344	; 0xe000
    1740:	0b390b3b 	bleq	e44434 <shift+0xe44434>
    1744:	18021349 	stmdane	r2, {r0, r3, r6, r8, r9, ip}
    1748:	24080000 	strcs	r0, [r8], #-0
    174c:	3e0b0b00 	vmlacc.f64	d0, d11, d0
    1750:	000e030b 	andeq	r0, lr, fp, lsl #6
    1754:	00340900 	eorseq	r0, r4, r0, lsl #18
    1758:	213a0803 	teqcs	sl, r3, lsl #16
    175c:	390b3b02 	stmdbcc	fp, {r1, r8, r9, fp, ip, sp}
    1760:	0213490b 	andseq	r4, r3, #180224	; 0x2c000
    1764:	0a000018 	beq	17cc <shift+0x17cc>
    1768:	193f012e 	ldmdbne	pc!, {r1, r2, r3, r5, r8}	; <UNPREDICTABLE>
    176c:	213a0e03 	teqcs	sl, r3, lsl #28
    1770:	39053b02 	stmdbcc	r5, {r1, r8, r9, fp, ip, sp}
    1774:	19270521 	stmdbne	r7!, {r0, r5, r8, sl}
    1778:	01111349 	tsteq	r1, r9, asr #6
    177c:	18400612 	stmdane	r0, {r1, r4, r9, sl}^
    1780:	1301197c 	movwne	r1, #6524	; 0x197c
    1784:	050b0000 	streq	r0, [fp, #-0]
    1788:	3a0e0300 	bcc	382390 <shift+0x382390>
    178c:	053b0221 	ldreq	r0, [fp, #-545]!	; 0xfffffddf
    1790:	13490b39 	movtne	r0, #39737	; 0x9b39
    1794:	00001802 	andeq	r1, r0, r2, lsl #16
    1798:	0300340c 	movweq	r3, #1036	; 0x40c
    179c:	02213a0e 	eoreq	r3, r1, #57344	; 0xe000
    17a0:	0b390b3b 	bleq	e44494 <shift+0xe44494>
    17a4:	18021349 	stmdane	r2, {r0, r3, r6, r8, r9, ip}
    17a8:	0b0d0000 	bleq	3417b0 <shift+0x3417b0>
    17ac:	12011101 	andne	r1, r1, #1073741824	; 0x40000000
    17b0:	0e000006 	cdpeq	0, 0, cr0, cr0, cr6, {0}
    17b4:	13490005 	movtne	r0, #36869	; 0x9005
    17b8:	180f0000 	stmdane	pc, {}	; <UNPREDICTABLE>
    17bc:	10000000 	andne	r0, r0, r0
    17c0:	193f012e 	ldmdbne	pc!, {r1, r2, r3, r5, r8}	; <UNPREDICTABLE>
    17c4:	213a0e03 	teqcs	sl, r3, lsl #28
    17c8:	390b3b02 	stmdbcc	fp, {r1, r8, r9, fp, ip, sp}
    17cc:	4919270b 	ldmdbmi	r9, {r0, r1, r3, r8, r9, sl, sp}
    17d0:	12011113 	andne	r1, r1, #-1073741820	; 0xc0000004
    17d4:	7c184006 	ldcvc	0, cr4, [r8], {6}
    17d8:	00130119 	andseq	r0, r3, r9, lsl r1
    17dc:	00161100 	andseq	r1, r6, r0, lsl #2
    17e0:	0b3a0e03 	bleq	e84ff4 <shift+0xe84ff4>
    17e4:	0b390b3b 	bleq	e444d8 <shift+0xe444d8>
    17e8:	00001349 	andeq	r1, r0, r9, asr #6
    17ec:	49010112 	stmdbmi	r1, {r1, r4, r8}
    17f0:	00130113 	andseq	r0, r3, r3, lsl r1
    17f4:	012e1300 			; <UNDEFINED> instruction: 0x012e1300
    17f8:	213a0e03 	teqcs	sl, r3, lsl #28
    17fc:	390b3b02 	stmdbcc	fp, {r1, r8, r9, fp, ip, sp}
    1800:	4919270b 	ldmdbmi	r9, {r0, r1, r3, r8, r9, sl, sp}
    1804:	12011113 	andne	r1, r1, #-1073741820	; 0xc0000004
    1808:	7a184006 	bvc	611828 <shift+0x611828>
    180c:	00130119 	andseq	r0, r3, r9, lsl r1
    1810:	00261400 	eoreq	r1, r6, r0, lsl #8
    1814:	00001349 	andeq	r1, r0, r9, asr #6
    1818:	3f012e15 	svccc	0x00012e15
    181c:	3a0e0319 	bcc	382488 <shift+0x382488>
    1820:	390b3b0b 	stmdbcc	fp, {r0, r1, r3, r8, r9, fp, ip, sp}
    1824:	4919270b 	ldmdbmi	r9, {r0, r1, r3, r8, r9, sl, sp}
    1828:	01193c13 	tsteq	r9, r3, lsl ip
    182c:	16000013 			; <UNDEFINED> instruction: 0x16000013
    1830:	0e03012e 	adfeqsp	f0, f3, #0.5
    1834:	3b02213a 	blcc	89d24 <shift+0x89d24>
    1838:	0e21390b 	vmuleq.f16	s6, s2, s22	; <UNPREDICTABLE>
    183c:	13491927 	movtne	r1, #39207	; 0x9927
    1840:	06120111 			; <UNDEFINED> instruction: 0x06120111
    1844:	197c1840 	ldmdbne	ip!, {r6, fp, ip}^
    1848:	00001301 	andeq	r1, r0, r1, lsl #6
    184c:	49002117 	stmdbmi	r0, {r0, r1, r2, r4, r8, sp}
    1850:	000b2f13 	andeq	r2, fp, r3, lsl pc
    1854:	01111800 	tsteq	r1, r0, lsl #16
    1858:	0b130e25 	bleq	4c50f4 <shift+0x4c50f4>
    185c:	0e1b0e03 	cdpeq	14, 1, cr0, cr11, cr3, {0}
    1860:	06120111 			; <UNDEFINED> instruction: 0x06120111
    1864:	00001710 	andeq	r1, r0, r0, lsl r7
    1868:	00002119 	andeq	r2, r0, r9, lsl r1
    186c:	00341a00 	eorseq	r1, r4, r0, lsl #20
    1870:	0b3a0e03 	bleq	e85084 <shift+0xe85084>
    1874:	0b390b3b 	bleq	e44568 <shift+0xe44568>
    1878:	193f1349 	ldmdbne	pc!, {r0, r3, r6, r8, r9, ip}	; <UNPREDICTABLE>
    187c:	0000193c 	andeq	r1, r0, ip, lsr r9
    1880:	0b00241b 	bleq	a8f4 <shift+0xa8f4>
    1884:	030b3e0b 	movweq	r3, #48651	; 0xbe0b
    1888:	1c000008 	stcne	0, cr0, [r0], {8}
    188c:	0e03000a 	cdpeq	0, 0, cr0, cr3, cr10, {0}
    1890:	053b0b3a 	ldreq	r0, [fp, #-2874]!	; 0xfffff4c6
    1894:	01110b39 	tsteq	r1, r9, lsr fp
    1898:	2e1d0000 	cdpcs	0, 1, cr0, cr13, cr0, {0}
    189c:	3a0e0301 	bcc	3824a8 <shift+0x3824a8>
    18a0:	390b3b0b 	stmdbcc	fp, {r0, r1, r3, r8, r9, fp, ip, sp}
    18a4:	4919270b 	ldmdbmi	r9, {r0, r1, r3, r8, r9, sl, sp}
    18a8:	12011113 	andne	r1, r1, #-1073741820	; 0xc0000004
    18ac:	7a184006 	bvc	6118cc <shift+0x6118cc>
    18b0:	00000019 	andeq	r0, r0, r9, lsl r0
    18b4:	10001101 	andne	r1, r0, r1, lsl #2
    18b8:	12011106 	andne	r1, r1, #-2147483647	; 0x80000001
    18bc:	1b080301 	blne	2024c8 <shift+0x2024c8>
    18c0:	13082508 	movwne	r2, #34056	; 0x8508
    18c4:	00000005 	andeq	r0, r0, r5
    18c8:	10001101 	andne	r1, r0, r1, lsl #2
    18cc:	12011106 	andne	r1, r1, #-2147483647	; 0x80000001
    18d0:	1b080301 	blne	2024dc <shift+0x2024dc>
    18d4:	13082508 	movwne	r2, #34056	; 0x8508
    18d8:	00000005 	andeq	r0, r0, r5
    18dc:	10001101 	andne	r1, r0, r1, lsl #2
    18e0:	12011106 	andne	r1, r1, #-2147483647	; 0x80000001
    18e4:	1b080301 	blne	2024f0 <shift+0x2024f0>
    18e8:	13082508 	movwne	r2, #34056	; 0x8508
    18ec:	00000005 	andeq	r0, r0, r5
    18f0:	25011101 	strcs	r1, [r1, #-257]	; 0xfffffeff
    18f4:	030b130e 	movweq	r1, #45838	; 0xb30e
    18f8:	110e1b0e 	tstne	lr, lr, lsl #22
    18fc:	10061201 	andne	r1, r6, r1, lsl #4
    1900:	02000017 	andeq	r0, r0, #23
    1904:	0b0b0024 	bleq	2c199c <shift+0x2c199c>
    1908:	0e030b3e 	vmoveq.16	d3[0], r0
    190c:	24030000 	strcs	r0, [r3], #-0
    1910:	3e0b0b00 	vmlacc.f64	d0, d11, d0
    1914:	0008030b 	andeq	r0, r8, fp, lsl #6
    1918:	00160400 	andseq	r0, r6, r0, lsl #8
    191c:	0b3a0e03 	bleq	e85130 <shift+0xe85130>
    1920:	13490b3b 	movtne	r0, #39739	; 0x9b3b
    1924:	2e050000 	cdpcs	0, 0, cr0, cr5, cr0, {0}
    1928:	03193f01 	tsteq	r9, #1, 30
    192c:	3b0b3a0e 	blcc	2d016c <shift+0x2d016c>
    1930:	49192705 	ldmdbmi	r9, {r0, r2, r8, r9, sl, sp}
    1934:	12011113 	andne	r1, r1, #-1073741820	; 0xc0000004
    1938:	97184006 	ldrls	r4, [r8, -r6]
    193c:	13011942 	movwne	r1, #6466	; 0x1942
    1940:	05060000 	streq	r0, [r6, #-0]
    1944:	3a080300 	bcc	20254c <shift+0x20254c>
    1948:	49053b0b 	stmdbmi	r5, {r0, r1, r3, r8, r9, fp, ip, sp}
    194c:	00170213 	andseq	r0, r7, r3, lsl r2
    1950:	00340700 	eorseq	r0, r4, r0, lsl #14
    1954:	0b3a0803 	bleq	e83968 <shift+0xe83968>
    1958:	1349053b 	movtne	r0, #38203	; 0x953b
    195c:	00001702 	andeq	r1, r0, r2, lsl #14
    1960:	0b000f08 	bleq	5588 <shift+0x5588>
    1964:	0013490b 	andseq	r4, r3, fp, lsl #18
	...

Disassembly of section .debug_aranges:

00000000 <.debug_aranges>:
   0:	0000001c 	andeq	r0, r0, ip, lsl r0
   4:	00000002 	andeq	r0, r0, r2
   8:	00040000 	andeq	r0, r4, r0
   c:	00000000 	andeq	r0, r0, r0
  10:	80000000 	andhi	r0, r0, r0
  14:	00000178 	andeq	r0, r0, r8, ror r1
	...
  20:	0000001c 	andeq	r0, r0, ip, lsl r0
  24:	00250002 	eoreq	r0, r5, r2
  28:	00040000 	andeq	r0, r4, r0
  2c:	00000000 	andeq	r0, r0, r0
  30:	80000180 	andhi	r0, r0, r0, lsl #3
  34:	000001a0 	andeq	r0, r0, r0, lsr #3
	...
  40:	0000001c 	andeq	r0, r0, ip, lsl r0
  44:	004a0002 	subeq	r0, sl, r2
  48:	00040000 	andeq	r0, r4, r0
  4c:	00000000 	andeq	r0, r0, r0
  50:	80000320 	andhi	r0, r0, r0, lsr #6
  54:	00000040 	andeq	r0, r0, r0, asr #32
	...
  60:	0000001c 	andeq	r0, r0, ip, lsl r0
  64:	01400002 	cmpeq	r0, r2
  68:	00040000 	andeq	r0, r4, r0
  6c:	00000000 	andeq	r0, r0, r0
  70:	80000360 	andhi	r0, r0, r0, ror #6
  74:	00000242 	andeq	r0, r0, r2, asr #4
	...
  80:	0000001c 	andeq	r0, r0, ip, lsl r0
  84:	07730002 	ldrbeq	r0, [r3, -r2]!
  88:	00040000 	andeq	r0, r4, r0
  8c:	00000000 	andeq	r0, r0, r0
  90:	800005a2 	andhi	r0, r0, r2, lsr #11
  94:	00000172 	andeq	r0, r0, r2, ror r1
	...
  a0:	0000001c 	andeq	r0, r0, ip, lsl r0
  a4:	09f30002 	ldmibeq	r3!, {r1}^
  a8:	00040000 	andeq	r0, r4, r0
  ac:	00000000 	andeq	r0, r0, r0
  b0:	80000714 	andhi	r0, r0, r4, lsl r7
  b4:	00000298 	muleq	r0, r8, r2
	...
  c0:	0000001c 	andeq	r0, r0, ip, lsl r0
  c4:	15850002 	strne	r0, [r5, #2]
  c8:	00040000 	andeq	r0, r4, r0
  cc:	00000000 	andeq	r0, r0, r0
  d0:	800009ac 	andhi	r0, r0, ip, lsr #19
  d4:	0000012c 	andeq	r0, r0, ip, lsr #2
	...
  e0:	0000001c 	andeq	r0, r0, ip, lsl r0
  e4:	17990002 	ldrne	r0, [r9, r2]
  e8:	00040000 	andeq	r0, r4, r0
  ec:	00000000 	andeq	r0, r0, r0
  f0:	80000ad8 	ldrdhi	r0, [r0], -r8
  f4:	00000274 	andeq	r0, r0, r4, ror r2
	...
 100:	0000001c 	andeq	r0, r0, ip, lsl r0
 104:	1b280002 	blne	a00114 <shift+0xa00114>
 108:	00040000 	andeq	r0, r4, r0
 10c:	00000000 	andeq	r0, r0, r0
 110:	80000d4c 	andhi	r0, r0, ip, asr #26
 114:	00000150 	andeq	r0, r0, r0, asr r1
	...
 120:	0000001c 	andeq	r0, r0, ip, lsl r0
 124:	1e940002 	cdpne	0, 9, cr0, cr4, cr2, {0}
 128:	00040000 	andeq	r0, r4, r0
 12c:	00000000 	andeq	r0, r0, r0
 130:	80000e9c 	mulhi	r0, ip, lr
 134:	000001b0 			; <UNDEFINED> instruction: 0x000001b0
	...
 140:	0000001c 	andeq	r0, r0, ip, lsl r0
 144:	2b100002 	blcs	400154 <shift+0x400154>
 148:	00040000 	andeq	r0, r4, r0
 14c:	00000000 	andeq	r0, r0, r0
 150:	8000104c 	andhi	r1, r0, ip, asr #32
 154:	0000012e 	andeq	r0, r0, lr, lsr #2
	...
 160:	0000001c 	andeq	r0, r0, ip, lsl r0
 164:	371a0002 	ldrcc	r0, [sl, -r2]
 168:	00040000 	andeq	r0, r4, r0
 16c:	00000000 	andeq	r0, r0, r0
 170:	8000117c 	andhi	r1, r0, ip, ror r1
 174:	000000ee 	andeq	r0, r0, lr, ror #1
	...
 180:	0000001c 	andeq	r0, r0, ip, lsl r0
 184:	41a00002 	movmi	r0, r2
 188:	00040000 	andeq	r0, r4, r0
 18c:	00000000 	andeq	r0, r0, r0
 190:	8000126c 	andhi	r1, r0, ip, ror #4
 194:	00000626 	andeq	r0, r0, r6, lsr #12
	...
 1a0:	00000014 	andeq	r0, r0, r4, lsl r0
 1a4:	46460002 	strbmi	r0, [r6], -r2
 1a8:	00040000 	andeq	r0, r4, r0
	...
 1b8:	0000001c 	andeq	r0, r0, ip, lsl r0
 1bc:	46ac0002 	strtmi	r0, [ip], r2
 1c0:	00040000 	andeq	r0, r4, r0
 1c4:	00000000 	andeq	r0, r0, r0
 1c8:	80001894 	mulhi	r0, r4, r8
 1cc:	0000017a 	andeq	r0, r0, sl, ror r1
	...
 1d8:	0000001c 	andeq	r0, r0, ip, lsl r0
 1dc:	47620002 	strbmi	r0, [r2, -r2]!
 1e0:	00040000 	andeq	r0, r4, r0
 1e4:	00000000 	andeq	r0, r0, r0
 1e8:	80001a0e 	andhi	r1, r0, lr, lsl #20
 1ec:	0000008a 	andeq	r0, r0, sl, lsl #1
	...
 1f8:	0000001c 	andeq	r0, r0, ip, lsl r0
 1fc:	48ad0002 	stmiami	sp!, {r1}
 200:	00040000 	andeq	r0, r4, r0
 204:	00000000 	andeq	r0, r0, r0
 208:	80001a98 	mulhi	r0, r8, sl
 20c:	000000e8 	andeq	r0, r0, r8, ror #1
	...
 218:	0000001c 	andeq	r0, r0, ip, lsl r0
 21c:	4c0c0002 	stcmi	0, cr0, [ip], {2}
 220:	00040000 	andeq	r0, r4, r0
 224:	00000000 	andeq	r0, r0, r0
 228:	80001b80 	andhi	r1, r0, r0, lsl #23
 22c:	0000072e 	andeq	r0, r0, lr, lsr #14
	...
 238:	0000001c 	andeq	r0, r0, ip, lsl r0
 23c:	542a0002 	strtpl	r0, [sl], #-2
 240:	00040000 	andeq	r0, r4, r0
 244:	00000000 	andeq	r0, r0, r0
 248:	800022b0 			; <UNDEFINED> instruction: 0x800022b0
 24c:	0000191a 	andeq	r1, r0, sl, lsl r9
	...
 258:	0000001c 	andeq	r0, r0, ip, lsl r0
 25c:	5f590002 	svcpl	0x00590002
 260:	00040000 	andeq	r0, r4, r0
 264:	00000000 	andeq	r0, r0, r0
 268:	80003bd0 	ldrdhi	r3, [r0], -r0
 26c:	00000276 	andeq	r0, r0, r6, ror r2
	...
 278:	0000001c 	andeq	r0, r0, ip, lsl r0
 27c:	61180002 	tstvs	r8, r2
 280:	00040000 	andeq	r0, r4, r0
 284:	00000000 	andeq	r0, r0, r0
 288:	80003e48 	andhi	r3, r0, r8, asr #28
 28c:	00000030 	andeq	r0, r0, r0, lsr r0
	...
 298:	0000001c 	andeq	r0, r0, ip, lsl r0
 29c:	62d30002 	sbcsvs	r0, r3, #2
 2a0:	00040000 	andeq	r0, r4, r0
 2a4:	00000000 	andeq	r0, r0, r0
 2a8:	80003e78 	andhi	r3, r0, r8, ror lr
 2ac:	0000000c 	andeq	r0, r0, ip
	...
 2b8:	0000001c 	andeq	r0, r0, ip, lsl r0
 2bc:	64920002 	ldrvs	r0, [r2], #2
 2c0:	00040000 	andeq	r0, r4, r0
 2c4:	00000000 	andeq	r0, r0, r0
 2c8:	80003e84 	andhi	r3, r0, r4, lsl #29
 2cc:	00000116 	andeq	r0, r0, r6, lsl r1
	...

Disassembly of section .debug_str:

00000000 <.debug_str>:
       0:	6a6f7270 	bvs	1bdc9c8 <shift+0x1bdc9c8>
       4:	2f746365 	svccs	0x00746365
       8:	72617473 	rsbvc	r7, r1, #1929379840	; 0x73000000
       c:	00532e74 	subseq	r2, r3, r4, ror lr
      10:	6d6f682f 	stclvs	8, cr6, [pc, #-188]!	; ffffff5c <__bss_end+0x7fffb13c>
      14:	69782f65 	ldmdbvs	r8!, {r0, r2, r5, r6, r8, r9, sl, fp, sp}^
      18:	6f632f75 	svcvs	0x00632f75
      1c:	692f6564 	stmdbvs	pc!, {r2, r5, r6, r8, sl, sp, lr}	; <UNPREDICTABLE>
      20:	7536786d 	ldrvc	r7, [r6, #-2157]!	; 0xfffff793
      24:	61622f6c 	cmnvs	r2, ip, ror #30
      28:	47006572 	smlsdxmi	r0, r2, r5, r6
      2c:	4120554e 			; <UNDEFINED> instruction: 0x4120554e
      30:	2e322053 	mrccs	0, 1, r2, cr2, cr3, {2}
      34:	73003833 	movwvc	r3, #2099	; 0x833
      38:	6f696474 	svcvs	0x00696474
      3c:	62696c2f 	rsbvs	r6, r9, #12032	; 0x2f00
      40:	62696c2f 	rsbvs	r6, r9, #12032	; 0x2f00
      44:	6e756631 	mrcvs	6, 3, r6, cr5, cr1, {1}
      48:	532e7363 			; <UNDEFINED> instruction: 0x532e7363
      4c:	6e6f6c00 	cdpvs	12, 6, cr6, cr15, cr0, {0}
      50:	6f6c2067 	svcvs	0x006c2067
      54:	6920676e 	stmdbvs	r0!, {r1, r2, r3, r5, r6, r8, r9, sl, sp, lr}
      58:	7000746e 	andvc	r7, r0, lr, ror #8
      5c:	656a6f72 	strbvs	r6, [sl, #-3954]!	; 0xfffff08e
      60:	6d2f7463 	cfstrsvs	mvf7, [pc, #-396]!	; fffffedc <__bss_end+0x7fffb0bc>
      64:	2e6e6961 	vnmulcs.f16	s13, s28, s3	; <UNPREDICTABLE>
      68:	616d0063 	cmnvs	sp, r3, rrx
      6c:	65006e69 	strvs	r6, [r0, #-3689]	; 0xfffff197
      70:	31746970 	cmncc	r4, r0, ror r9
      74:	696e695f 	stmdbvs	lr!, {r0, r1, r2, r3, r4, r6, r8, fp, sp, lr}^
      78:	65640074 	strbvs	r0, [r4, #-116]!	; 0xffffff8c
      7c:	5f79616c 	svcpl	0x0079616c
      80:	74696e69 	strbtvc	r6, [r9], #-3689	; 0xfffff197
      84:	746e6900 	strbtvc	r6, [lr], #-2304	; 0xfffff700
      88:	696e695f 	stmdbvs	lr!, {r0, r1, r2, r3, r4, r6, r8, fp, sp, lr}^
      8c:	69690074 	stmdbvs	r9!, {r2, r4, r5, r6}^
      90:	7536786d 	ldrvc	r7, [r6, #-2157]!	; 0xfffff793
      94:	6c635f6c 	stclvs	15, cr5, [r3], #-432	; 0xfffffe50
      98:	6e695f6b 	cdpvs	15, 6, cr5, cr9, cr11, {3}
      9c:	75007469 	strvc	r7, [r0, #-1129]	; 0xfffffb97
      a0:	6769736e 	strbvs	r7, [r9, -lr, ror #6]!
      a4:	2064656e 	rsbcs	r6, r4, lr, ror #10
      a8:	72616863 	rsbvc	r6, r1, #6488064	; 0x630000
      ac:	72617500 	rsbvc	r7, r1, #0, 10
      b0:	6e695f74 	mcrvs	15, 3, r5, cr9, cr4, {3}
      b4:	6c007469 	cfstrsvs	mvf7, [r0], {105}	; 0x69
      b8:	20676e6f 	rsbcs	r6, r7, pc, ror #28
      bc:	676e6f6c 	strbvs	r6, [lr, -ip, ror #30]!
      c0:	736e7520 	cmnvc	lr, #32, 10	; 0x8000000
      c4:	656e6769 	strbvs	r6, [lr, #-1897]!	; 0xfffff897
      c8:	6e692064 	cdpvs	0, 6, cr2, cr9, cr4, {3}
      cc:	68730074 	ldmdavs	r3!, {r2, r4, r5, r6}^
      d0:	2074726f 	rsbscs	r7, r4, pc, ror #4
      d4:	69736e75 	ldmdbvs	r3!, {r0, r2, r4, r5, r6, r9, sl, fp, sp, lr}^
      d8:	64656e67 	strbtvs	r6, [r5], #-3687	; 0xfffff199
      dc:	746e6920 	strbtvc	r6, [lr], #-2336	; 0xfffff6e0
      e0:	6c656400 	cfstrdvs	mvd6, [r5], #-0
      e4:	736d7961 	cmnvc	sp, #1589248	; 0x184000
      e8:	554e4700 	strbpl	r4, [lr, #-1792]	; 0xfffff900
      ec:	37314320 	ldrcc	r4, [r1, -r0, lsr #6]!
      f0:	2e313120 	rsfcssp	f3, f1, f0
      f4:	20302e34 	eorscs	r2, r0, r4, lsr lr
      f8:	6c666d2d 	stclvs	13, cr6, [r6], #-180	; 0xffffff4c
      fc:	2d74616f 	ldfcse	f6, [r4, #-444]!	; 0xfffffe44
     100:	3d696261 	sfmcc	f6, 2, [r9, #-388]!	; 0xfffffe7c
     104:	64726168 	ldrbtvs	r6, [r2], #-360	; 0xfffffe98
     108:	746d2d20 	strbtvc	r2, [sp], #-3360	; 0xfffff2e0
     10c:	642d736c 	strtvs	r7, [sp], #-876	; 0xfffffc94
     110:	656c6169 	strbvs	r6, [ip, #-361]!	; 0xfffffe97
     114:	673d7463 	ldrvs	r7, [sp, -r3, ror #8]!
     118:	2d20756e 	cfstr32cs	mvfx7, [r0, #-440]!	; 0xfffffe48
     11c:	7568746d 	strbvc	r7, [r8, #-1133]!	; 0xfffffb93
     120:	2d20626d 	sfmcs	f6, 4, [r0, #-436]!	; 0xfffffe4c
     124:	6372616d 	cmnvs	r2, #1073741851	; 0x4000001b
     128:	72613d68 	rsbvc	r3, r1, #104, 26	; 0x1a00
     12c:	2d37766d 	ldccs	6, cr7, [r7, #-436]!	; 0xfffffe4c
     130:	70662b61 	rsbvc	r2, r6, r1, ror #22
     134:	20672d20 	rsbcs	r2, r7, r0, lsr #26
     138:	6f6e662d 	svcvs	0x006e662d
     13c:	6975622d 	ldmdbvs	r5!, {r0, r2, r3, r5, r9, sp, lr}^
     140:	6e69746c 	cdpvs	4, 6, cr7, cr9, cr12, {3}
     144:	6f687300 	svcvs	0x00687300
     148:	69207472 	stmdbvs	r0!, {r1, r4, r5, r6, sl, ip, sp, lr}
     14c:	6300746e 	movwvs	r7, #1134	; 0x46e
     150:	655f6b6c 	ldrbvs	r6, [pc, #-2924]	; fffff5ec <__bss_end+0x7fffa7cc>
     154:	6c62616e 	stfvse	f6, [r2], #-440	; 0xfffffe48
     158:	4c500065 	mrrcmi	0, 6, r0, r0, cr5	; <UNPREDICTABLE>
     15c:	52415f4c 	subpl	r5, r1, #76, 30	; 0x130
     160:	4c435f4d 	mcrrmi	15, 4, r5, r3, cr13
     164:	53430052 	movtpl	r0, #12370	; 0x3052
     168:	32524d43 	subscc	r4, r2, #4288	; 0x10c0
     16c:	44465000 	strbmi	r5, [r6], #-0
     170:	3038345f 	eorscc	r3, r8, pc, asr r4
     174:	48444300 	stmdami	r4, {r8, r9, lr}^
     178:	00525049 	subseq	r5, r2, r9, asr #32
     17c:	5f4c4c50 	svcpl	0x004c4c50
     180:	49445541 	stmdbmi	r4, {r0, r6, r8, sl, ip, lr}^
     184:	4c435f4f 	mcrrmi	15, 4, r5, r3, cr15
     188:	53430052 	movtpl	r0, #12370	; 0x3052
     18c:	31524443 	cmpcc	r2, r3, asr #8
     190:	44465000 	strbmi	r5, [r6], #-0
     194:	3038345f 	eorscc	r3, r8, pc, asr r4
     198:	474f545f 	smlsldmi	r5, pc, pc, r4	; <UNPREDICTABLE>
     19c:	43534300 	cmpmi	r3, #0, 6
     1a0:	00335244 	eorseq	r5, r3, r4, asr #4
     1a4:	52534943 	subspl	r4, r3, #1097728	; 0x10c000
     1a8:	4c4c5000 	marmi	acc0, r5, ip
     1ac:	4253555f 	subsmi	r5, r3, #398458880	; 0x17c00000
     1b0:	4c435f31 	mcrrmi	15, 3, r5, r3, cr1
     1b4:	45520052 	ldrbmi	r0, [r2, #-82]	; 0xffffffae
     1b8:	56524553 			; <UNDEFINED> instruction: 0x56524553
     1bc:	375f4445 	ldrbcc	r4, [pc, -r5, asr #8]
     1c0:	4c4c5000 	marmi	acc0, r5, ip
     1c4:	454e455f 	strbmi	r4, [lr, #-1375]	; 0xfffffaa1
     1c8:	4c435f54 	mcrrmi	15, 5, r5, r3, cr4
     1cc:	4c500052 	mrrcmi	0, 5, r0, r0, cr2	; <UNPREDICTABLE>
     1d0:	59535f4c 	ldmdbpl	r3, {r2, r3, r6, r8, r9, sl, fp, ip, lr}^
     1d4:	4f545f53 	svcmi	0x00545f53
     1d8:	4c500047 	mrrcmi	0, 4, r0, r0, cr7	; <UNPREDICTABLE>
     1dc:	49565f4c 	ldmdbmi	r6, {r2, r3, r6, r8, r9, sl, fp, ip, lr}^
     1e0:	004f4544 	subeq	r4, pc, r4, asr #10
     1e4:	4353494d 	cmpmi	r3, #1261568	; 0x134000
     1e8:	45535f30 	ldrbmi	r5, [r3, #-3888]	; 0xfffff0d0
     1ec:	53430054 	movtpl	r0, #12372	; 0x3054
     1f0:	52444332 	subpl	r4, r4, #-939524096	; 0xc8000000
     1f4:	4d434300 	stclmi	3, cr4, [r3, #-0]
     1f8:	414e415f 	cmpmi	lr, pc, asr r1
     1fc:	5f474f4c 	svcpl	0x00474f4c
     200:	65707954 	ldrbvs	r7, [r0, #-2388]!	; 0xfffff6ac
     204:	53494d00 	movtpl	r4, #40192	; 0x9d00
     208:	4d003043 	stcmi	0, cr3, [r0, #-268]	; 0xfffffef4
     20c:	31435349 	cmpcc	r3, r9, asr #6
     210:	504c4300 	subpl	r4, ip, r0, lsl #6
     214:	50005243 	andpl	r5, r0, r3, asr #4
     218:	565f4c4c 	ldrbpl	r4, [pc], -ip, asr #24
     21c:	4f454449 	svcmi	0x00454449
     220:	524c435f 	subpl	r4, ip, #2080374785	; 0x7c000001
     224:	53494d00 	movtpl	r4, #40192	; 0x9d00
     228:	435f3143 	cmpmi	pc, #-1073741808	; 0xc0000010
     22c:	5000524c 	andpl	r5, r0, ip, asr #4
     230:	555f4c4c 	ldrbpl	r4, [pc, #-3148]	; fffff5ec <__bss_end+0x7fffa7cc>
     234:	5f324253 	svcpl	0x00324253
     238:	00474f54 	subeq	r4, r7, r4, asr pc
     23c:	5f4c4c50 	svcpl	0x004c4c50
     240:	5f535953 	svcpl	0x00535953
     244:	00524c43 	subseq	r4, r2, r3, asr #24
     248:	746e6975 	strbtvc	r6, [lr], #-2421	; 0xfffff68b
     24c:	00745f38 	rsbseq	r5, r4, r8, lsr pc
     250:	534f4343 	movtpl	r4, #62275	; 0xf343
     254:	46500052 			; <UNDEFINED> instruction: 0x46500052
     258:	38345f44 	ldmdacc	r4!, {r2, r6, r8, r9, sl, fp, ip, lr}
     25c:	4c435f30 	mcrrmi	15, 3, r5, r3, cr0
     260:	4c500052 	mrrcmi	0, 5, r0, r0, cr2	; <UNPREDICTABLE>
     264:	59535f4c 	ldmdbpl	r3, {r2, r3, r6, r8, r9, sl, fp, ip, lr}^
     268:	53535f53 	cmppl	r3, #332	; 0x14c
     26c:	4c4c5000 	marmi	acc0, r5, ip
     270:	4449565f 	strbmi	r5, [r9], #-1631	; 0xfffff9a1
     274:	4e5f4f45 	cdpmi	15, 5, cr4, cr15, cr5, {2}
     278:	50004d55 	andpl	r4, r0, r5, asr sp
     27c:	415f4c4c 	cmpmi	pc, ip, asr #24
     280:	4f494455 	svcmi	0x00494455
     284:	5445535f 	strbpl	r5, [r5], #-863	; 0xfffffca1
     288:	44465000 	strbmi	r5, [r6], #-0
     28c:	3832355f 	ldmdacc	r2!, {r0, r1, r2, r3, r4, r6, r8, sl, ip, sp}
     290:	4c4c5000 	marmi	acc0, r5, ip
     294:	4d52415f 	ldfmie	f4, [r2, #-380]	; 0xfffffe84
     298:	53494d00 	movtpl	r4, #40192	; 0x9d00
     29c:	545f3243 	ldrbpl	r3, [pc], #-579	; 2a4 <shift+0x2a4>
     2a0:	5000474f 	andpl	r4, r0, pc, asr #14
     2a4:	535f4c4c 	cmppl	pc, #76, 24	; 0x4c00
     2a8:	43005359 	movwmi	r5, #857	; 0x359
     2ac:	52444342 	subpl	r4, r4, #134217729	; 0x8000001
     2b0:	4c4c5000 	marmi	acc0, r5, ip
     2b4:	4253555f 	subsmi	r5, r3, #398458880	; 0x17c00000
     2b8:	45535f31 	ldrbmi	r5, [r3, #-3889]	; 0xfffff0cf
     2bc:	43430054 	movtmi	r0, #12372	; 0x3054
     2c0:	79545f4d 	ldmdbvc	r4, {r0, r2, r3, r6, r8, r9, sl, fp, ip, lr}^
     2c4:	50006570 	andpl	r6, r0, r0, ror r5
     2c8:	555f4c4c 	ldrbpl	r4, [pc, #-3148]	; fffff684 <__bss_end+0x7fffa864>
     2cc:	5f324253 	svcpl	0x00324253
     2d0:	00524c43 	subseq	r4, r2, r3, asr #24
     2d4:	5f4c4c50 	svcpl	0x004c4c50
     2d8:	31425355 	cmpcc	r2, r5, asr r3
     2dc:	4c4c5000 	marmi	acc0, r5, ip
     2e0:	4253555f 	subsmi	r5, r3, #398458880	; 0x17c00000
     2e4:	494d0032 	stmdbmi	sp, {r1, r4, r5}^
     2e8:	00324353 	eorseq	r4, r2, r3, asr r3
     2ec:	5f444650 	svcpl	0x00444650
     2f0:	5f383235 	svcpl	0x00383235
     2f4:	00474f54 	subeq	r4, r7, r4, asr pc
     2f8:	5f4c4c50 	svcpl	0x004c4c50
     2fc:	45444956 	strbmi	r4, [r4, #-2390]	; 0xfffff6aa
     300:	45535f4f 	ldrbmi	r5, [r3, #-3919]	; 0xfffff0b1
     304:	494d0054 	stmdbmi	sp, {r2, r4, r6}^
     308:	5f314353 	svcpl	0x00314353
     30c:	00544553 	subseq	r4, r4, r3, asr r5
     310:	52504743 	subspl	r4, r0, #17563648	; 0x10c0000
     314:	43534300 	cmpmi	r3, #0, 6
     318:	00325244 	eorseq	r5, r2, r4, asr #4
     31c:	524d4943 	subpl	r4, sp, #1097728	; 0x10c000
     320:	6e697500 	cdpvs	5, 6, cr7, cr9, cr0, {0}
     324:	5f323374 	svcpl	0x00323374
     328:	4c500074 	mrrcmi	0, 7, r0, r0, cr4	; <UNPREDICTABLE>
     32c:	49565f4c 	ldmdbmi	r6, {r2, r3, r6, r8, r9, sl, fp, ip, lr}^
     330:	5f4f4544 	svcpl	0x004f4544
     334:	4f4e4544 	svcmi	0x004e4544
     338:	494d004d 	stmdbmi	sp, {r0, r2, r3, r6}^
     33c:	5f324353 	svcpl	0x00324353
     340:	00524c43 	subseq	r4, r2, r3, asr #24
     344:	5f444650 	svcpl	0x00444650
     348:	5f303834 	svcpl	0x00303834
     34c:	00544553 	subseq	r4, r4, r3, asr r5
     350:	43534843 	cmpmi	r3, #4390912	; 0x430000
     354:	00524443 	subseq	r4, r2, r3, asr #8
     358:	2f707362 	svccs	0x00707362
     35c:	2f6b6c63 	svccs	0x006b6c63
     360:	5f707362 	svcpl	0x00707362
     364:	2e6b6c63 	cdpcs	12, 6, cr6, cr11, cr3, {3}
     368:	4c500063 	mrrcmi	0, 6, r0, r0, cr3	; <UNPREDICTABLE>
     36c:	59535f4c 	ldmdbpl	r3, {r2, r3, r6, r8, r9, sl, fp, ip, lr}^
     370:	45535f53 	ldrbmi	r5, [r3, #-3923]	; 0xfffff0ad
     374:	4c500054 	mrrcmi	0, 5, r0, r0, cr4	; <UNPREDICTABLE>
     378:	59535f4c 	ldmdbpl	r3, {r2, r3, r6, r8, r9, sl, fp, ip, lr}^
     37c:	45445f53 	strbmi	r5, [r4, #-3923]	; 0xfffff0ad
     380:	004d4f4e 	subeq	r4, sp, lr, asr #30
     384:	4353494d 	cmpmi	r3, #1261568	; 0x134000
     388:	4f545f30 	svcmi	0x00545f30
     38c:	46500047 	ldrbmi	r0, [r0], -r7, asr #32
     390:	32355f44 	eorscc	r5, r5, #68, 30	; 0x110
     394:	4c435f38 	mcrrmi	15, 3, r5, r3, cr8
     398:	4c500052 	mrrcmi	0, 5, r0, r0, cr2	; <UNPREDICTABLE>
     39c:	55415f4c 	strbpl	r5, [r1, #-3916]	; 0xfffff0b4
     3a0:	5f4f4944 	svcpl	0x004f4944
     3a4:	4f4e4544 	svcmi	0x004e4544
     3a8:	4c50004d 	mrrcmi	0, 4, r0, r0, cr13	; <UNPREDICTABLE>
     3ac:	4e455f4c 	cdpmi	15, 4, cr5, cr5, cr12, {2}
     3b0:	535f5445 	cmppl	pc, #1157627904	; 0x45000000
     3b4:	50005445 	andpl	r5, r0, r5, asr #8
     3b8:	555f4c4c 	ldrbpl	r4, [pc, #-3148]	; fffff774 <__bss_end+0x7fffa954>
     3bc:	5f324253 	svcpl	0x00324253
     3c0:	00544553 	subseq	r4, r4, r3, asr r5
     3c4:	4d434243 	sfmmi	f4, 2, [r3, #-268]	; 0xfffffef4
     3c8:	43430052 	movtmi	r0, #12370	; 0x3052
     3cc:	43005253 	movwmi	r5, #595	; 0x253
     3d0:	30524743 	subscc	r4, r2, r3, asr #14
     3d4:	53455200 	movtpl	r5, #20992	; 0x5200
     3d8:	45565245 	ldrbmi	r5, [r6, #-581]	; 0xfffffdbb
     3dc:	00305f44 	eorseq	r5, r0, r4, asr #30
     3e0:	45534552 	ldrbmi	r4, [r3, #-1362]	; 0xfffffaae
     3e4:	44455652 	strbmi	r5, [r5], #-1618	; 0xfffff9ae
     3e8:	5200315f 	andpl	r3, r0, #-1073741801	; 0xc0000017
     3ec:	52455345 	subpl	r5, r5, #335544321	; 0x14000001
     3f0:	5f444556 	svcpl	0x00444556
     3f4:	45520032 	ldrbmi	r0, [r2, #-50]	; 0xffffffce
     3f8:	56524553 			; <UNDEFINED> instruction: 0x56524553
     3fc:	335f4445 	cmpcc	pc, #1157627904	; 0x45000000
     400:	53455200 	movtpl	r5, #20992	; 0x5200
     404:	45565245 	ldrbmi	r5, [r6, #-581]	; 0xfffffdbb
     408:	00345f44 	eorseq	r5, r4, r4, asr #30
     40c:	45534552 	ldrbmi	r4, [r3, #-1362]	; 0xfffffaae
     410:	44455652 	strbmi	r5, [r5], #-1618	; 0xfffff9ae
     414:	5200355f 	andpl	r3, r0, #398458880	; 0x17c00000
     418:	52455345 	subpl	r5, r5, #335544321	; 0x14000001
     41c:	5f444556 	svcpl	0x00444556
     420:	4c500036 	mrrcmi	0, 3, r0, r0, cr6	; <UNPREDICTABLE>
     424:	52415f4c 	subpl	r5, r1, #76, 30	; 0x130
     428:	4f545f4d 	svcmi	0x00545f4d
     42c:	4c500047 	mrrcmi	0, 4, r0, r0, cr7	; <UNPREDICTABLE>
     430:	4e455f4c 	cdpmi	15, 4, cr5, cr5, cr12, {2}
     434:	50005445 	andpl	r5, r0, r5, asr #8
     438:	415f4c4c 	cmpmi	pc, ip, asr #24
     43c:	4f494455 	svcmi	0x00494455
     440:	474f545f 	smlsldmi	r5, pc, pc, r4	; <UNPREDICTABLE>
     444:	53494d00 	movtpl	r4, #40192	; 0x9d00
     448:	535f3243 	cmppl	pc, #805306372	; 0x30000004
     44c:	43005445 	movwmi	r5, #1093	; 0x445
     450:	52524341 	subspl	r4, r2, #67108865	; 0x4000001
     454:	53494d00 	movtpl	r4, #40192	; 0x9d00
     458:	435f3043 	cmpmi	pc, #67	; 0x43
     45c:	5000524c 	andpl	r5, r0, ip, asr #4
     460:	415f4c4c 	cmpmi	pc, ip, asr #24
     464:	4f494455 	svcmi	0x00494455
     468:	4d554e5f 	ldclmi	14, cr4, [r5, #-380]	; 0xfffffe84
     46c:	4c4c5000 	marmi	acc0, r5, ip
     470:	4253555f 	subsmi	r5, r3, #398458880	; 0x17c00000
     474:	4f545f31 	svcmi	0x00545f31
     478:	4c500047 	mrrcmi	0, 4, r0, r0, cr7	; <UNPREDICTABLE>
     47c:	59535f4c 	ldmdbpl	r3, {r2, r3, r6, r8, r9, sl, fp, ip, lr}^
     480:	554e5f53 	strbpl	r5, [lr, #-3923]	; 0xfffff0ad
     484:	4443004d 	strbmi	r0, [r3], #-77	; 0xffffffb3
     488:	00524443 	subseq	r4, r2, r3, asr #8
     48c:	43315343 	teqmi	r1, #201326593	; 0xc000001
     490:	50005244 	andpl	r5, r0, r4, asr #4
     494:	355f4446 	ldrbcc	r4, [pc, #-1094]	; 56 <shift+0x56>
     498:	535f3832 	cmppl	pc, #3276800	; 0x320000
     49c:	50005445 	andpl	r5, r0, r5, asr #8
     4a0:	455f4c4c 	ldrbmi	r4, [pc, #-3148]	; fffff85c <__bss_end+0x7fffaa3c>
     4a4:	5f54454e 	svcpl	0x0054454e
     4a8:	00474f54 	subeq	r4, r7, r4, asr pc
     4ac:	4f454d43 	svcmi	0x00454d43
     4b0:	53430052 	movtpl	r0, #12370	; 0x3052
     4b4:	31524d43 	cmpcc	r2, r3, asr #26
     4b8:	47434300 	strbmi	r4, [r3, -r0, lsl #6]
     4bc:	50003152 	andpl	r3, r0, r2, asr r1
     4c0:	415f4c4c 	cmpmi	pc, ip, asr #24
     4c4:	4f494455 	svcmi	0x00494455
     4c8:	47434300 	strbmi	r4, [r3, -r0, lsl #6]
     4cc:	43003252 	movwmi	r3, #594	; 0x252
     4d0:	33524743 	cmpcc	r2, #17563648	; 0x10c0000
     4d4:	4c4c5000 	marmi	acc0, r5, ip
     4d8:	4d52415f 	ldfmie	f4, [r2, #-380]	; 0xfffffe84
     4dc:	5445535f 	strbpl	r5, [r5], #-863	; 0xfffffca1
     4e0:	47434300 	strbmi	r4, [r3, -r0, lsl #6]
     4e4:	43003452 	movwmi	r3, #1106	; 0x452
     4e8:	35524743 	ldrbcc	r4, [r2, #-1859]	; 0xfffff8bd
     4ec:	47434300 	strbmi	r4, [r3, -r0, lsl #6]
     4f0:	50003652 	andpl	r3, r0, r2, asr r6
     4f4:	565f4c4c 	ldrbpl	r4, [pc], -ip, asr #24
     4f8:	4f454449 	svcmi	0x00454449
     4fc:	474f545f 	smlsldmi	r5, pc, pc, r4	; <UNPREDICTABLE>
     500:	53494d00 	movtpl	r4, #40192	; 0x9d00
     504:	545f3143 	ldrbpl	r3, [pc], #-323	; 50c <shift+0x50c>
     508:	6d00474f 	stcvs	7, cr4, [r0, #-316]	; 0xfffffec4
     50c:	6f4d7875 	svcvs	0x004d7875
     510:	69006564 	stmdbvs	r0, {r2, r5, r6, r8, sl, sp, lr}
     514:	7475706e 	ldrbtvc	r7, [r5], #-110	; 0xffffff92
     518:	69676552 	stmdbvs	r7!, {r1, r4, r6, r8, sl, sp, lr}^
     51c:	72657473 	rsbvc	r7, r5, #1929379840	; 0x73000000
     520:	64656c00 	strbtvs	r6, [r5], #-3072	; 0xfffff400
     524:	696e695f 	stmdbvs	lr!, {r0, r1, r2, r3, r4, r6, r8, fp, sp, lr}^
     528:	44470074 	strbmi	r0, [r7], #-116	; 0xffffff8c
     52c:	6d005249 	sfmvs	f5, 4, [r0, #-292]	; 0xfffffedc
     530:	65527875 	ldrbvs	r7, [r2, #-2165]	; 0xfffff78b
     534:	74736967 	ldrbtvc	r6, [r3], #-2407	; 0xfffff699
     538:	6c007265 	sfmvs	f7, 4, [r0], {101}	; 0x65
     53c:	6f5f6465 	svcvs	0x005f6465
     540:	69006666 	stmdbvs	r0, {r1, r2, r5, r6, r9, sl, sp, lr}
     544:	7475706e 	ldrbtvc	r7, [r5], #-110	; 0xffffff92
     548:	69666e4f 	stmdbvs	r6!, {r0, r1, r2, r3, r6, r9, sl, fp, sp, lr}^
     54c:	00646c65 	rsbeq	r6, r4, r5, ror #24
     550:	554d4f49 	strbpl	r4, [sp, #-3913]	; 0xfffff0b7
     554:	535f4358 	cmppl	pc, #88, 6	; 0x60000001
     558:	69507465 	ldmdbvs	r0, {r0, r2, r5, r6, sl, ip, sp, lr}^
     55c:	78754d6e 	ldmdavc	r5!, {r1, r2, r3, r5, r6, r8, sl, fp, lr}^
     560:	64656c00 	strbtvs	r6, [r5], #-3072	; 0xfffff400
     564:	006e6f5f 	rsbeq	r6, lr, pc, asr pc
     568:	75706e69 	ldrbvc	r6, [r0, #-3689]!	; 0xfffff197
     56c:	69614474 	stmdbvs	r1!, {r2, r4, r5, r6, sl, lr}^
     570:	47007973 	smlsdxmi	r0, r3, r9, r7
     574:	5f4f4950 	svcpl	0x004f4950
     578:	65707954 	ldrbvs	r7, [r0, #-2388]!	; 0xfffff6ac
     57c:	69706700 	ldmdbvs	r0!, {r8, r9, sl, sp, lr}^
     580:	69705f6f 	ldmdbvs	r0!, {r0, r1, r2, r3, r5, r6, r8, r9, sl, fp, ip, lr}^
     584:	6165726e 	cmnvs	r5, lr, ror #4
     588:	70670064 	rsbvc	r0, r7, r4, rrx
     58c:	705f6f69 	subsvc	r6, pc, r9, ror #30
     590:	72776e69 	rsbsvc	r6, r7, #1680	; 0x690
     594:	00657469 	rsbeq	r7, r5, r9, ror #8
     598:	554d4f49 	strbpl	r4, [sp, #-3913]	; 0xfffff0b7
     59c:	535f4358 	cmppl	pc, #88, 6	; 0x60000001
     5a0:	69507465 	ldmdbvs	r0, {r0, r2, r5, r6, sl, ip, sp, lr}^
     5a4:	6e6f436e 	cdpvs	3, 6, cr4, cr15, cr14, {3}
     5a8:	00676966 	rsbeq	r6, r7, r6, ror #18
     5ac:	666e6f63 	strbtvs	r6, [lr], -r3, ror #30
     5b0:	65526769 	ldrbvs	r6, [r2, #-1897]	; 0xfffff897
     5b4:	74736967 	ldrbtvc	r6, [r3], #-2407	; 0xfffff699
     5b8:	63007265 	movwvs	r7, #613	; 0x265
     5bc:	69666e6f 	stmdbvs	r6!, {r0, r1, r2, r3, r5, r6, r9, sl, fp, sp, lr}^
     5c0:	6c615667 	stclvs	6, cr5, [r1], #-412	; 0xfffffe64
     5c4:	45006575 	strmi	r6, [r0, #-1397]	; 0xfffffa8b
     5c8:	5f454744 	svcpl	0x00454744
     5cc:	004c4553 	subeq	r4, ip, r3, asr r5
     5d0:	31524349 	cmpcc	r2, r9, asr #6
     5d4:	52434900 	subpl	r4, r3, #0, 18
     5d8:	73620032 	cmnvc	r2, #50	; 0x32
     5dc:	656c2f70 	strbvs	r2, [ip, #-3952]!	; 0xfffff090
     5e0:	73622f64 	cmnvc	r2, #100, 30	; 0x190
     5e4:	656c5f70 	strbvs	r5, [ip, #-3952]!	; 0xfffff090
     5e8:	00632e64 	rsbeq	r2, r3, r4, ror #28
     5ec:	5f64656c 	svcpl	0x0064656c
     5f0:	74697773 	strbtvc	r7, [r9], #-1907	; 0xfffff88d
     5f4:	55006863 	strpl	r6, [r0, #-2147]	; 0xfffff79d
     5f8:	33545241 	cmpcc	r4, #268435460	; 0x10000004
     5fc:	5152495f 	cmppl	r2, pc, asr r9
     600:	4344006e 	movtmi	r0, #16494	; 0x406e
     604:	52495f50 	subpl	r5, r9, #80, 30	; 0x140
     608:	52495f51 	subpl	r5, r9, #324	; 0x144
     60c:	43006e51 	movwmi	r6, #3665	; 0xe51
     610:	5050485f 	subspl	r4, r0, pc, asr r8
     614:	41005249 	tstmi	r0, r9, asr #4
     618:	5f435253 	svcpl	0x00435253
     61c:	6e515249 	cdpvs	2, 5, cr5, cr1, cr9, {2}
     620:	41414300 	mrsmi	r4, (UNDEF: 113)
     624:	6f4a5f4d 	svcvs	0x004a5f4d
     628:	69525f62 	ldmdbvs	r2, {r1, r5, r6, r8, r9, sl, fp, ip, lr}^
     62c:	5f30676e 	svcpl	0x0030676e
     630:	6e515249 	cdpvs	2, 5, cr5, cr1, cr9, {2}
     634:	49504700 	ldmdbmi	r0, {r8, r9, sl, lr}^
     638:	435f344f 	cmpmi	pc, #1325400064	; 0x4f000000
     63c:	69626d6f 	stmdbvs	r2!, {r0, r1, r2, r3, r5, r6, r8, sl, fp, sp, lr}^
     640:	5f64656e 	svcpl	0x0064656e
     644:	335f3631 	cmpcc	pc, #51380224	; 0x3100000
     648:	52495f31 	subpl	r5, r9, #49, 30	; 0xc4
     64c:	43006e51 	movwmi	r6, #3665	; 0xe51
     650:	5f314e41 	svcpl	0x00314e41
     654:	6e515249 	cdpvs	2, 5, cr5, cr1, cr9, {2}
     658:	44535500 	ldrbmi	r5, [r3], #-1280	; 0xfffffb00
     65c:	5f324348 	svcpl	0x00324348
     660:	6e515249 	cdpvs	2, 5, cr5, cr1, cr9, {2}
     664:	675f5f00 	ldrbvs	r5, [pc, -r0, lsl #30]
     668:	435f7465 	cmpmi	pc, #1694498816	; 0x65000000
     66c:	00524142 	subseq	r4, r2, r2, asr #2
     670:	314d5750 	cmpcc	sp, r0, asr r7
     674:	5152495f 	cmppl	r2, pc, asr r9
     678:	5850006e 	ldmdapl	r0, {r1, r2, r3, r5, r6}^
     67c:	52495f50 	subpl	r5, r9, #80, 30	; 0x140
     680:	495f3151 	ldmdbmi	pc, {r0, r4, r6, r8, ip, sp}^	; <UNPREDICTABLE>
     684:	006e5152 	rsbeq	r5, lr, r2, asr r1
     688:	48425041 	stmdami	r2, {r0, r6, ip, lr}^
     68c:	5152495f 	cmppl	r2, pc, asr r9
     690:	5053006e 	subspl	r0, r3, lr, rrx
     694:	5f464944 	svcpl	0x00464944
     698:	6e515249 	cdpvs	2, 5, cr5, cr1, cr9, {2}
     69c:	495f4400 	ldmdbmi	pc, {sl, lr}^	; <UNPREDICTABLE>
     6a0:	54434153 	strbpl	r4, [r3], #-339	; 0xfffffead
     6a4:	52455649 	subpl	r5, r5, #76546048	; 0x4900000
     6a8:	42535500 	subsmi	r5, r3, #0, 10
     6ac:	47544f5f 			; <UNDEFINED> instruction: 0x47544f5f
     6b0:	52495f31 	subpl	r5, r9, #49, 30	; 0xc4
     6b4:	44006e51 	strmi	r6, [r0], #-3665	; 0xfffff1af
     6b8:	4449435f 	strbmi	r4, [r9], #-863	; 0xfffffca1
     6bc:	44003052 	strmi	r3, [r0], #-82	; 0xffffffae
     6c0:	4449435f 	strbmi	r4, [r9], #-863	; 0xfffffca1
     6c4:	44003152 	strmi	r3, [r0], #-338	; 0xfffffeae
     6c8:	4449435f 	strbmi	r4, [r9], #-863	; 0xfffffca1
     6cc:	44003252 	strmi	r3, [r0], #-594	; 0xfffffdae
     6d0:	4449435f 	strbmi	r4, [r9], #-863	; 0xfffffca1
     6d4:	52003352 	andpl	r3, r0, #1207959553	; 0x48000001
     6d8:	72657365 	rsbvc	r7, r5, #-1811939327	; 0x94000001
     6dc:	31646576 	smccc	18006	; 0x4656
     6e0:	495f3830 	ldmdbmi	pc, {r4, r5, fp, ip, sp}^	; <UNPREDICTABLE>
     6e4:	006e5152 	rsbeq	r5, lr, r2, asr r1
     6e8:	536e6f4e 	cmnpl	lr, #312	; 0x138
     6ec:	72756365 	rsbsvc	r6, r5, #-1811939327	; 0x94000001
     6f0:	79685065 	stmdbvc	r8!, {r0, r2, r5, r6, ip, lr}^
     6f4:	656d6954 	strbvs	r6, [sp, #-2388]!	; 0xfffff6ac
     6f8:	52495f72 	subpl	r5, r9, #456	; 0x1c8
     6fc:	65006e51 	strvs	r6, [r0, #-3665]	; 0xfffff1af
     700:	49505343 	ldmdbmi	r0, {r0, r1, r6, r8, r9, ip, lr}^
     704:	52495f32 	subpl	r5, r9, #50, 30	; 0xc8
     708:	47006e51 	smlsdmi	r0, r1, lr, r6
     70c:	314f4950 	cmpcc	pc, r0, asr r9	; <UNPREDICTABLE>
     710:	544e495f 	strbpl	r4, [lr], #-2399	; 0xfffff6a1
     714:	52495f33 	subpl	r5, r9, #51, 30	; 0xcc
     718:	75006e51 	strvc	r6, [r0, #-3665]	; 0xfffff1af
     71c:	6c656473 	cfstrdvs	mvd6, [r5], #-460	; 0xfffffe34
     720:	44007961 	strmi	r7, [r0], #-2401	; 0xfffff69f
     724:	535f5043 	cmppl	pc, #67	; 0x43
     728:	495f4345 	ldmdbmi	pc, {r0, r2, r6, r8, r9, lr}^	; <UNPREDICTABLE>
     72c:	495f5152 	ldmdbmi	pc, {r1, r4, r6, r8, ip, lr}^	; <UNPREDICTABLE>
     730:	006e5152 	rsbeq	r5, lr, r2, asr r1
     734:	364d5750 			; <UNDEFINED> instruction: 0x364d5750
     738:	5152495f 	cmppl	r2, pc, asr r9
     73c:	5047006e 	subpl	r0, r7, lr, rrx
     740:	5f314f49 	svcpl	0x00314f49
     744:	626d6f43 	rsbvs	r6, sp, #268	; 0x10c
     748:	64656e69 	strbtvs	r6, [r5], #-3689	; 0xfffff197
     74c:	315f305f 	cmpcc	pc, pc, asr r0	; <UNPREDICTABLE>
     750:	52495f35 	subpl	r5, r9, #53, 30	; 0xd4
     754:	52006e51 	andpl	r6, r0, #1296	; 0x510
     758:	72657365 	rsbvc	r7, r5, #-1811939327	; 0x94000001
     75c:	31646576 	smccc	18006	; 0x4656
     760:	495f3533 	ldmdbmi	pc, {r0, r1, r4, r5, r8, sl, ip, sp}^	; <UNPREDICTABLE>
     764:	006e5152 	rsbeq	r5, lr, r2, asr r1
     768:	4f495047 	svcmi	0x00495047
     76c:	6f435f31 	svcvs	0x00435f31
     770:	6e69626d 	cdpvs	2, 6, cr6, cr9, cr13, {3}
     774:	315f6465 	cmpcc	pc, r5, ror #8
     778:	31335f36 	teqcc	r3, r6, lsr pc
     77c:	5152495f 	cmppl	r2, pc, asr r9
     780:	6f53006e 	svcvs	0x0053006e
     784:	61777466 	cmnvs	r7, r6, ror #8
     788:	5f356572 	svcpl	0x00356572
     78c:	6e515249 	cdpvs	2, 5, cr5, cr1, cr9, {2}
     790:	666f5300 	strbtvs	r5, [pc], -r0, lsl #6
     794:	72617774 	rsbvc	r7, r1, #116, 14	; 0x1d00000
     798:	5f333165 	svcpl	0x00333165
     79c:	6e515249 	cdpvs	2, 5, cr5, cr1, cr9, {2}
     7a0:	43324900 	teqmi	r2, #0, 18
     7a4:	52495f31 	subpl	r5, r9, #49, 30	; 0xc4
     7a8:	52006e51 	andpl	r6, r0, #1296	; 0x510
     7ac:	414e5741 	cmpmi	lr, r1, asr #14
     7b0:	425f444e 	subsmi	r4, pc, #1308622848	; 0x4e000000
     7b4:	495f4843 	ldmdbmi	pc, {r0, r1, r6, fp, lr}^	; <UNPREDICTABLE>
     7b8:	006e5152 	rsbeq	r5, lr, r2, asr r1
     7bc:	54524155 	ldrbpl	r4, [r2], #-341	; 0xfffffeab
     7c0:	52495f34 	subpl	r5, r9, #52, 30	; 0xd0
     7c4:	53006e51 	movwpl	r6, #3665	; 0xe51
     7c8:	7774666f 	ldrbvc	r6, [r4, -pc, ror #12]!
     7cc:	30657261 	rsbcc	r7, r5, r1, ror #4
     7d0:	5152495f 	cmppl	r2, pc, asr r9
     7d4:	5045006e 	subpl	r0, r5, lr, rrx
     7d8:	5f325449 	svcpl	0x00325449
     7dc:	6e515249 	cdpvs	2, 5, cr5, cr1, cr9, {2}
     7e0:	43324900 	teqmi	r2, #0, 18
     7e4:	52495f34 	subpl	r5, r9, #52, 30	; 0xd0
     7e8:	43006e51 	movwmi	r6, #3665	; 0xe51
     7ec:	495f4953 	ldmdbmi	pc, {r0, r1, r4, r6, r8, fp, lr}^	; <UNPREDICTABLE>
     7f0:	006e5152 	rsbeq	r5, lr, r2, asr r1
     7f4:	49495f44 	stmdbmi	r9, {r2, r6, r8, r9, sl, fp, ip, lr}^
     7f8:	54005244 	strpl	r5, [r0], #-580	; 0xfffffdbc
     7fc:	4d504d45 	ldclmi	13, cr4, [r0, #-276]	; 0xfffffeec
     800:	495f4e4f 	ldmdbmi	pc, {r0, r1, r2, r3, r6, r9, sl, fp, lr}^	; <UNPREDICTABLE>
     804:	006e5152 	rsbeq	r5, lr, r2, asr r1
     808:	4f495047 	svcmi	0x00495047
     80c:	6f435f33 	svcvs	0x00435f33
     810:	6e69626d 	cdpvs	2, 6, cr6, cr9, cr13, {3}
     814:	305f6465 	subscc	r6, pc, r5, ror #8
     818:	5f35315f 	svcpl	0x0035315f
     81c:	6e515249 	cdpvs	2, 5, cr5, cr1, cr9, {2}
     820:	50535100 	subspl	r5, r3, r0, lsl #2
     824:	52495f49 	subpl	r5, r9, #292	; 0x124
     828:	55006e51 	strpl	r6, [r0, #-3665]	; 0xfffff1af
     82c:	505f4253 	subspl	r4, pc, r3, asr r2	; <UNPREDICTABLE>
     830:	5f315948 	svcpl	0x00315948
     834:	6e515249 	cdpvs	2, 5, cr5, cr1, cr9, {2}
     838:	6e637400 	cdpvs	4, 6, cr7, cr3, cr0, {0}
     83c:	6c617674 	stclvs	6, cr7, [r1], #-464	; 0xfffffe30
     840:	44006575 	strmi	r6, [r0], #-1397	; 0xfffffa8b
     844:	565f5043 	ldrbpl	r5, [pc], -r3, asr #32
     848:	495f494d 	ldmdbmi	pc, {r0, r2, r3, r6, r8, fp, lr}^	; <UNPREDICTABLE>
     84c:	495f5152 	ldmdbmi	pc, {r1, r4, r6, r8, ip, lr}^	; <UNPREDICTABLE>
     850:	006e5152 	rsbeq	r5, lr, r2, asr r1
     854:	616c6564 	cmnvs	ip, r4, ror #10
     858:	68735f79 	ldmdavs	r3!, {r0, r3, r4, r5, r6, r8, r9, sl, fp, ip, lr}^
     85c:	0074726f 	rsbseq	r7, r4, pc, ror #4
     860:	45534552 	ldrbmi	r4, [r3, #-1362]	; 0xfffffaae
     864:	44455652 	strbmi	r5, [r5], #-1618	; 0xfffff9ae
     868:	5f430038 	svcpl	0x00430038
     86c:	00524944 	subseq	r4, r2, r4, asr #18
     870:	5f434947 	svcpl	0x00434947
     874:	62616e45 	rsbvs	r6, r1, #1104	; 0x450
     878:	5249656c 	subpl	r6, r9, #108, 10	; 0x1b000000
     87c:	65520051 	ldrbvs	r0, [r2, #-81]	; 0xffffffaf
     880:	76726573 			; <UNDEFINED> instruction: 0x76726573
     884:	34316465 	ldrtcc	r6, [r1], #-1125	; 0xfffffb9b
     888:	52495f35 	subpl	r5, r9, #53, 30	; 0xd4
     88c:	52006e51 	andpl	r6, r0, #1296	; 0x510
     890:	52455345 	subpl	r5, r5, #335544321	; 0x14000001
     894:	31444556 	cmpcc	r4, r6, asr r5
     898:	5f430033 	svcpl	0x00430033
     89c:	00525052 	subseq	r5, r2, r2, asr r0
     8a0:	2f707362 	svccs	0x00707362
     8a4:	616c6564 	cmnvs	ip, r4, ror #10
     8a8:	73622f79 	cmnvc	r2, #484	; 0x1e4
     8ac:	65645f70 	strbvs	r5, [r4, #-3952]!	; 0xfffff090
     8b0:	2e79616c 	rpwcsez	f6, f1, #4.0
     8b4:	65520063 	ldrbvs	r0, [r2, #-99]	; 0xffffff9d
     8b8:	76726573 			; <UNDEFINED> instruction: 0x76726573
     8bc:	35316465 	ldrcc	r6, [r1, #-1125]!	; 0xfffffb9b
     8c0:	52495f37 	subpl	r5, r9, #55, 30	; 0xdc
     8c4:	43006e51 	movwmi	r6, #3665	; 0xe51
     8c8:	524d505f 	subpl	r5, sp, #95	; 0x5f
     8cc:	53436500 	movtpl	r6, #13568	; 0x3500
     8d0:	5f344950 	svcpl	0x00344950
     8d4:	6e515249 	cdpvs	2, 5, cr5, cr1, cr9, {2}
     8d8:	495f4400 	ldmdbmi	pc, {sl, lr}^	; <UNPREDICTABLE>
     8dc:	54434143 	strbpl	r4, [r3], #-323	; 0xfffffebd
     8e0:	52455649 	subpl	r5, r5, #76546048	; 0x4900000
     8e4:	49504700 	ldmdbmi	r0, {r8, r9, sl, lr}^
     8e8:	495f314f 	ldmdbmi	pc, {r0, r1, r2, r3, r6, r8, ip, sp}^	; <UNPREDICTABLE>
     8ec:	5f35544e 	svcpl	0x0035544e
     8f0:	6e515249 	cdpvs	2, 5, cr5, cr1, cr9, {2}
     8f4:	74706700 	ldrbtvc	r6, [r0], #-1792	; 0xfffff900
     8f8:	72695f31 	rsbvc	r5, r9, #49, 30	; 0xc4
     8fc:	6e616871 	mcrvs	8, 3, r6, cr1, cr1, {3}
     900:	72656c64 	rsbvc	r6, r5, #100, 24	; 0x6400
     904:	44434c00 	strbmi	r4, [r3], #-3072	; 0xfffff400
     908:	495f4649 	ldmdbmi	pc, {r0, r3, r6, r9, sl, lr}^	; <UNPREDICTABLE>
     90c:	006e5152 	rsbeq	r5, lr, r2, asr r1
     910:	4f495047 	svcmi	0x00495047
     914:	4e495f31 	mcrmi	15, 2, r5, cr9, cr1, {1}
     918:	495f3054 	ldmdbmi	pc, {r2, r4, r6, ip, sp}^	; <UNPREDICTABLE>
     91c:	006e5152 	rsbeq	r5, lr, r2, asr r1
     920:	474f4457 	smlsldmi	r4, pc, r7, r4	; <UNPREDICTABLE>
     924:	52495f31 	subpl	r5, r9, #49, 30	; 0xc4
     928:	49006e51 	stmdbmi	r0, {r0, r4, r6, r9, sl, fp, sp, lr}
     92c:	5f6e5152 	svcpl	0x006e5152
     930:	65707954 	ldrbvs	r7, [r0, #-2388]!	; 0xfffff6ac
     934:	74757000 	ldrbtvc	r7, [r5], #-0
     938:	4d500073 	ldclmi	0, cr0, [r0, #-460]	; 0xfffffe34
     93c:	52495f55 	subpl	r5, r9, #340	; 0x154
     940:	495f3151 	ldmdbmi	pc, {r0, r4, r6, r8, ip, sp}^	; <UNPREDICTABLE>
     944:	006e5152 	rsbeq	r5, lr, r2, asr r1
     948:	74666f53 	strbtvc	r6, [r6], #-3923	; 0xfffff0ad
     94c:	65726177 	ldrbvs	r6, [r2, #-375]!	; 0xfffffe89
     950:	52495f37 	subpl	r5, r9, #55, 30	; 0xdc
     954:	53006e51 	movwpl	r6, #3665	; 0xe51
     958:	7774666f 	ldrbvc	r6, [r4, -pc, ror #12]!
     95c:	31657261 	cmncc	r5, r1, ror #4
     960:	52495f35 	subpl	r5, r9, #53, 30	; 0xd4
     964:	49006e51 	stmdbmi	r0, {r0, r4, r6, r9, sl, fp, sp, lr}
     968:	5f334332 	svcpl	0x00334332
     96c:	6e515249 	cdpvs	2, 5, cr5, cr1, cr9, {2}
     970:	4d575000 	ldclmi	0, cr5, [r7, #-0]
     974:	52495f33 	subpl	r5, r9, #51, 30	; 0xcc
     978:	6f006e51 	svcvs	0x00006e51
     97c:	6e63646c 	cdpvs	4, 6, cr6, cr3, cr12, {3}
     980:	5f440074 	svcpl	0x00440074
     984:	45505954 	ldrbmi	r5, [r0, #-2388]	; 0xfffff6ac
     988:	6f530052 	svcvs	0x00530052
     98c:	61777466 	cmnvs	r7, r6, ror #8
     990:	5f326572 	svcpl	0x00326572
     994:	6e515249 	cdpvs	2, 5, cr5, cr1, cr9, {2}
     998:	73655200 	cmnvc	r5, #0, 4
     99c:	65767265 	ldrbvs	r7, [r6, #-613]!	; 0xfffffd9b
     9a0:	34333164 	ldrtcc	r3, [r3], #-356	; 0xfffffe9c
     9a4:	5152495f 	cmppl	r2, pc, asr r9
     9a8:	6552006e 	ldrbvs	r0, [r2, #-110]	; 0xffffff92
     9ac:	76726573 			; <UNDEFINED> instruction: 0x76726573
     9b0:	35386465 	ldrcc	r6, [r8, #-1125]!	; 0xfffffb9b
     9b4:	5152495f 	cmppl	r2, pc, asr r9
     9b8:	4155006e 	cmpmi	r5, lr, rrx
     9bc:	5f315452 	svcpl	0x00315452
     9c0:	6e515249 	cdpvs	2, 5, cr5, cr1, cr9, {2}
     9c4:	564e5300 	strbpl	r5, [lr], -r0, lsl #6
     9c8:	6f435f53 	svcvs	0x00435f53
     9cc:	6c6f736e 	stclvs	3, cr7, [pc], #-440	; 81c <shift+0x81c>
     9d0:	74616469 	strbtvc	r6, [r1], #-1129	; 0xfffffb97
     9d4:	495f6465 	ldmdbmi	pc, {r0, r2, r5, r6, sl, sp, lr}^	; <UNPREDICTABLE>
     9d8:	006e5152 	rsbeq	r5, lr, r2, asr r1
     9dc:	65736552 	ldrbvs	r6, [r3, #-1362]!	; 0xfffffaae
     9e0:	64657672 	strbtvs	r7, [r5], #-1650	; 0xfffff98e
     9e4:	5f343531 	svcpl	0x00343531
     9e8:	6e515249 	cdpvs	2, 5, cr5, cr1, cr9, {2}
     9ec:	454e4500 	strbmi	r4, [lr, #-1280]	; 0xfffffb00
     9f0:	315f3254 	cmpcc	pc, r4, asr r2	; <UNPREDICTABLE>
     9f4:	5f383835 	svcpl	0x00383835
     9f8:	6e515249 	cdpvs	2, 5, cr5, cr1, cr9, {2}
     9fc:	564e5300 	strbpl	r5, [lr], -r0, lsl #6
     a00:	52495f53 	subpl	r5, r9, #332	; 0x14c
     a04:	43006e51 	movwmi	r6, #3665	; 0xe51
     a08:	505f5550 	subspl	r5, pc, r0, asr r5	; <UNPREDICTABLE>
     a0c:	6f667265 	svcvs	0x00667265
     a10:	6e616d72 	mcrvs	13, 3, r6, cr1, cr2, {3}
     a14:	6e556563 	cdpvs	5, 5, cr6, cr5, cr3, {3}
     a18:	495f7469 	ldmdbmi	pc, {r0, r3, r5, r6, sl, ip, sp, lr}^	; <UNPREDICTABLE>
     a1c:	006e5152 	rsbeq	r5, lr, r2, asr r1
     a20:	52544353 	subspl	r4, r4, #1275068417	; 0x4c000001
     a24:	5152495f 	cmppl	r2, pc, asr r9
     a28:	52495f31 	subpl	r5, r9, #49, 30	; 0xc4
     a2c:	47006e51 	smlsdmi	r0, r1, lr, r6
     a30:	545f4349 	ldrbpl	r4, [pc], #-841	; a38 <shift+0xa38>
     a34:	00657079 	rsbeq	r7, r5, r9, ror r0
     a38:	5f435047 	svcpl	0x00435047
     a3c:	6e515249 	cdpvs	2, 5, cr5, cr1, cr9, {2}
     a40:	43494700 	movtmi	r4, #38656	; 0x9700
     a44:	7465535f 	strbtvc	r5, [r5], #-863	; 0xfffffca1
     a48:	6f697250 	svcvs	0x00697250
     a4c:	79746972 	ldmdbvc	r4!, {r1, r4, r5, r6, r8, fp, sp, lr}^
     a50:	434a5300 	movtmi	r5, #41728	; 0xa300
     a54:	5152495f 	cmppl	r2, pc, asr r9
     a58:	4441006e 	strbmi	r0, [r1], #-110	; 0xffffff92
     a5c:	495f3143 	ldmdbmi	pc, {r0, r1, r6, r8, ip, sp}^	; <UNPREDICTABLE>
     a60:	006e5152 	rsbeq	r5, lr, r2, asr r1
     a64:	4d494557 	cfstr64mi	mvdx4, [r9, #-348]	; 0xfffffea4
     a68:	5152495f 	cmppl	r2, pc, asr r9
     a6c:	6552006e 	ldrbvs	r0, [r2, #-110]	; 0xffffff92
     a70:	76726573 			; <UNDEFINED> instruction: 0x76726573
     a74:	31316465 	teqcc	r1, r5, ror #8
     a78:	52495f31 	subpl	r5, r9, #49, 30	; 0xc4
     a7c:	50006e51 	andpl	r6, r0, r1, asr lr
     a80:	5f384d57 	svcpl	0x00384d57
     a84:	6e515249 	cdpvs	2, 5, cr5, cr1, cr9, {2}
     a88:	67654c00 	strbvs	r4, [r5, -r0, lsl #24]!
     a8c:	46796361 	ldrbtmi	r6, [r9], -r1, ror #6
     a90:	49747361 	ldmdbmi	r4!, {r0, r5, r6, r8, r9, ip, sp, lr}^
     a94:	495f746e 	ldmdbmi	pc, {r1, r2, r3, r5, r6, sl, ip, sp, lr}^	; <UNPREDICTABLE>
     a98:	006e5152 	rsbeq	r5, lr, r2, asr r1
     a9c:	4f495047 	svcmi	0x00495047
     aa0:	6f435f33 	svcvs	0x00435f33
     aa4:	6e69626d 	cdpvs	2, 6, cr6, cr9, cr13, {3}
     aa8:	315f6465 	cmpcc	pc, r5, ror #8
     aac:	31335f36 	teqcc	r3, r6, lsr pc
     ab0:	5152495f 	cmppl	r2, pc, asr r9
     ab4:	5345006e 	movtpl	r0, #20590	; 0x506e
     ab8:	495f4941 	ldmdbmi	pc, {r0, r6, r8, fp, lr}^	; <UNPREDICTABLE>
     abc:	006e5152 	rsbeq	r5, lr, r2, asr r1
     ac0:	53415a54 	movtpl	r5, #6740	; 0x1a54
     ac4:	52495f43 	subpl	r5, r9, #268	; 0x10c
     ac8:	50006e51 	andpl	r6, r0, r1, asr lr
     acc:	495f5058 	ldmdbmi	pc, {r3, r4, r6, ip, lr}^	; <UNPREDICTABLE>
     ad0:	5f305152 	svcpl	0x00305152
     ad4:	6e515249 	cdpvs	2, 5, cr5, cr1, cr9, {2}
     ad8:	4d434300 	stclmi	3, cr4, [r3, #-0]
     adc:	5152495f 	cmppl	r2, pc, asr r9
     ae0:	52495f32 	subpl	r5, r9, #50, 30	; 0xc8
     ae4:	55006e51 	strpl	r6, [r0, #-3665]	; 0xfffff1af
     ae8:	36545241 	ldrbcc	r5, [r4], -r1, asr #4
     aec:	5152495f 	cmppl	r2, pc, asr r9
     af0:	5f44006e 	svcpl	0x0044006e
     af4:	4e455053 	mcrmi	0, 2, r5, cr5, cr3, {2}
     af8:	49475344 	stmdbmi	r7, {r2, r6, r8, r9, ip, lr}^
     afc:	65520052 	ldrbvs	r0, [r2, #-82]	; 0xffffffae
     b00:	76726573 			; <UNDEFINED> instruction: 0x76726573
     b04:	34346465 	ldrtcc	r6, [r4], #-1125	; 0xfffffb9b
     b08:	5152495f 	cmppl	r2, pc, asr r9
     b0c:	5f44006e 	svcpl	0x0044006e
     b10:	45505349 	ldrbmi	r5, [r0, #-841]	; 0xfffffcb7
     b14:	0052444e 	subseq	r4, r2, lr, asr #8
     b18:	32494153 	subcc	r4, r9, #-1073741804	; 0xc0000014
     b1c:	5152495f 	cmppl	r2, pc, asr r9
     b20:	654c006e 	strbvs	r0, [ip, #-110]	; 0xffffff92
     b24:	79636167 	stmdbvc	r3!, {r0, r1, r2, r5, r6, r8, sp, lr}^
     b28:	5f515249 	svcpl	0x00515249
     b2c:	6e515249 	cdpvs	2, 5, cr5, cr1, cr9, {2}
     b30:	4d4f4900 	vstrmi.16	s9, [pc, #-0]	; b38 <shift+0xb38>	; <UNPREDICTABLE>
     b34:	5f435855 	svcpl	0x00435855
     b38:	6e515249 	cdpvs	2, 5, cr5, cr1, cr9, {2}
     b3c:	53436500 	movtpl	r6, #13568	; 0x3500
     b40:	5f314950 	svcpl	0x00314950
     b44:	6e515249 	cdpvs	2, 5, cr5, cr1, cr9, {2}
     b48:	415f4300 	cmpmi	pc, r0, lsl #6
     b4c:	49505048 	ldmdbmi	r0, {r3, r6, ip, lr}^
     b50:	50470052 	subpl	r0, r7, r2, asr r0
     b54:	5f314f49 	svcpl	0x00314f49
     b58:	32544e49 	subscc	r4, r4, #1168	; 0x490
     b5c:	5152495f 	cmppl	r2, pc, asr r9
     b60:	4457006e 	ldrbmi	r0, [r7], #-110	; 0xffffff92
     b64:	5f33474f 	svcpl	0x0033474f
     b68:	6e515249 	cdpvs	2, 5, cr5, cr1, cr9, {2}
     b6c:	70794800 	rsbsvc	r4, r9, r0, lsl #16
     b70:	69767265 	ldmdbvs	r6!, {r0, r2, r5, r6, r9, ip, sp, lr}^
     b74:	54726f73 	ldrbtpl	r6, [r2], #-3955	; 0xfffff08d
     b78:	72656d69 	rsbvc	r6, r5, #6720	; 0x1a40
     b7c:	5152495f 	cmppl	r2, pc, asr r9
     b80:	6564006e 	strbvs	r0, [r4, #-110]!	; 0xffffff92
     b84:	7579616c 	ldrbvc	r6, [r9, #-364]!	; 0xfffffe94
     b88:	65520073 	ldrbvs	r0, [r2, #-115]	; 0xffffff8d
     b8c:	76726573 			; <UNDEFINED> instruction: 0x76726573
     b90:	32316465 	eorscc	r6, r1, #1694498816	; 0x65000000
     b94:	52495f32 	subpl	r5, r9, #50, 30	; 0xc8
     b98:	56006e51 			; <UNDEFINED> instruction: 0x56006e51
     b9c:	75747269 	ldrbvc	r7, [r4, #-617]!	; 0xfffffd97
     ba0:	614d6c61 	cmpvs	sp, r1, ror #24
     ba4:	65746e69 	ldrbvs	r6, [r4, #-3689]!	; 0xfffff197
     ba8:	636e616e 	cmnvs	lr, #-2147483621	; 0x8000001b
     bac:	52495f65 	subpl	r5, r9, #404	; 0x194
     bb0:	52006e51 	andpl	r6, r0, #1296	; 0x510
     bb4:	72657365 	rsbvc	r7, r5, #-1811939327	; 0x94000001
     bb8:	37646576 			; <UNDEFINED> instruction: 0x37646576
     bbc:	52495f33 	subpl	r5, r9, #51, 30	; 0xcc
     bc0:	44006e51 	strmi	r6, [r0], #-3665	; 0xfffff1af
     bc4:	4947535f 	stmdbmi	r7, {r0, r1, r2, r3, r4, r6, r8, r9, ip, lr}^
     bc8:	4e450052 	mcrmi	0, 2, r0, cr5, cr2, {2}
     bcc:	5f315445 	svcpl	0x00315445
     bd0:	38383531 	ldmdacc	r8!, {r0, r4, r5, r8, sl, ip, sp}
     bd4:	5152495f 	cmppl	r2, pc, asr r9
     bd8:	6f53006e 	svcvs	0x0053006e
     bdc:	61777466 	cmnvs	r7, r6, ror #8
     be0:	5f346572 	svcpl	0x00346572
     be4:	6e515249 	cdpvs	2, 5, cr5, cr1, cr9, {2}
     be8:	666f5300 	strbtvs	r5, [pc], -r0, lsl #6
     bec:	72617774 	rsbvc	r7, r1, #116, 14	; 0x1d00000
     bf0:	5f323165 	svcpl	0x00323165
     bf4:	6e515249 	cdpvs	2, 5, cr5, cr1, cr9, {2}
     bf8:	49415300 	stmdbmi	r1, {r8, r9, ip, lr}^
     bfc:	58525f33 	ldmdapl	r2, {r0, r1, r4, r5, r8, r9, sl, fp, ip, lr}^
     c00:	5152495f 	cmppl	r2, pc, asr r9
     c04:	5354006e 	cmppl	r4, #110	; 0x6e
     c08:	52495f43 	subpl	r5, r9, #268	; 0x10c
     c0c:	52006e51 	andpl	r6, r0, #1296	; 0x510
     c10:	5f42474e 	svcpl	0x0042474e
     c14:	6e515249 	cdpvs	2, 5, cr5, cr1, cr9, {2}
     c18:	454e4500 	strbmi	r4, [lr, #-1280]	; 0xfffffb00
     c1c:	495f3254 	ldmdbmi	pc, {r2, r4, r6, r9, ip, sp}^	; <UNPREDICTABLE>
     c20:	006e5152 	rsbeq	r5, lr, r2, asr r1
     c24:	48445355 	stmdami	r4, {r0, r2, r4, r6, r8, r9, ip, lr}^
     c28:	495f3143 	ldmdbmi	pc, {r0, r1, r6, r8, ip, sp}^	; <UNPREDICTABLE>
     c2c:	006e5152 	rsbeq	r5, lr, r2, asr r1
     c30:	4f495047 	svcmi	0x00495047
     c34:	4e495f31 	mcrmi	15, 2, r5, cr9, cr1, {1}
     c38:	495f3754 	ldmdbmi	pc, {r2, r4, r6, r8, r9, sl, ip, sp}^	; <UNPREDICTABLE>
     c3c:	006e5152 	rsbeq	r5, lr, r2, asr r1
     c40:	65736552 	ldrbvs	r6, [r3, #-1362]!	; 0xfffffaae
     c44:	64657672 	strbtvs	r7, [r5], #-1650	; 0xfffff98e
     c48:	5f313331 	svcpl	0x00313331
     c4c:	6e515249 	cdpvs	2, 5, cr5, cr1, cr9, {2}
     c50:	54504700 	ldrbpl	r4, [r0], #-1792	; 0xfffff900
     c54:	52495f32 	subpl	r5, r9, #50, 30	; 0xc8
     c58:	45006e51 	strmi	r6, [r0, #-3665]	; 0xfffff1af
     c5c:	31544950 	cmpcc	r4, r0, asr r9
     c60:	5152495f 	cmppl	r2, pc, asr r9
     c64:	5343006e 	movtpl	r0, #12398	; 0x306e
     c68:	52495f55 	subpl	r5, r9, #340	; 0x154
     c6c:	56006e51 			; <UNDEFINED> instruction: 0x56006e51
     c70:	75747269 	ldrbvc	r7, [r4, #-617]!	; 0xfffffd97
     c74:	69546c61 	ldmdbvs	r4, {r0, r5, r6, sl, fp, sp, lr}^
     c78:	5f72656d 	svcpl	0x0072656d
     c7c:	6e515249 	cdpvs	2, 5, cr5, cr1, cr9, {2}
     c80:	54504700 	ldrbpl	r4, [r0], #-1792	; 0xfffff900
     c84:	7079545f 	rsbsvc	r5, r9, pc, asr r4
     c88:	5f440065 	svcpl	0x00440065
     c8c:	4e455349 	cdpmi	3, 4, cr5, cr5, cr9, {2}
     c90:	454c4241 	strbmi	r4, [ip, #-577]	; 0xfffffdbf
     c94:	5f440052 	svcpl	0x00440052
     c98:	52444950 	subpl	r4, r4, #80, 18	; 0x140000
     c9c:	5f440030 	svcpl	0x00440030
     ca0:	52444950 	subpl	r4, r4, #80, 18	; 0x140000
     ca4:	5f440031 	svcpl	0x00440031
     ca8:	52444950 	subpl	r4, r4, #80, 18	; 0x140000
     cac:	5f440032 	svcpl	0x00440032
     cb0:	52444950 	subpl	r4, r4, #80, 18	; 0x140000
     cb4:	5f440033 	svcpl	0x00440033
     cb8:	52444950 	subpl	r4, r4, #80, 18	; 0x140000
     cbc:	5f440034 	svcpl	0x00440034
     cc0:	52444950 	subpl	r4, r4, #80, 18	; 0x140000
     cc4:	5f440035 	svcpl	0x00440035
     cc8:	52444950 	subpl	r4, r4, #80, 18	; 0x140000
     ccc:	5f440036 	svcpl	0x00440036
     cd0:	52444950 	subpl	r4, r4, #80, 18	; 0x140000
     cd4:	5f430037 	svcpl	0x00430037
     cd8:	52444949 	subpl	r4, r4, #1196032	; 0x124000
     cdc:	49504700 	ldmdbmi	r0, {r8, r9, sl, lr}^
     ce0:	435f344f 	cmpmi	pc, #1325400064	; 0x4f000000
     ce4:	69626d6f 	stmdbvs	r2!, {r0, r1, r2, r3, r5, r6, r8, sl, fp, sp, lr}^
     ce8:	5f64656e 	svcpl	0x0064656e
     cec:	35315f30 	ldrcc	r5, [r1, #-3888]!	; 0xfffff0d0
     cf0:	5152495f 	cmppl	r2, pc, asr r9
     cf4:	4143006e 	cmpmi	r3, lr, rrx
     cf8:	495f324e 	ldmdbmi	pc, {r1, r2, r3, r6, r9, ip, sp}^	; <UNPREDICTABLE>
     cfc:	006e5152 	rsbeq	r5, lr, r2, asr r1
     d00:	5f435253 	svcpl	0x00435253
     d04:	626d6f43 	rsbvs	r6, sp, #268	; 0x10c
     d08:	64656e69 	strbtvs	r6, [r5], #-3689	; 0xfffff197
     d0c:	5152495f 	cmppl	r2, pc, asr r9
     d10:	6f53006e 	svcvs	0x0053006e
     d14:	61777466 	cmnvs	r7, r6, ror #8
     d18:	5f396572 	svcpl	0x00396572
     d1c:	6e515249 	cdpvs	2, 5, cr5, cr1, cr9, {2}
     d20:	4d575000 	ldclmi	0, cr5, [r7, #-0]
     d24:	52495f35 	subpl	r5, r9, #53, 30	; 0xd4
     d28:	55006e51 	strpl	r6, [r0, #-3665]	; 0xfffff1af
     d2c:	38545241 	ldmdacc	r4, {r0, r6, r9, ip, lr}^
     d30:	5152495f 	cmppl	r2, pc, asr r9
     d34:	736d006e 	cmnvc	sp, #110	; 0x6e
     d38:	616c6564 	cmnvs	ip, r4, ror #10
     d3c:	5f430079 	svcpl	0x00430079
     d40:	30525041 	subscc	r5, r2, r1, asr #32
     d44:	42535500 	subsmi	r5, r3, #0, 10
     d48:	47544f5f 			; <UNDEFINED> instruction: 0x47544f5f
     d4c:	52495f32 	subpl	r5, r9, #50, 30	; 0xc8
     d50:	52006e51 	andpl	r6, r0, #1296	; 0x510
     d54:	72657365 	rsbvc	r7, r5, #-1811939327	; 0x94000001
     d58:	31646576 	smccc	18006	; 0x4656
     d5c:	495f3930 	ldmdbmi	pc, {r4, r5, r8, fp, ip, sp}^	; <UNPREDICTABLE>
     d60:	006e5152 	rsbeq	r5, lr, r2, asr r1
     d64:	50535f44 	subspl	r5, r3, r4, asr #30
     d68:	00525349 	subseq	r5, r2, r9, asr #6
     d6c:	65736552 	ldrbvs	r6, [r3, #-1362]!	; 0xfffffaae
     d70:	64657672 	strbtvs	r7, [r5], #-1650	; 0xfffff98e
     d74:	5f363531 	svcpl	0x00363531
     d78:	6e515249 	cdpvs	2, 5, cr5, cr1, cr9, {2}
     d7c:	495f4400 	ldmdbmi	pc, {sl, lr}^	; <UNPREDICTABLE>
     d80:	52474643 	subpl	r4, r7, #70254592	; 0x4300000
     d84:	49415300 	stmdbmi	r1, {r8, r9, ip, lr}^
     d88:	58545f33 	ldmdapl	r4, {r0, r1, r4, r5, r8, r9, sl, fp, ip, lr}^
     d8c:	5152495f 	cmppl	r2, pc, asr r9
     d90:	4365006e 	cmnmi	r5, #110	; 0x6e
     d94:	33495053 	movtcc	r5, #36947	; 0x9053
     d98:	5152495f 	cmppl	r2, pc, asr r9
     d9c:	4441006e 	strbmi	r0, [r1], #-110	; 0xffffff92
     da0:	48355f43 	ldmdami	r5!, {r0, r1, r6, r8, r9, sl, fp, ip, lr}
     da4:	52495f43 	subpl	r5, r9, #268	; 0x10c
     da8:	43006e51 	movwmi	r6, #3665	; 0xe51
     dac:	5f4d4141 	svcpl	0x004d4141
     db0:	5f626f4a 	svcpl	0x00626f4a
     db4:	676e6952 			; <UNDEFINED> instruction: 0x676e6952
     db8:	52495f31 	subpl	r5, r9, #49, 30	; 0xc4
     dbc:	52006e51 	andpl	r6, r0, #1296	; 0x510
     dc0:	52455345 	subpl	r5, r5, #335544321	; 0x14000001
     dc4:	30444556 	subcc	r4, r4, r6, asr r5
     dc8:	53455200 	movtpl	r5, #20992	; 0x5200
     dcc:	45565245 	ldrbmi	r5, [r6, #-581]	; 0xfffffdbb
     dd0:	52003144 	andpl	r3, r0, #68, 2
     dd4:	52455345 	subpl	r5, r5, #335544321	; 0x14000001
     dd8:	32444556 	subcc	r4, r4, #360710144	; 0x15800000
     ddc:	53455200 	movtpl	r5, #20992	; 0x5200
     de0:	45565245 	ldrbmi	r5, [r6, #-581]	; 0xfffffdbb
     de4:	52003344 	andpl	r3, r0, #68, 6	; 0x10000001
     de8:	52455345 	subpl	r5, r5, #335544321	; 0x14000001
     dec:	34444556 	strbcc	r4, [r4], #-1366	; 0xfffffaaa
     df0:	53455200 	movtpl	r5, #20992	; 0x5200
     df4:	45565245 	ldrbmi	r5, [r6, #-581]	; 0xfffffdbb
     df8:	52003544 	andpl	r3, r0, #68, 10	; 0x11000000
     dfc:	52455345 	subpl	r5, r5, #335544321	; 0x14000001
     e00:	36444556 			; <UNDEFINED> instruction: 0x36444556
     e04:	53455200 	movtpl	r5, #20992	; 0x5200
     e08:	45565245 	ldrbmi	r5, [r6, #-581]	; 0xfffffdbb
     e0c:	44003744 	strmi	r3, [r0], #-1860	; 0xfffff8bc
     e10:	4950505f 	ldmdbmi	r0, {r0, r1, r2, r3, r4, r6, ip, lr}^
     e14:	52005253 	andpl	r5, r0, #805306373	; 0x30000005
     e18:	52455345 	subpl	r5, r5, #335544321	; 0x14000001
     e1c:	39444556 	stmdbcc	r4, {r1, r2, r4, r6, r8, sl, lr}^
     e20:	666f5300 	strbtvs	r5, [pc], -r0, lsl #6
     e24:	72617774 	rsbvc	r7, r1, #116, 14	; 0x1d00000
     e28:	5f343165 	svcpl	0x00343165
     e2c:	6e515249 	cdpvs	2, 5, cr5, cr1, cr9, {2}
     e30:	49504700 	ldmdbmi	r0, {r8, r9, sl, lr}^
     e34:	435f354f 	cmpmi	pc, #331350016	; 0x13c00000
     e38:	69626d6f 	stmdbvs	r2!, {r0, r1, r2, r3, r5, r6, r8, sl, fp, sp, lr}^
     e3c:	5f64656e 	svcpl	0x0064656e
     e40:	335f3631 	cmpcc	pc, #51380224	; 0x3100000
     e44:	52495f31 	subpl	r5, r9, #49, 30	; 0xc4
     e48:	55006e51 	strpl	r6, [r0, #-3665]	; 0xfffff1af
     e4c:	35545241 	ldrbcc	r5, [r4, #-577]	; 0xfffffdbf
     e50:	5152495f 	cmppl	r2, pc, asr r9
     e54:	4e53006e 	cdpmi	0, 5, cr0, cr3, cr14, {3}
     e58:	535f5356 	cmppl	pc, #1476395009	; 0x58000001
     e5c:	72756365 	rsbsvc	r6, r5, #-1811939327	; 0x94000001
     e60:	5f797469 	svcpl	0x00797469
     e64:	6e515249 	cdpvs	2, 5, cr5, cr1, cr9, {2}
     e68:	4d575000 	ldclmi	0, cr5, [r7, #-0]
     e6c:	52495f32 	subpl	r5, r9, #50, 30	; 0xc8
     e70:	53006e51 	movwpl	r6, #3665	; 0xe51
     e74:	7774666f 	ldrbvc	r6, [r4, -pc, ror #12]!
     e78:	31657261 	cmncc	r5, r1, ror #4
     e7c:	5152495f 	cmppl	r2, pc, asr r9
     e80:	7270006e 	rsbsvc	r0, r0, #110	; 0x6e
     e84:	69726f69 	ldmdbvs	r2!, {r0, r3, r5, r6, r8, r9, sl, fp, sp, lr}^
     e88:	4e007974 			; <UNDEFINED> instruction: 0x4e007974
     e8c:	7641746f 	strbvc	r7, [r1], -pc, ror #8
     e90:	5f6c6961 	svcpl	0x006c6961
     e94:	6e515249 	cdpvs	2, 5, cr5, cr1, cr9, {2}
     e98:	495f4300 	ldmdbmi	pc, {r8, r9, lr}^	; <UNPREDICTABLE>
     e9c:	43005241 	movwmi	r5, #577	; 0x241
     ea0:	4f45415f 	svcmi	0x0045415f
     ea4:	43005249 	movwmi	r5, #585	; 0x249
     ea8:	41534e5f 	cmpmi	r3, pc, asr lr
     eac:	00305250 	eorseq	r5, r0, r0, asr r2
     eb0:	52544353 	subspl	r4, r4, #1275068417	; 0x4c000001
     eb4:	5152495f 	cmppl	r2, pc, asr r9
     eb8:	52495f30 	subpl	r5, r9, #48, 30	; 0xc0
     ebc:	44006e51 	strmi	r6, [r0], #-3665	; 0xfffff1af
     ec0:	5247495f 	subpl	r4, r7, #1556480	; 0x17c000
     ec4:	5250554f 	subspl	r5, r0, #331350016	; 0x13c00000
     ec8:	73655200 	cmnvc	r5, #0, 4
     ecc:	65767265 	ldrbvs	r7, [r6, #-613]!	; 0xfffffd9b
     ed0:	35323164 	ldrcc	r3, [r2, #-356]!	; 0xfffffe9c
     ed4:	5152495f 	cmppl	r2, pc, asr r9
     ed8:	7067006e 	rsbvc	r0, r7, lr, rrx
     edc:	695f3174 	ldmdbvs	pc, {r2, r4, r5, r6, r8, ip, sp}^	; <UNPREDICTABLE>
     ee0:	0074696e 	rsbseq	r6, r4, lr, ror #18
     ee4:	49415f43 	stmdbmi	r1, {r0, r1, r6, r8, r9, sl, fp, ip, lr}^
     ee8:	47005241 	strmi	r5, [r0, -r1, asr #4]
     eec:	314f4950 	cmpcc	pc, r0, asr r9	; <UNPREDICTABLE>
     ef0:	544e495f 	strbpl	r4, [lr], #-2399	; 0xfffff6a1
     ef4:	52495f34 	subpl	r5, r9, #52, 30	; 0xd0
     ef8:	4b006e51 	blmi	1c844 <shift+0x1c844>
     efc:	495f5050 	ldmdbmi	pc, {r4, r6, ip, lr}^	; <UNPREDICTABLE>
     f00:	006e5152 	rsbeq	r5, lr, r2, asr r1
     f04:	43495f44 	movtmi	r5, #40772	; 0x9f44
     f08:	42414e45 	submi	r4, r1, #1104	; 0x450
     f0c:	0052454c 	subseq	r4, r2, ip, asr #10
     f10:	43495f44 	movtmi	r5, #40772	; 0x9f44
     f14:	444e4550 	strbmi	r4, [lr], #-1360	; 0xfffffab0
     f18:	57500052 			; <UNDEFINED> instruction: 0x57500052
     f1c:	495f374d 	ldmdbmi	pc, {r0, r2, r3, r6, r8, r9, sl, ip, sp}^	; <UNPREDICTABLE>
     f20:	006e5152 	rsbeq	r5, lr, r2, asr r1
     f24:	65736552 	ldrbvs	r6, [r3, #-1362]!	; 0xfffffaae
     f28:	64657672 	strbtvs	r7, [r5], #-1650	; 0xfffff98e
     f2c:	5f343231 	svcpl	0x00343231
     f30:	6e515249 	cdpvs	2, 5, cr5, cr1, cr9, {2}
     f34:	49504700 	ldmdbmi	r0, {r8, r9, sl, lr}^
     f38:	435f324f 	cmpmi	pc, #-268435452	; 0xf0000004
     f3c:	69626d6f 	stmdbvs	r2!, {r0, r1, r2, r3, r5, r6, r8, sl, fp, sp, lr}^
     f40:	5f64656e 	svcpl	0x0064656e
     f44:	335f3631 	cmpcc	pc, #51380224	; 0x3100000
     f48:	52495f31 	subpl	r5, r9, #49, 30	; 0xc4
     f4c:	44006e51 	strmi	r6, [r0], #-3665	; 0xfffff1af
     f50:	495f5041 	ldmdbmi	pc, {r0, r6, ip, lr}^	; <UNPREDICTABLE>
     f54:	006e5152 	rsbeq	r5, lr, r2, asr r1
     f58:	4e574152 	mrcmi	1, 2, r4, cr7, cr2, {2}
     f5c:	5f444e41 	svcpl	0x00444e41
     f60:	494d5047 	stmdbmi	sp, {r0, r1, r2, r6, ip, lr}^
     f64:	5152495f 	cmppl	r2, pc, asr r9
     f68:	4453006e 	ldrbmi	r0, [r3], #-110	; 0xffffff92
     f6c:	495f414d 	ldmdbmi	pc, {r0, r2, r3, r6, r8, lr}^	; <UNPREDICTABLE>
     f70:	006e5152 	rsbeq	r5, lr, r2, asr r1
     f74:	74666f53 	strbtvc	r6, [r6], #-3923	; 0xfffff0ad
     f78:	65726177 	ldrbvs	r6, [r2, #-375]!	; 0xfffffe89
     f7c:	52495f36 	subpl	r5, r9, #54, 30	; 0xd8
     f80:	49006e51 	stmdbmi	r0, {r0, r4, r6, r9, sl, fp, sp, lr}
     f84:	5f324332 	svcpl	0x00324332
     f88:	6e515249 	cdpvs	2, 5, cr5, cr1, cr9, {2}
     f8c:	4d434300 	stclmi	3, cr4, [r3, #-0]
     f90:	5152495f 	cmppl	r2, pc, asr r9
     f94:	52495f31 	subpl	r5, r9, #49, 30	; 0xc4
     f98:	52006e51 	andpl	r6, r0, #1296	; 0x510
     f9c:	72657365 	rsbvc	r7, r5, #-1811939327	; 0x94000001
     fa0:	31646576 	smccc	18006	; 0x4656
     fa4:	495f3031 	ldmdbmi	pc, {r0, r4, r5, ip, sp}^	; <UNPREDICTABLE>
     fa8:	006e5152 	rsbeq	r5, lr, r2, asr r1
     fac:	5f555043 	svcpl	0x00555043
     fb0:	5f495443 	svcpl	0x00495443
     fb4:	67697254 			; <UNDEFINED> instruction: 0x67697254
     fb8:	5f726567 	svcpl	0x00726567
     fbc:	6e515249 	cdpvs	2, 5, cr5, cr1, cr9, {2}
     fc0:	73655200 	cmnvc	r5, #0, 4
     fc4:	65767265 	ldrbvs	r7, [r6, #-613]!	; 0xfffffd9b
     fc8:	38353164 	ldmdacc	r5!, {r2, r5, r6, r8, ip, sp}
     fcc:	5152495f 	cmppl	r2, pc, asr r9
     fd0:	7973006e 	ldmdbvc	r3!, {r1, r2, r3, r5, r6}^
     fd4:	6d657473 	cfstrdvs	mvd7, [r5, #-460]!	; 0xfffffe34
     fd8:	7172695f 	cmnvc	r2, pc, asr r9
     fdc:	6e61685f 	mcrvs	8, 3, r6, cr1, cr15, {2}
     fe0:	72656c64 	rsbvc	r6, r5, #100, 24	; 0x6400
     fe4:	5300745f 	movwpl	r7, #1119	; 0x45f
     fe8:	5f314941 	svcpl	0x00314941
     fec:	6e515249 	cdpvs	2, 5, cr5, cr1, cr9, {2}
     ff0:	666f5300 	strbtvs	r5, [pc], -r0, lsl #6
     ff4:	72617774 	rsbvc	r7, r1, #116, 14	; 0x1d00000
     ff8:	5f303165 	svcpl	0x00303165
     ffc:	6e515249 	cdpvs	2, 5, cr5, cr1, cr9, {2}
    1000:	454e4500 	strbmi	r4, [lr, #-1280]	; 0xfffffb00
    1004:	495f3154 	ldmdbmi	pc, {r2, r4, r6, r8, ip, sp}^	; <UNPREDICTABLE>
    1008:	006e5152 	rsbeq	r5, lr, r2, asr r1
    100c:	54495f44 	strbpl	r5, [r9], #-3908	; 0xfffff0bc
    1010:	45475241 	strbmi	r5, [r7, #-577]	; 0xfffffdbf
    1014:	00525354 	subseq	r5, r2, r4, asr r3
    1018:	50435f44 	subpl	r5, r3, r4, asr #30
    101c:	53444e45 	movtpl	r4, #20037	; 0x4e45
    1020:	00524947 	subseq	r4, r2, r7, asr #18
    1024:	4f495047 	svcmi	0x00495047
    1028:	6f435f32 	svcvs	0x00435f32
    102c:	6e69626d 	cdpvs	2, 6, cr6, cr9, cr13, {3}
    1030:	305f6465 	subscc	r6, pc, r5, ror #8
    1034:	5f35315f 	svcpl	0x0035315f
    1038:	6e515249 	cdpvs	2, 5, cr5, cr1, cr9, {2}
    103c:	53455200 	movtpl	r5, #20992	; 0x5200
    1040:	45565245 	ldrbmi	r5, [r6, #-581]	; 0xfffffdbb
    1044:	00303144 	eorseq	r3, r0, r4, asr #2
    1048:	45534552 	ldrbmi	r4, [r3, #-1362]	; 0xfffffaae
    104c:	44455652 	strbmi	r5, [r5], #-1618	; 0xfffff9ae
    1050:	52003131 	andpl	r3, r0, #1073741836	; 0x4000000c
    1054:	52455345 	subpl	r5, r5, #335544321	; 0x14000001
    1058:	31444556 	cmpcc	r4, r6, asr r5
    105c:	45520032 	ldrbmi	r0, [r2, #-50]	; 0xffffffce
    1060:	56524553 			; <UNDEFINED> instruction: 0x56524553
    1064:	34314445 	ldrtcc	r4, [r1], #-1093	; 0xfffffbbb
    1068:	53455200 	movtpl	r5, #20992	; 0x5200
    106c:	45565245 	ldrbmi	r5, [r6, #-581]	; 0xfffffdbb
    1070:	00353144 	eorseq	r3, r5, r4, asr #2
    1074:	45534552 	ldrbmi	r4, [r3, #-1362]	; 0xfffffaae
    1078:	44455652 	strbmi	r5, [r5], #-1618	; 0xfffff9ae
    107c:	52003631 	andpl	r3, r0, #51380224	; 0x3100000
    1080:	52455345 	subpl	r5, r5, #335544321	; 0x14000001
    1084:	31444556 	cmpcc	r4, r6, asr r5
    1088:	45520037 	ldrbmi	r0, [r2, #-55]	; 0xffffffc9
    108c:	56524553 			; <UNDEFINED> instruction: 0x56524553
    1090:	38314445 	ldmdacc	r1!, {r0, r2, r6, sl, lr}
    1094:	77656e00 	strbvc	r6, [r5, -r0, lsl #28]!
    1098:	00746e63 	rsbseq	r6, r4, r3, ror #28
    109c:	74666f53 	strbtvc	r6, [r6], #-3923	; 0xfffff0ad
    10a0:	65726177 	ldrbvs	r6, [r2, #-375]!	; 0xfffffe89
    10a4:	495f3131 	ldmdbmi	pc, {r0, r4, r5, r8, ip, sp}^	; <UNPREDICTABLE>
    10a8:	006e5152 	rsbeq	r5, lr, r2, asr r1
    10ac:	54524155 	ldrbpl	r4, [r2], #-341	; 0xfffffeab
    10b0:	52495f32 	subpl	r5, r9, #50, 30	; 0xc8
    10b4:	47006e51 	smlsdmi	r0, r1, lr, r6
    10b8:	5f315450 	svcpl	0x00315450
    10bc:	6e515249 	cdpvs	2, 5, cr5, cr1, cr9, {2}
    10c0:	73655200 	cmnvc	r5, #0, 4
    10c4:	65767265 	ldrbvs	r7, [r6, #-613]!	; 0xfffffd9b
    10c8:	34343164 	ldrtcc	r3, [r4], #-356	; 0xfffffe9c
    10cc:	5152495f 	cmppl	r2, pc, asr r9
    10d0:	5355006e 	cmppl	r5, #110	; 0x6e
    10d4:	48505f42 	ldmdami	r0, {r1, r6, r8, r9, sl, fp, ip, lr}^
    10d8:	495f3259 	ldmdbmi	pc, {r0, r3, r4, r6, r9, ip, sp}^	; <UNPREDICTABLE>
    10dc:	006e5152 	rsbeq	r5, lr, r2, asr r1
    10e0:	50425f43 	subpl	r5, r2, r3, asr #30
    10e4:	50470052 	subpl	r0, r7, r2, asr r0
    10e8:	5f314f49 	svcpl	0x00314f49
    10ec:	36544e49 	ldrbcc	r4, [r4], -r9, asr #28
    10f0:	5152495f 	cmppl	r2, pc, asr r9
    10f4:	5047006e 	subpl	r0, r7, lr, rrx
    10f8:	5f354f49 	svcpl	0x00354f49
    10fc:	626d6f43 	rsbvs	r6, sp, #268	; 0x10c
    1100:	64656e69 	strbtvs	r6, [r5], #-3689	; 0xfffff197
    1104:	315f305f 	cmpcc	pc, pc, asr r0	; <UNPREDICTABLE>
    1108:	52495f35 	subpl	r5, r9, #53, 30	; 0xd4
    110c:	47006e51 	smlsdmi	r0, r1, lr, r6
    1110:	314f4950 	cmpcc	pc, r0, asr r9	; <UNPREDICTABLE>
    1114:	544e495f 	strbpl	r4, [lr], #-2399	; 0xfffff6a1
    1118:	52495f31 	subpl	r5, r9, #49, 30	; 0xc4
    111c:	57006e51 	smlsdpl	r0, r1, lr, r6
    1120:	32474f44 	subcc	r4, r7, #68, 30	; 0x110
    1124:	5152495f 	cmppl	r2, pc, asr r9
    1128:	5f44006e 	svcpl	0x0044006e
    112c:	49525049 	ldmdbmi	r2, {r0, r3, r6, ip, lr}^
    1130:	5449524f 	strbpl	r5, [r9], #-591	; 0xfffffdb1
    1134:	50005259 	andpl	r5, r0, r9, asr r2
    1138:	495f554d 	ldmdbmi	pc, {r0, r2, r3, r6, r8, sl, ip, lr}^	; <UNPREDICTABLE>
    113c:	5f325152 	svcpl	0x00325152
    1140:	6e515249 	cdpvs	2, 5, cr5, cr1, cr9, {2}
    1144:	666f5300 	strbtvs	r5, [pc], -r0, lsl #6
    1148:	72617774 	rsbvc	r7, r1, #116, 14	; 0x1d00000
    114c:	495f3865 	ldmdbmi	pc, {r0, r2, r5, r6, fp, ip, sp}^	; <UNPREDICTABLE>
    1150:	006e5152 	rsbeq	r5, lr, r2, asr r1
    1154:	42415f43 	submi	r5, r1, #268	; 0x10c
    1158:	50005250 	andpl	r5, r0, r0, asr r2
    115c:	5f344d57 	svcpl	0x00344d57
    1160:	6e515249 	cdpvs	2, 5, cr5, cr1, cr9, {2}
    1164:	73797300 	cmnvc	r9, #0, 6
    1168:	5f6d6574 	svcpl	0x006d6574
    116c:	69676572 	stmdbvs	r7!, {r1, r4, r5, r6, r8, sl, sp, lr}^
    1170:	72657473 	rsbvc	r7, r5, #1929379840	; 0x73000000
    1174:	7172695f 	cmnvc	r2, pc, asr r9
    1178:	646e6168 	strbtvs	r6, [lr], #-360	; 0xfffffe98
    117c:	0072656c 	rsbseq	r6, r2, ip, ror #10
    1180:	4f455f43 	svcmi	0x00455f43
    1184:	55005249 	strpl	r5, [r0, #-585]	; 0xfffffdb7
    1188:	37545241 	ldrbcc	r5, [r4, -r1, asr #4]
    118c:	5152495f 	cmppl	r2, pc, asr r9
    1190:	5f44006e 	svcpl	0x0044006e
    1194:	524c5443 	subpl	r5, ip, #1124073472	; 0x43000000
    1198:	666f5300 	strbtvs	r5, [pc], -r0, lsl #6
    119c:	72617774 	rsbvc	r7, r1, #116, 14	; 0x1d00000
    11a0:	495f3365 	ldmdbmi	pc, {r0, r2, r5, r6, r8, r9, ip, sp}^	; <UNPREDICTABLE>
    11a4:	006e5152 	rsbeq	r5, lr, r2, asr r1
    11a8:	54435f43 	strbpl	r5, [r3], #-3907	; 0xfffff0bd
    11ac:	5200524c 	andpl	r5, r0, #76, 4	; 0xc0000004
    11b0:	72657365 	rsbvc	r7, r5, #-1811939327	; 0x94000001
    11b4:	31646576 	smccc	18006	; 0x4656
    11b8:	495f3535 	ldmdbmi	pc, {r0, r2, r4, r5, r8, sl, ip, sp}^	; <UNPREDICTABLE>
    11bc:	006e5152 	rsbeq	r5, lr, r2, asr r1
    11c0:	74617473 	strbtvc	r7, [r1], #-1139	; 0xfffffb8d
    11c4:	62007375 	andvs	r7, r0, #-738197503	; 0xd4000001
    11c8:	5f706565 	svcpl	0x00706565
    11cc:	74697773 	strbtvc	r7, [r9], #-1907	; 0xfffff88d
    11d0:	62006863 	andvs	r6, r0, #6488064	; 0x630000
    11d4:	5f706565 	svcpl	0x00706565
    11d8:	74696e69 	strbtvc	r6, [r9], #-3689	; 0xfffff197
    11dc:	70736200 	rsbsvc	r6, r3, r0, lsl #4
    11e0:	6565622f 	strbvs	r6, [r5, #-559]!	; 0xfffffdd1
    11e4:	73622f70 	cmnvc	r2, #112, 30	; 0x1c0
    11e8:	65625f70 	strbvs	r5, [r2, #-3952]!	; 0xfffff090
    11ec:	632e7065 			; <UNDEFINED> instruction: 0x632e7065
    11f0:	50476b00 	subpl	r6, r7, r0, lsl #22
    11f4:	495f4f49 	ldmdbmi	pc, {r0, r3, r6, r8, r9, sl, fp, lr}^	; <UNPREDICTABLE>
    11f8:	6f4c746e 	svcvs	0x004c746e
    11fc:	76654c77 			; <UNDEFINED> instruction: 0x76654c77
    1200:	5f006c65 	svcpl	0x00006c65
    1204:	6f697067 	svcvs	0x00697067
    1208:	6e69705f 	mcrvs	0, 3, r7, cr9, cr15, {2}
    120c:	7269645f 	rsbvc	r6, r9, #1593835520	; 0x5f000000
    1210:	69746365 	ldmdbvs	r4!, {r0, r2, r5, r6, r8, r9, sp, lr}^
    1214:	6b006e6f 	blvs	1cbd8 <shift+0x1cbd8>
    1218:	4f495047 	svcmi	0x00495047
    121c:	746e495f 	strbtvc	r4, [lr], #-2399	; 0xfffff6a1
    1220:	69736952 	ldmdbvs	r3!, {r1, r4, r6, r8, fp, sp, lr}^
    1224:	724f676e 	subvc	r6, pc, #28835840	; 0x1b80000
    1228:	6c6c6146 	stfvse	f6, [ip], #-280	; 0xfffffee8
    122c:	45676e69 	strbmi	r6, [r7, #-3689]!	; 0xfffff197
    1230:	00656764 	rsbeq	r6, r5, r4, ror #14
    1234:	6f697067 	svcvs	0x00697067
    1238:	746e695f 	strbtvc	r6, [lr], #-2399	; 0xfffff6a1
    123c:	75727265 	ldrbvc	r7, [r2, #-613]!	; 0xfffffd9b
    1240:	6d5f7470 	cfldrdvs	mvd7, [pc, #-448]	; 1088 <shift+0x1088>
    1244:	5f65646f 	svcpl	0x0065646f
    1248:	476b0074 			; <UNDEFINED> instruction: 0x476b0074
    124c:	5f4f4950 	svcpl	0x004f4950
    1250:	48746e49 	ldmdami	r4!, {r0, r3, r6, r9, sl, fp, sp, lr}^
    1254:	4c686769 	stclmi	7, cr6, [r8], #-420	; 0xfffffe5c
    1258:	6c657665 	stclvs	6, cr7, [r5], #-404	; 0xfffffe6c
    125c:	6e697000 	cdpvs	0, 6, cr7, cr9, cr0, {0}
    1260:	746e695f 	strbtvc	r6, [lr], #-2399	; 0xfffff6a1
    1264:	646f6d5f 	strbtvs	r6, [pc], #-3423	; 126c <shift+0x126c>
    1268:	476b0065 	strbmi	r0, [fp, -r5, rrx]!
    126c:	5f4f4950 	svcpl	0x004f4950
    1270:	69676944 	stmdbvs	r7!, {r2, r6, r8, fp, sp, lr}^
    1274:	496c6174 	stmdbmi	ip!, {r2, r4, r5, r6, r8, sp, lr}^
    1278:	7475706e 	ldrbtvc	r7, [r5], #-110	; 0xffffff92
    127c:	50476b00 	subpl	r6, r7, r0, lsl #22
    1280:	495f4f49 	ldmdbmi	pc, {r0, r3, r6, r8, r9, sl, fp, lr}^	; <UNPREDICTABLE>
    1284:	6146746e 	cmpvs	r6, lr, ror #8
    1288:	6e696c6c 	cdpvs	12, 6, cr6, cr9, cr12, {3}
    128c:	67644567 	strbvs	r4, [r4, -r7, ror #10]!
    1290:	70670065 	rsbvc	r0, r7, r5, rrx
    1294:	635f6f69 	cmpvs	pc, #420	; 0x1a4
    1298:	7261656c 	rsbvc	r6, r1, #108, 10	; 0x1b000000
    129c:	66746e69 	ldrbtvs	r6, [r4], -r9, ror #28
    12a0:	7367616c 	cmnvc	r7, #108, 2
    12a4:	69706700 	ldmdbvs	r0!, {r8, r9, sl, sp, lr}^
    12a8:	6e655f6f 	cdpvs	15, 6, cr5, cr5, cr15, {3}
    12ac:	656c6261 	strbvs	r6, [ip, #-609]!	; 0xfffffd9f
    12b0:	00746e69 	rsbseq	r6, r4, r9, ror #28
    12b4:	4950476b 	ldmdbmi	r0, {r0, r1, r3, r5, r6, r8, r9, sl, lr}^
    12b8:	6e495f4f 	cdpvs	15, 4, cr5, cr9, cr15, {2}
    12bc:	73695274 	cmnvc	r9, #116, 4	; 0x40000007
    12c0:	45676e69 	strbmi	r6, [r7, #-3689]!	; 0xfffff197
    12c4:	00656764 	rsbeq	r6, r5, r4, ror #14
    12c8:	6f697067 	svcvs	0x00697067
    12cc:	6e69705f 	mcrvs	0, 3, r7, cr9, cr15, {2}
    12d0:	6e6f635f 	mcrvs	3, 3, r6, cr15, cr15, {2}
    12d4:	5f676966 	svcpl	0x00676966
    12d8:	756f0074 	strbvc	r0, [pc, #-116]!	; 126c <shift+0x126c>
    12dc:	74757074 	ldrbtvc	r7, [r5], #-116	; 0xffffff8c
    12e0:	69676f4c 	stmdbvs	r7!, {r2, r3, r6, r8, r9, sl, fp, sp, lr}^
    12e4:	70670063 	rsbvc	r0, r7, r3, rrx
    12e8:	695f6f69 	ldmdbvs	pc, {r0, r3, r5, r6, r8, r9, sl, fp, sp, lr}^	; <UNPREDICTABLE>
    12ec:	6f63746e 	svcvs	0x0063746e
    12f0:	6769666e 	strbvs	r6, [r9, -lr, ror #12]!
    12f4:	746e6900 	strbtvc	r6, [lr], #-2304	; 0xfffff700
    12f8:	75727265 	ldrbvc	r7, [r2, #-613]!	; 0xfffffd9b
    12fc:	6f4d7470 	svcvs	0x004d7470
    1300:	67006564 	strvs	r6, [r0, -r4, ror #10]
    1304:	5f6f6970 	svcpl	0x006f6970
    1308:	74696e69 	strbtvc	r6, [r9], #-3689	; 0xfffff197
    130c:	69706700 	ldmdbvs	r0!, {r8, r9, sl, sp, lr}^
    1310:	69705f6f 	ldmdbvs	r0!, {r0, r1, r2, r3, r5, r6, r8, r9, sl, fp, ip, lr}^
    1314:	69645f6e 	stmdbvs	r4!, {r1, r2, r3, r5, r6, r8, r9, sl, fp, ip, lr}^
    1318:	74636572 	strbtvc	r6, [r3], #-1394	; 0xfffffa8e
    131c:	5f6e6f69 	svcpl	0x006e6f69
    1320:	675f0074 			; <UNDEFINED> instruction: 0x675f0074
    1324:	5f6f6970 	svcpl	0x006f6970
    1328:	5f6e6970 	svcpl	0x006e6970
    132c:	666e6f63 	strbtvs	r6, [lr], -r3, ror #30
    1330:	67006769 	strvs	r6, [r0, -r9, ror #14]
    1334:	5f6f6970 	svcpl	0x006f6970
    1338:	61736964 	cmnvs	r3, r4, ror #18
    133c:	69656c62 	stmdbvs	r5!, {r1, r5, r6, sl, fp, sp, lr}^
    1340:	6700746e 	strvs	r7, [r0, -lr, ror #8]
    1344:	5f6f6970 	svcpl	0x006f6970
    1348:	74666f73 	strbtvc	r6, [r6], #-3955	; 0xfffff08d
    134c:	00746e69 	rsbseq	r6, r4, r9, ror #28
    1350:	53726369 	cmnpl	r2, #-1543503871	; 0xa4000001
    1354:	74666968 	strbtvc	r6, [r6], #-2408	; 0xfffff698
    1358:	70675f00 	rsbvc	r5, r7, r0, lsl #30
    135c:	695f6f69 	ldmdbvs	pc, {r0, r3, r5, r6, r8, r9, sl, fp, sp, lr}^	; <UNPREDICTABLE>
    1360:	7265746e 	rsbvc	r7, r5, #1845493760	; 0x6e000000
    1364:	74707572 	ldrbtvc	r7, [r0], #-1394	; 0xfffffa8e
    1368:	646f6d5f 	strbtvs	r6, [pc], #-3423	; 1370 <shift+0x1370>
    136c:	73620065 	cmnvc	r2, #101	; 0x65
    1370:	70672f70 	rsbvc	r2, r7, r0, ror pc
    1374:	622f6f69 	eorvs	r6, pc, #420	; 0x1a4
    1378:	675f7073 			; <UNDEFINED> instruction: 0x675f7073
    137c:	2e6f6970 			; <UNDEFINED> instruction: 0x2e6f6970
    1380:	476b0063 	strbmi	r0, [fp, -r3, rrx]!
    1384:	5f4f4950 	svcpl	0x004f4950
    1388:	69676944 	stmdbvs	r7!, {r2, r6, r8, fp, sp, lr}^
    138c:	4f6c6174 	svcmi	0x006c6174
    1390:	75707475 	ldrbvc	r7, [r0, #-1141]!	; 0xfffffb8b
    1394:	476b0074 			; <UNDEFINED> instruction: 0x476b0074
    1398:	5f4f4950 	svcpl	0x004f4950
    139c:	6e496f4e 	cdpvs	15, 4, cr6, cr9, cr14, {2}
    13a0:	646f6d74 	strbtvs	r6, [pc], #-3444	; 13a8 <shift+0x13a8>
    13a4:	656b0065 	strbvs	r0, [fp, #-101]!	; 0xffffff9b
    13a8:	61765f79 	cmnvs	r6, r9, ror pc
    13ac:	0065756c 	rsbeq	r7, r5, ip, ror #10
    13b0:	656c6572 	strbvs	r6, [ip, #-1394]!	; 0xfffffa8e
    13b4:	4b006573 	blmi	1a988 <shift+0x1a988>
    13b8:	5f305945 	svcpl	0x00305945
    13bc:	554c4156 	strbpl	r4, [ip, #-342]	; 0xfffffeaa
    13c0:	454b0045 	strbmi	r0, [fp, #-69]	; 0xffffffbb
    13c4:	4f4e5f59 	svcmi	0x004e5f59
    13c8:	6b00454e 	blvs	12908 <shift+0x12908>
    13cc:	695f7965 	ldmdbvs	pc, {r0, r2, r5, r6, r8, fp, ip, sp, lr}^	; <UNPREDICTABLE>
    13d0:	0074696e 	rsbseq	r6, r4, lr, ror #18
    13d4:	5f79656b 	svcpl	0x0079656b
    13d8:	756c6176 	strbvc	r6, [ip, #-374]!	; 0xfffffe8a
    13dc:	00745f65 	rsbseq	r5, r4, r5, ror #30
    13e0:	5f79656b 	svcpl	0x0079656b
    13e4:	666e6f63 	strbtvs	r6, [lr], -r3, ror #30
    13e8:	62006769 	andvs	r6, r0, #27525120	; 0x1a40000
    13ec:	6b2f7073 	blvs	bdd5c0 <shift+0xbdd5c0>
    13f0:	622f7965 	eorvs	r7, pc, #1654784	; 0x194000
    13f4:	6b5f7073 	blvs	17dd5c8 <shift+0x17dd5c8>
    13f8:	632e7965 			; <UNDEFINED> instruction: 0x632e7965
    13fc:	79656b00 	stmdbvc	r5!, {r8, r9, fp, sp, lr}^
    1400:	7465675f 	strbtvc	r6, [r5], #-1887	; 0xfffff8a1
    1404:	756c6176 	strbvc	r6, [ip, #-374]!	; 0xfffffe8a
    1408:	536b0065 	cmnpl	fp, #101	; 0x65
    140c:	75746174 	ldrbvc	r6, [r4, #-372]!	; 0xfffffe8c
    1410:	6f724773 	svcvs	0x00724773
    1414:	465f7075 			; <UNDEFINED> instruction: 0x465f7075
    1418:	4958454c 	ldmdbmi	r8, {r2, r3, r6, r8, sl, lr}^
    141c:	41555f4f 	cmpmi	r5, pc, asr #30
    1420:	6b005452 	blvs	16570 <shift+0x16570>
    1424:	74617453 	strbtvc	r7, [r1], #-1107	; 0xfffffbad
    1428:	72477375 	subvc	r7, r7, #-738197503	; 0xd4000001
    142c:	5f70756f 	svcpl	0x0070756f
    1430:	00494153 	subeq	r4, r9, r3, asr r1
    1434:	6174536b 	cmnvs	r4, fp, ror #6
    1438:	47737574 			; <UNDEFINED> instruction: 0x47737574
    143c:	70756f72 	rsbsvc	r6, r5, r2, ror pc
    1440:	5244535f 	subpl	r5, r4, #2080374785	; 0x7c000001
    1444:	00434d41 	subeq	r4, r3, r1, asr #26
    1448:	7379735f 	cmnvc	r9, #2080374785	; 0x7c000001
    144c:	7172695f 	cmnvc	r2, pc, asr r9
    1450:	6e61685f 	mcrvs	8, 3, r6, cr1, cr15, {2}
    1454:	00656c64 	rsbeq	r6, r5, r4, ror #24
    1458:	6174536b 	cmnvs	r4, fp, ror #6
    145c:	47737574 			; <UNDEFINED> instruction: 0x47737574
    1460:	70756f72 	rsbsvc	r6, r5, r2, ror pc
    1464:	4453555f 	ldrbmi	r5, [r3], #-1375	; 0xfffffaa1
    1468:	6b004348 	blvs	12190 <shift+0x12190>
    146c:	74617453 	strbtvc	r7, [r1], #-1107	; 0xfffffbad
    1470:	72477375 	subvc	r7, r7, #-738197503	; 0xd4000001
    1474:	5f70756f 	svcpl	0x0070756f
    1478:	656e6547 	strbvs	r6, [lr, #-1351]!	; 0xfffffab9
    147c:	00636972 	rsbeq	r6, r3, r2, ror r9
    1480:	6174536b 	cmnvs	r4, fp, ror #6
    1484:	47737574 			; <UNDEFINED> instruction: 0x47737574
    1488:	70756f72 	rsbsvc	r6, r5, r2, ror pc
    148c:	43544c5f 	cmpmi	r4, #24320	; 0x5f00
    1490:	74536b00 	ldrbvc	r6, [r3], #-2816	; 0xfffff500
    1494:	73757461 	cmnvc	r5, #1627389952	; 0x61000000
    1498:	756f7247 	strbvc	r7, [pc, #-583]!	; 1259 <shift+0x1259>
    149c:	4e455f70 	mcrmi	15, 2, r5, cr5, cr0, {3}
    14a0:	6b005445 	blvs	165bc <shift+0x165bc>
    14a4:	74617453 	strbtvc	r7, [r1], #-1107	; 0xfffffbad
    14a8:	72477375 	subvc	r7, r7, #-738197503	; 0xd4000001
    14ac:	5f70756f 	svcpl	0x0070756f
    14b0:	54524155 	ldrbpl	r4, [r2], #-341	; 0xfffffeab
    14b4:	74536b00 	ldrbvc	r6, [r3], #-2816	; 0xfffff500
    14b8:	73757461 	cmnvc	r5, #1627389952	; 0x61000000
    14bc:	756f7247 	strbvc	r7, [pc, #-583]!	; 127d <shift+0x127d>
    14c0:	45535f70 	ldrbmi	r5, [r3, #-3952]	; 0xfffff090
    14c4:	3234414d 	eorscc	r4, r4, #1073741843	; 0x40000013
    14c8:	74536b00 	ldrbvc	r6, [r3], #-2816	; 0xfffff500
    14cc:	73757461 	cmnvc	r5, #1627389952	; 0x61000000
    14d0:	756f7247 	strbvc	r7, [pc, #-583]!	; 1291 <shift+0x1291>
    14d4:	434d5f70 	movtmi	r5, #57200	; 0xdf70
    14d8:	6b004e41 	blvs	14de4 <shift+0x14de4>
    14dc:	74617453 	strbtvc	r7, [r1], #-1107	; 0xfffffbad
    14e0:	72477375 	subvc	r7, r7, #-738197503	; 0xd4000001
    14e4:	5f70756f 	svcpl	0x0070756f
    14e8:	5f43504c 	svcpl	0x0043504c
    14ec:	00495053 	subeq	r5, r9, r3, asr r0
    14f0:	6174536b 	cmnvs	r4, fp, ror #6
    14f4:	47737574 			; <UNDEFINED> instruction: 0x47737574
    14f8:	70756f72 	rsbsvc	r6, r5, r2, ror pc
    14fc:	454c465f 	strbmi	r4, [ip, #-1631]	; 0xfffff9a1
    1500:	5f4f4958 	svcpl	0x004f4958
    1504:	4c55434d 	mrrcmi	3, 4, r4, r5, cr13
    1508:	47004443 	strmi	r4, [r0, -r3, asr #8]
    150c:	495f4349 	ldmdbmi	pc, {r0, r3, r6, r8, r9, lr}^	; <UNPREDICTABLE>
    1510:	0074696e 	rsbseq	r6, r4, lr, ror #18
    1514:	6174536b 	cmnvs	r4, fp, ror #6
    1518:	47737574 			; <UNDEFINED> instruction: 0x47737574
    151c:	70756f72 	rsbsvc	r6, r5, r2, ror pc
    1520:	43504c5f 	cmpmi	r0, #24320	; 0x5f00
    1524:	4332495f 	teqmi	r2, #1556480	; 0x17c000
    1528:	74536b00 	ldrbvc	r6, [r3], #-2816	; 0xfffff500
    152c:	73757461 	cmnvc	r5, #1627389952	; 0x61000000
    1530:	756f7247 	strbvc	r7, [pc, #-583]!	; 12f1 <shift+0x12f1>
    1534:	544f5f70 	strbpl	r5, [pc], #-3952	; 153c <shift+0x153c>
    1538:	536b0050 	cmnpl	fp, #80	; 0x50
    153c:	75746174 	ldrbvc	r6, [r4, #-372]!	; 0xfffffe8c
    1540:	6f724773 	svcvs	0x00724773
    1544:	445f7075 	ldrbmi	r7, [pc], #-117	; 154c <shift+0x154c>
    1548:	00495053 	subeq	r5, r9, r3, asr r0
    154c:	6174536b 	cmnvs	r4, fp, ror #6
    1550:	47737574 			; <UNDEFINED> instruction: 0x47737574
    1554:	70756f72 	rsbsvc	r6, r5, r2, ror pc
    1558:	5053515f 	subspl	r5, r3, pc, asr r1
    155c:	536b0049 	cmnpl	fp, #73	; 0x49
    1560:	75746174 	ldrbvc	r6, [r4, #-372]!	; 0xfffffe8c
    1564:	6f724773 	svcvs	0x00724773
    1568:	4d5f7075 	ldclmi	0, cr7, [pc, #-468]	; 139c <shift+0x139c>
    156c:	0043444d 	subeq	r4, r3, sp, asr #8
    1570:	4e746e69 	cdpmi	14, 7, cr6, cr4, cr9, {3}
    1574:	69006d75 	stmdbvs	r0, {r0, r2, r4, r5, r6, r8, sl, fp, sp, lr}
    1578:	61547172 	cmpvs	r4, r2, ror r1
    157c:	00656c62 	rsbeq	r6, r5, r2, ror #24
    1580:	6174536b 	cmnvs	r4, fp, ror #6
    1584:	47737574 			; <UNDEFINED> instruction: 0x47737574
    1588:	70756f72 	rsbsvc	r6, r5, r2, ror pc
    158c:	5344535f 	movtpl	r5, #17247	; 0x435f
    1590:	69004950 	stmdbvs	r0, {r4, r6, r8, fp, lr}
    1594:	654e7172 	strbvs	r7, [lr, #-370]	; 0xfffffe8e
    1598:	6e697473 	mcrvs	4, 3, r7, cr9, cr3, {3}
    159c:	5f5f0067 	svcpl	0x005f0067
    15a0:	5f746573 	svcpl	0x00746573
    15a4:	52414256 	subpl	r4, r1, #1610612741	; 0x60000005
    15a8:	74536b00 	ldrbvc	r6, [r3], #-2816	; 0xfffff500
    15ac:	73757461 	cmnvc	r5, #1627389952	; 0x61000000
    15b0:	756f7247 	strbvc	r7, [pc, #-583]!	; 1371 <shift+0x1371>
    15b4:	4c465f70 	mcrrmi	15, 7, r5, r6, cr0
    15b8:	41435845 	cmpmi	r3, r5, asr #16
    15bc:	536b004e 	cmnpl	fp, #78	; 0x4e
    15c0:	75746174 	ldrbvc	r6, [r4, #-372]!	; 0xfffffe8c
    15c4:	6f724773 	svcvs	0x00724773
    15c8:	4e5f7075 	mrcmi	0, 2, r7, cr15, cr5, {3}
    15cc:	4649544f 	strbmi	r5, [r9], -pc, asr #8
    15d0:	00524549 	subseq	r4, r2, r9, asr #10
    15d4:	6174536b 	cmnvs	r4, fp, ror #6
    15d8:	47737574 			; <UNDEFINED> instruction: 0x47737574
    15dc:	70756f72 	rsbsvc	r6, r5, r2, ror pc
    15e0:	414d445f 	cmpmi	sp, pc, asr r4
    15e4:	0052474d 	subseq	r4, r2, sp, asr #14
    15e8:	6174536b 	cmnvs	r4, fp, ror #6
    15ec:	47737574 			; <UNDEFINED> instruction: 0x47737574
    15f0:	70756f72 	rsbsvc	r6, r5, r2, ror pc
    15f4:	454c465f 	strbmi	r4, [ip, #-1631]	; 0xfffff9a1
    15f8:	5f4f4958 	svcpl	0x004f4958
    15fc:	454d4143 	strbmi	r4, [sp, #-323]	; 0xfffffebd
    1600:	6b004152 	blvs	11b50 <shift+0x11b50>
    1604:	74617453 	strbtvc	r7, [r1], #-1107	; 0xfffffbad
    1608:	72477375 	subvc	r7, r7, #-738197503	; 0xd4000001
    160c:	5f70756f 	svcpl	0x0070756f
    1610:	45574f50 	ldrbmi	r4, [r7, #-3920]	; 0xfffff0b0
    1614:	536b0052 	cmnpl	fp, #82	; 0x52
    1618:	75746174 	ldrbvc	r6, [r4, #-372]!	; 0xfffffe8c
    161c:	6f724773 	svcvs	0x00724773
    1620:	4d5f7075 	ldclmi	0, cr7, [pc, #-468]	; 1454 <shift+0x1454>
    1624:	6b004743 	blvs	13338 <shift+0x13338>
    1628:	74617453 	strbtvc	r7, [r1], #-1107	; 0xfffffbad
    162c:	72477375 	subvc	r7, r7, #-738197503	; 0xd4000001
    1630:	5f70756f 	svcpl	0x0070756f
    1634:	43494d44 	movtmi	r4, #40260	; 0x9d44
    1638:	65737500 	ldrbvs	r7, [r3, #-1280]!	; 0xfffffb00
    163c:	72615072 	rsbvc	r5, r1, #114	; 0x72
    1640:	6b006d61 	blvs	1cbcc <shift+0x1cbcc>
    1644:	74617453 	strbtvc	r7, [r1], #-1107	; 0xfffffbad
    1648:	72477375 	subvc	r7, r7, #-738197503	; 0xd4000001
    164c:	5f70756f 	svcpl	0x0070756f
    1650:	43484453 	movtmi	r4, #33875	; 0x8453
    1654:	74536b00 	ldrbvc	r6, [r3], #-2816	; 0xfffff500
    1658:	73757461 	cmnvc	r5, #1627389952	; 0x61000000
    165c:	756f7247 	strbvc	r7, [pc, #-583]!	; 141d <shift+0x141d>
    1660:	4d445f70 	stclmi	15, cr5, [r4, #-448]	; 0xfffffe40
    1664:	536b0041 	cmnpl	fp, #65	; 0x41
    1668:	75746174 	ldrbvc	r6, [r4, #-372]!	; 0xfffffe8c
    166c:	6f724773 	svcvs	0x00724773
    1670:	435f7075 	cmpmi	pc, #117	; 0x75
    1674:	67004953 	smlsdvs	r0, r3, r9, r4
    1678:	49636369 	stmdbmi	r3!, {r0, r3, r5, r6, r8, r9, sp, lr}^
    167c:	62007261 	andvs	r7, r0, #268435462	; 0x10000006
    1680:	692f7073 	stmdbvs	pc!, {r0, r1, r4, r5, r6, ip, sp, lr}	; <UNPREDICTABLE>
    1684:	622f746e 	eorvs	r7, pc, #1845493760	; 0x6e000000
    1688:	695f7073 	ldmdbvs	pc, {r0, r1, r4, r5, r6, ip, sp, lr}^	; <UNPREDICTABLE>
    168c:	632e746e 			; <UNDEFINED> instruction: 0x632e746e
    1690:	74536b00 	ldrbvc	r6, [r3], #-2816	; 0xfffff500
    1694:	73757461 	cmnvc	r5, #1627389952	; 0x61000000
    1698:	756f7247 	strbvc	r7, [pc, #-583]!	; 1459 <shift+0x1459>
    169c:	44535f70 	ldrbmi	r5, [r3], #-3952	; 0xfffff090
    16a0:	73004649 	movwvc	r4, #1609	; 0x649
    16a4:	65747379 	ldrbvs	r7, [r4, #-889]!	; 0xfffffc87
    16a8:	72695f6d 	rsbvc	r5, r9, #436	; 0x1b4
    16ac:	62617471 	rsbvs	r7, r1, #1895825408	; 0x71000000
    16b0:	695f656c 	ldmdbvs	pc, {r2, r3, r5, r6, r8, sl, sp, lr}^	; <UNPREDICTABLE>
    16b4:	0074696e 	rsbseq	r6, r4, lr, ror #18
    16b8:	6174536b 	cmnvs	r4, fp, ror #6
    16bc:	47737574 			; <UNDEFINED> instruction: 0x47737574
    16c0:	70756f72 	rsbsvc	r6, r5, r2, ror pc
    16c4:	414c465f 	cmpmi	ip, pc, asr r6
    16c8:	6b004853 	blvs	1381c <shift+0x1381c>
    16cc:	74617453 	strbtvc	r7, [r1], #-1107	; 0xfffffbad
    16d0:	72477375 	subvc	r7, r7, #-738197503	; 0xd4000001
    16d4:	5f70756f 	svcpl	0x0070756f
    16d8:	58454c46 	stmdapl	r5, {r1, r2, r6, sl, fp, lr}^
    16dc:	495f4f49 	ldmdbmi	pc, {r0, r3, r6, r8, r9, sl, fp, lr}^	; <UNPREDICTABLE>
    16e0:	73005332 	movwvc	r5, #818	; 0x332
    16e4:	65747379 	ldrbvs	r7, [r4, #-889]!	; 0xfffffc87
    16e8:	72695f6d 	rsbvc	r5, r9, #436	; 0x1b4
    16ec:	6e616871 	mcrvs	8, 3, r6, cr1, cr1, {3}
    16f0:	72656c64 	rsbvc	r6, r5, #100, 24	; 0x6400
    16f4:	74536b00 	ldrbvc	r6, [r3], #-2816	; 0xfffff500
    16f8:	73757461 	cmnvc	r5, #1627389952	; 0x61000000
    16fc:	756f7247 	strbvc	r7, [pc, #-583]!	; 14bd <shift+0x14bd>
    1700:	55495f70 	strbpl	r5, [r9, #-3952]	; 0xfffff090
    1704:	00545241 	subseq	r5, r4, r1, asr #4
    1708:	6174536b 	cmnvs	r4, fp, ror #6
    170c:	47737574 			; <UNDEFINED> instruction: 0x47737574
    1710:	70756f72 	rsbsvc	r6, r5, r2, ror pc
    1714:	454c465f 	strbmi	r4, [ip, #-1631]	; 0xfffff9a1
    1718:	5f4f4958 	svcpl	0x004f4958
    171c:	00495053 	subeq	r5, r9, r3, asr r0
    1720:	6174536b 	cmnvs	r4, fp, ror #6
    1724:	47737574 			; <UNDEFINED> instruction: 0x47737574
    1728:	70756f72 	rsbsvc	r6, r5, r2, ror pc
    172c:	4141435f 	cmpmi	r1, pc, asr r3
    1730:	7269004d 	rsbvc	r0, r9, #77	; 0x4d
    1734:	6e614871 	mcrvs	8, 3, r4, cr1, cr1, {3}
    1738:	72656c64 	rsbvc	r6, r5, #100, 24	; 0x6400
    173c:	73797300 	cmnvc	r9, #0, 6
    1740:	7172695f 	cmnvc	r2, pc, asr r9
    1744:	6e61685f 	mcrvs	8, 3, r6, cr1, cr15, {2}
    1748:	5f656c64 	svcpl	0x00656c64
    174c:	536b0074 	cmnpl	fp, #116	; 0x74
    1750:	75746174 	ldrbvc	r6, [r4, #-372]!	; 0xfffffe8c
    1754:	6f724773 	svcvs	0x00724773
    1758:	535f7075 	cmppl	pc, #117	; 0x75
    175c:	6b004950 	blvs	13ca4 <shift+0x13ca4>
    1760:	74617453 	strbtvc	r7, [r1], #-1107	; 0xfffffbad
    1764:	72477375 	subvc	r7, r7, #-738197503	; 0xd4000001
    1768:	5f70756f 	svcpl	0x0070756f
    176c:	4d475254 	sfmmi	f5, 2, [r7, #-336]	; 0xfffffeb0
    1770:	6b005855 	blvs	178cc <shift+0x178cc>
    1774:	74617453 	strbtvc	r7, [r1], #-1107	; 0xfffffbad
    1778:	72477375 	subvc	r7, r7, #-738197503	; 0xd4000001
    177c:	5f70756f 	svcpl	0x0070756f
    1780:	6c707041 	ldclvs	0, cr7, [r0], #-260	; 0xfffffefc
    1784:	74616369 	strbtvc	r6, [r1], #-873	; 0xfffffc97
    1788:	526e6f69 	rsbpl	r6, lr, #420	; 0x1a4
    178c:	65676e61 	strbvs	r6, [r7, #-3681]!	; 0xfffff19f
    1790:	72617453 	rsbvc	r7, r1, #1392508928	; 0x53000000
    1794:	735f0074 	cmpvc	pc, #116	; 0x74
    1798:	75746174 	ldrbvc	r6, [r4, #-372]!	; 0xfffffe8c
    179c:	72675f73 	rsbvc	r5, r7, #460	; 0x1cc
    17a0:	7370756f 	cmnvc	r0, #465567744	; 0x1bc00000
    17a4:	74536b00 	ldrbvc	r6, [r3], #-2816	; 0xfffff500
    17a8:	73757461 	cmnvc	r5, #1627389952	; 0x61000000
    17ac:	756f7247 	strbvc	r7, [pc, #-583]!	; 156d <shift+0x156d>
    17b0:	504c5f70 	subpl	r5, ip, r0, ror pc
    17b4:	54524155 	ldrbpl	r4, [r2], #-341	; 0xfffffeab
    17b8:	74536b00 	ldrbvc	r6, [r3], #-2816	; 0xfffff500
    17bc:	73757461 	cmnvc	r5, #1627389952	; 0x61000000
    17c0:	756f7247 	strbvc	r7, [pc, #-583]!	; 1581 <shift+0x1581>
    17c4:	50535f70 	subspl	r5, r3, r0, ror pc
    17c8:	00494649 	subeq	r4, r9, r9, asr #12
    17cc:	6174536b 	cmnvs	r4, fp, ror #6
    17d0:	47737574 			; <UNDEFINED> instruction: 0x47737574
    17d4:	70756f72 	rsbsvc	r6, r5, r2, ror pc
    17d8:	4452585f 	ldrbmi	r5, [r2], #-2143	; 0xfffff7a1
    17dc:	536b0043 	cmnpl	fp, #67	; 0x43
    17e0:	75746174 	ldrbvc	r6, [r4, #-372]!	; 0xfffffe8c
    17e4:	6f724773 	svcvs	0x00724773
    17e8:	465f7075 			; <UNDEFINED> instruction: 0x465f7075
    17ec:	4958454c 	ldmdbmi	r8, {r2, r3, r6, r8, sl, lr}^
    17f0:	32495f4f 	subcc	r5, r9, #316	; 0x13c
    17f4:	536b0043 	cmnpl	fp, #67	; 0x43
    17f8:	75746174 	ldrbvc	r6, [r4, #-372]!	; 0xfffffe8c
    17fc:	6f724773 	svcvs	0x00724773
    1800:	455f7075 	ldrbmi	r7, [pc, #-117]	; 1793 <shift+0x1793>
    1804:	49505343 	ldmdbmi	r0, {r0, r1, r6, r8, r9, ip, lr}^
    1808:	74536b00 	ldrbvc	r6, [r3], #-2816	; 0xfffff500
    180c:	73757461 	cmnvc	r5, #1627389952	; 0x61000000
    1810:	756f7247 	strbvc	r7, [pc, #-583]!	; 15d1 <shift+0x15d1>
    1814:	32495f70 	subcc	r5, r9, #112, 30	; 0x1c0
    1818:	536b0043 	cmnpl	fp, #67	; 0x43
    181c:	75746174 	ldrbvc	r6, [r4, #-372]!	; 0xfffffe8c
    1820:	6f724773 	svcvs	0x00724773
    1824:	495f7075 	ldmdbmi	pc, {r0, r2, r4, r5, r6, ip, sp, lr}^	; <UNPREDICTABLE>
    1828:	6b005332 	blvs	164f8 <shift+0x164f8>
    182c:	74617453 	strbtvc	r7, [r1], #-1107	; 0xfffffbad
    1830:	72477375 	subvc	r7, r7, #-738197503	; 0xd4000001
    1834:	5f70756f 	svcpl	0x0070756f
    1838:	53414c46 	movtpl	r4, #7238	; 0x1c46
    183c:	50414948 	subpl	r4, r1, r8, asr #18
    1840:	74536b00 	ldrbvc	r6, [r3], #-2816	; 0xfffff500
    1844:	73757461 	cmnvc	r5, #1627389952	; 0x61000000
    1848:	756f7247 	strbvc	r7, [pc, #-583]!	; 1609 <shift+0x1609>
    184c:	4c465f70 	mcrrmi	15, 7, r5, r6, cr0
    1850:	50535845 	subspl	r5, r3, r5, asr #16
    1854:	536b0049 	cmnpl	fp, #73	; 0x49
    1858:	75746174 	ldrbvc	r6, [r4, #-372]!	; 0xfffffe8c
    185c:	6f724773 	svcvs	0x00724773
    1860:	4c5f7075 	mrrcmi	0, 7, r7, pc, cr5	; <UNPREDICTABLE>
    1864:	49505350 	ldmdbmi	r0, {r4, r6, r8, r9, ip, lr}^
    1868:	74536b00 	ldrbvc	r6, [r3], #-2816	; 0xfffff500
    186c:	73757461 	cmnvc	r5, #1627389952	; 0x61000000
    1870:	756f7247 	strbvc	r7, [pc, #-583]!	; 1631 <shift+0x1631>
    1874:	4c465f70 	mcrrmi	15, 7, r5, r6, cr0
    1878:	4f435845 	svcmi	0x00435845
    187c:	495f4d4d 	ldmdbmi	pc, {r0, r2, r3, r6, r8, sl, fp, lr}^	; <UNPREDICTABLE>
    1880:	6b004332 	blvs	12550 <shift+0x12550>
    1884:	74617453 	strbtvc	r7, [r1], #-1107	; 0xfffffbad
    1888:	72477375 	subvc	r7, r7, #-738197503	; 0xd4000001
    188c:	5f70756f 	svcpl	0x0070756f
    1890:	75626544 	strbvc	r6, [r2, #-1348]!	; 0xfffffabc
    1894:	6e6f4367 	cdpvs	3, 6, cr4, cr15, cr7, {3}
    1898:	656c6f73 	strbvs	r6, [ip, #-3955]!	; 0xfffff08d
    189c:	74536b00 	ldrbvc	r6, [r3], #-2816	; 0xfffff500
    18a0:	73757461 	cmnvc	r5, #1627389952	; 0x61000000
    18a4:	756f7247 	strbvc	r7, [pc, #-583]!	; 1665 <shift+0x1665>
    18a8:	494d5f70 	stmdbmi	sp, {r4, r5, r6, r8, r9, sl, fp, ip, lr}^
    18ac:	4c494643 	mcrrmi	6, 4, r4, r9, cr3
    18b0:	74536b00 	ldrbvc	r6, [r3], #-2816	; 0xfffff500
    18b4:	73757461 	cmnvc	r5, #1627389952	; 0x61000000
    18b8:	756f7247 	strbvc	r7, [pc, #-583]!	; 1679 <shift+0x1679>
    18bc:	44455f70 	strbmi	r5, [r5], #-3952	; 0xfffff090
    18c0:	6b00414d 	blvs	11dfc <shift+0x11dfc>
    18c4:	74617453 	strbtvc	r7, [r1], #-1107	; 0xfffffbad
    18c8:	72477375 	subvc	r7, r7, #-738197503	; 0xd4000001
    18cc:	5f70756f 	svcpl	0x0070756f
    18d0:	5f43504c 	svcpl	0x0043504c
    18d4:	52415355 	subpl	r5, r1, #1409286145	; 0x54000001
    18d8:	536b0054 	cmnpl	fp, #84	; 0x54
    18dc:	75746174 	ldrbvc	r6, [r4, #-372]!	; 0xfffffe8c
    18e0:	6f724773 	svcvs	0x00724773
    18e4:	535f7075 	cmppl	pc, #117	; 0x75
    18e8:	6b004743 	blvs	135fc <shift+0x135fc>
    18ec:	74617453 	strbtvc	r7, [r1], #-1107	; 0xfffffbad
    18f0:	72477375 	subvc	r7, r7, #-738197503	; 0xd4000001
    18f4:	5f70756f 	svcpl	0x0070756f
    18f8:	4d4d4453 	cfstrdmi	mvd4, [sp, #-332]	; 0xfffffeb4
    18fc:	536b0043 	cmnpl	fp, #67	; 0x43
    1900:	75746174 	ldrbvc	r6, [r4, #-372]!	; 0xfffffe8c
    1904:	6f724773 	svcvs	0x00724773
    1908:	4c5f7075 	mrrcmi	0, 7, r7, pc, cr5	; <UNPREDICTABLE>
    190c:	43324950 	teqmi	r2, #80, 18	; 0x140000
    1910:	74536b00 	ldrbvc	r6, [r3], #-2816	; 0xfffff500
    1914:	73757461 	cmnvc	r5, #1627389952	; 0x61000000
    1918:	756f7247 	strbvc	r7, [pc, #-583]!	; 16d9 <shift+0x16d9>
    191c:	44535f70 	ldrbmi	r5, [r3], #-3952	; 0xfffff090
    1920:	6b00414d 	blvs	11e5c <shift+0x11e5c>
    1924:	74617453 	strbtvc	r7, [r1], #-1107	; 0xfffffbad
    1928:	72477375 	subvc	r7, r7, #-738197503	; 0xd4000001
    192c:	5f70756f 	svcpl	0x0070756f
    1930:	52414d53 	subpl	r4, r1, #5312	; 0x14c0
    1934:	52414354 	subpl	r4, r1, #84, 6	; 0x50000001
    1938:	536b0044 	cmnpl	fp, #68	; 0x44
    193c:	75746174 	ldrbvc	r6, [r4, #-372]!	; 0xfffffe8c
    1940:	6f724773 	svcvs	0x00724773
    1944:	4c5f7075 	mrrcmi	0, 7, r7, pc, cr5	; <UNPREDICTABLE>
    1948:	004d454d 	subeq	r4, sp, sp, asr #10
    194c:	72616276 	rsbvc	r6, r1, #1610612743	; 0x60000007
    1950:	74536b00 	ldrbvc	r6, [r3], #-2816	; 0xfffff500
    1954:	73757461 	cmnvc	r5, #1627389952	; 0x61000000
    1958:	756f7247 	strbvc	r7, [pc, #-583]!	; 1719 <shift+0x1719>
    195c:	504c5f70 	subpl	r5, ip, r0, ror pc
    1960:	00494353 	subeq	r4, r9, r3, asr r3
    1964:	6174536b 	cmnvs	r4, fp, ror #6
    1968:	47737574 			; <UNDEFINED> instruction: 0x47737574
    196c:	70756f72 	rsbsvc	r6, r5, r2, ror pc
    1970:	4153455f 	cmpmi	r3, pc, asr r5
    1974:	72690049 	rsbvc	r0, r9, #73	; 0x49
    1978:	67655271 			; <UNDEFINED> instruction: 0x67655271
    197c:	536b0073 	cmnpl	fp, #115	; 0x73
    1980:	75746174 	ldrbvc	r6, [r4, #-372]!	; 0xfffffe8c
    1984:	6f724773 	svcvs	0x00724773
    1988:	505f7075 	subspl	r7, pc, r5, ror r0	; <UNPREDICTABLE>
    198c:	64005948 	strvs	r5, [r0], #-2376	; 0xfffff6b8
    1990:	75616665 	strbvc	r6, [r1, #-1637]!	; 0xfffff99b
    1994:	695f746c 	ldmdbvs	pc, {r2, r3, r5, r6, sl, ip, sp, lr}^	; <UNPREDICTABLE>
    1998:	61687172 	smcvs	34578	; 0x8712
    199c:	656c646e 	strbvs	r6, [ip, #-1134]!	; 0xfffffb92
    19a0:	70670072 	rsbvc	r0, r7, r2, ror r0
    19a4:	5f316f69 	svcpl	0x00316f69
    19a8:	38316f69 	ldmdacc	r1!, {r0, r3, r5, r6, r8, r9, sl, fp, sp, lr}
    19ac:	7172695f 	cmnvc	r2, pc, asr r9
    19b0:	646e6168 	strbtvs	r6, [lr], #-360	; 0xfffffe98
    19b4:	0072656c 	rsbseq	r6, r2, ip, ror #10
    19b8:	2f707362 	svccs	0x00707362
    19bc:	69747865 	ldmdbvs	r4!, {r0, r2, r5, r6, fp, ip, sp, lr}^
    19c0:	7073622f 	rsbsvc	r6, r3, pc, lsr #4
    19c4:	7478655f 	ldrbtvc	r6, [r8], #-1375	; 0xfffffaa1
    19c8:	00632e69 	rsbeq	r2, r3, r9, ror #28
    19cc:	69747865 	ldmdbvs	r4!, {r0, r2, r5, r6, fp, ip, sp, lr}^
    19d0:	696e695f 	stmdbvs	lr!, {r0, r1, r2, r3, r4, r6, r8, fp, sp, lr}^
    19d4:	73620074 	cmnvc	r2, #116	; 0x74
    19d8:	70652f70 	rsbvc	r2, r5, r0, ror pc
    19dc:	69747469 	ldmdbvs	r4!, {r0, r3, r5, r6, sl, ip, sp, lr}^
    19e0:	2f72656d 	svccs	0x0072656d
    19e4:	5f707362 	svcpl	0x00707362
    19e8:	74697065 	strbtvc	r7, [r9], #-101	; 0xffffff9b
    19ec:	656d6974 	strbvs	r6, [sp, #-2420]!	; 0xfffff68c
    19f0:	00632e72 	rsbeq	r2, r3, r2, ror lr
    19f4:	63747570 	cmnvs	r4, #112, 10	; 0x1c000000
    19f8:	69706500 	ldmdbvs	r0!, {r8, sl, sp, lr}^
    19fc:	695f3174 	ldmdbvs	pc, {r2, r4, r5, r6, r8, ip, sp}^	; <UNPREDICTABLE>
    1a00:	61687172 	smcvs	34578	; 0x8712
    1a04:	656c646e 	strbvs	r6, [ip, #-1134]!	; 0xfffffb92
    1a08:	50450072 	subpl	r0, r5, r2, ror r0
    1a0c:	545f5449 	ldrbpl	r5, [pc], #-1097	; 1a14 <shift+0x1a14>
    1a10:	00657079 	rsbeq	r7, r5, r9, ror r0
    1a14:	63617266 	cmnvs	r1, #1610612742	; 0x60000006
    1a18:	504d4300 	subpl	r4, sp, r0, lsl #6
    1a1c:	43550052 	cmpmi	r5, #82	; 0x52
    1a20:	55003152 	strpl	r3, [r0, #-338]	; 0xfffffeae
    1a24:	00325243 	eorseq	r5, r2, r3, asr #4
    1a28:	33524355 	cmpcc	r2, #1409286145	; 0x54000001
    1a2c:	52435500 	subpl	r5, r3, #0, 10
    1a30:	69750034 	ldmdbvs	r5!, {r2, r4, r5}^
    1a34:	3436746e 	ldrtcc	r7, [r6], #-1134	; 0xfffffb92
    1a38:	6200745f 	andvs	r7, r0, #1593835520	; 0x5f000000
    1a3c:	752f7073 	strvc	r7, [pc, #-115]!	; 19d1 <shift+0x19d1>
    1a40:	2f747261 	svccs	0x00747261
    1a44:	5f707362 	svcpl	0x00707362
    1a48:	74726175 	ldrbtvc	r6, [r2], #-373	; 0xfffffe8b
    1a4c:	5500632e 	strpl	r6, [r0, #-814]	; 0xfffffcd2
    1a50:	00435345 	subeq	r5, r3, r5, asr #6
    1a54:	32525355 	subscc	r5, r2, #1409286145	; 0x54000001
    1a58:	52425500 	subpl	r5, r2, #0, 10
    1a5c:	65720043 	ldrbvs	r0, [r2, #-67]!	; 0xffffffbd
    1a60:	65724666 	ldrbvs	r4, [r2, #-1638]!	; 0xfffff99a
    1a64:	76694471 			; <UNDEFINED> instruction: 0x76694471
    1a68:	74656700 	strbtvc	r6, [r5], #-1792	; 0xfffff900
    1a6c:	61750063 	cmnvs	r5, r3, rrx
    1a70:	735f7472 	cmpvc	pc, #1912602624	; 0x72000000
    1a74:	61627465 	cmnvs	r2, r5, ror #8
    1a78:	61726475 	cmnvs	r2, r5, ror r4
    1a7c:	6e006574 	cfrshl64vs	mvdx0, mvdx4, r6
    1a80:	72656d75 	rsbvc	r6, r5, #7488	; 0x1d40
    1a84:	726f7461 	rsbvc	r7, pc, #1627389952	; 0x61000000
    1a88:	67697300 	strbvs	r7, [r9, -r0, lsl #6]!
    1a8c:	00726e5f 	rsbseq	r6, r2, pc, asr lr
    1a90:	73696172 	cmnvc	r9, #-2147483620	; 0x8000001c
    1a94:	53550065 	cmppl	r5, #101	; 0x65
    1a98:	55003152 	strpl	r3, [r0, #-338]	; 0xfffffeae
    1a9c:	00524d42 	subseq	r4, r2, r2, asr #26
    1aa0:	74726175 	ldrbtvc	r6, [r2], #-373	; 0xfffffe8b
    1aa4:	616e655f 	cmnvs	lr, pc, asr r5
    1aa8:	00656c62 	rsbeq	r6, r5, r2, ror #24
    1aac:	706d6574 	rsbvc	r6, sp, r4, ror r5
    1ab0:	656d754e 	strbvs	r7, [sp, #-1358]!	; 0xfffffab2
    1ab4:	6f746172 	svcvs	0x00746172
    1ab8:	54550072 	ldrbpl	r0, [r5], #-114	; 0xffffff8e
    1abc:	62004458 	andvs	r4, r0, #88, 8	; 0x58000000
    1ac0:	44647561 	strbtmi	r7, [r4], #-1377	; 0xfffffa9f
    1ac4:	00666669 	rsbeq	r6, r6, r9, ror #12
    1ac8:	4d495455 	cfstrdmi	mvd5, [r9, #-340]	; 0xfffffeac
    1acc:	43465500 	movtmi	r5, #25856	; 0x6500
    1ad0:	41550052 	cmpmi	r5, r2, asr r0
    1ad4:	545f5452 	ldrbpl	r5, [pc], #-1106	; 1adc <shift+0x1adc>
    1ad8:	00657079 	rsbeq	r7, r5, r9, ror r0
    1adc:	4d454e4f 	stclmi	14, cr4, [r5, #-316]	; 0xfffffec4
    1ae0:	42550053 	subsmi	r0, r5, #83	; 0x53
    1ae4:	75005249 	strvc	r5, [r0, #-585]	; 0xfffffdb7
    1ae8:	5f747261 	svcpl	0x00747261
    1aec:	74666f73 	strbtvc	r6, [r6], #-3955	; 0xfffff08d
    1af0:	65736572 	ldrbvs	r6, [r3, #-1394]!	; 0xfffffa8e
    1af4:	61750074 	cmnvs	r5, r4, ror r0
    1af8:	645f7472 	ldrbvs	r7, [pc], #-1138	; 1b00 <shift+0x1b00>
    1afc:	62617369 	rsbvs	r7, r1, #-1543503871	; 0xa4000001
    1b00:	6400656c 	strvs	r6, [r0], #-1388	; 0xfffffa94
    1b04:	73697669 	cmnvc	r9, #110100480	; 0x6900000
    1b08:	7300726f 	movwvc	r7, #623	; 0x26f
    1b0c:	6c636372 	stclvs	3, cr6, [r3], #-456	; 0xfffffe38
    1b10:	5f6b636f 	svcpl	0x006b636f
    1b14:	64007a68 	strvs	r7, [r0], #-2664	; 0xfffff598
    1b18:	6d6f6e65 	stclvs	14, cr6, [pc, #-404]!	; 198c <shift+0x198c>
    1b1c:	74616e69 	strbtvc	r6, [r1], #-3689	; 0xfffff197
    1b20:	7400726f 	strvc	r7, [r0], #-623	; 0xfffffd91
    1b24:	44706d65 	ldrbtmi	r6, [r0], #-3429	; 0xfffff29b
    1b28:	6d6f6e65 	stclvs	14, cr6, [pc, #-404]!	; 199c <shift+0x199c>
    1b2c:	74616e69 	strbtvc	r6, [r1], #-3689	; 0xfffff197
    1b30:	5500726f 	strpl	r7, [r0, #-623]	; 0xfffffd91
    1b34:	00445852 	subeq	r5, r4, r2, asr r8
    1b38:	69766964 	ldmdbvs	r6!, {r2, r5, r6, r8, fp, sp, lr}^
    1b3c:	00726564 	rsbseq	r6, r2, r4, ror #10
    1b40:	74726175 	ldrbtvc	r6, [r2], #-373	; 0xfffffe8b
    1b44:	5f6f695f 	svcpl	0x006f695f
    1b48:	74696e69 	strbtvc	r6, [r9], #-3689	; 0xfffff197
    1b4c:	434d5500 	movtmi	r5, #54528	; 0xd500
    1b50:	74730052 	ldrbtvc	r0, [r3], #-82	; 0xffffffae
    1b54:	2f6f6964 	svccs	0x006f6964
    1b58:	2f62696c 	svccs	0x0062696c
    1b5c:	70797463 	rsbsvc	r7, r9, r3, ror #8
    1b60:	00632e65 	rsbeq	r2, r3, r5, ror #28
    1b64:	7974635f 	ldmdbvc	r4!, {r0, r1, r2, r3, r4, r6, r8, r9, sp, lr}^
    1b68:	73006570 	movwvc	r6, #1392	; 0x570
    1b6c:	6f696474 	svcvs	0x00696474
    1b70:	62696c2f 	rsbvs	r6, r9, #12032	; 0x2f00
    1b74:	7669642f 	strbtvc	r6, [r9], -pc, lsr #8
    1b78:	632e3436 			; <UNDEFINED> instruction: 0x632e3436
    1b7c:	645f5f00 	ldrbvs	r5, [pc], #-3840	; 1b84 <shift+0x1b84>
    1b80:	34367669 	ldrtcc	r7, [r6], #-1641	; 0xfffff997
    1b84:	0032335f 	eorseq	r3, r2, pc, asr r3
    1b88:	68676968 	stmdavs	r7!, {r3, r5, r6, r8, fp, sp, lr}^
    1b8c:	64747300 	ldrbtvs	r7, [r4], #-768	; 0xfffffd00
    1b90:	6c2f6f69 	stcvs	15, cr6, [pc], #-420	; 19f4 <shift+0x19f4>
    1b94:	6d2f6269 	sfmvs	f6, 4, [pc, #-420]!	; 19f8 <shift+0x19f8>
    1b98:	69646c75 	stmdbvs	r4!, {r0, r2, r4, r5, r6, sl, fp, sp, lr}^
    1b9c:	00632e33 	rsbeq	r2, r3, r3, lsr lr
    1ba0:	31745f5f 	cmncc	r4, pc, asr pc
    1ba4:	745f5f00 	ldrbvc	r5, [pc], #-3840	; 1bac <shift+0x1bac>
    1ba8:	53550032 	cmppl	r5, #50	; 0x32
    1bac:	70797449 	rsbsvc	r7, r9, r9, asr #8
    1bb0:	49440065 	stmdbmi	r4, {r0, r2, r5, r6}^
    1bb4:	75727473 	ldrbvc	r7, [r2, #-1139]!	; 0xfffffb8d
    1bb8:	5f007463 	svcpl	0x00007463
    1bbc:	0030745f 	eorseq	r7, r0, pc, asr r4
    1bc0:	6e754944 	vsubvs.f16	s9, s10, s8	; <UNPREDICTABLE>
    1bc4:	006e6f69 	rsbeq	r6, lr, r9, ror #30
    1bc8:	756d5f5f 	strbvc	r5, [sp, #-3935]!	; 0xfffff0a1
    1bcc:	3369646c 	cmncc	r9, #108, 8	; 0x6c000000
    1bd0:	7a697300 	bvc	1a5e7d8 <shift+0x1a5e7d8>
    1bd4:	00745f65 	rsbseq	r5, r4, r5, ror #30
    1bd8:	63705f67 	cmnvs	r0, #412	; 0x19c
    1bdc:	75426e49 	strbvc	r6, [r2, #-3657]	; 0xfffff1b7
    1be0:	61760066 	cmnvs	r6, r6, rrx
    1be4:	73696c5f 	cmnvc	r9, #24320	; 0x5f00
    1be8:	74730074 	ldrbtvc	r0, [r3], #-116	; 0xffffff8c
    1bec:	2f6f6964 	svccs	0x006f6964
    1bf0:	2f62696c 	svccs	0x0062696c
    1bf4:	6e697270 	mcrvs	2, 3, r7, cr9, cr0, {3}
    1bf8:	632e6674 			; <UNDEFINED> instruction: 0x632e6674
    1bfc:	67726100 	ldrbvs	r6, [r2, -r0, lsl #2]!
    1c00:	74730073 	ldrbtvc	r0, [r3], #-115	; 0xffffff8d
    1c04:	6e656c72 	mcrvs	12, 3, r6, cr5, cr2, {3}
    1c08:	70737600 	rsbsvc	r7, r3, r0, lsl #12
    1c0c:	746e6972 	strbtvc	r6, [lr], #-2418	; 0xfffff68e
    1c10:	5f670066 	svcpl	0x00670066
    1c14:	754f6370 	strbvc	r6, [pc, #-880]	; 18ac <shift+0x18ac>
    1c18:	66754274 			; <UNDEFINED> instruction: 0x66754274
    1c1c:	73737600 	cmnvc	r3, #0, 12
    1c20:	666e6163 	strbtvs	r6, [lr], -r3, ror #2
    1c24:	72747300 	rsbsvc	r7, r4, #0, 6
    1c28:	00706573 	rsbseq	r6, r0, r3, ror r5
    1c2c:	6d6d656d 	cfstr64vs	mvdx6, [sp, #-436]!	; 0xfffffe4c
    1c30:	0065766f 	rsbeq	r7, r5, pc, ror #12
    1c34:	636d656d 	cmnvs	sp, #457179136	; 0x1b400000
    1c38:	6300706d 	movwvs	r7, #109	; 0x6d
    1c3c:	746e756f 	strbtvc	r7, [lr], #-1391	; 0xfffffa91
    1c40:	6d656d00 	stclvs	13, cr6, [r5, #-0]
    1c44:	6e616373 	mcrvs	3, 3, r6, cr1, cr3, {3}
    1c48:	63636100 	cmnvs	r3, #0, 2
    1c4c:	00747065 	rsbseq	r7, r4, r5, rrx
    1c50:	6f745f5f 	svcvs	0x00745f5f
    1c54:	65776f6c 	ldrbvs	r6, [r7, #-3948]!	; 0xfffff094
    1c58:	74730072 	ldrbtvc	r0, [r3], #-114	; 0xffffff8e
    1c5c:	72686372 	rsbvc	r6, r8, #-939524095	; 0xc8000001
    1c60:	73656400 	cmnvc	r5, #0, 8
    1c64:	706d5474 	rsbvc	r5, sp, r4, ror r4
    1c68:	72747300 	rsbsvc	r7, r4, #0, 6
    1c6c:	7461636e 	strbtvc	r6, [r1], #-878	; 0xfffffc92
    1c70:	64747300 	ldrbtvs	r7, [r4], #-768	; 0xfffffd00
    1c74:	6c2f6f69 	stcvs	15, cr6, [pc], #-420	; 1ad8 <shift+0x1ad8>
    1c78:	732f6269 			; <UNDEFINED> instruction: 0x732f6269
    1c7c:	6e697274 	mcrvs	2, 3, r7, cr9, cr4, {3}
    1c80:	00632e67 	rsbeq	r2, r3, r7, ror #28
    1c84:	74736564 	ldrbtvc	r6, [r3], #-1380	; 0xfffffa9c
    1c88:	6f636200 	svcvs	0x00636200
    1c8c:	73007970 	movwvc	r7, #2416	; 0x970
    1c90:	70637274 	rsbvc	r7, r3, r4, ror r2
    1c94:	64610079 	strbtvs	r0, [r1], #-121	; 0xffffff87
    1c98:	73007264 	movwvc	r7, #612	; 0x264
    1c9c:	61637274 	smcvs	14116	; 0x3724
    1ca0:	74730074 	ldrbtvc	r0, [r3], #-116	; 0xffffff8c
    1ca4:	70636e72 	rsbvc	r6, r3, r2, ror lr
    1ca8:	5f5f0079 	svcpl	0x005f0079
    1cac:	7274735f 	rsbsvc	r7, r4, #2080374785	; 0x7c000001
    1cb0:	006b6f74 	rsbeq	r6, fp, r4, ror pc
    1cb4:	636d656d 	cmnvs	sp, #457179136	; 0x1b400000
    1cb8:	5f007268 	svcpl	0x00007268
    1cbc:	7365725f 	cmnvc	r5, #-268435451	; 0xf0000005
    1cc0:	6e657300 	cdpvs	3, 6, cr7, cr5, cr0, {0}
    1cc4:	74730064 	ldrbtvc	r0, [r3], #-100	; 0xffffff9c
    1cc8:	656c6e72 	strbvs	r6, [ip, #-3698]!	; 0xfffff18e
    1ccc:	7473006e 	ldrbtvc	r0, [r3], #-110	; 0xffffff92
    1cd0:	706d6372 	rsbvc	r6, sp, r2, ror r3
    1cd4:	72747300 	rsbsvc	r7, r4, #0, 6
    1cd8:	6b726270 	blvs	1c9a6a0 <shift+0x1c9a6a0>
    1cdc:	72747300 	rsbsvc	r7, r4, #0, 6
    1ce0:	006e7073 	rsbeq	r7, lr, r3, ror r0
    1ce4:	636d656d 	cmnvs	sp, #457179136	; 0x1b400000
    1ce8:	73007970 	movwvc	r7, #2416	; 0x970
    1cec:	69676562 	stmdbvs	r7!, {r1, r5, r6, r8, sl, sp, lr}^
    1cf0:	7273006e 	rsbsvc	r0, r3, #110	; 0x6e
    1cf4:	706d5463 	rsbvc	r5, sp, r3, ror #8
    1cf8:	6d656d00 	stclvs	13, cr6, [r5, #-0]
    1cfc:	00746573 	rsbseq	r6, r4, r3, ror r5
    1d00:	72727473 	rsbsvc	r7, r2, #1929379840	; 0x73000000
    1d04:	00726863 	rsbseq	r6, r2, r3, ror #16
    1d08:	6e727473 	mrcvs	4, 3, r7, cr2, cr3, {3}
    1d0c:	706d6369 	rsbvc	r6, sp, r9, ror #6
    1d10:	72747300 	rsbsvc	r7, r4, #0, 6
    1d14:	00727473 	rsbseq	r7, r2, r3, ror r4
    1d18:	657a6973 	ldrbvs	r6, [sl, #-2419]!	; 0xfffff68d
    1d1c:	72747300 	rsbsvc	r7, r4, #0, 6
    1d20:	706d636e 	rsbvc	r6, sp, lr, ror #6
    1d24:	73657200 	cmnvc	r5, #0, 4
    1d28:	00746c75 	rsbseq	r6, r4, r5, ror ip
    1d2c:	6465656e 	strbtvs	r6, [r5], #-1390	; 0xfffffa92
    1d30:	7866705f 	stmdavc	r6!, {r0, r1, r2, r3, r4, r6, ip, sp, lr}^
    1d34:	65696600 	strbvs	r6, [r9, #-1536]!	; 0xfffffa00
    1d38:	775f646c 	ldrbvc	r6, [pc, -ip, ror #8]
    1d3c:	68746469 	ldmdavs	r4!, {r0, r3, r5, r6, sl, sp, lr}^
    1d40:	6d697300 	stclvs	3, cr7, [r9, #-0]
    1d44:	5f656c70 	svcpl	0x00656c70
    1d48:	74727473 	ldrbtvc	r7, [r2], #-1139	; 0xfffffb8d
    1d4c:	69006c6f 	stmdbvs	r0, {r0, r1, r2, r3, r5, r6, sl, fp, sp, lr}
    1d50:	69735f73 	ldmdbvs	r3!, {r0, r1, r4, r5, r6, r8, r9, sl, fp, ip, lr}^
    1d54:	72006e67 	andvc	r6, r0, #1648	; 0x670
    1d58:	61657065 	cmnvs	r5, r5, rrx
    1d5c:	6f6c0074 	svcvs	0x006c0074
    1d60:	65736163 	ldrbvs	r6, [r3, #-355]!	; 0xfffffe9d
    1d64:	725f5f00 	subsvc	r5, pc, #0, 30
    1d68:	65006d65 	strvs	r6, [r0, #-3429]	; 0xfffff29b
    1d6c:	0070646e 	rsbseq	r6, r0, lr, ror #8
    1d70:	61625f5f 	cmnvs	r2, pc, asr pc
    1d74:	70006573 	andvc	r6, r0, r3, ror r5
    1d78:	645f7475 	ldrbvs	r7, [pc], #-1141	; 1d80 <shift+0x1d80>
    1d7c:	665f6365 	ldrbvs	r6, [pc], -r5, ror #6
    1d80:	006c6c75 	rsbeq	r6, ip, r5, ror ip
    1d84:	6f745f5f 	svcvs	0x00745f5f
    1d88:	65707075 	ldrbvs	r7, [r0, #-117]!	; 0xffffff8b
    1d8c:	68730072 	ldmdavs	r3!, {r1, r4, r5, r6}^
    1d90:	00746669 	rsbseq	r6, r4, r9, ror #12
    1d94:	69676964 	stmdbvs	r7!, {r2, r5, r6, r8, fp, sp, lr}^
    1d98:	73007374 	movwvc	r7, #884	; 0x374
    1d9c:	6c706d69 	ldclvs	13, cr6, [r0], #-420	; 0xfffffe5c
    1da0:	74735f65 	ldrbtvc	r5, [r3], #-3941	; 0xfffff09b
    1da4:	6c6f7472 	cfstrdvs	mvd7, [pc], #-456	; 1be4 <shift+0x1be4>
    1da8:	7570006c 	ldrbvc	r0, [r0, #-108]!	; 0xffffff94
    1dac:	65645f74 	strbvs	r5, [r4, #-3956]!	; 0xfffff08c
    1db0:	69730063 	ldmdbvs	r3!, {r0, r1, r5, r6}^
    1db4:	656c706d 	strbvs	r7, [ip, #-109]!	; 0xffffff93
    1db8:	7274735f 	rsbsvc	r7, r4, #2080374785	; 0x7c000001
    1dbc:	6c756f74 	ldclvs	15, cr6, [r5], #-464	; 0xfffffe30
    1dc0:	7376006c 	cmnvc	r6, #108	; 0x6c
    1dc4:	6972706e 	ldmdbvs	r2!, {r1, r2, r3, r5, r6, ip, sp, lr}^
    1dc8:	0066746e 	rsbeq	r7, r6, lr, ror #8
    1dcc:	6e637376 	mcrvs	3, 3, r7, cr3, cr6, {3}
    1dd0:	6e697270 	mcrvs	2, 3, r7, cr9, cr0, {3}
    1dd4:	70006674 	andvc	r6, r0, r4, ror r6
    1dd8:	645f7475 	ldrbvs	r7, [pc], #-1141	; 1de0 <shift+0x1de0>
    1ddc:	745f6365 	ldrbvc	r6, [pc], #-869	; 1de4 <shift+0x1de4>
    1de0:	636e7572 	cmnvs	lr, #478150656	; 0x1c800000
    1de4:	61757100 	cmnvs	r5, r0, lsl #2
    1de8:	6966696c 	stmdbvs	r6!, {r2, r3, r5, r6, r8, fp, sp, lr}^
    1dec:	73007265 	movwvc	r7, #613	; 0x265
    1df0:	5f70696b 	svcpl	0x0070696b
    1df4:	696f7461 	stmdbvs	pc!, {r0, r5, r6, sl, ip, sp, lr}^	; <UNPREDICTABLE>
    1df8:	64747300 	ldrbtvs	r7, [r4], #-768	; 0xfffffd00
    1dfc:	6c2f6f69 	stcvs	15, cr6, [pc], #-420	; 1c60 <shift+0x1c60>
    1e00:	762f6269 	strtvc	r6, [pc], -r9, ror #4
    1e04:	69727073 	ldmdbvs	r2!, {r0, r1, r4, r5, r6, ip, sp, lr}^
    1e08:	2e66746e 	cdpcs	4, 6, cr7, cr6, cr14, {3}
    1e0c:	616d0063 	cmnvs	sp, r3, rrx
    1e10:	73006b73 	movwvc	r6, #2931	; 0xb73
    1e14:	6c706d69 	ldclvs	13, cr6, [r0], #-420	; 0xfffffe5c
    1e18:	74735f65 	ldrbtvc	r5, [r3], #-3941	; 0xfffff09b
    1e1c:	756f7472 	strbvc	r7, [pc, #-1138]!	; 19b2 <shift+0x19b2>
    1e20:	6964006c 	stmdbvs	r4!, {r2, r3, r5, r6}^
    1e24:	00746967 	rsbseq	r6, r4, r7, ror #18
    1e28:	626d756e 	rsbvs	r7, sp, #461373440	; 0x1b800000
    1e2c:	70007265 	andvc	r7, r0, r5, ror #4
    1e30:	69636572 	stmdbvs	r3!, {r1, r4, r5, r6, r8, sl, sp, lr}^
    1e34:	6e6f6973 			; <UNDEFINED> instruction: 0x6e6f6973
    1e38:	78656e00 	stmdavc	r5!, {r9, sl, fp, sp, lr}^
    1e3c:	5f5f0074 	svcpl	0x005f0074
    1e40:	76696475 			; <UNDEFINED> instruction: 0x76696475
    1e44:	64646f6d 	strbtvs	r6, [r4], #-3949	; 0xfffff093
    1e48:	2f003469 	svccs	0x00003469
    1e4c:	656d6f68 	strbvs	r6, [sp, #-3944]!	; 0xfffff098
    1e50:	7763742f 	strbvc	r7, [r3, -pc, lsr #8]!
    1e54:	75622d67 	strbvc	r2, [r2, #-3431]!	; 0xfffff299
    1e58:	73646c69 	cmnvc	r4, #26880	; 0x6900
    1e5c:	6576616c 	ldrbvs	r6, [r6, #-364]!	; 0xfffffe94
    1e60:	726f772f 	rsbvc	r7, pc, #12320768	; 0xbc0000
    1e64:	6170736b 	cmnvs	r0, fp, ror #6
    1e68:	742f6563 	strtvc	r6, [pc], #-1379	; 1e70 <shift+0x1e70>
    1e6c:	2d677763 	stclcs	7, cr7, [r7, #-396]!	; 0xfffffe74
    1e70:	656b616d 	strbvs	r6, [fp, #-365]!	; 0xfffffe93
    1e74:	6c65722d 	sfmvs	f7, 2, [r5], #-180	; 0xffffff4c
    1e78:	65736165 	ldrbvs	r6, [r3, #-357]!	; 0xfffffe9b
    1e7c:	62616c2f 	rsbvs	r6, r1, #12032	; 0x2f00
    1e80:	642f6c65 	strtvs	r6, [pc], #-3173	; 1e88 <shift+0x1e88>
    1e84:	656b636f 	strbvs	r6, [fp, #-879]!	; 0xfffffc91
    1e88:	72742d72 	rsbsvc	r2, r4, #7296	; 0x1c80
    1e8c:	79747375 	ldmdbvc	r4!, {r0, r2, r4, r5, r6, r8, r9, ip, sp, lr}^
    1e90:	646d612d 	strbtvs	r6, [sp], #-301	; 0xfffffed3
    1e94:	742d3436 	strtvc	r3, [sp], #-1078	; 0xfffffbca
    1e98:	2d677763 	stclcs	7, cr7, [r7, #-396]!	; 0xfffffe74
    1e9c:	6c697562 	cfstr64vs	mvdx7, [r9], #-392	; 0xfffffe78
    1ea0:	61742f64 	cmnvs	r4, r4, ror #30
    1ea4:	74656772 	strbtvc	r6, [r5], #-1906	; 0xfffff88e
    1ea8:	6d72612f 	ldfvse	f6, [r2, #-188]!	; 0xffffff44
    1eac:	6e696c2d 	cdpvs	12, 6, cr6, cr9, cr13, {1}
    1eb0:	672d7875 			; <UNDEFINED> instruction: 0x672d7875
    1eb4:	6165756e 	cmnvs	r5, lr, ror #10
    1eb8:	66686962 	strbtvs	r6, [r8], -r2, ror #18
    1ebc:	75625f2f 	strbvc	r5, [r2, #-3887]!	; 0xfffff0d1
    1ec0:	2f646c69 	svccs	0x00646c69
    1ec4:	6c697562 	cfstr64vs	mvdx7, [r9], #-392	; 0xfffffe78
    1ec8:	782f7364 	stmdavc	pc!, {r2, r5, r6, r8, r9, ip, sp, lr}	; <UNPREDICTABLE>
    1ecc:	365f3638 			; <UNDEFINED> instruction: 0x365f3638
    1ed0:	6e752d34 	mrcvs	13, 3, r2, cr5, cr4, {1}
    1ed4:	776f6e6b 	strbvc	r6, [pc, -fp, ror #28]!
    1ed8:	696c2d6e 	stmdbvs	ip!, {r1, r2, r3, r5, r6, r8, sl, fp, sp}^
    1edc:	2d78756e 	cfldr64cs	mvdx7, [r8, #-440]!	; 0xfffffe48
    1ee0:	2f756e67 	svccs	0x00756e67
    1ee4:	2d6d7261 	sfmcs	f7, 2, [sp, #-388]!	; 0xfffffe7c
    1ee8:	756e696c 	strbvc	r6, [lr, #-2412]!	; 0xfffff694
    1eec:	6e672d78 	mcrvs	13, 3, r2, cr7, cr8, {3}
    1ef0:	62616575 	rsbvs	r6, r1, #490733568	; 0x1d400000
    1ef4:	2f666869 	svccs	0x00666869
    1ef8:	2d636367 	stclcs	3, cr6, [r3, #-412]!	; 0xfffffe64
    1efc:	616e696c 	cmnvs	lr, ip, ror #18
    1f00:	342d6f72 	strtcc	r6, [sp], #-3954	; 0xfffff08e
    1f04:	322d392e 	eorcc	r3, sp, #753664	; 0xb8000
    1f08:	2e373130 	mrccs	1, 1, r3, cr7, cr0, {1}
    1f0c:	732d3130 			; <UNDEFINED> instruction: 0x732d3130
    1f10:	65676174 	strbvs	r6, [r7, #-372]!	; 0xfffffe8c
    1f14:	72612f32 	rsbvc	r2, r1, #50, 30	; 0xc8
    1f18:	696c2d6d 	stmdbvs	ip!, {r0, r2, r3, r5, r6, r8, sl, fp, sp}^
    1f1c:	2d78756e 	cfldr64cs	mvdx7, [r8, #-440]!	; 0xfffffe48
    1f20:	65756e67 	ldrbvs	r6, [r5, #-3687]!	; 0xfffff199
    1f24:	68696261 	stmdavs	r9!, {r0, r5, r6, r9, sp, lr}^
    1f28:	696c2f66 	stmdbvs	ip!, {r1, r2, r5, r6, r8, r9, sl, fp, sp}^
    1f2c:	63636762 	cmnvs	r3, #25690112	; 0x1880000
    1f30:	554e4700 	strbpl	r4, [lr, #-1792]	; 0xfffff900
    1f34:	34204320 	strtcc	r4, [r0], #-800	; 0xfffffce0
    1f38:	342e392e 	strtcc	r3, [lr], #-2350	; 0xfffff6d2
    1f3c:	616d2d20 	cmnvs	sp, r0, lsr #26
    1f40:	3d686372 	stclcc	3, cr6, [r8, #-456]!	; 0xfffffe38
    1f44:	766d7261 	strbtvc	r7, [sp], -r1, ror #4
    1f48:	20612d37 	rsbcs	r2, r1, r7, lsr sp
    1f4c:	75746d2d 	ldrbvc	r6, [r4, #-3373]!	; 0xfffff2d3
    1f50:	633d656e 	teqvs	sp, #461373440	; 0x1b800000
    1f54:	6574726f 	ldrbvs	r7, [r4, #-623]!	; 0xfffffd91
    1f58:	39612d78 	stmdbcc	r1!, {r3, r4, r5, r6, r8, sl, fp, sp}^
    1f5c:	666d2d20 	strbtvs	r2, [sp], -r0, lsr #26
    1f60:	74616f6c 	strbtvc	r6, [r1], #-3948	; 0xfffff094
    1f64:	6962612d 	stmdbvs	r2!, {r0, r2, r3, r5, r8, sp, lr}^
    1f68:	7261683d 	rsbvc	r6, r1, #3997696	; 0x3d0000
    1f6c:	6d2d2064 	stcvs	0, cr2, [sp, #-400]!	; 0xfffffe70
    1f70:	3d757066 	ldclcc	0, cr7, [r5, #-408]!	; 0xfffffe68
    1f74:	76706676 			; <UNDEFINED> instruction: 0x76706676
    1f78:	31642d33 	cmncc	r4, r3, lsr sp
    1f7c:	6d2d2036 	stcvs	0, cr2, [sp, #-216]!	; 0xffffff28
    1f80:	6d756874 	ldclvs	8, cr6, [r5, #-464]!	; 0xfffffe30
    1f84:	6d2d2062 	stcvs	0, cr2, [sp, #-392]!	; 0xfffffe78
    1f88:	2d736c74 	ldclcs	12, cr6, [r3, #-464]!	; 0xfffffe30
    1f8c:	6c616964 			; <UNDEFINED> instruction: 0x6c616964
    1f90:	3d746365 	ldclcc	3, cr6, [r4, #-404]!	; 0xfffffe6c
    1f94:	20756e67 	rsbscs	r6, r5, r7, ror #28
    1f98:	2d20672d 	stccs	7, cr6, [r0, #-180]!	; 0xffffff4c
    1f9c:	672d2067 	strvs	r2, [sp, -r7, rrx]!
    1fa0:	324f2d20 	subcc	r2, pc, #32, 26	; 0x800
    1fa4:	324f2d20 	subcc	r2, pc, #32, 26	; 0x800
    1fa8:	324f2d20 	subcc	r2, pc, #32, 26	; 0x800
    1fac:	62662d20 	rsbvs	r2, r6, #32, 26	; 0x800
    1fb0:	646c6975 	strbtvs	r6, [ip], #-2421	; 0xfffff68b
    1fb4:	2d676e69 	stclcs	14, cr6, [r7, #-420]!	; 0xfffffe5c
    1fb8:	6762696c 	strbvs	r6, [r2, -ip, ror #18]!
    1fbc:	2d206363 	stccs	3, cr6, [r0, #-396]!	; 0xfffffe74
    1fc0:	2d6f6e66 	stclcs	14, cr6, [pc, #-408]!	; 1e30 <shift+0x1e30>
    1fc4:	63617473 	cmnvs	r1, #1929379840	; 0x73000000
    1fc8:	72702d6b 	rsbsvc	r2, r0, #6848	; 0x1ac0
    1fcc:	6365746f 	cmnvs	r5, #1862270976	; 0x6f000000
    1fd0:	20726f74 	rsbscs	r6, r2, r4, ror pc
    1fd4:	4950662d 	ldmdbmi	r0, {r0, r2, r3, r5, r9, sl, sp, lr}^
    1fd8:	662d2043 	strtvs	r2, [sp], -r3, asr #32
    1fdc:	692d6f6e 	pushvs	{r1, r2, r3, r5, r6, r8, r9, sl, fp, sp, lr}
    1fe0:	6e696c6e 	cdpvs	12, 6, cr6, cr9, cr14, {3}
    1fe4:	662d2065 	strtvs	r2, [sp], -r5, rrx
    1fe8:	65637865 	strbvs	r7, [r3, #-2149]!	; 0xfffff79b
    1fec:	6f697470 	svcvs	0x00697470
    1ff0:	2d20736e 	stccs	3, cr7, [r0, #-440]!	; 0xfffffe48
    1ff4:	73697666 	cmnvc	r9, #106954752	; 0x6600000
    1ff8:	6c696269 	sfmvs	f6, 2, [r9], #-420	; 0xfffffe5c
    1ffc:	3d797469 	cfldrdcc	mvd7, [r9, #-420]!	; 0xfffffe5c
    2000:	64646968 	strbtvs	r6, [r4], #-2408	; 0xfffff698
    2004:	55006e65 	strpl	r6, [r0, #-3685]	; 0xfffff19b
    2008:	79744944 	ldmdbvc	r4!, {r2, r6, r8, fp, lr}^
    200c:	63006570 	movwvs	r6, #1392	; 0x570
    2010:	6c706d6f 	ldclvs	13, cr6, [r0], #-444	; 0xfffffe44
    2014:	66207865 	strtvs	r7, [r0], -r5, ror #16
    2018:	74616f6c 	strbtvc	r6, [r1], #-3948	; 0xfffff094
    201c:	7a697300 	bvc	1a5ec24 <shift+0x1a5ec24>
    2020:	70797465 	rsbsvc	r7, r9, r5, ror #8
    2024:	6f630065 	svcvs	0x00630065
    2028:	656c706d 	strbvs	r7, [ip, #-109]!	; 0xffffff93
    202c:	6f642078 	svcvs	0x00642078
    2030:	656c6275 	strbvs	r6, [ip, #-629]!	; 0xfffffd8b
    2034:	6f682f00 	svcvs	0x00682f00
    2038:	742f656d 	strtvc	r6, [pc], #-1389	; 2040 <shift+0x2040>
    203c:	2d677763 	stclcs	7, cr7, [r7, #-396]!	; 0xfffffe74
    2040:	6c697562 	cfstr64vs	mvdx7, [r9], #-392	; 0xfffffe78
    2044:	616c7364 	cmnvs	ip, r4, ror #6
    2048:	772f6576 			; <UNDEFINED> instruction: 0x772f6576
    204c:	736b726f 	cmnvc	fp, #-268435450	; 0xf0000006
    2050:	65636170 	strbvs	r6, [r3, #-368]!	; 0xfffffe90
    2054:	7763742f 	strbvc	r7, [r3, -pc, lsr #8]!
    2058:	616d2d67 	cmnvs	sp, r7, ror #26
    205c:	722d656b 	eorvc	r6, sp, #448790528	; 0x1ac00000
    2060:	61656c65 	cmnvs	r5, r5, ror #24
    2064:	6c2f6573 	cfstr32vs	mvfx6, [pc], #-460	; 1ea0 <shift+0x1ea0>
    2068:	6c656261 	sfmvs	f6, 2, [r5], #-388	; 0xfffffe7c
    206c:	636f642f 	cmnvs	pc, #788529152	; 0x2f000000
    2070:	2d72656b 	cfldr64cs	mvdx6, [r2, #-428]!	; 0xfffffe54
    2074:	73757274 	cmnvc	r5, #116, 4	; 0x40000007
    2078:	612d7974 			; <UNDEFINED> instruction: 0x612d7974
    207c:	3436646d 	ldrtcc	r6, [r6], #-1133	; 0xfffffb93
    2080:	7763742d 	strbvc	r7, [r3, -sp, lsr #8]!
    2084:	75622d67 	strbvc	r2, [r2, #-3431]!	; 0xfffff299
    2088:	2f646c69 	svccs	0x00646c69
    208c:	67726174 			; <UNDEFINED> instruction: 0x67726174
    2090:	612f7465 			; <UNDEFINED> instruction: 0x612f7465
    2094:	6c2d6d72 	stcvs	13, cr6, [sp], #-456	; 0xfffffe38
    2098:	78756e69 	ldmdavc	r5!, {r0, r3, r5, r6, r9, sl, fp, sp, lr}^
    209c:	756e672d 	strbvc	r6, [lr, #-1837]!	; 0xfffff8d3
    20a0:	69626165 	stmdbvs	r2!, {r0, r2, r5, r6, r8, sp, lr}^
    20a4:	732f6668 			; <UNDEFINED> instruction: 0x732f6668
    20a8:	7370616e 	cmnvc	r0, #-2147483621	; 0x8000001b
    20ac:	73746f68 	cmnvc	r4, #104, 30	; 0x1a0
    20b0:	6363672f 	cmnvs	r3, #12320768	; 0xbc0000
    20b4:	6e696c2d 	cdpvs	12, 6, cr6, cr9, cr13, {1}
    20b8:	2d6f7261 	sfmcs	f7, 2, [pc, #-388]!	; 1f3c <shift+0x1f3c>
    20bc:	2d392e34 	ldccs	14, cr2, [r9, #-208]!	; 0xffffff30
    20c0:	37313032 			; <UNDEFINED> instruction: 0x37313032
    20c4:	2f31302e 	svccs	0x0031302e
    20c8:	6762696c 	strbvs	r6, [r2, -ip, ror #18]!
    20cc:	6c2f6363 	stcvs	3, cr6, [pc], #-396	; 1f48 <shift+0x1f48>
    20d0:	63676269 	cmnvs	r7, #-1879048186	; 0x90000006
    20d4:	632e3263 			; <UNDEFINED> instruction: 0x632e3263
	...

Disassembly of section .debug_frame:

00000000 <.debug_frame>:
       0:	0000000c 	andeq	r0, r0, ip
       4:	ffffffff 			; <UNDEFINED> instruction: 0xffffffff
       8:	7c020001 	stcvc	0, cr0, [r2], {1}
       c:	000d0c0e 	andeq	r0, sp, lr, lsl #24
      10:	00000018 	andeq	r0, r0, r8, lsl r0
      14:	00000000 	andeq	r0, r0, r0
      18:	80000320 	andhi	r0, r0, r0, lsr #6
      1c:	00000040 	andeq	r0, r0, r0, asr #32
      20:	87080e41 	strhi	r0, [r8, -r1, asr #28]
      24:	41018e02 	tstmi	r1, r2, lsl #28
      28:	0000070d 	andeq	r0, r0, sp, lsl #14
      2c:	0000000c 	andeq	r0, r0, ip
      30:	ffffffff 			; <UNDEFINED> instruction: 0xffffffff
      34:	7c020001 	stcvc	0, cr0, [r2], {1}
      38:	000d0c0e 	andeq	r0, sp, lr, lsl #24
      3c:	0000001c 	andeq	r0, r0, ip, lsl r0
      40:	0000002c 	andeq	r0, r0, ip, lsr #32
      44:	80000360 	andhi	r0, r0, r0, ror #6
      48:	00000070 	andeq	r0, r0, r0, ror r0
      4c:	87040e41 	strhi	r0, [r4, -r1, asr #28]
      50:	070d4101 	streq	r4, [sp, -r1, lsl #2]
      54:	420d0d73 	andmi	r0, sp, #7360	; 0x1cc0
      58:	00000ec7 	andeq	r0, r0, r7, asr #29
      5c:	00000024 	andeq	r0, r0, r4, lsr #32
      60:	0000002c 	andeq	r0, r0, ip, lsr #32
      64:	800003d0 	ldrdhi	r0, [r0], -r0	; <UNPREDICTABLE>
      68:	000001d2 	ldrdeq	r0, [r0], -r2
      6c:	87040e41 	strhi	r0, [r4, -r1, asr #28]
      70:	100e4101 	andne	r4, lr, r1, lsl #2
      74:	02070d41 	andeq	r0, r7, #4160	; 0x1040
      78:	41040ee2 	smlattmi	r4, r2, lr, r0
      7c:	c7420d0d 	strbgt	r0, [r2, -sp, lsl #26]
      80:	0000000e 	andeq	r0, r0, lr
      84:	0000000c 	andeq	r0, r0, ip
      88:	ffffffff 			; <UNDEFINED> instruction: 0xffffffff
      8c:	7c020001 	stcvc	0, cr0, [r2], {1}
      90:	000d0c0e 	andeq	r0, sp, lr, lsl #24
      94:	00000024 	andeq	r0, r0, r4, lsr #32
      98:	00000084 	andeq	r0, r0, r4, lsl #1
      9c:	800005a2 	andhi	r0, r0, r2, lsr #11
      a0:	0000003e 	andeq	r0, r0, lr, lsr r0
      a4:	87040e41 	strhi	r0, [r4, -r1, asr #28]
      a8:	180e4101 	stmdane	lr, {r0, r8, lr}
      ac:	58070d41 	stmdapl	r7, {r0, r6, r8, sl, fp}
      b0:	0d41040e 	cfstrdeq	mvd0, [r1, #-56]	; 0xffffffc8
      b4:	0ec7420d 	cdpeq	2, 12, cr4, cr7, cr13, {0}
      b8:	00000000 	andeq	r0, r0, r0
      bc:	00000024 	andeq	r0, r0, r4, lsr #32
      c0:	00000084 	andeq	r0, r0, r4, lsl #1
      c4:	800005e0 	andhi	r0, r0, r0, ror #11
      c8:	00000026 	andeq	r0, r0, r6, lsr #32
      cc:	87040e41 	strhi	r0, [r4, -r1, asr #28]
      d0:	180e4101 	stmdane	lr, {r0, r8, lr}
      d4:	4c070d41 	stcmi	13, cr0, [r7], {65}	; 0x41
      d8:	0d41040e 	cfstrdeq	mvd0, [r1, #-56]	; 0xffffffc8
      dc:	0ec7420d 	cdpeq	2, 12, cr4, cr7, cr13, {0}
      e0:	00000000 	andeq	r0, r0, r0
      e4:	00000020 	andeq	r0, r0, r0, lsr #32
      e8:	00000084 	andeq	r0, r0, r4, lsl #1
      ec:	80000606 	andhi	r0, r0, r6, lsl #12
      f0:	0000007a 	andeq	r0, r0, sl, ror r0
      f4:	87080e41 	strhi	r0, [r8, -r1, asr #28]
      f8:	41018e02 	tstmi	r1, r2, lsl #28
      fc:	0c41100e 	mcrreq	0, 0, r1, r1, cr14
     100:	0d790807 	ldcleq	8, cr0, [r9, #-28]!	; 0xffffffe4
     104:	0000000d 	andeq	r0, r0, sp
     108:	0000001c 	andeq	r0, r0, ip, lsl r0
     10c:	00000084 	andeq	r0, r0, r4, lsl #1
     110:	80000680 	andhi	r0, r0, r0, lsl #13
     114:	00000026 	andeq	r0, r0, r6, lsr #32
     118:	87040e41 	strhi	r0, [r4, -r1, asr #28]
     11c:	070d4101 	streq	r4, [sp, -r1, lsl #2]
     120:	420d0d4e 	andmi	r0, sp, #4992	; 0x1380
     124:	00000ec7 	andeq	r0, r0, r7, asr #29
     128:	0000001c 	andeq	r0, r0, ip, lsl r0
     12c:	00000084 	andeq	r0, r0, r4, lsl #1
     130:	800006a6 	andhi	r0, r0, r6, lsr #13
     134:	00000026 	andeq	r0, r0, r6, lsr #32
     138:	87040e41 	strhi	r0, [r4, -r1, asr #28]
     13c:	070d4101 	streq	r4, [sp, -r1, lsl #2]
     140:	420d0d4e 	andmi	r0, sp, #4992	; 0x1380
     144:	00000ec7 	andeq	r0, r0, r7, asr #29
     148:	00000020 	andeq	r0, r0, r0, lsr #32
     14c:	00000084 	andeq	r0, r0, r4, lsl #1
     150:	800006cc 	andhi	r0, r0, ip, asr #13
     154:	00000048 	andeq	r0, r0, r8, asr #32
     158:	87080e41 	strhi	r0, [r8, -r1, asr #28]
     15c:	41018e02 	tstmi	r1, r2, lsl #28
     160:	0d41100e 	stcleq	0, cr1, [r1, #-56]	; 0xffffffc8
     164:	080e5f07 	stmdaeq	lr, {r0, r1, r2, r8, r9, sl, fp, ip, lr}
     168:	000d0d41 	andeq	r0, sp, r1, asr #26
     16c:	0000000c 	andeq	r0, r0, ip
     170:	ffffffff 			; <UNDEFINED> instruction: 0xffffffff
     174:	7c020001 	stcvc	0, cr0, [r2], {1}
     178:	000d0c0e 	andeq	r0, sp, lr, lsl #24
     17c:	0000001c 	andeq	r0, r0, ip, lsl r0
     180:	0000016c 	andeq	r0, r0, ip, ror #2
     184:	80000714 	andhi	r0, r0, r4, lsl r7
     188:	0000007a 	andeq	r0, r0, sl, ror r0
     18c:	87040e41 	strhi	r0, [r4, -r1, asr #28]
     190:	070d4101 	streq	r4, [sp, -r1, lsl #2]
     194:	420d0d78 	andmi	r0, sp, #120, 26	; 0x1e00
     198:	00000ec7 	andeq	r0, r0, r7, asr #29
     19c:	00000024 	andeq	r0, r0, r4, lsr #32
     1a0:	0000016c 	andeq	r0, r0, ip, ror #2
     1a4:	8000078e 	andhi	r0, r0, lr, lsl #15
     1a8:	0000006c 	andeq	r0, r0, ip, rrx
     1ac:	87040e41 	strhi	r0, [r4, -r1, asr #28]
     1b0:	200e4101 	andcs	r4, lr, r1, lsl #2
     1b4:	6f070d41 	svcvs	0x00070d41
     1b8:	0d41040e 	cfstrdeq	mvd0, [r1, #-56]	; 0xffffffc8
     1bc:	0ec7420d 	cdpeq	2, 12, cr4, cr7, cr13, {0}
     1c0:	00000000 	andeq	r0, r0, r0
     1c4:	00000020 	andeq	r0, r0, r0, lsr #32
     1c8:	0000016c 	andeq	r0, r0, ip, ror #2
     1cc:	800007fa 	strdhi	r0, [r0], -sl
     1d0:	00000032 	andeq	r0, r0, r2, lsr r0
     1d4:	87080e41 	strhi	r0, [r8, -r1, asr #28]
     1d8:	41018e02 	tstmi	r1, r2, lsl #28
     1dc:	0d41180e 	stcleq	8, cr1, [r1, #-56]	; 0xffffffc8
     1e0:	080e5407 	stmdaeq	lr, {r0, r1, r2, sl, ip, lr}
     1e4:	000d0d41 	andeq	r0, sp, r1, asr #26
     1e8:	00000024 	andeq	r0, r0, r4, lsr #32
     1ec:	0000016c 	andeq	r0, r0, ip, ror #2
     1f0:	8000082c 	andhi	r0, r0, ip, lsr #16
     1f4:	00000022 	andeq	r0, r0, r2, lsr #32
     1f8:	87040e41 	strhi	r0, [r4, -r1, asr #28]
     1fc:	100e4101 	andne	r4, lr, r1, lsl #2
     200:	4a070d41 	bmi	1c370c <shift+0x1c370c>
     204:	0d41040e 	cfstrdeq	mvd0, [r1, #-56]	; 0xffffffc8
     208:	0ec7420d 	cdpeq	2, 12, cr4, cr7, cr13, {0}
     20c:	00000000 	andeq	r0, r0, r0
     210:	00000020 	andeq	r0, r0, r0, lsr #32
     214:	0000016c 	andeq	r0, r0, ip, ror #2
     218:	8000084e 	andhi	r0, r0, lr, asr #16
     21c:	00000026 	andeq	r0, r0, r6, lsr #32
     220:	87080e41 	strhi	r0, [r8, -r1, asr #28]
     224:	41018e02 	tstmi	r1, r2, lsl #28
     228:	0d41100e 	stcleq	0, cr1, [r1, #-56]	; 0xffffffc8
     22c:	080e4e07 	stmdaeq	lr, {r0, r1, r2, r9, sl, fp, lr}
     230:	000d0d41 	andeq	r0, sp, r1, asr #26
     234:	00000020 	andeq	r0, r0, r0, lsr #32
     238:	0000016c 	andeq	r0, r0, ip, ror #2
     23c:	80000874 	andhi	r0, r0, r4, ror r8
     240:	000000f8 	strdeq	r0, [r0], -r8
     244:	87080e41 	strhi	r0, [r8, -r1, asr #28]
     248:	41018e02 	tstmi	r1, r2, lsl #28
     24c:	0d41280e 	stcleq	8, cr2, [r1, #-56]	; 0xffffffc8
     250:	0e750207 	cdpeq	2, 7, cr0, cr5, cr7, {0}
     254:	0d0d4108 	stfeqs	f4, [sp, #-32]	; 0xffffffe0
     258:	00000018 	andeq	r0, r0, r8, lsl r0
     25c:	0000016c 	andeq	r0, r0, ip, ror #2
     260:	8000096c 	andhi	r0, r0, ip, ror #18
     264:	00000040 	andeq	r0, r0, r0, asr #32
     268:	87080e41 	strhi	r0, [r8, -r1, asr #28]
     26c:	41018e02 	tstmi	r1, r2, lsl #28
     270:	0000070d 	andeq	r0, r0, sp, lsl #14
     274:	0000000c 	andeq	r0, r0, ip
     278:	ffffffff 			; <UNDEFINED> instruction: 0xffffffff
     27c:	7c020001 	stcvc	0, cr0, [r2], {1}
     280:	000d0c0e 	andeq	r0, sp, lr, lsl #24
     284:	00000024 	andeq	r0, r0, r4, lsr #32
     288:	00000274 	andeq	r0, r0, r4, ror r2
     28c:	800009ac 	andhi	r0, r0, ip, lsr #19
     290:	0000003e 	andeq	r0, r0, lr, lsr r0
     294:	87040e41 	strhi	r0, [r4, -r1, asr #28]
     298:	180e4101 	stmdane	lr, {r0, r8, lr}
     29c:	58070d41 	stmdapl	r7, {r0, r6, r8, sl, fp}
     2a0:	0d41040e 	cfstrdeq	mvd0, [r1, #-56]	; 0xffffffc8
     2a4:	0ec7420d 	cdpeq	2, 12, cr4, cr7, cr13, {0}
     2a8:	00000000 	andeq	r0, r0, r0
     2ac:	00000024 	andeq	r0, r0, r4, lsr #32
     2b0:	00000274 	andeq	r0, r0, r4, ror r2
     2b4:	800009ea 	andhi	r0, r0, sl, ror #19
     2b8:	00000026 	andeq	r0, r0, r6, lsr #32
     2bc:	87040e41 	strhi	r0, [r4, -r1, asr #28]
     2c0:	180e4101 	stmdane	lr, {r0, r8, lr}
     2c4:	4c070d41 	stcmi	13, cr0, [r7], {65}	; 0x41
     2c8:	0d41040e 	cfstrdeq	mvd0, [r1, #-56]	; 0xffffffc8
     2cc:	0ec7420d 	cdpeq	2, 12, cr4, cr7, cr13, {0}
     2d0:	00000000 	andeq	r0, r0, r0
     2d4:	00000020 	andeq	r0, r0, r0, lsr #32
     2d8:	00000274 	andeq	r0, r0, r4, ror r2
     2dc:	80000a10 	andhi	r0, r0, r0, lsl sl
     2e0:	00000076 	andeq	r0, r0, r6, ror r0
     2e4:	87080e41 	strhi	r0, [r8, -r1, asr #28]
     2e8:	41018e02 	tstmi	r1, r2, lsl #28
     2ec:	0c41100e 	mcrreq	0, 0, r1, r1, cr14
     2f0:	0d770807 	ldcleq	8, cr0, [r7, #-28]!	; 0xffffffe4
     2f4:	0000000d 	andeq	r0, r0, sp
     2f8:	00000024 	andeq	r0, r0, r4, lsr #32
     2fc:	00000274 	andeq	r0, r0, r4, ror r2
     300:	80000a86 	andhi	r0, r0, r6, lsl #21
     304:	00000052 	andeq	r0, r0, r2, asr r0
     308:	87040e41 	strhi	r0, [r4, -r1, asr #28]
     30c:	100e4101 	andne	r4, lr, r1, lsl #2
     310:	62070d41 	andvs	r0, r7, #4160	; 0x1040
     314:	0d41040e 	cfstrdeq	mvd0, [r1, #-56]	; 0xffffffc8
     318:	0ec7420d 	cdpeq	2, 12, cr4, cr7, cr13, {0}
     31c:	00000000 	andeq	r0, r0, r0
     320:	0000000c 	andeq	r0, r0, ip
     324:	ffffffff 			; <UNDEFINED> instruction: 0xffffffff
     328:	7c020001 	stcvc	0, cr0, [r2], {1}
     32c:	000d0c0e 	andeq	r0, sp, lr, lsl #24
     330:	00000024 	andeq	r0, r0, r4, lsr #32
     334:	00000320 	andeq	r0, r0, r0, lsr #6
     338:	80000ad8 	ldrdhi	r0, [r0], -r8
     33c:	00000024 	andeq	r0, r0, r4, lsr #32
     340:	87040e41 	strhi	r0, [r4, -r1, asr #28]
     344:	100e4101 	andne	r4, lr, r1, lsl #2
     348:	4b070d41 	blmi	1c3854 <shift+0x1c3854>
     34c:	0d41040e 	cfstrdeq	mvd0, [r1, #-56]	; 0xffffffc8
     350:	0ec7420d 	cdpeq	2, 12, cr4, cr7, cr13, {0}
     354:	00000000 	andeq	r0, r0, r0
     358:	00000024 	andeq	r0, r0, r4, lsr #32
     35c:	00000320 	andeq	r0, r0, r0, lsr #6
     360:	80000afc 	strdhi	r0, [r0], -ip
     364:	00000046 	andeq	r0, r0, r6, asr #32
     368:	87040e41 	strhi	r0, [r4, -r1, asr #28]
     36c:	180e4101 	stmdane	lr, {r0, r8, lr}
     370:	5c070d41 	stcpl	13, cr0, [r7], {65}	; 0x41
     374:	0d41040e 	cfstrdeq	mvd0, [r1, #-56]	; 0xffffffc8
     378:	0ec7420d 	cdpeq	2, 12, cr4, cr7, cr13, {0}
     37c:	00000000 	andeq	r0, r0, r0
     380:	00000020 	andeq	r0, r0, r0, lsr #32
     384:	00000320 	andeq	r0, r0, r0, lsr #6
     388:	80000b42 	andhi	r0, r0, r2, asr #22
     38c:	00000068 	andeq	r0, r0, r8, rrx
     390:	87080e41 	strhi	r0, [r8, -r1, asr #28]
     394:	41018e02 	tstmi	r1, r2, lsl #28
     398:	0d41180e 	stcleq	8, cr1, [r1, #-56]	; 0xffffffc8
     39c:	080e6f07 	stmdaeq	lr, {r0, r1, r2, r8, r9, sl, fp, sp, lr}
     3a0:	000d0d41 	andeq	r0, sp, r1, asr #26
     3a4:	00000024 	andeq	r0, r0, r4, lsr #32
     3a8:	00000320 	andeq	r0, r0, r0, lsr #6
     3ac:	80000baa 	andhi	r0, r0, sl, lsr #23
     3b0:	000000fe 	strdeq	r0, [r0], -lr
     3b4:	87040e41 	strhi	r0, [r4, -r1, asr #28]
     3b8:	200e4101 	andcs	r4, lr, r1, lsl #2
     3bc:	02070d41 	andeq	r0, r7, #4160	; 0x1040
     3c0:	41040e78 	tstmi	r4, r8, ror lr
     3c4:	c7420d0d 	strbgt	r0, [r2, -sp, lsl #26]
     3c8:	0000000e 	andeq	r0, r0, lr
     3cc:	00000024 	andeq	r0, r0, r4, lsr #32
     3d0:	00000320 	andeq	r0, r0, r0, lsr #6
     3d4:	80000ca8 	andhi	r0, r0, r8, lsr #25
     3d8:	00000028 	andeq	r0, r0, r8, lsr #32
     3dc:	87040e41 	strhi	r0, [r4, -r1, asr #28]
     3e0:	100e4101 	andne	r4, lr, r1, lsl #2
     3e4:	4d070d41 	stcmi	13, cr0, [r7, #-260]	; 0xfffffefc
     3e8:	0d41040e 	cfstrdeq	mvd0, [r1, #-56]	; 0xffffffc8
     3ec:	0ec7420d 	cdpeq	2, 12, cr4, cr7, cr13, {0}
     3f0:	00000000 	andeq	r0, r0, r0
     3f4:	00000024 	andeq	r0, r0, r4, lsr #32
     3f8:	00000320 	andeq	r0, r0, r0, lsr #6
     3fc:	80000cd0 	ldrdhi	r0, [r0], -r0	; <UNPREDICTABLE>
     400:	0000002a 	andeq	r0, r0, sl, lsr #32
     404:	87040e41 	strhi	r0, [r4, -r1, asr #28]
     408:	100e4101 	andne	r4, lr, r1, lsl #2
     40c:	4e070d41 	cdpmi	13, 0, cr0, cr7, cr1, {2}
     410:	0d41040e 	cfstrdeq	mvd0, [r1, #-56]	; 0xffffffc8
     414:	0ec7420d 	cdpeq	2, 12, cr4, cr7, cr13, {0}
     418:	00000000 	andeq	r0, r0, r0
     41c:	00000024 	andeq	r0, r0, r4, lsr #32
     420:	00000320 	andeq	r0, r0, r0, lsr #6
     424:	80000cfa 	strdhi	r0, [r0], -sl
     428:	00000028 	andeq	r0, r0, r8, lsr #32
     42c:	87040e41 	strhi	r0, [r4, -r1, asr #28]
     430:	100e4101 	andne	r4, lr, r1, lsl #2
     434:	4d070d41 	stcmi	13, cr0, [r7, #-260]	; 0xfffffefc
     438:	0d41040e 	cfstrdeq	mvd0, [r1, #-56]	; 0xffffffc8
     43c:	0ec7420d 	cdpeq	2, 12, cr4, cr7, cr13, {0}
     440:	00000000 	andeq	r0, r0, r0
     444:	00000024 	andeq	r0, r0, r4, lsr #32
     448:	00000320 	andeq	r0, r0, r0, lsr #6
     44c:	80000d22 	andhi	r0, r0, r2, lsr #26
     450:	0000002a 	andeq	r0, r0, sl, lsr #32
     454:	87040e41 	strhi	r0, [r4, -r1, asr #28]
     458:	100e4101 	andne	r4, lr, r1, lsl #2
     45c:	4e070d41 	cdpmi	13, 0, cr0, cr7, cr1, {2}
     460:	0d41040e 	cfstrdeq	mvd0, [r1, #-56]	; 0xffffffc8
     464:	0ec7420d 	cdpeq	2, 12, cr4, cr7, cr13, {0}
     468:	00000000 	andeq	r0, r0, r0
     46c:	0000000c 	andeq	r0, r0, ip
     470:	ffffffff 			; <UNDEFINED> instruction: 0xffffffff
     474:	7c020001 	stcvc	0, cr0, [r2], {1}
     478:	000d0c0e 	andeq	r0, sp, lr, lsl #24
     47c:	00000024 	andeq	r0, r0, r4, lsr #32
     480:	0000046c 	andeq	r0, r0, ip, ror #8
     484:	80000d4c 	andhi	r0, r0, ip, asr #26
     488:	0000003e 	andeq	r0, r0, lr, lsr r0
     48c:	87040e41 	strhi	r0, [r4, -r1, asr #28]
     490:	180e4101 	stmdane	lr, {r0, r8, lr}
     494:	58070d41 	stmdapl	r7, {r0, r6, r8, sl, fp}
     498:	0d41040e 	cfstrdeq	mvd0, [r1, #-56]	; 0xffffffc8
     49c:	0ec7420d 	cdpeq	2, 12, cr4, cr7, cr13, {0}
     4a0:	00000000 	andeq	r0, r0, r0
     4a4:	00000024 	andeq	r0, r0, r4, lsr #32
     4a8:	0000046c 	andeq	r0, r0, ip, ror #8
     4ac:	80000d8a 	andhi	r0, r0, sl, lsl #27
     4b0:	00000026 	andeq	r0, r0, r6, lsr #32
     4b4:	87040e41 	strhi	r0, [r4, -r1, asr #28]
     4b8:	180e4101 	stmdane	lr, {r0, r8, lr}
     4bc:	4c070d41 	stcmi	13, cr0, [r7], {65}	; 0x41
     4c0:	0d41040e 	cfstrdeq	mvd0, [r1, #-56]	; 0xffffffc8
     4c4:	0ec7420d 	cdpeq	2, 12, cr4, cr7, cr13, {0}
     4c8:	00000000 	andeq	r0, r0, r0
     4cc:	00000020 	andeq	r0, r0, r0, lsr #32
     4d0:	0000046c 	andeq	r0, r0, ip, ror #8
     4d4:	80000db0 			; <UNDEFINED> instruction: 0x80000db0
     4d8:	00000066 	andeq	r0, r0, r6, rrx
     4dc:	87080e41 	strhi	r0, [r8, -r1, asr #28]
     4e0:	41018e02 	tstmi	r1, r2, lsl #28
     4e4:	0c41200e 	mcrreq	0, 0, r2, r1, cr14
     4e8:	0e6e1807 	cdpeq	8, 6, cr1, cr14, cr7, {0}
     4ec:	0d0d4108 	stfeqs	f4, [sp, #-32]	; 0xffffffe0
     4f0:	00000020 	andeq	r0, r0, r0, lsr #32
     4f4:	0000046c 	andeq	r0, r0, ip, ror #8
     4f8:	80000e16 	andhi	r0, r0, r6, lsl lr
     4fc:	00000086 	andeq	r0, r0, r6, lsl #1
     500:	87080e41 	strhi	r0, [r8, -r1, asr #28]
     504:	41018e02 	tstmi	r1, r2, lsl #28
     508:	0d41100e 	stcleq	0, cr1, [r1, #-56]	; 0xffffffc8
     50c:	080e7807 	stmdaeq	lr, {r0, r1, r2, fp, ip, sp, lr}
     510:	000d0d41 	andeq	r0, sp, r1, asr #26
     514:	0000000c 	andeq	r0, r0, ip
     518:	ffffffff 			; <UNDEFINED> instruction: 0xffffffff
     51c:	7c020001 	stcvc	0, cr0, [r2], {1}
     520:	000d0c0e 	andeq	r0, sp, lr, lsl #24
     524:	00000020 	andeq	r0, r0, r0, lsr #32
     528:	00000514 	andeq	r0, r0, r4, lsl r5
     52c:	80000e9c 	mulhi	r0, ip, lr
     530:	00000090 	muleq	r0, r0, r0
     534:	87080e41 	strhi	r0, [r8, -r1, asr #28]
     538:	41018e02 	tstmi	r1, r2, lsl #28
     53c:	0d41180e 	stcleq	8, cr1, [r1, #-56]	; 0xffffffc8
     540:	0e430207 	cdpeq	2, 4, cr0, cr3, cr7, {0}
     544:	0d0d4108 	stfeqs	f4, [sp, #-32]	; 0xffffffe0
     548:	00000020 	andeq	r0, r0, r0, lsr #32
     54c:	00000514 	andeq	r0, r0, r4, lsl r5
     550:	80000f2c 	andhi	r0, r0, ip, lsr #30
     554:	00000044 	andeq	r0, r0, r4, asr #32
     558:	87080e41 	strhi	r0, [r8, -r1, asr #28]
     55c:	41018e02 	tstmi	r1, r2, lsl #28
     560:	0d41100e 	stcleq	0, cr1, [r1, #-56]	; 0xffffffc8
     564:	080e5907 	stmdaeq	lr, {r0, r1, r2, r8, fp, ip, lr}
     568:	000d0d41 	andeq	r0, sp, r1, asr #26
     56c:	00000024 	andeq	r0, r0, r4, lsr #32
     570:	00000514 	andeq	r0, r0, r4, lsl r5
     574:	80000f70 	andhi	r0, r0, r0, ror pc
     578:	0000003c 	andeq	r0, r0, ip, lsr r0
     57c:	87040e41 	strhi	r0, [r4, -r1, asr #28]
     580:	180e4101 	stmdane	lr, {r0, r8, lr}
     584:	52070d41 	andpl	r0, r7, #4160	; 0x1040
     588:	0d41040e 	cfstrdeq	mvd0, [r1, #-56]	; 0xffffffc8
     58c:	0ec7420d 	cdpeq	2, 12, cr4, cr7, cr13, {0}
     590:	00000000 	andeq	r0, r0, r0
     594:	00000020 	andeq	r0, r0, r0, lsr #32
     598:	00000514 	andeq	r0, r0, r4, lsl r5
     59c:	80000fac 	andhi	r0, r0, ip, lsr #31
     5a0:	00000080 	andeq	r0, r0, r0, lsl #1
     5a4:	87080e41 	strhi	r0, [r8, -r1, asr #28]
     5a8:	41018e02 	tstmi	r1, r2, lsl #28
     5ac:	0d41180e 	stcleq	8, cr1, [r1, #-56]	; 0xffffffc8
     5b0:	080e6d07 	stmdaeq	lr, {r0, r1, r2, r8, sl, fp, sp, lr}
     5b4:	000d0d41 	andeq	r0, sp, r1, asr #26
     5b8:	00000020 	andeq	r0, r0, r0, lsr #32
     5bc:	00000514 	andeq	r0, r0, r4, lsl r5
     5c0:	8000102c 	andhi	r1, r0, ip, lsr #32
     5c4:	00000020 	andeq	r0, r0, r0, lsr #32
     5c8:	87080e41 	strhi	r0, [r8, -r1, asr #28]
     5cc:	41018e02 	tstmi	r1, r2, lsl #28
     5d0:	0d41100e 	stcleq	0, cr1, [r1, #-56]	; 0xffffffc8
     5d4:	080e4907 	stmdaeq	lr, {r0, r1, r2, r8, fp, lr}
     5d8:	000d0d41 	andeq	r0, sp, r1, asr #26
     5dc:	0000000c 	andeq	r0, r0, ip
     5e0:	ffffffff 			; <UNDEFINED> instruction: 0xffffffff
     5e4:	7c020001 	stcvc	0, cr0, [r2], {1}
     5e8:	000d0c0e 	andeq	r0, sp, lr, lsl #24
     5ec:	00000024 	andeq	r0, r0, r4, lsr #32
     5f0:	000005dc 	ldrdeq	r0, [r0], -ip
     5f4:	8000104c 	andhi	r1, r0, ip, asr #32
     5f8:	0000003e 	andeq	r0, r0, lr, lsr r0
     5fc:	87040e41 	strhi	r0, [r4, -r1, asr #28]
     600:	180e4101 	stmdane	lr, {r0, r8, lr}
     604:	58070d41 	stmdapl	r7, {r0, r6, r8, sl, fp}
     608:	0d41040e 	cfstrdeq	mvd0, [r1, #-56]	; 0xffffffc8
     60c:	0ec7420d 	cdpeq	2, 12, cr4, cr7, cr13, {0}
     610:	00000000 	andeq	r0, r0, r0
     614:	00000024 	andeq	r0, r0, r4, lsr #32
     618:	000005dc 	ldrdeq	r0, [r0], -ip
     61c:	8000108a 	andhi	r1, r0, sl, lsl #1
     620:	00000026 	andeq	r0, r0, r6, lsr #32
     624:	87040e41 	strhi	r0, [r4, -r1, asr #28]
     628:	180e4101 	stmdane	lr, {r0, r8, lr}
     62c:	4c070d41 	stcmi	13, cr0, [r7], {65}	; 0x41
     630:	0d41040e 	cfstrdeq	mvd0, [r1, #-56]	; 0xffffffc8
     634:	0ec7420d 	cdpeq	2, 12, cr4, cr7, cr13, {0}
     638:	00000000 	andeq	r0, r0, r0
     63c:	00000024 	andeq	r0, r0, r4, lsr #32
     640:	000005dc 	ldrdeq	r0, [r0], -ip
     644:	800010b0 	strhhi	r1, [r0], -r0
     648:	000000b4 	strheq	r0, [r0], -r4
     64c:	87080e41 	strhi	r0, [r8, -r1, asr #28]
     650:	41018e02 	tstmi	r1, r2, lsl #28
     654:	0c41280e 	mcrreq	8, 0, r2, r1, cr14
     658:	52022007 	andpl	r2, r2, #7
     65c:	0d41080e 	stcleq	8, cr0, [r1, #-56]	; 0xffffffc8
     660:	0000000d 	andeq	r0, r0, sp
     664:	00000018 	andeq	r0, r0, r8, lsl r0
     668:	000005dc 	ldrdeq	r0, [r0], -ip
     66c:	80001164 	andhi	r1, r0, r4, ror #2
     670:	00000016 	andeq	r0, r0, r6, lsl r0
     674:	87080e41 	strhi	r0, [r8, -r1, asr #28]
     678:	41018e02 	tstmi	r1, r2, lsl #28
     67c:	0000070d 	andeq	r0, r0, sp, lsl #14
     680:	0000000c 	andeq	r0, r0, ip
     684:	ffffffff 			; <UNDEFINED> instruction: 0xffffffff
     688:	7c020001 	stcvc	0, cr0, [r2], {1}
     68c:	000d0c0e 	andeq	r0, sp, lr, lsl #24
     690:	00000020 	andeq	r0, r0, r0, lsr #32
     694:	00000680 	andeq	r0, r0, r0, lsl #13
     698:	8000117c 	andhi	r1, r0, ip, ror r1
     69c:	000000cc 	andeq	r0, r0, ip, asr #1
     6a0:	87080e41 	strhi	r0, [r8, -r1, asr #28]
     6a4:	41018e02 	tstmi	r1, r2, lsl #28
     6a8:	0d41280e 	stcleq	8, cr2, [r1, #-56]	; 0xffffffc8
     6ac:	0e5e0207 	cdpeq	2, 5, cr0, cr14, cr7, {0}
     6b0:	0d0d4108 	stfeqs	f4, [sp, #-32]	; 0xffffffe0
     6b4:	00000018 	andeq	r0, r0, r8, lsl r0
     6b8:	00000680 	andeq	r0, r0, r0, lsl #13
     6bc:	80001248 	andhi	r1, r0, r8, asr #4
     6c0:	00000022 	andeq	r0, r0, r2, lsr #32
     6c4:	87080e41 	strhi	r0, [r8, -r1, asr #28]
     6c8:	41018e02 	tstmi	r1, r2, lsl #28
     6cc:	0000070d 	andeq	r0, r0, sp, lsl #14
     6d0:	0000000c 	andeq	r0, r0, ip
     6d4:	ffffffff 			; <UNDEFINED> instruction: 0xffffffff
     6d8:	7c020001 	stcvc	0, cr0, [r2], {1}
     6dc:	000d0c0e 	andeq	r0, sp, lr, lsl #24
     6e0:	00000024 	andeq	r0, r0, r4, lsr #32
     6e4:	000006d0 	ldrdeq	r0, [r0], -r0	; <UNPREDICTABLE>
     6e8:	8000126c 	andhi	r1, r0, ip, ror #4
     6ec:	0000003e 	andeq	r0, r0, lr, lsr r0
     6f0:	87040e41 	strhi	r0, [r4, -r1, asr #28]
     6f4:	180e4101 	stmdane	lr, {r0, r8, lr}
     6f8:	58070d41 	stmdapl	r7, {r0, r6, r8, sl, fp}
     6fc:	0d41040e 	cfstrdeq	mvd0, [r1, #-56]	; 0xffffffc8
     700:	0ec7420d 	cdpeq	2, 12, cr4, cr7, cr13, {0}
     704:	00000000 	andeq	r0, r0, r0
     708:	00000024 	andeq	r0, r0, r4, lsr #32
     70c:	000006d0 	ldrdeq	r0, [r0], -r0	; <UNPREDICTABLE>
     710:	800012aa 	andhi	r1, r0, sl, lsr #5
     714:	00000026 	andeq	r0, r0, r6, lsr #32
     718:	87040e41 	strhi	r0, [r4, -r1, asr #28]
     71c:	180e4101 	stmdane	lr, {r0, r8, lr}
     720:	4c070d41 	stcmi	13, cr0, [r7], {65}	; 0x41
     724:	0d41040e 	cfstrdeq	mvd0, [r1, #-56]	; 0xffffffc8
     728:	0ec7420d 	cdpeq	2, 12, cr4, cr7, cr13, {0}
     72c:	00000000 	andeq	r0, r0, r0
     730:	00000018 	andeq	r0, r0, r8, lsl r0
     734:	000006d0 	ldrdeq	r0, [r0], -r0	; <UNPREDICTABLE>
     738:	800012d0 	ldrdhi	r1, [r0], -r0
     73c:	000000a6 	andeq	r0, r0, r6, lsr #1
     740:	87080e41 	strhi	r0, [r8, -r1, asr #28]
     744:	41018e02 	tstmi	r1, r2, lsl #28
     748:	0000070d 	andeq	r0, r0, sp, lsl #14
     74c:	00000020 	andeq	r0, r0, r0, lsr #32
     750:	000006d0 	ldrdeq	r0, [r0], -r0	; <UNPREDICTABLE>
     754:	80001376 	andhi	r1, r0, r6, ror r3
     758:	00000094 	muleq	r0, r4, r0
     75c:	87080e41 	strhi	r0, [r8, -r1, asr #28]
     760:	41018e02 	tstmi	r1, r2, lsl #28
     764:	0c41100e 	mcrreq	0, 0, r1, r1, cr14
     768:	46020807 	strmi	r0, [r2], -r7, lsl #16
     76c:	00000d0d 	andeq	r0, r0, sp, lsl #26
     770:	00000030 	andeq	r0, r0, r0, lsr r0
     774:	000006d0 	ldrdeq	r0, [r0], -r0	; <UNPREDICTABLE>
     778:	8000140a 	andhi	r1, r0, sl, lsl #8
     77c:	00000368 	andeq	r0, r0, r8, ror #6
     780:	84200e42 	strthi	r0, [r0], #-3650	; 0xfffff1be
     784:	87078508 	strhi	r8, [r7, -r8, lsl #10]
     788:	89058806 	stmdbhi	r5, {r1, r2, fp, pc}
     78c:	8b038a04 	blhi	e2fa4 <shift+0xe2fa4>
     790:	41018e02 	tstmi	r1, r2, lsl #28
     794:	4101b00e 	tstmi	r1, lr
     798:	ad03070d 	stcge	7, cr0, [r3, #-52]	; 0xffffffcc
     79c:	41200e01 			; <UNDEFINED> instruction: 0x41200e01
     7a0:	00000d0d 	andeq	r0, r0, sp, lsl #26
     7a4:	00000024 	andeq	r0, r0, r4, lsr #32
     7a8:	000006d0 	ldrdeq	r0, [r0], -r0	; <UNPREDICTABLE>
     7ac:	80001772 	andhi	r1, r0, r2, ror r7
     7b0:	00000024 	andeq	r0, r0, r4, lsr #32
     7b4:	87040e41 	strhi	r0, [r4, -r1, asr #28]
     7b8:	100e4101 	andne	r4, lr, r1, lsl #2
     7bc:	4b070d41 	blmi	1c3cc8 <shift+0x1c3cc8>
     7c0:	0d41040e 	cfstrdeq	mvd0, [r1, #-56]	; 0xffffffc8
     7c4:	0ec7420d 	cdpeq	2, 12, cr4, cr7, cr13, {0}
     7c8:	00000000 	andeq	r0, r0, r0
     7cc:	00000024 	andeq	r0, r0, r4, lsr #32
     7d0:	000006d0 	ldrdeq	r0, [r0], -r0	; <UNPREDICTABLE>
     7d4:	80001796 	mulhi	r0, r6, r7
     7d8:	00000024 	andeq	r0, r0, r4, lsr #32
     7dc:	87040e41 	strhi	r0, [r4, -r1, asr #28]
     7e0:	100e4101 	andne	r4, lr, r1, lsl #2
     7e4:	4b070d41 	blmi	1c3cf0 <shift+0x1c3cf0>
     7e8:	0d41040e 	cfstrdeq	mvd0, [r1, #-56]	; 0xffffffc8
     7ec:	0ec7420d 	cdpeq	2, 12, cr4, cr7, cr13, {0}
     7f0:	00000000 	andeq	r0, r0, r0
     7f4:	00000024 	andeq	r0, r0, r4, lsr #32
     7f8:	000006d0 	ldrdeq	r0, [r0], -r0	; <UNPREDICTABLE>
     7fc:	800017ba 			; <UNDEFINED> instruction: 0x800017ba
     800:	00000036 	andeq	r0, r0, r6, lsr r0
     804:	87040e41 	strhi	r0, [r4, -r1, asr #28]
     808:	100e4101 	andne	r4, lr, r1, lsl #2
     80c:	54070d41 	strpl	r0, [r7], #-3393	; 0xfffff2bf
     810:	0d41040e 	cfstrdeq	mvd0, [r1, #-56]	; 0xffffffc8
     814:	0ec7420d 	cdpeq	2, 12, cr4, cr7, cr13, {0}
     818:	00000000 	andeq	r0, r0, r0
     81c:	00000024 	andeq	r0, r0, r4, lsr #32
     820:	000006d0 	ldrdeq	r0, [r0], -r0	; <UNPREDICTABLE>
     824:	800017f0 	strdhi	r1, [r0], -r0
     828:	00000034 	andeq	r0, r0, r4, lsr r0
     82c:	87040e41 	strhi	r0, [r4, -r1, asr #28]
     830:	100e4101 	andne	r4, lr, r1, lsl #2
     834:	53070d41 	movwpl	r0, #32065	; 0x7d41
     838:	0d41040e 	cfstrdeq	mvd0, [r1, #-56]	; 0xffffffc8
     83c:	0ec7420d 	cdpeq	2, 12, cr4, cr7, cr13, {0}
     840:	00000000 	andeq	r0, r0, r0
     844:	00000020 	andeq	r0, r0, r0, lsr #32
     848:	000006d0 	ldrdeq	r0, [r0], -r0	; <UNPREDICTABLE>
     84c:	80001824 	andhi	r1, r0, r4, lsr #16
     850:	0000002e 	andeq	r0, r0, lr, lsr #32
     854:	87080e41 	strhi	r0, [r8, -r1, asr #28]
     858:	41018e02 	tstmi	r1, r2, lsl #28
     85c:	0d41180e 	stcleq	8, cr1, [r1, #-56]	; 0xffffffc8
     860:	080e5207 	stmdaeq	lr, {r0, r1, r2, r9, ip, lr}
     864:	000d0d41 	andeq	r0, sp, r1, asr #26
     868:	0000001c 	andeq	r0, r0, ip, lsl r0
     86c:	000006d0 	ldrdeq	r0, [r0], -r0	; <UNPREDICTABLE>
     870:	80001852 	andhi	r1, r0, r2, asr r8
     874:	0000002c 	andeq	r0, r0, ip, lsr #32
     878:	87040e41 	strhi	r0, [r4, -r1, asr #28]
     87c:	070d4101 	streq	r4, [sp, -r1, lsl #2]
     880:	420d0d51 	andmi	r0, sp, #5184	; 0x1440
     884:	00000ec7 	andeq	r0, r0, r7, asr #29
     888:	00000024 	andeq	r0, r0, r4, lsr #32
     88c:	000006d0 	ldrdeq	r0, [r0], -r0	; <UNPREDICTABLE>
     890:	8000187e 	andhi	r1, r0, lr, ror r8
     894:	00000014 	andeq	r0, r0, r4, lsl r0
     898:	87040e41 	strhi	r0, [r4, -r1, asr #28]
     89c:	100e4101 	andne	r4, lr, r1, lsl #2
     8a0:	43070d41 	movwmi	r0, #32065	; 0x7d41
     8a4:	0d41040e 	cfstrdeq	mvd0, [r1, #-56]	; 0xffffffc8
     8a8:	0ec7420d 	cdpeq	2, 12, cr4, cr7, cr13, {0}
     8ac:	00000000 	andeq	r0, r0, r0
     8b0:	0000000c 	andeq	r0, r0, ip
     8b4:	ffffffff 			; <UNDEFINED> instruction: 0xffffffff
     8b8:	7c020001 	stcvc	0, cr0, [r2], {1}
     8bc:	000d0c0e 	andeq	r0, sp, lr, lsl #24
     8c0:	0000002c 	andeq	r0, r0, ip, lsr #32
     8c4:	000008b0 			; <UNDEFINED> instruction: 0x000008b0
     8c8:	80001894 	mulhi	r0, r4, r8
     8cc:	0000017a 	andeq	r0, r0, sl, ror r1
     8d0:	84200e42 	strthi	r0, [r0], #-3650	; 0xfffff1be
     8d4:	87078508 	strhi	r8, [r7, -r8, lsl #10]
     8d8:	89058806 	stmdbhi	r5, {r1, r2, fp, pc}
     8dc:	8b038a04 	blhi	e30f4 <shift+0xe30f4>
     8e0:	41018e02 	tstmi	r1, r2, lsl #28
     8e4:	0d41780e 	stcleq	8, cr7, [r1, #-56]	; 0xffffffc8
     8e8:	0eb60207 	cdpeq	2, 11, cr0, cr6, cr7, {0}
     8ec:	0d0d4120 	stfeqs	f4, [sp, #-128]	; 0xffffff80
     8f0:	0000000c 	andeq	r0, r0, ip
     8f4:	ffffffff 			; <UNDEFINED> instruction: 0xffffffff
     8f8:	7c020001 	stcvc	0, cr0, [r2], {1}
     8fc:	000d0c0e 	andeq	r0, sp, lr, lsl #24
     900:	00000024 	andeq	r0, r0, r4, lsr #32
     904:	000008f0 	strdeq	r0, [r0], -r0	; <UNPREDICTABLE>
     908:	80001a0e 	andhi	r1, r0, lr, lsl #20
     90c:	0000008a 	andeq	r0, r0, sl, lsl #1
     910:	84080e41 	strhi	r0, [r8], #-3649	; 0xfffff1bf
     914:	41018702 	tstmi	r1, r2, lsl #14
     918:	0d41380e 	stcleq	8, cr3, [r1, #-56]	; 0xffffffc8
     91c:	080e7f07 	stmdaeq	lr, {r0, r1, r2, r8, r9, sl, fp, ip, sp, lr}
     920:	410d0d41 	tstmi	sp, r1, asr #26
     924:	000ec4c7 	andeq	ip, lr, r7, asr #9
     928:	0000000c 	andeq	r0, r0, ip
     92c:	ffffffff 			; <UNDEFINED> instruction: 0xffffffff
     930:	7c020001 	stcvc	0, cr0, [r2], {1}
     934:	000d0c0e 	andeq	r0, sp, lr, lsl #24
     938:	00000038 	andeq	r0, r0, r8, lsr r0
     93c:	00000928 	andeq	r0, r0, r8, lsr #18
     940:	80001a98 	mulhi	r0, r8, sl
     944:	0000006c 	andeq	r0, r0, ip, rrx
     948:	80100e41 	andshi	r0, r0, r1, asr #28
     94c:	82038104 	andhi	r8, r3, #4, 2
     950:	41018302 	tstmi	r1, r2, lsl #6
     954:	0687180e 	streq	r1, [r7], lr, lsl #16
     958:	0e41058e 	cdpeq	5, 4, cr0, cr1, cr14, {4}
     95c:	070d4128 	streq	r4, [sp, -r8, lsr #2]
     960:	41180e66 	tstmi	r8, r6, ror #28
     964:	ce420d0d 	cdpgt	13, 4, cr0, cr2, cr13, {0}
     968:	41100ec7 	tstmi	r0, r7, asr #29
     96c:	c0c1c2c3 	sbcgt	ip, r1, r3, asr #5
     970:	0000000e 	andeq	r0, r0, lr
     974:	00000038 	andeq	r0, r0, r8, lsr r0
     978:	00000928 	andeq	r0, r0, r8, lsr #18
     97c:	80001b04 	andhi	r1, r0, r4, lsl #22
     980:	0000007c 	andeq	r0, r0, ip, ror r0
     984:	80100e41 	andshi	r0, r0, r1, asr #28
     988:	82038104 	andhi	r8, r3, #4, 2
     98c:	41018302 	tstmi	r1, r2, lsl #6
     990:	0687180e 	streq	r1, [r7], lr, lsl #16
     994:	0e41058e 	cdpeq	5, 4, cr0, cr1, cr14, {4}
     998:	070d4128 	streq	r4, [sp, -r8, lsr #2]
     99c:	41180e6e 	tstmi	r8, lr, ror #28
     9a0:	ce420d0d 	cdpgt	13, 4, cr0, cr2, cr13, {0}
     9a4:	41100ec7 	tstmi	r0, r7, asr #29
     9a8:	c0c1c2c3 	sbcgt	ip, r1, r3, asr #5
     9ac:	0000000e 	andeq	r0, r0, lr
     9b0:	0000000c 	andeq	r0, r0, ip
     9b4:	ffffffff 			; <UNDEFINED> instruction: 0xffffffff
     9b8:	7c020001 	stcvc	0, cr0, [r2], {1}
     9bc:	000d0c0e 	andeq	r0, sp, lr, lsl #24
     9c0:	00000024 	andeq	r0, r0, r4, lsr #32
     9c4:	000009b0 			; <UNDEFINED> instruction: 0x000009b0
     9c8:	80001b80 	andhi	r1, r0, r0, lsl #23
     9cc:	0000003c 	andeq	r0, r0, ip, lsr r0
     9d0:	87040e41 	strhi	r0, [r4, -r1, asr #28]
     9d4:	100e4101 	andne	r4, lr, r1, lsl #2
     9d8:	52070d41 	andpl	r0, r7, #4160	; 0x1040
     9dc:	0d41040e 	cfstrdeq	mvd0, [r1, #-56]	; 0xffffffc8
     9e0:	0ec7420d 	cdpeq	2, 12, cr4, cr7, cr13, {0}
     9e4:	00000000 	andeq	r0, r0, r0
     9e8:	00000020 	andeq	r0, r0, r0, lsr #32
     9ec:	000009b0 			; <UNDEFINED> instruction: 0x000009b0
     9f0:	80001bbc 			; <UNDEFINED> instruction: 0x80001bbc
     9f4:	00000090 	muleq	r0, r0, r0
     9f8:	87080e41 	strhi	r0, [r8, -r1, asr #28]
     9fc:	41018e02 	tstmi	r1, r2, lsl #28
     a00:	0d41200e 	stcleq	0, cr2, [r1, #-56]	; 0xffffffc8
     a04:	0e430207 	cdpeq	2, 4, cr0, cr3, cr7, {0}
     a08:	0d0d4108 	stfeqs	f4, [sp, #-32]	; 0xffffffe0
     a0c:	00000024 	andeq	r0, r0, r4, lsr #32
     a10:	000009b0 			; <UNDEFINED> instruction: 0x000009b0
     a14:	80001c4c 	andhi	r1, r0, ip, asr #24
     a18:	00000034 	andeq	r0, r0, r4, lsr r0
     a1c:	87040e41 	strhi	r0, [r4, -r1, asr #28]
     a20:	180e4101 	stmdane	lr, {r0, r8, lr}
     a24:	53070d41 	movwpl	r0, #32065	; 0x7d41
     a28:	0d41040e 	cfstrdeq	mvd0, [r1, #-56]	; 0xffffffc8
     a2c:	0ec7420d 	cdpeq	2, 12, cr4, cr7, cr13, {0}
     a30:	00000000 	andeq	r0, r0, r0
     a34:	00000024 	andeq	r0, r0, r4, lsr #32
     a38:	000009b0 			; <UNDEFINED> instruction: 0x000009b0
     a3c:	80001c80 	andhi	r1, r0, r0, lsl #25
     a40:	00000040 	andeq	r0, r0, r0, asr #32
     a44:	87040e41 	strhi	r0, [r4, -r1, asr #28]
     a48:	200e4101 	andcs	r4, lr, r1, lsl #2
     a4c:	59070d41 	stmdbpl	r7, {r0, r6, r8, sl, fp}
     a50:	0d41040e 	cfstrdeq	mvd0, [r1, #-56]	; 0xffffffc8
     a54:	0ec7420d 	cdpeq	2, 12, cr4, cr7, cr13, {0}
     a58:	00000000 	andeq	r0, r0, r0
     a5c:	00000024 	andeq	r0, r0, r4, lsr #32
     a60:	000009b0 			; <UNDEFINED> instruction: 0x000009b0
     a64:	80001cc0 	andhi	r1, r0, r0, asr #25
     a68:	00000044 	andeq	r0, r0, r4, asr #32
     a6c:	87040e41 	strhi	r0, [r4, -r1, asr #28]
     a70:	180e4101 	stmdane	lr, {r0, r8, lr}
     a74:	5b070d41 	blpl	1c3f80 <shift+0x1c3f80>
     a78:	0d41040e 	cfstrdeq	mvd0, [r1, #-56]	; 0xffffffc8
     a7c:	0ec7420d 	cdpeq	2, 12, cr4, cr7, cr13, {0}
     a80:	00000000 	andeq	r0, r0, r0
     a84:	00000024 	andeq	r0, r0, r4, lsr #32
     a88:	000009b0 			; <UNDEFINED> instruction: 0x000009b0
     a8c:	80001d04 	andhi	r1, r0, r4, lsl #26
     a90:	00000060 	andeq	r0, r0, r0, rrx
     a94:	87040e41 	strhi	r0, [r4, -r1, asr #28]
     a98:	200e4101 	andcs	r4, lr, r1, lsl #2
     a9c:	69070d41 	stmdbvs	r7, {r0, r6, r8, sl, fp}
     aa0:	0d41040e 	cfstrdeq	mvd0, [r1, #-56]	; 0xffffffc8
     aa4:	0ec7420d 	cdpeq	2, 12, cr4, cr7, cr13, {0}
     aa8:	00000000 	andeq	r0, r0, r0
     aac:	00000024 	andeq	r0, r0, r4, lsr #32
     ab0:	000009b0 			; <UNDEFINED> instruction: 0x000009b0
     ab4:	80001d64 	andhi	r1, r0, r4, ror #26
     ab8:	0000003a 	andeq	r0, r0, sl, lsr r0
     abc:	84080e41 	strhi	r0, [r8], #-3649	; 0xfffff1bf
     ac0:	41018702 	tstmi	r1, r2, lsl #14
     ac4:	0d41100e 	stcleq	0, cr1, [r1, #-56]	; 0xffffffc8
     ac8:	080e5707 	stmdaeq	lr, {r0, r1, r2, r8, r9, sl, ip, lr}
     acc:	410d0d41 	tstmi	sp, r1, asr #26
     ad0:	000ec4c7 	andeq	ip, lr, r7, asr #9
     ad4:	00000024 	andeq	r0, r0, r4, lsr #32
     ad8:	000009b0 			; <UNDEFINED> instruction: 0x000009b0
     adc:	80001d9e 	mulhi	r0, lr, sp
     ae0:	0000004a 	andeq	r0, r0, sl, asr #32
     ae4:	84080e41 	strhi	r0, [r8], #-3649	; 0xfffff1bf
     ae8:	41018702 	tstmi	r1, r2, lsl #14
     aec:	0d41180e 	stcleq	8, cr1, [r1, #-56]	; 0xffffffc8
     af0:	080e5f07 	stmdaeq	lr, {r0, r1, r2, r8, r9, sl, fp, ip, lr}
     af4:	410d0d41 	tstmi	sp, r1, asr #26
     af8:	000ec4c7 	andeq	ip, lr, r7, asr #9
     afc:	00000024 	andeq	r0, r0, r4, lsr #32
     b00:	000009b0 			; <UNDEFINED> instruction: 0x000009b0
     b04:	80001de8 	andhi	r1, r0, r8, ror #27
     b08:	00000038 	andeq	r0, r0, r8, lsr r0
     b0c:	87040e41 	strhi	r0, [r4, -r1, asr #28]
     b10:	100e4101 	andne	r4, lr, r1, lsl #2
     b14:	55070d41 	strpl	r0, [r7, #-3393]	; 0xfffff2bf
     b18:	0d41040e 	cfstrdeq	mvd0, [r1, #-56]	; 0xffffffc8
     b1c:	0ec7420d 	cdpeq	2, 12, cr4, cr7, cr13, {0}
     b20:	00000000 	andeq	r0, r0, r0
     b24:	00000020 	andeq	r0, r0, r0, lsr #32
     b28:	000009b0 			; <UNDEFINED> instruction: 0x000009b0
     b2c:	80001e20 	andhi	r1, r0, r0, lsr #28
     b30:	00000040 	andeq	r0, r0, r0, asr #32
     b34:	87080e41 	strhi	r0, [r8, -r1, asr #28]
     b38:	41018e02 	tstmi	r1, r2, lsl #28
     b3c:	0d41180e 	stcleq	8, cr1, [r1, #-56]	; 0xffffffc8
     b40:	080e5b07 	stmdaeq	lr, {r0, r1, r2, r8, r9, fp, ip, lr}
     b44:	000d0d41 	andeq	r0, sp, r1, asr #26
     b48:	00000024 	andeq	r0, r0, r4, lsr #32
     b4c:	000009b0 			; <UNDEFINED> instruction: 0x000009b0
     b50:	80001e60 	andhi	r1, r0, r0, ror #28
     b54:	0000002e 	andeq	r0, r0, lr, lsr #32
     b58:	87040e41 	strhi	r0, [r4, -r1, asr #28]
     b5c:	180e4101 	stmdane	lr, {r0, r8, lr}
     b60:	50070d41 	andpl	r0, r7, r1, asr #26
     b64:	0d41040e 	cfstrdeq	mvd0, [r1, #-56]	; 0xffffffc8
     b68:	0ec7420d 	cdpeq	2, 12, cr4, cr7, cr13, {0}
     b6c:	00000000 	andeq	r0, r0, r0
     b70:	00000024 	andeq	r0, r0, r4, lsr #32
     b74:	000009b0 			; <UNDEFINED> instruction: 0x000009b0
     b78:	80001e8e 	andhi	r1, r0, lr, lsl #29
     b7c:	0000003a 	andeq	r0, r0, sl, lsr r0
     b80:	87040e41 	strhi	r0, [r4, -r1, asr #28]
     b84:	180e4101 	stmdane	lr, {r0, r8, lr}
     b88:	56070d41 	strpl	r0, [r7], -r1, asr #26
     b8c:	0d41040e 	cfstrdeq	mvd0, [r1, #-56]	; 0xffffffc8
     b90:	0ec7420d 	cdpeq	2, 12, cr4, cr7, cr13, {0}
     b94:	00000000 	andeq	r0, r0, r0
     b98:	00000024 	andeq	r0, r0, r4, lsr #32
     b9c:	000009b0 			; <UNDEFINED> instruction: 0x000009b0
     ba0:	80001ec8 	andhi	r1, r0, r8, asr #29
     ba4:	00000066 	andeq	r0, r0, r6, rrx
     ba8:	87040e41 	strhi	r0, [r4, -r1, asr #28]
     bac:	200e4101 	andcs	r4, lr, r1, lsl #2
     bb0:	6c070d41 	stcvs	13, cr0, [r7], {65}	; 0x41
     bb4:	0d41040e 	cfstrdeq	mvd0, [r1, #-56]	; 0xffffffc8
     bb8:	0ec7420d 	cdpeq	2, 12, cr4, cr7, cr13, {0}
     bbc:	00000000 	andeq	r0, r0, r0
     bc0:	00000024 	andeq	r0, r0, r4, lsr #32
     bc4:	000009b0 			; <UNDEFINED> instruction: 0x000009b0
     bc8:	80001f2e 	andhi	r1, r0, lr, lsr #30
     bcc:	00000050 	andeq	r0, r0, r0, asr r0
     bd0:	87040e41 	strhi	r0, [r4, -r1, asr #28]
     bd4:	180e4101 	stmdane	lr, {r0, r8, lr}
     bd8:	61070d41 	tstvs	r7, r1, asr #26
     bdc:	0d41040e 	cfstrdeq	mvd0, [r1, #-56]	; 0xffffffc8
     be0:	0ec7420d 	cdpeq	2, 12, cr4, cr7, cr13, {0}
     be4:	00000000 	andeq	r0, r0, r0
     be8:	00000020 	andeq	r0, r0, r0, lsr #32
     bec:	000009b0 			; <UNDEFINED> instruction: 0x000009b0
     bf0:	80001f7e 	andhi	r1, r0, lr, ror pc
     bf4:	0000008a 	andeq	r0, r0, sl, lsl #1
     bf8:	87080e41 	strhi	r0, [r8, -r1, asr #28]
     bfc:	41018e02 	tstmi	r1, r2, lsl #28
     c00:	0d41180e 	stcleq	8, cr1, [r1, #-56]	; 0xffffffc8
     c04:	080e7a07 	stmdaeq	lr, {r0, r1, r2, r9, fp, ip, sp, lr}
     c08:	000d0d41 	andeq	r0, sp, r1, asr #26
     c0c:	00000020 	andeq	r0, r0, r0, lsr #32
     c10:	000009b0 			; <UNDEFINED> instruction: 0x000009b0
     c14:	80002008 	andhi	r2, r0, r8
     c18:	00000044 	andeq	r0, r0, r4, asr #32
     c1c:	87080e41 	strhi	r0, [r8, -r1, asr #28]
     c20:	41018e02 	tstmi	r1, r2, lsl #28
     c24:	0d41180e 	stcleq	8, cr1, [r1, #-56]	; 0xffffffc8
     c28:	080e5d07 	stmdaeq	lr, {r0, r1, r2, r8, sl, fp, ip, lr}
     c2c:	000d0d41 	andeq	r0, sp, r1, asr #26
     c30:	00000024 	andeq	r0, r0, r4, lsr #32
     c34:	000009b0 			; <UNDEFINED> instruction: 0x000009b0
     c38:	8000204c 	andhi	r2, r0, ip, asr #32
     c3c:	00000036 	andeq	r0, r0, r6, lsr r0
     c40:	87040e41 	strhi	r0, [r4, -r1, asr #28]
     c44:	200e4101 	andcs	r4, lr, r1, lsl #2
     c48:	54070d41 	strpl	r0, [r7], #-3393	; 0xfffff2bf
     c4c:	0d41040e 	cfstrdeq	mvd0, [r1, #-56]	; 0xffffffc8
     c50:	0ec7420d 	cdpeq	2, 12, cr4, cr7, cr13, {0}
     c54:	00000000 	andeq	r0, r0, r0
     c58:	00000024 	andeq	r0, r0, r4, lsr #32
     c5c:	000009b0 			; <UNDEFINED> instruction: 0x000009b0
     c60:	80002082 	andhi	r2, r0, r2, lsl #1
     c64:	0000003e 	andeq	r0, r0, lr, lsr r0
     c68:	87040e41 	strhi	r0, [r4, -r1, asr #28]
     c6c:	200e4101 	andcs	r4, lr, r1, lsl #2
     c70:	58070d41 	stmdapl	r7, {r0, r6, r8, sl, fp}
     c74:	0d41040e 	cfstrdeq	mvd0, [r1, #-56]	; 0xffffffc8
     c78:	0ec7420d 	cdpeq	2, 12, cr4, cr7, cr13, {0}
     c7c:	00000000 	andeq	r0, r0, r0
     c80:	00000024 	andeq	r0, r0, r4, lsr #32
     c84:	000009b0 			; <UNDEFINED> instruction: 0x000009b0
     c88:	800020c0 	andhi	r2, r0, r0, asr #1
     c8c:	0000003e 	andeq	r0, r0, lr, lsr r0
     c90:	87040e41 	strhi	r0, [r4, -r1, asr #28]
     c94:	200e4101 	andcs	r4, lr, r1, lsl #2
     c98:	58070d41 	stmdapl	r7, {r0, r6, r8, sl, fp}
     c9c:	0d41040e 	cfstrdeq	mvd0, [r1, #-56]	; 0xffffffc8
     ca0:	0ec7420d 	cdpeq	2, 12, cr4, cr7, cr13, {0}
     ca4:	00000000 	andeq	r0, r0, r0
     ca8:	00000024 	andeq	r0, r0, r4, lsr #32
     cac:	000009b0 			; <UNDEFINED> instruction: 0x000009b0
     cb0:	800020fe 	strdhi	r2, [r0], -lr
     cb4:	00000078 	andeq	r0, r0, r8, ror r0
     cb8:	87040e41 	strhi	r0, [r4, -r1, asr #28]
     cbc:	200e4101 	andcs	r4, lr, r1, lsl #2
     cc0:	75070d41 	strvc	r0, [r7, #-3393]	; 0xfffff2bf
     cc4:	0d41040e 	cfstrdeq	mvd0, [r1, #-56]	; 0xffffffc8
     cc8:	0ec7420d 	cdpeq	2, 12, cr4, cr7, cr13, {0}
     ccc:	00000000 	andeq	r0, r0, r0
     cd0:	00000024 	andeq	r0, r0, r4, lsr #32
     cd4:	000009b0 			; <UNDEFINED> instruction: 0x000009b0
     cd8:	80002176 	andhi	r2, r0, r6, ror r1
     cdc:	00000058 	andeq	r0, r0, r8, asr r0
     ce0:	87040e41 	strhi	r0, [r4, -r1, asr #28]
     ce4:	280e4101 	stmdacs	lr, {r0, r8, lr}
     ce8:	65070d41 	strvs	r0, [r7, #-3393]	; 0xfffff2bf
     cec:	0d41040e 	cfstrdeq	mvd0, [r1, #-56]	; 0xffffffc8
     cf0:	0ec7420d 	cdpeq	2, 12, cr4, cr7, cr13, {0}
     cf4:	00000000 	andeq	r0, r0, r0
     cf8:	00000024 	andeq	r0, r0, r4, lsr #32
     cfc:	000009b0 			; <UNDEFINED> instruction: 0x000009b0
     d00:	800021ce 	andhi	r2, r0, lr, asr #3
     d04:	00000042 	andeq	r0, r0, r2, asr #32
     d08:	87040e41 	strhi	r0, [r4, -r1, asr #28]
     d0c:	200e4101 	andcs	r4, lr, r1, lsl #2
     d10:	5a070d41 	bpl	1c421c <shift+0x1c421c>
     d14:	0d41040e 	cfstrdeq	mvd0, [r1, #-56]	; 0xffffffc8
     d18:	0ec7420d 	cdpeq	2, 12, cr4, cr7, cr13, {0}
     d1c:	00000000 	andeq	r0, r0, r0
     d20:	00000020 	andeq	r0, r0, r0, lsr #32
     d24:	000009b0 			; <UNDEFINED> instruction: 0x000009b0
     d28:	80002210 	andhi	r2, r0, r0, lsl r2
     d2c:	0000005e 	andeq	r0, r0, lr, asr r0
     d30:	87080e41 	strhi	r0, [r8, -r1, asr #28]
     d34:	41018e02 	tstmi	r1, r2, lsl #28
     d38:	0d41180e 	stcleq	8, cr1, [r1, #-56]	; 0xffffffc8
     d3c:	080e6a07 	stmdaeq	lr, {r0, r1, r2, r9, fp, sp, lr}
     d40:	000d0d41 	andeq	r0, sp, r1, asr #26
     d44:	00000024 	andeq	r0, r0, r4, lsr #32
     d48:	000009b0 			; <UNDEFINED> instruction: 0x000009b0
     d4c:	8000226e 	andhi	r2, r0, lr, ror #4
     d50:	00000040 	andeq	r0, r0, r0, asr #32
     d54:	87040e41 	strhi	r0, [r4, -r1, asr #28]
     d58:	200e4101 	andcs	r4, lr, r1, lsl #2
     d5c:	59070d41 	stmdbpl	r7, {r0, r6, r8, sl, fp}
     d60:	0d41040e 	cfstrdeq	mvd0, [r1, #-56]	; 0xffffffc8
     d64:	0ec7420d 	cdpeq	2, 12, cr4, cr7, cr13, {0}
     d68:	00000000 	andeq	r0, r0, r0
     d6c:	0000000c 	andeq	r0, r0, ip
     d70:	ffffffff 			; <UNDEFINED> instruction: 0xffffffff
     d74:	7c020001 	stcvc	0, cr0, [r2], {1}
     d78:	000d0c0e 	andeq	r0, sp, lr, lsl #24
     d7c:	00000024 	andeq	r0, r0, r4, lsr #32
     d80:	00000d6c 	andeq	r0, r0, ip, ror #26
     d84:	800022b0 			; <UNDEFINED> instruction: 0x800022b0
     d88:	0000003c 	andeq	r0, r0, ip, lsr r0
     d8c:	87040e41 	strhi	r0, [r4, -r1, asr #28]
     d90:	100e4101 	andne	r4, lr, r1, lsl #2
     d94:	52070d41 	andpl	r0, r7, #4160	; 0x1040
     d98:	0d41040e 	cfstrdeq	mvd0, [r1, #-56]	; 0xffffffc8
     d9c:	0ec7420d 	cdpeq	2, 12, cr4, cr7, cr13, {0}
     da0:	00000000 	andeq	r0, r0, r0
     da4:	00000024 	andeq	r0, r0, r4, lsr #32
     da8:	00000d6c 	andeq	r0, r0, ip, ror #26
     dac:	800022ec 	andhi	r2, r0, ip, ror #5
     db0:	00000104 	andeq	r0, r0, r4, lsl #2
     db4:	840c0e41 	strhi	r0, [ip], #-3649	; 0xfffff1bf
     db8:	8e028703 	cdphi	7, 0, cr8, cr2, cr3, {0}
     dbc:	280e4101 	stmdacs	lr, {r0, r8, lr}
     dc0:	02070d41 	andeq	r0, r7, #4160	; 0x1040
     dc4:	410c0e79 	tstmi	ip, r9, ror lr
     dc8:	00000d0d 	andeq	r0, r0, sp, lsl #26
     dcc:	00000020 	andeq	r0, r0, r0, lsr #32
     dd0:	00000d6c 	andeq	r0, r0, ip, ror #26
     dd4:	800023f0 	strdhi	r2, [r0], -r0
     dd8:	0000003c 	andeq	r0, r0, ip, lsr r0
     ddc:	87080e41 	strhi	r0, [r8, -r1, asr #28]
     de0:	41018e02 	tstmi	r1, r2, lsl #28
     de4:	0d41180e 	stcleq	8, cr1, [r1, #-56]	; 0xffffffc8
     de8:	080e5907 	stmdaeq	lr, {r0, r1, r2, r8, fp, ip, lr}
     dec:	000d0d41 	andeq	r0, sp, r1, asr #26
     df0:	00000030 	andeq	r0, r0, r0, lsr r0
     df4:	00000d6c 	andeq	r0, r0, ip, ror #26
     df8:	8000242c 	andhi	r2, r0, ip, lsr #8
     dfc:	00000170 	andeq	r0, r0, r0, ror r1
     e00:	84240e42 	strthi	r0, [r4], #-3650	; 0xfffff1be
     e04:	86088509 	strhi	r8, [r8], -r9, lsl #10
     e08:	88068707 	stmdahi	r6, {r0, r1, r2, r8, r9, sl, pc}
     e0c:	8a048905 	bhi	123228 <shift+0x123228>
     e10:	8e028b03 	vmlahi.f64	d8, d2, d3
     e14:	580e4101 	stmdapl	lr, {r0, r8, lr}
     e18:	02070d41 	andeq	r0, r7, #4160	; 0x1040
     e1c:	41240eac 	smulwbmi	r4, ip, lr
     e20:	00000d0d 	andeq	r0, r0, sp, lsl #26
     e24:	00000024 	andeq	r0, r0, r4, lsr #32
     e28:	00000d6c 	andeq	r0, r0, ip, ror #26
     e2c:	8000259c 	mulhi	r0, ip, r5
     e30:	0000004c 	andeq	r0, r0, ip, asr #32
     e34:	84100e41 	ldrhi	r0, [r0], #-3649	; 0xfffff1bf
     e38:	87038504 	strhi	r8, [r3, -r4, lsl #10]
     e3c:	41018e02 	tstmi	r1, r2, lsl #28
     e40:	0d41200e 	stcleq	0, cr2, [r1, #-56]	; 0xffffffc8
     e44:	100e6107 	andne	r6, lr, r7, lsl #2
     e48:	000d0d41 	andeq	r0, sp, r1, asr #26
     e4c:	00000024 	andeq	r0, r0, r4, lsr #32
     e50:	00000d6c 	andeq	r0, r0, ip, ror #26
     e54:	800025e8 	andhi	r2, r0, r8, ror #11
     e58:	00000058 	andeq	r0, r0, r8, asr r0
     e5c:	84080e41 	strhi	r0, [r8], #-3649	; 0xfffff1bf
     e60:	41018702 	tstmi	r1, r2, lsl #14
     e64:	0d41180e 	stcleq	8, cr1, [r1, #-56]	; 0xffffffc8
     e68:	080e6107 	stmdaeq	lr, {r0, r1, r2, r8, sp, lr}
     e6c:	410d0d41 	tstmi	sp, r1, asr #26
     e70:	000ec4c7 	andeq	ip, lr, r7, asr #9
     e74:	00000024 	andeq	r0, r0, r4, lsr #32
     e78:	00000d6c 	andeq	r0, r0, ip, ror #26
     e7c:	80002640 	andhi	r2, r0, r0, asr #12
     e80:	00000152 	andeq	r0, r0, r2, asr r1
     e84:	87040e41 	strhi	r0, [r4, -r1, asr #28]
     e88:	200e4101 	andcs	r4, lr, r1, lsl #2
     e8c:	02070d41 	andeq	r0, r7, #4160	; 0x1040
     e90:	41040ea2 	smlatbmi	r4, r2, lr, r0
     e94:	c7420d0d 	strbgt	r0, [r2, -sp, lsl #26]
     e98:	0000000e 	andeq	r0, r0, lr
     e9c:	00000024 	andeq	r0, r0, r4, lsr #32
     ea0:	00000d6c 	andeq	r0, r0, ip, ror #26
     ea4:	80002792 	mulhi	r0, r2, r7
     ea8:	00000134 	andeq	r0, r0, r4, lsr r1
     eac:	87040e41 	strhi	r0, [r4, -r1, asr #28]
     eb0:	200e4101 	andcs	r4, lr, r1, lsl #2
     eb4:	02070d41 	andeq	r0, r7, #4160	; 0x1040
     eb8:	41040e93 			; <UNDEFINED> instruction: 0x41040e93
     ebc:	c7420d0d 	strbgt	r0, [r2, -sp, lsl #26]
     ec0:	0000000e 	andeq	r0, r0, lr
     ec4:	00000024 	andeq	r0, r0, r4, lsr #32
     ec8:	00000d6c 	andeq	r0, r0, ip, ror #26
     ecc:	800028c6 	andhi	r2, r0, r6, asr #17
     ed0:	000000a4 	andeq	r0, r0, r4, lsr #1
     ed4:	84100e41 	ldrhi	r0, [r0], #-3649	; 0xfffff1bf
     ed8:	87038504 	strhi	r8, [r3, -r4, lsl #10]
     edc:	41018e02 	tstmi	r1, r2, lsl #28
     ee0:	0d41300e 	stcleq	0, cr3, [r1, #-56]	; 0xffffffc8
     ee4:	0e4d0207 	cdpeq	2, 4, cr0, cr13, cr7, {0}
     ee8:	0d0d4110 	stfeqs	f4, [sp, #-64]	; 0xffffffc0
     eec:	0000002c 	andeq	r0, r0, ip, lsr #32
     ef0:	00000d6c 	andeq	r0, r0, ip, ror #26
     ef4:	8000296a 	andhi	r2, r0, sl, ror #18
     ef8:	00000346 	andeq	r0, r0, r6, asr #6
     efc:	841c0e42 	ldrhi	r0, [ip], #-3650	; 0xfffff1be
     f00:	86068507 	strhi	r8, [r6], -r7, lsl #10
     f04:	88048705 	stmdahi	r4, {r0, r2, r8, r9, sl, pc}
     f08:	8e028903 	vmlahi.f16	s16, s4, s6	; <UNPREDICTABLE>
     f0c:	b00e4101 	andlt	r4, lr, r1, lsl #2
     f10:	070d4101 	streq	r4, [sp, -r1, lsl #2]
     f14:	0e019a03 	vmlaeq.f32	s18, s2, s6
     f18:	0d0d411c 	stfeqs	f4, [sp, #-112]	; 0xffffff90
     f1c:	00000034 	andeq	r0, r0, r4, lsr r0
     f20:	00000d6c 	andeq	r0, r0, ip, ror #26
     f24:	80002cb0 			; <UNDEFINED> instruction: 0x80002cb0
     f28:	0000070c 	andeq	r0, r0, ip, lsl #14
     f2c:	84240e42 	strthi	r0, [r4], #-3650	; 0xfffff1be
     f30:	86088509 	strhi	r8, [r8], -r9, lsl #10
     f34:	88068707 	stmdahi	r6, {r0, r1, r2, r8, r9, sl, pc}
     f38:	8a048905 	bhi	123354 <shift+0x123354>
     f3c:	8e028b03 	vmlahi.f64	d8, d2, d3
     f40:	b00e4101 	andlt	r4, lr, r1, lsl #2
     f44:	070c4101 	streq	r4, [ip, -r1, lsl #2]
     f48:	790301a0 	stmdbvc	r3, {r5, r7, r8}
     f4c:	41240e03 			; <UNDEFINED> instruction: 0x41240e03
     f50:	00000d0d 	andeq	r0, r0, sp, lsl #26
     f54:	00000020 	andeq	r0, r0, r0, lsr #32
     f58:	00000d6c 	andeq	r0, r0, ip, ror #26
     f5c:	800033bc 			; <UNDEFINED> instruction: 0x800033bc
     f60:	00000034 	andeq	r0, r0, r4, lsr r0
     f64:	87080e41 	strhi	r0, [r8, -r1, asr #28]
     f68:	41018e02 	tstmi	r1, r2, lsl #28
     f6c:	0d41200e 	stcleq	0, cr2, [r1, #-56]	; 0xffffffc8
     f70:	080e5507 	stmdaeq	lr, {r0, r1, r2, r8, sl, ip, lr}
     f74:	000d0d41 	andeq	r0, sp, r1, asr #26
     f78:	00000030 	andeq	r0, r0, r0, lsr r0
     f7c:	00000d6c 	andeq	r0, r0, ip, ror #26
     f80:	800033f0 	strdhi	r3, [r0], -r0
     f84:	00000030 	andeq	r0, r0, r0, lsr r0
     f88:	82080e41 	andhi	r0, r8, #1040	; 0x410
     f8c:	41018302 	tstmi	r1, r2, lsl #6
     f90:	0487100e 	streq	r1, [r7], #14
     f94:	0e41038e 	cdpeq	3, 4, cr0, cr1, cr14, {4}
     f98:	070d4120 	streq	r4, [sp, -r0, lsr #2]
     f9c:	41100e4f 	tstmi	r0, pc, asr #28
     fa0:	ce420d0d 	cdpgt	13, 4, cr0, cr2, cr13, {0}
     fa4:	41080ec7 	smlabtmi	r8, r7, lr, r0
     fa8:	000ec2c3 	andeq	ip, lr, r3, asr #5
     fac:	00000030 	andeq	r0, r0, r0, lsr r0
     fb0:	00000d6c 	andeq	r0, r0, ip, ror #26
     fb4:	80003420 	andhi	r3, r0, r0, lsr #8
     fb8:	0000003e 	andeq	r0, r0, lr, lsr r0
     fbc:	82080e41 	andhi	r0, r8, #1040	; 0x410
     fc0:	41018302 	tstmi	r1, r2, lsl #6
     fc4:	0487100e 	streq	r1, [r7], #14
     fc8:	0e41038e 	cdpeq	3, 4, cr0, cr1, cr14, {4}
     fcc:	070d4120 	streq	r4, [sp, -r0, lsr #2]
     fd0:	41100e56 	tstmi	r0, r6, asr lr
     fd4:	ce420d0d 	cdpgt	13, 4, cr0, cr2, cr13, {0}
     fd8:	41080ec7 	smlabtmi	r8, r7, lr, r0
     fdc:	000ec2c3 	andeq	ip, lr, r3, asr #5
     fe0:	00000020 	andeq	r0, r0, r0, lsr #32
     fe4:	00000d6c 	andeq	r0, r0, ip, ror #26
     fe8:	8000345e 	andhi	r3, r0, lr, asr r4
     fec:	00000024 	andeq	r0, r0, r4, lsr #32
     ff0:	87080e41 	strhi	r0, [r8, -r1, asr #28]
     ff4:	41018e02 	tstmi	r1, r2, lsl #28
     ff8:	0d41180e 	stcleq	8, cr1, [r1, #-56]	; 0xffffffc8
     ffc:	080e4d07 	stmdaeq	lr, {r0, r1, r2, r8, sl, fp, lr}
    1000:	000d0d41 	andeq	r0, sp, r1, asr #26
    1004:	00000034 	andeq	r0, r0, r4, lsr r0
    1008:	00000d6c 	andeq	r0, r0, ip, ror #26
    100c:	80003482 	andhi	r3, r0, r2, lsl #9
    1010:	0000002e 	andeq	r0, r0, lr, lsr #32
    1014:	810c0e41 	tsthi	ip, r1, asr #28
    1018:	83028203 	movwhi	r8, #8707	; 0x2203
    101c:	140e4101 	strne	r4, [lr], #-257	; 0xfffffeff
    1020:	048e0587 	streq	r0, [lr], #1415	; 0x587
    1024:	41280e41 			; <UNDEFINED> instruction: 0x41280e41
    1028:	0e4e070d 	cdpeq	7, 4, cr0, cr14, cr13, {0}
    102c:	0d0d4114 	stfeqs	f4, [sp, #-80]	; 0xffffffb0
    1030:	0ec7ce42 	cdpeq	14, 12, cr12, cr7, cr2, {2}
    1034:	c2c3410c 	sbcgt	r4, r3, #12, 2
    1038:	00000ec1 	andeq	r0, r0, r1, asr #29
    103c:	00000024 	andeq	r0, r0, r4, lsr #32
    1040:	00000d6c 	andeq	r0, r0, ip, ror #26
    1044:	800034b0 			; <UNDEFINED> instruction: 0x800034b0
    1048:	000006ec 	andeq	r0, r0, ip, ror #13
    104c:	840c0e41 	strhi	r0, [ip], #-3649	; 0xfffff1bf
    1050:	8e028703 	cdphi	7, 0, cr8, cr2, cr3, {0}
    1054:	780e4101 	stmdavc	lr, {r0, r8, lr}
    1058:	03070d41 	movweq	r0, #32065	; 0x7d41
    105c:	0c0e036d 	stceq	3, cr0, [lr], {109}	; 0x6d
    1060:	000d0d41 	andeq	r0, sp, r1, asr #26
    1064:	00000034 	andeq	r0, r0, r4, lsr r0
    1068:	00000d6c 	andeq	r0, r0, ip, ror #26
    106c:	80003b9c 	mulhi	r0, ip, fp
    1070:	0000002e 	andeq	r0, r0, lr, lsr #32
    1074:	810c0e41 	tsthi	ip, r1, asr #28
    1078:	83028203 	movwhi	r8, #8707	; 0x2203
    107c:	140e4101 	strne	r4, [lr], #-257	; 0xfffffeff
    1080:	048e0587 	streq	r0, [lr], #1415	; 0x587
    1084:	41280e41 			; <UNDEFINED> instruction: 0x41280e41
    1088:	0e4e070d 	cdpeq	7, 4, cr0, cr14, cr13, {0}
    108c:	0d0d4114 	stfeqs	f4, [sp, #-80]	; 0xffffffb0
    1090:	0ec7ce42 	cdpeq	14, 12, cr12, cr7, cr2, {2}
    1094:	c2c3410c 	sbcgt	r4, r3, #12, 2
    1098:	00000ec1 	andeq	r0, r0, r1, asr #29
    109c:	0000000c 	andeq	r0, r0, ip
    10a0:	ffffffff 			; <UNDEFINED> instruction: 0xffffffff
    10a4:	7c010001 	stcvc	0, cr0, [r1], {1}
    10a8:	000d0c0e 	andeq	r0, sp, lr, lsl #24
    10ac:	0000000c 	andeq	r0, r0, ip
    10b0:	0000109c 	muleq	r0, ip, r0
    10b4:	80003bd1 	ldrdhi	r3, [r0], -r1
    10b8:	0000025c 	andeq	r0, r0, ip, asr r2
    10bc:	0000000c 	andeq	r0, r0, ip
    10c0:	ffffffff 			; <UNDEFINED> instruction: 0xffffffff
    10c4:	7c020001 	stcvc	0, cr0, [r2], {1}
    10c8:	000d0c0e 	andeq	r0, sp, lr, lsl #24
    10cc:	00000018 	andeq	r0, r0, r8, lsl r0
    10d0:	000010bc 	strheq	r1, [r0], -ip
    10d4:	80003e48 	andhi	r3, r0, r8, asr #28
    10d8:	00000030 	andeq	r0, r0, r0, lsr r0
    10dc:	8e100e50 	mrchi	14, 0, r0, cr0, cr0, {2}
    10e0:	0ece4703 	cdpeq	7, 12, cr4, cr14, cr3, {0}
    10e4:	00000010 	andeq	r0, r0, r0, lsl r0
    10e8:	0000000c 	andeq	r0, r0, ip
    10ec:	ffffffff 			; <UNDEFINED> instruction: 0xffffffff
    10f0:	7c020001 	stcvc	0, cr0, [r2], {1}
    10f4:	000d0c0e 	andeq	r0, sp, lr, lsl #24
    10f8:	00000020 	andeq	r0, r0, r0, lsr #32
    10fc:	000010e8 	andeq	r1, r0, r8, ror #1
    1100:	80003e84 	andhi	r3, r0, r4, lsl #29
    1104:	00000116 	andeq	r0, r0, r6, lsl r1
    1108:	841c0e42 	ldrhi	r0, [ip], #-3650	; 0xfffff1be
    110c:	86068507 	strhi	r8, [r6], -r7, lsl #10
    1110:	88048705 	stmdahi	r4, {r0, r2, r8, r9, sl, pc}
    1114:	8e028903 	vmlahi.f16	s16, s4, s6	; <UNPREDICTABLE>
    1118:	00000001 	andeq	r0, r0, r1

Disassembly of section .debug_loc:

00000000 <.debug_loc>:
   0:	00000000 	andeq	r0, r0, r0
   4:	0000000c 	andeq	r0, r0, ip
   8:	93500006 	cmpls	r0, #6
   c:	04935104 	ldreq	r5, [r3], #260	; 0x104
  10:	0000000c 	andeq	r0, r0, ip
  14:	00000116 	andeq	r0, r0, r6, lsl r1
  18:	03f30006 	mvnseq	r0, #6
  1c:	9f2500f5 	svcls	0x002500f5
	...
  2c:	00000014 	andeq	r0, r0, r4, lsl r0
  30:	93520006 	cmpls	r2, #6
  34:	04935304 	ldreq	r5, [r3], #772	; 0x304
  38:	00000014 	andeq	r0, r0, r4, lsl r0
  3c:	00000116 	andeq	r0, r0, r6, lsl r1
  40:	03f30006 	mvnseq	r0, #6
  44:	9f2502f5 	svcls	0x002502f5
	...
  54:	000000fc 	strdeq	r0, [r0], -ip
  58:	00910002 	addseq	r0, r1, r2
  5c:	000000fc 	strdeq	r0, [r0], -ip
  60:	00000116 	andeq	r0, r0, r6, lsl r1
  64:	00910002 	addseq	r0, r1, r2
	...
  74:	00000076 	andeq	r0, r0, r6, ror r0
  78:	089e000a 	ldmeq	lr, {r1, r3}
	...
  84:	00000076 	andeq	r0, r0, r6, ror r0
  88:	000000c0 	andeq	r0, r0, r0, asr #1
  8c:	93500006 	cmpls	r0, #6
  90:	04935104 	ldreq	r5, [r3], #260	; 0x104
  94:	000000ca 	andeq	r0, r0, sl, asr #1
  98:	000000ea 	andeq	r0, r0, sl, ror #1
  9c:	93500006 	cmpls	r0, #6
  a0:	04935104 	ldreq	r5, [r3], #260	; 0x104
  a4:	000000f2 	strdeq	r0, [r0], -r2
  a8:	000000fc 	strdeq	r0, [r0], -ip
  ac:	93500006 	cmpls	r0, #6
  b0:	04935104 	ldreq	r5, [r3], #260	; 0x104
  b4:	000000fc 	strdeq	r0, [r0], -ip
  b8:	00000116 	andeq	r0, r0, r6, lsl r1
  bc:	089e000a 	ldmeq	lr, {r1, r3}
	...
  d0:	0000000a 	andeq	r0, r0, sl
  d4:	00000062 	andeq	r0, r0, r2, rrx
  d8:	93540006 	cmpls	r4, #6
  dc:	04935504 	ldreq	r5, [r3], #1284	; 0x504
  e0:	00000076 	andeq	r0, r0, r6, ror r0
  e4:	00000084 	andeq	r0, r0, r4, lsl #1
  e8:	93540006 	cmpls	r4, #6
  ec:	04935504 	ldreq	r5, [r3], #1284	; 0x504
  f0:	00000092 	muleq	r0, r2, r0
  f4:	000000a0 	andeq	r0, r0, r0, lsr #1
  f8:	93540006 	cmpls	r4, #6
  fc:	04935504 	ldreq	r5, [r3], #1284	; 0x504
 100:	000000a2 	andeq	r0, r0, r2, lsr #1
 104:	000000c8 	andeq	r0, r0, r8, asr #1
 108:	93540006 	cmpls	r4, #6
 10c:	04935504 	ldreq	r5, [r3], #1284	; 0x504
 110:	000000cc 	andeq	r0, r0, ip, asr #1
 114:	00000116 	andeq	r0, r0, r6, lsl r1
 118:	93540006 	cmpls	r4, #6
 11c:	04935504 	ldreq	r5, [r3], #1284	; 0x504
	...
 128:	0000000e 	andeq	r0, r0, lr
 12c:	00000018 	andeq	r0, r0, r8, lsl r0
 130:	93500006 	cmpls	r0, #6
 134:	04935104 	ldreq	r5, [r3], #260	; 0x104
 138:	0000004e 	andeq	r0, r0, lr, asr #32
 13c:	000000ae 	andeq	r0, r0, lr, lsr #1
 140:	93560006 	cmpls	r6, #6
 144:	04935704 	ldreq	r5, [r3], #1796	; 0x704
	...
 150:	0000010c 	andeq	r0, r0, ip, lsl #2
 154:	00000116 	andeq	r0, r0, r6, lsl r1
 158:	00560001 	subseq	r0, r6, r1
 15c:	00000000 	andeq	r0, r0, r0
 160:	2c000000 	stccs	0, cr0, [r0], {-0}
 164:	2e000000 	cdpcs	0, 0, cr0, cr0, cr0, {0}
 168:	01000000 	mrseq	r0, (UNDEF: 0)
 16c:	00005300 	andeq	r5, r0, r0, lsl #6
 170:	00000000 	andeq	r0, r0, r0
 174:	00800000 	addeq	r0, r0, r0
 178:	00920000 	addseq	r0, r2, r0
 17c:	00010000 	andeq	r0, r1, r0
 180:	00009253 	andeq	r9, r0, r3, asr r2
 184:	00009400 	andeq	r9, r0, r0, lsl #8
 188:	73000300 	movwvc	r0, #768	; 0x300
 18c:	00949f7f 	addseq	r9, r4, pc, ror pc
 190:	00a20000 	adceq	r0, r2, r0
 194:	00010000 	andeq	r0, r1, r0
 198:	0000a253 	andeq	sl, r0, r3, asr r2
 19c:	0000a400 	andeq	sl, r0, r0, lsl #8
 1a0:	73000300 	movwvc	r0, #768	; 0x300
 1a4:	00a49f7f 	adceq	r9, r4, pc, ror pc
 1a8:	00b60000 	adcseq	r0, r6, r0
 1ac:	00010000 	andeq	r0, r1, r0
 1b0:	00000053 	andeq	r0, r0, r3, asr r0
 1b4:	00000000 	andeq	r0, r0, r0
 1b8:	00002e00 	andeq	r2, r0, r0, lsl #28
 1bc:	00008200 	andeq	r8, r0, r0, lsl #4
 1c0:	53000100 	movwpl	r0, #256	; 0x100
 1c4:	00000082 	andeq	r0, r0, r2, lsl #1
 1c8:	000000f2 	strdeq	r0, [r0], -r2
 1cc:	005e0001 	subseq	r0, lr, r1
 1d0:	00000000 	andeq	r0, r0, r0
 1d4:	Address 0x00000000000001d4 is out of bounds.

